(imodel.Compound
Compound
p1
(dp2
S'name'
p3
S'Unnamed'
p4
sS'isModified'
p5
I01
sS'ccpCode'
p6
NsS'atoms'
p7
c__builtin__
set
p8
((lp9
(imodel.Atom
Atom
p10
(dp11
g3
S'C3'
p12
sS'compound'
p13
g1
sS'baseValences'
p14
I4
sS'element'
p15
S'C'
sS'isVariable'
p16
I00
sS'varAtoms'
p17
g8
((lp18
(imodel.VarAtom
VarAtom
p19
(dp20
S'neighbours'
p21
g8
((lp22
(imodel.VarAtom
VarAtom
p23
(dp24
g21
g8
((lp25
g19
a(imodel.VarAtom
VarAtom
p26
(dp27
g21
g8
((lp28
(imodel.VarAtom
VarAtom
p29
(dp30
g21
g8
((lp31
(imodel.VarAtom
VarAtom
p32
(dp33
g21
g8
((lp34
g29
ag19
atRp35
sg3
S'C2'
p36
sS'isLabile'
p37
I00
sS'chirality'
p38
NsS'atom'
p39
(imodel.Atom
Atom
p40
(dp41
g3
g36
sg13
g1
sg14
I4
sg15
S'C'
sg16
I00
sg17
g8
((lp42
g32
atRp43
sS'isDeleted'
p44
I00
sbsS'variant'
p45
(imodel.Variant
Variant
p46
(dp47
S'elementDict'
p48
(dp49
S'C'
g8
((lp50
g29
ag32
ag19
ag23
ag26
atRp51
ssS'bonds'
p52
g8
((lp53
(imodel.Bond
Bond
p54
(dp55
S'bondType'
p56
S'single'
p57
sg13
g1
sg45
g46
sg17
g8
((lp58
g19
ag23
atRp59
sba(imodel.Bond
Bond
p60
(dp61
g56
g57
sg13
g1
sg45
g46
sg17
g8
((lp62
g23
ag26
atRp63
sba(imodel.Bond
Bond
p64
(dp65
g56
g57
sg13
g1
sg45
g46
sg17
g8
((lp66
g29
ag32
atRp67
sba(imodel.Bond
Bond
p68
(dp69
g56
g57
sg13
g1
sg45
g46
sg17
g8
((lp70
g29
ag26
atRp71
sba(imodel.Bond
Bond
p72
(dp73
g56
g57
sg13
g1
sg45
g46
sg17
g8
((lp74
g32
ag19
atRp75
sbatRp76
sg13
g1
sS'atomDict'
p77
(dp78
g10
g19
s(imodel.Atom
Atom
p79
(dp80
g3
S'C5'
p81
sg13
g1
sg14
I4
sg15
S'C'
sg16
I00
sg17
g8
((lp82
g26
atRp83
sg44
I00
sbg26
s(imodel.Atom
Atom
p84
(dp85
g3
S'C1'
p86
sg13
g1
sg14
I4
sg15
S'C'
sg16
I00
sg17
g8
((lp87
g29
atRp88
sg44
I00
sbg29
sg40
g32
s(imodel.Atom
Atom
p89
(dp90
g3
S'C4'
p91
sg13
g1
sg14
I4
sg15
S'C'
sg16
I00
sg17
g8
((lp92
g23
atRp93
sg44
I00
sbg23
ssS'descriptor'
p94
(S'neutral'
p95
S'none'
p96
S'default'
p97
tp98
sg17
g8
((lp99
g29
ag32
ag19
ag23
ag26
atRp100
sS'atomGroups'
p101
g8
((ltRp102
sS'polyLink'
p103
g96
sbsS'charge'
p104
I0
sg15
S'C'
sg16
I00
sS'coords'
p105
(F223.96969663099492
F109.59744289417522
F0.49325184701301084
tp106
sS'freeValences'
p107
(lp108
F2.2655221707730697
aF3.7266418717832415
asg13
g1
sg101
g8
((ltRp109
sg52
g8
((lp110
g64
ag72
atRp111
sg44
I00
sbag26
atRp112
sg3
g86
sg37
I00
sg38
Nsg39
g84
sg45
g46
sg104
I0
sg15
S'C'
sg16
I00
sg105
(F179.24301013993446
F132.62020677724971
F0.32319529190442753
tp113
sg107
(lp114
F3.5180634695712314
aF4.9899580199388565
asg13
g1
sg101
g8
((ltRp115
sg52
g8
((lp116
g64
ag68
atRp117
sg44
I00
sbag23
atRp118
sg3
g81
sg37
I00
sg38
Nsg39
g79
sg45
g46
sg104
I0
sg15
S'C'
sg16
I00
sg105
(F188.18292055116183
F182.12329210681213
F0.5267248572123816
tp119
sg107
(lp120
F4.7819271062516231
aF6.243594295786556
asg13
g1
sg101
g8
((ltRp121
sg52
g8
((lp122
g68
ag60
atRp123
sg44
I00
sbatRp124
sg3
g91
sg37
I00
sg38
Nsg39
g89
sg45
g46
sg104
I0
sg15
S'C'
sg16
I00
sg105
(F237.92980612333088
F189.57668813646549
F0.2882442543629441
tp125
sg107
(lp126
F6.0311221677950364
aF1.2153901966787757
asg13
g1
sg101
g8
((ltRp127
sg52
g8
((lp128
g54
ag60
atRp129
sg44
I00
sbag32
atRp130
sg3
g12
sg37
I00
sg38
Nsg39
g10
sg45
g46
sg104
I0
sg15
S'C'
sg16
I00
sg105
(F260.20309389629153
F144.47918356393347
F0.25076895074328687
tp131
sg107
(lp132
F1.0094989605524498
aF2.4777470419525773
asg13
g1
sg101
g8
((ltRp133
sg52
g8
((lp134
g54
ag72
atRp135
sg44
I00
sbatRp136
sg44
I00
sbag79
ag84
ag40
ag89
atRp137
sS'ccpMolType'
p138
S'other'
p139
sS'details'
p140
V
sg77
(dp141
g12
g10
sg36
g40
sg86
g84
sg81
g79
sg91
g89
ssS'keywords'
p142
g8
((ltRp143
sg101
g8
((ltRp144
sS'variants'
p145
g8
((lp146
g46
atRp147
sS'defaultVars'
p148
g8
((ltRp149
sb.