(imodel.Compound
Compound
p1
(dp2
S'name'
p3
S'Unnamed'
p4
sS'isModified'
p5
I01
sS'ccpCode'
p6
NsS'atoms'
p7
c__builtin__
set
p8
((lp9
(imodel.Atom
Atom
p10
(dp11
g3
S'C1'
p12
sS'compound'
p13
g1
sS'baseValences'
p14
I4
sS'element'
p15
S'C'
sS'isVariable'
p16
I00
sS'varAtoms'
p17
g8
((lp18
(imodel.VarAtom
VarAtom
p19
(dp20
S'neighbours'
p21
g8
((lp22
(imodel.VarAtom
VarAtom
p23
(dp24
g21
g8
((lp25
(imodel.VarAtom
VarAtom
p26
(dp27
g21
g8
((lp28
g23
a(imodel.VarAtom
VarAtom
p29
(dp30
g21
g8
((lp31
g26
ag19
atRp32
sg3
S'C4'
p33
sS'isLabile'
p34
I00
sS'chirality'
p35
NsS'atom'
p36
(imodel.Atom
Atom
p37
(dp38
g3
g33
sg13
g1
sg14
I4
sg15
S'C'
sg16
I00
sg17
g8
((lp39
g29
atRp40
sS'isDeleted'
p41
I00
sbsS'variant'
p42
(imodel.Variant
Variant
p43
(dp44
S'elementDict'
p45
(dp46
S'C'
g8
((lp47
g19
ag23
ag29
ag26
atRp48
ssS'bonds'
p49
g8
((lp50
(imodel.Bond
Bond
p51
(dp52
S'bondType'
p53
S'single'
p54
sg13
g1
sg42
g43
sg17
g8
((lp55
g23
ag26
atRp56
sba(imodel.Bond
Bond
p57
(dp58
g53
g54
sg13
g1
sg42
g43
sg17
g8
((lp59
g29
ag26
atRp60
sba(imodel.Bond
Bond
p61
(dp62
g53
g54
sg13
g1
sg42
g43
sg17
g8
((lp63
g19
ag29
atRp64
sba(imodel.Bond
Bond
p65
(dp66
g53
g54
sg13
g1
sg42
g43
sg17
g8
((lp67
g19
ag23
atRp68
sbatRp69
sg13
g1
sS'atomDict'
p70
(dp71
g10
g19
s(imodel.Atom
Atom
p72
(dp73
g3
S'C2'
p74
sg13
g1
sg14
I4
sg15
S'C'
sg16
I00
sg17
g8
((lp75
g23
atRp76
sg41
I00
sbg23
s(imodel.Atom
Atom
p77
(dp78
g3
S'C3'
p79
sg13
g1
sg14
I4
sg15
S'C'
sg16
I00
sg17
g8
((lp80
g26
atRp81
sg41
I00
sbg26
sg37
g29
ssS'descriptor'
p82
(S'neutral'
p83
S'none'
p84
S'default'
p85
tp86
sg17
g8
((lp87
g19
ag23
ag29
ag26
atRp88
sS'atomGroups'
p89
g8
((ltRp90
sS'polyLink'
p91
g84
sbsS'charge'
p92
I0
sg15
S'C'
sg16
I00
sS'coords'
p93
(F226.91832862793859
F197.34371347288049
F1.4530644774719161
tp94
sS'freeValences'
p95
(lp96
F4.8013762593725557
aF0.090328470118580917
asg13
g1
sg89
g8
((ltRp97
sg49
g8
((lp98
g57
ag61
atRp99
sg41
I00
sbatRp100
sg3
g79
sg34
I00
sg35
Nsg36
g77
sg42
g43
sg92
I0
sg15
S'C'
sg16
I00
sg93
(F276.90883730042731
F192.74822078436219
F0.26463370822527132
tp101
sg95
(lp102
F0.090373587422845958
aF1.6598738403912794
asg13
g1
sg89
g8
((ltRp103
sg49
g8
((lp104
g51
ag57
atRp105
sg41
I00
sbag19
atRp106
sg3
g74
sg34
I00
sg35
Nsg36
g72
sg42
g43
sg92
I0
sg15
S'C'
sg16
I00
sg93
(F272.50780734930714
F142.74083896370146
F0.50046737698290311
tp107
sg95
(lp108
F1.6599200027115386
aF3.2320585656531717
asg13
g1
sg89
g8
((ltRp109
sg49
g8
((lp110
g51
ag65
atRp111
sg41
I00
sbag29
atRp112
sg3
g12
sg34
I00
sg35
Nsg36
g10
sg42
g43
sg92
I0
sg15
S'C'
sg16
I00
sg93
(F222.52467343733065
F147.34263430694665
F0.20462925857358227
tp113
sg95
(lp114
F3.2320134483489058
aF4.8014224216928145
asg13
g1
sg89
g8
((ltRp115
sg49
g8
((lp116
g65
ag61
atRp117
sg41
I00
sbatRp118
sg41
I00
sbag72
ag77
ag37
atRp119
sS'ccpMolType'
p120
S'other'
p121
sS'details'
p122
V
sg70
(dp123
g79
g77
sg74
g72
sg12
g10
sg33
g37
ssS'keywords'
p124
g8
((ltRp125
sg89
g8
((ltRp126
sS'variants'
p127
g8
((lp128
g43
atRp129
sS'defaultVars'
p130
g8
((ltRp131
sb.