(imodel.Compound
Compound
p1
(dp2
S'name'
p3
VUnnamed
p4
sS'isModified'
p5
I01
sS'ccpCode'
p6
NsS'atoms'
p7
c__builtin__
set
p8
((lp9
(imodel.Atom
Atom
p10
(dp11
S'name'
p12
S'C2'
p13
sS'compound'
p14
g1
sS'baseValences'
p15
I4
sS'element'
p16
S'C'
sS'isVariable'
p17
I00
sS'varAtoms'
p18
g8
((lp19
(imodel.VarAtom
VarAtom
p20
(dp21
S'neighbours'
p22
g8
((lp23
(imodel.VarAtom
VarAtom
p24
(dp25
g22
g8
((lp26
(imodel.VarAtom
VarAtom
p27
(dp28
g22
g8
((lp29
(imodel.VarAtom
VarAtom
p30
(dp31
g22
g8
((lp32
(imodel.VarAtom
VarAtom
p33
(dp34
g22
g8
((lp35
g30
a(imodel.VarAtom
VarAtom
p36
(dp37
g22
g8
((lp38
(imodel.VarAtom
VarAtom
p39
(dp40
g22
g8
((lp41
g36
ag20
atRp42
sg12
S'C3'
p43
sS'isLabile'
p44
I00
sS'chirality'
p45
NsS'atom'
p46
(imodel.Atom
Atom
p47
(dp48
g12
g43
sg14
g1
sg15
I4
sg16
S'C'
sg17
I00
sg18
g8
((lp49
g39
atRp50
sS'isDeleted'
p51
I00
sbsS'variant'
p52
(imodel.Variant
Variant
p53
(dp54
S'elementDict'
p55
(dp56
S'C'
g8
((lp57
g36
ag20
ag33
ag24
ag27
ag30
ag39
atRp58
ssS'bonds'
p59
g8
((lp60
(imodel.Bond
Bond
p61
(dp62
S'bondType'
p63
S'single'
p64
sg14
g1
sg52
g53
sg18
g8
((lp65
g27
ag30
atRp66
sba(imodel.Bond
Bond
p67
(dp68
g63
g64
sg14
g1
sg52
g53
sg18
g8
((lp69
g36
ag39
atRp70
sba(imodel.Bond
Bond
p71
(dp72
g63
g64
sg14
g1
sg52
g53
sg18
g8
((lp73
g36
ag33
atRp74
sba(imodel.Bond
Bond
p75
(dp76
g63
g64
sg14
g1
sg52
g53
sg18
g8
((lp77
g33
ag30
atRp78
sba(imodel.Bond
Bond
p79
(dp80
g63
g64
sg14
g1
sg52
g53
sg18
g8
((lp81
g27
ag24
atRp82
sba(imodel.Bond
Bond
p83
(dp84
g63
g64
sg14
g1
sg52
g53
sg18
g8
((lp85
g24
ag20
atRp86
sba(imodel.Bond
Bond
p87
(dp88
g63
g64
sg14
g1
sg52
g53
sg18
g8
((lp89
g20
ag39
atRp90
sbatRp91
sS'compound'
p92
g1
sS'descriptor'
p93
(S'neutral'
p94
S'none'
p95
S'default'
p96
tp97
sS'atomDict'
p98
(dp99
g10
g20
s(imodel.Atom
Atom
p100
(dp101
g12
S'C6'
p102
sg14
g1
sg15
I4
sg16
S'C'
sg17
I00
sg18
g8
((lp103
g30
atRp104
sg51
I00
sbg30
s(imodel.Atom
Atom
p105
(dp106
g12
S'C4'
p107
sg14
g1
sg15
I4
sg16
S'C'
sg17
I00
sg18
g8
((lp108
g36
atRp109
sg51
I00
sbg36
s(imodel.Atom
Atom
p110
(dp111
g12
S'C1'
p112
sg14
g1
sg15
I4
sg16
S'C'
sg17
I00
sg18
g8
((lp113
g24
atRp114
sg51
I00
sbg24
s(imodel.Atom
Atom
p115
(dp116
g12
S'C5'
p117
sg14
g1
sg15
I4
sg16
S'C'
sg17
I00
sg18
g8
((lp118
g33
atRp119
sg51
I00
sbg33
sg47
g39
s(imodel.Atom
Atom
p120
(dp121
g12
S'C7'
p122
sg14
g1
sg15
I4
sg16
S'C'
sg17
I00
sg18
g8
((lp123
g27
atRp124
sg51
I00
sbg27
ssS'varAtoms'
p125
g8
((lp126
g36
ag20
ag33
ag24
ag27
ag30
ag39
atRp127
sS'atomGroups'
p128
g8
((ltRp129
sS'polyLink'
p130
g95
sbsS'charge'
p131
I0
sg16
S'C'
sg17
I00
sS'coords'
p132
(F-57.51711028742622
F-85.459692182019779
F0.61807259955967508
tp133
sS'freeValences'
p134
(lp135
F2.7068666872584104
aF5.8484593408482102
asg14
g1
sS'atomGroups'
p136
g8
((ltRp137
sS'bonds'
p138
g8
((lp139
g67
ag87
atRp140
sg51
I00
sbag33
atRp141
sg12
g107
sg44
I00
sg45
Nsg46
g105
sg52
g53
sg131
I0
sg16
S'C'
sg17
I00
sg132
(F-24.075237043836388
F-47.963274130247946
F0.16755744810915707
tp142
sg134
(lp143
F1.9039365216503104
aF5.0455291752401106
asg14
g1
sg136
g8
((ltRp144
sg138
g8
((lp145
g67
ag71
atRp146
sg51
I00
sbatRp147
sg12
g117
sg44
I00
sg45
Nsg46
g115
sg52
g53
sg131
I0
sg16
S'C'
sg17
I00
sg132
(F-27.189137452201273
F2.1771372274274015
F0.53819554144709025
tp148
sg134
(lp149
F0.99355651832490732
aF4.1351491719147075
asg14
g1
sg136
g8
((ltRp150
sg138
g8
((lp151
g75
ag71
atRp152
sg51
I00
sbag27
atRp153
sg12
g102
sg44
I00
sg45
Nsg46
g100
sg52
g53
sg131
I0
sg16
S'C'
sg17
I00
sg132
(F-71.790234347532632
F25.302965724690985
F0.36782790156536382
tp154
sg134
(lp155
F0.0061257831396490658
aF3.1477184367294493
asg14
g1
sg136
g8
((ltRp156
sg138
g8
((lp157
g75
ag61
atRp158
sg51
I00
sbag24
atRp159
sg12
g122
sg44
I00
sg45
Nsg46
g120
sg52
g53
sg131
I0
sg16
S'C'
sg17
I00
sg132
(F-116.67132964743072
F2.7252797762884953
F0.89779733402173623
tp160
sg134
(lp161
F5.4456994890604928
aF2.3041068354706926
asg14
g1
sg136
g8
((ltRp162
sg138
g8
((lp163
g61
ag79
atRp164
sg51
I00
sbag20
atRp165
sg12
g112
sg44
I00
sg45
Nsg46
g110
sg52
g53
sg131
I0
sg16
S'C'
sg17
I00
sg132
(F-134.46169600079526
F-44.265915429334378
F0.00053178586584645693
tp166
sg134
(lp167
F4.6129941492633844
aF1.4714014956735839
asg14
g1
sg136
g8
((ltRp168
sg138
g8
((lp169
g79
ag83
atRp170
sg51
I00
sbag39
atRp171
sg12
g13
sg44
I00
sg45
Nsg46
g10
sg52
g53
sg131
I0
sg16
S'C'
sg17
I00
sg132
(F-107.74438981048412
F-86.814145066027606
F0.30227276885178456
tp172
sg134
(lp173
F3.6331591212222563
aF0.49156646763245604
asg14
g1
sg136
g8
((ltRp174
sg138
g8
((lp175
g83
ag87
atRp176
sg51
I00
sbatRp177
sg51
I00
sbag100
ag105
ag110
ag115
ag47
ag120
atRp178
sS'ccpMolType'
p179
S'other'
p180
sS'details'
p181
V
sg98
(dp182
g43
g47
sg13
g10
sg112
g110
sg122
g120
sg102
g100
sg117
g115
sg107
g105
ssS'keywords'
p183
g8
((ltRp184
sg128
g8
((ltRp185
sS'variants'
p186
g8
((lp187
g53
atRp188
sS'defaultVars'
p189
g8
((ltRp190
sb.