(imodel.Compound
Compound
p1
(dp2
S'name'
p3
S'Unnamed'
p4
sS'isModified'
p5
I01
sS'ccpCode'
p6
NsS'atoms'
p7
c__builtin__
set
p8
((lp9
(imodel.Atom
Atom
p10
(dp11
g3
S'C1'
p12
sS'compound'
p13
g1
sS'baseValences'
p14
I4
sS'element'
p15
S'C'
sS'isVariable'
p16
I00
sS'varAtoms'
p17
g8
((lp18
(imodel.VarAtom
VarAtom
p19
(dp20
S'neighbours'
p21
g8
((lp22
(imodel.VarAtom
VarAtom
p23
(dp24
g21
g8
((lp25
(imodel.VarAtom
VarAtom
p26
(dp27
g21
g8
((lp28
g23
ag19
atRp29
sg3
S'C3'
p30
sS'isLabile'
p31
I00
sS'chirality'
p32
NsS'atom'
p33
(imodel.Atom
Atom
p34
(dp35
g3
g30
sg13
g1
sg14
I4
sg15
S'C'
sg16
I00
sg17
g8
((lp36
g26
atRp37
sS'isDeleted'
p38
I00
sbsS'variant'
p39
(imodel.Variant
Variant
p40
(dp41
S'elementDict'
p42
(dp43
S'C'
g8
((lp44
g19
ag23
ag26
atRp45
ssS'bonds'
p46
g8
((lp47
(imodel.Bond
Bond
p48
(dp49
S'bondType'
p50
S'single'
p51
sg13
g1
sg39
g40
sg17
g8
((lp52
g23
ag26
atRp53
sba(imodel.Bond
Bond
p54
(dp55
g50
g51
sg13
g1
sg39
g40
sg17
g8
((lp56
g19
ag26
atRp57
sba(imodel.Bond
Bond
p58
(dp59
g50
g51
sg13
g1
sg39
g40
sg17
g8
((lp60
g19
ag23
atRp61
sbatRp62
sg13
g1
sS'atomDict'
p63
(dp64
g10
g19
s(imodel.Atom
Atom
p65
(dp66
g3
S'C2'
p67
sg13
g1
sg14
I4
sg15
S'C'
sg16
I00
sg17
g8
((lp68
g23
atRp69
sg38
I00
sbg23
sg34
g26
ssS'descriptor'
p70
(S'neutral'
p71
S'none'
p72
S'default'
p73
tp74
sg17
g8
((lp75
g19
ag23
ag26
atRp76
sS'atomGroups'
p77
g8
((ltRp78
sS'polyLink'
p79
g72
sbsS'charge'
p80
I0
sg15
S'C'
sg16
I00
sS'coords'
p81
(F251.47822429649366
F188.07545656816819
F0.50412170999839445
tp82
sS'freeValences'
p83
(lp84
F5.5031759707458621
aF0.96362563285394032
asg13
g1
sg77
g8
((ltRp85
sg46
g8
((lp86
g48
ag54
atRp87
sg38
I00
sbag19
atRp88
sg3
g67
sg31
I00
sg32
Nsg33
g65
sg39
g40
sg80
I0
sg15
S'C'
sg16
I00
sg81
(F272.50780734930714
F142.74083896370146
F0.50046737698290311
tp89
sg83
(lp90
F1.3118443418994854
aF3.058020735247144
asg13
g1
sg77
g8
((ltRp91
sg46
g8
((lp92
g48
ag58
atRp93
sg38
I00
sbag26
atRp94
sg3
g12
sg31
I00
sg32
Nsg33
g10
sg39
g40
sg80
I0
sg15
S'C'
sg16
I00
sg81
(F222.52467343733065
F147.34263430694665
F0.20462925857358227
tp95
sg83
(lp96
F3.4087808683526575
aF5.154957261700317
asg13
g1
sg77
g8
((ltRp97
sg46
g8
((lp98
g58
ag54
atRp99
sg38
I00
sbatRp100
sg38
I00
sbag65
ag34
atRp101
sS'ccpMolType'
p102
S'other'
p103
sS'details'
p104
V
sg63
(dp105
g30
g34
sg67
g65
sg12
g10
ssS'keywords'
p106
g8
((ltRp107
sg77
g8
((ltRp108
sS'variants'
p109
g8
((lp110
g40
atRp111
sS'defaultVars'
p112
g8
((ltRp113
sb.