(imodel.Compound
Compound
p1
(dp2
S'name'
p3
S'Unnamed'
p4
sS'isModified'
p5
I01
sS'ccpCode'
p6
NsS'atoms'
p7
c__builtin__
set
p8
((lp9
(imodel.Atom
Atom
p10
(dp11
g3
S'S1'
p12
sS'compound'
p13
g1
sS'element'
p14
S'S'
sS'isVariable'
p15
I00
sS'varAtoms'
p16
g8
((lp17
(imodel.VarAtom
VarAtom
p18
(dp19
S'neighbours'
p20
g8
((lp21
(imodel.VarAtom
VarAtom
p22
(dp23
g20
g8
((lp24
g18
atRp25
sg3
VS2
p26
sS'isLabile'
p27
I00
sS'chirality'
p28
NsS'atom'
p29
(imodel.Atom
Atom
p30
(dp31
g3
g26
sg13
g1
sg14
S'S'
sg15
I00
sg16
g8
((lp32
g22
atRp33
sS'isDeleted'
p34
I00
sbsS'variant'
p35
(imodel.Variant
Variant
p36
(dp37
S'elementDict'
p38
(dp39
S'C'
g8
((ltRp40
sS'S'
g8
((lp41
g22
ag18
atRp42
sS'O'
g8
((ltRp43
sS'N'
g8
((ltRp44
ssS'bonds'
p45
g8
((lp46
(imodel.Bond
Bond
p47
(dp48
S'bondType'
p49
S'single'
p50
sg13
g1
sg35
g36
sg16
g8
((lp51
g22
ag18
atRp52
sbatRp53
sg13
g1
sS'atomDict'
p54
(dp55
g10
g18
sg30
g22
ssS'descriptor'
p56
(S'neutral'
p57
S'none'
p58
S'default'
p59
tp60
sg16
g8
((lp61
g18
ag22
atRp62
sS'atomGroups'
p63
g8
((ltRp64
sS'polyLink'
p65
g58
sbsS'charge'
p66
I0
sg14
S'S'
sg15
I00
sS'coords'
p67
(F-162.40852192590421
F-119.90554060477913
F1.5842908505172169
tp68
sS'freeValences'
p69
(lp70
F1.5983555832797673
asg13
g1
sg63
g8
((ltRp71
sg45
g8
((lp72
g47
atRp73
sg34
I00
sbatRp74
sg3
g12
sg27
I00
sg28
Nsg29
g10
sg35
g36
sg66
I0
sg14
S'S'
sg15
I00
sg67
(F-212.36218427049459
F-118.52850616920293
F0.53343316229950644
tp75
sg69
(lp76
F4.7399482368695605
asg13
g1
sg63
g8
((ltRp77
sg45
g8
((lp78
g47
atRp79
sg34
I00
sbatRp80
sg34
I00
sbag30
atRp81
sS'ccpMolType'
p82
S'other'
p83
sS'details'
p84
V
sg54
(dp85
g26
g30
sg12
g10
ssS'keywords'
p86
g8
((ltRp87
sg63
g8
((ltRp88
sS'variants'
p89
g8
((lp90
g36
atRp91
sS'defaultVars'
p92
g8
((ltRp93
sb.