(imodel.Compound
Compound
p1
(dp2
S'name'
p3
S'Unnamed'
p4
sS'isModified'
p5
I01
sS'ccpCode'
p6
NsS'atoms'
p7
c__builtin__
set
p8
((lp9
(imodel.Atom
Atom
p10
(dp11
g3
VN
sS'compound'
p12
g1
sS'element'
p13
S'N'
sS'isVariable'
p14
I00
sS'varAtoms'
p15
g8
((lp16
(imodel.VarAtom
VarAtom
p17
(dp18
S'neighbours'
p19
g8
((lp20
(imodel.VarAtom
VarAtom
p21
(dp22
g19
g8
((lp23
(imodel.VarAtom
VarAtom
p24
(dp25
g19
g8
((lp26
g21
atRp27
sg3
VS
sS'isLabile'
p28
I00
sS'chirality'
p29
NsS'atom'
p30
(imodel.Atom
Atom
p31
(dp32
g3
VS
sg12
g1
sg13
S'S'
sg14
I00
sg15
g8
((lp33
g24
atRp34
sS'isDeleted'
p35
I00
sbsS'variant'
p36
(imodel.Variant
Variant
p37
(dp38
S'elementDict'
p39
(dp40
S'C'
g8
((lp41
g21
atRp42
sS'S'
g8
((lp43
g24
atRp44
sS'N'
g8
((lp45
g17
atRp46
ssS'bonds'
p47
g8
((lp48
(imodel.Bond
Bond
p49
(dp50
S'bondType'
p51
S'double'
p52
sg12
g1
sg36
g37
sg15
g8
((lp53
g21
ag24
atRp54
sba(imodel.Bond
Bond
p55
(dp56
g51
g52
sg12
g1
sg36
g37
sg15
g8
((lp57
g17
ag21
atRp58
sbatRp59
sg12
g1
sS'atomDict'
p60
(dp61
g10
g17
s(imodel.Atom
Atom
p62
(dp63
g3
VC
sg12
g1
sg13
S'C'
sg14
I00
sg15
g8
((lp64
g21
atRp65
sg35
I00
sbg21
sg31
g24
ssS'descriptor'
p66
(S'neutral'
p67
S'none'
p68
S'default'
p69
tp70
sg15
g8
((lp71
g17
ag21
ag24
atRp72
sS'atomGroups'
p73
g8
((ltRp74
sS'polyLink'
p75
g68
sbsS'charge'
p76
I0
sg13
S'S'
sg14
I00
sS'coords'
p77
(F-114.52149966040787
F-102.60794128831782
F1.5842908505172169
tp78
sS'freeValences'
p79
(lp80
sg12
g1
sg73
g8
((ltRp81
sg47
g8
((lp82
g49
atRp83
sg35
I00
sbag17
atRp84
sg3
VC
sg28
I00
sg29
Nsg30
g62
sg36
g37
sg76
I0
sg13
S'C'
sg14
I00
sg77
(F-158.17763958732883
F-101.31908956455557
F0.61737850708330522
tp85
sg79
(lp86
sg12
g1
sg73
g8
((ltRp87
sg47
g8
((lp88
g49
ag55
atRp89
sg35
I00
sbatRp90
sg3
VN
sg28
I00
sg29
Nsg30
g10
sg36
g37
sg76
I0
sg13
S'N'
sg14
I00
sg77
(F-201.83544510401276
F-99.870419738156144
F0.60582819949053135
tp91
sg79
(lp92
F4.7455591881974843
asg12
g1
sg73
g8
((ltRp93
sg47
g8
((lp94
g55
atRp95
sg35
I00
sbatRp96
sg35
I00
sbag62
ag31
atRp97
sS'ccpMolType'
p98
S'other'
p99
sS'details'
p100
V
sg60
(dp101
VC
g62
sVS
g31
sVN
g10
ssS'keywords'
p102
g8
((ltRp103
sg73
g8
((ltRp104
sS'variants'
p105
g8
((lp106
g37
atRp107
sS'defaultVars'
p108
g8
((ltRp109
sb.