(imodel.Compound
Compound
p1
(dp2
S'name'
p3
S'Unnamed'
p4
sS'isModified'
p5
I00
sS'ccpCode'
p6
NsS'atoms'
p7
c__builtin__
set
p8
((lp9
(imodel.Atom
Atom
p10
(dp11
g3
VS
sS'compound'
p12
g1
sS'baseValences'
p13
I4
sS'element'
p14
S'S'
sS'isVariable'
p15
I00
sS'varAtoms'
p16
g8
((lp17
(imodel.VarAtom
VarAtom
p18
(dp19
g3
VS
sS'isLabile'
p20
I00
sS'chirality'
p21
NsS'atom'
p22
g10
sS'variant'
p23
(imodel.Variant
Variant
p24
(dp25
S'elementDict'
p26
(dp27
S'S'
g8
((lp28
g18
atRp29
sS'O'
g8
((lp30
(imodel.VarAtom
VarAtom
p31
(dp32
g3
VO
sg20
I00
sg21
Nsg22
(imodel.Atom
Atom
p33
(dp34
g3
VO
sg12
g1
sg13
I2
sg14
S'O'
sg15
I00
sg16
g8
((lp35
g31
atRp36
sS'isDeleted'
p37
I00
sbsg23
g24
sS'neighbours'
p38
g8
((lp39
g18
atRp40
sg14
S'O'
sS'charge'
p41
I0
sg15
I00
sS'coords'
p42
(F127.42795102349839
F98.806997403854112
F0.20055887535359507
tp43
sS'freeValences'
p44
(lp45
sg12
g1
sS'atomGroups'
p46
g8
((ltRp47
sS'bonds'
p48
g8
((lp49
(imodel.Bond
Bond
p50
(dp51
g12
g1
sS'bondType'
p52
S'double'
p53
sg23
g24
sg16
g8
((lp54
g18
ag31
atRp55
sbatRp56
sg37
I00
sbatRp57
ssg48
g8
((lp58
g50
atRp59
sg12
g1
sS'descriptor'
p60
(S'neutral'
p61
S'none'
p62
S'default'
p63
tp64
sS'atomDict'
p65
(dp66
g10
g18
sg33
g31
ssg16
g8
((lp67
g18
ag31
atRp68
sg46
g8
((ltRp69
sS'polyLink'
p70
S'none'
p71
sbsg38
g8
((lp72
g31
atRp73
sg14
S'S'
sg41
I0
sg15
I00
sg42
(F131.26050063003362
F148.6230007133714
F0
tp74
sg44
(lp75
F5.3127706099952388
aF1.1239804052088385
asg12
g1
sg46
g8
((ltRp76
sg48
g8
((lp77
g50
atRp78
sg37
I00
sbatRp79
sg37
I00
sbag33
atRp80
sS'ccpMolType'
p81
S'other'
p82
sS'details'
p83
V
sg65
(dp84
VS
g10
sVO
g33
ssS'keywords'
p85
g8
((ltRp86
sg46
g8
((ltRp87
sS'variants'
p88
g8
((lp89
g24
atRp90
sS'defaultVars'
p91
g8
((ltRp92
sb.