(imodel.Compound
Compound
p1
(dp2
S'name'
p3
S'Unnamed'
p4
sS'isModified'
p5
I01
sS'ccpCode'
p6
NsS'atoms'
p7
c__builtin__
set
p8
((lp9
(imodel.Atom
Atom
p10
(dp11
g3
VS
sS'compound'
p12
g1
sS'baseValences'
p13
I4
sS'element'
p14
S'S'
sS'isVariable'
p15
I00
sS'varAtoms'
p16
g8
((lp17
(imodel.VarAtom
VarAtom
p18
(dp19
g3
VS
sS'isLabile'
p20
I00
sS'chirality'
p21
NsS'atom'
p22
g10
sS'variant'
p23
(imodel.Variant
Variant
p24
(dp25
S'elementDict'
p26
(dp27
S'H'
g8
((lp28
(imodel.VarAtom
VarAtom
p29
(dp30
S'neighbours'
p31
g8
((lp32
(imodel.VarAtom
VarAtom
p33
(dp34
g31
g8
((lp35
g18
ag29
atRp36
sS'name'
p37
S'O1'
p38
sS'isLabile'
p39
I00
sS'chirality'
p40
NsS'atom'
p41
(imodel.Atom
Atom
p42
(dp43
g37
g38
sS'compound'
p44
g1
sS'baseValences'
p45
I2
sS'element'
p46
S'O'
sS'isVariable'
p47
I00
sS'varAtoms'
p48
g8
((lp49
g33
atRp50
sS'isDeleted'
p51
I00
sbsS'variant'
p52
g24
sS'charge'
p53
I0
sg46
S'O'
sg47
I00
sS'coords'
p54
(F158.81978673954455
F184.82389481547446
F0.90695422104458312
tp55
sS'freeValences'
p56
(lp57
sg44
g1
sS'atomGroups'
p58
g8
((ltRp59
sS'bonds'
p60
g8
((lp61
(imodel.Bond
Bond
p62
(dp63
S'bondType'
p64
S'single'
p65
sg44
g1
sg52
g24
sg48
g8
((lp66
g18
ag33
atRp67
sba(imodel.Bond
Bond
p68
(dp69
g64
g65
sg44
g1
sg52
g24
sg48
g8
((lp70
g33
ag29
atRp71
sbatRp72
sg51
I00
sbatRp73
sg37
S'H1'
p74
sg39
I01
sg40
Nsg41
(imodel.Atom
Atom
p75
(dp76
g37
g74
sg44
g1
sg45
I1
sg46
S'H'
sg47
I00
sg48
g8
((lp77
g29
atRp78
sg51
I00
sbsg52
g24
sg53
I0
sg46
S'H'
sg47
I00
sg54
(F196.59739680930414
F188.8591168151122
F0.83148872676992946
tp79
sg56
(lp80
sg44
g1
sg58
g8
((ltRp81
sg60
g8
((lp82
g68
atRp83
sg51
I00
sbatRp84
sS'S'
g8
((lp85
g18
atRp86
sS'O'
g8
((lp87
(imodel.VarAtom
VarAtom
p88
(dp89
g3
VO
sg20
I00
sg21
Nsg22
(imodel.Atom
Atom
p90
(dp91
g3
VO
sg12
g1
sg13
I2
sg14
S'O'
sg15
I00
sg16
g8
((lp92
g88
atRp93
sS'isDeleted'
p94
I00
sbsg23
g24
sS'neighbours'
p95
g8
((lp96
g18
atRp97
sg14
S'O'
sS'charge'
p98
I0
sg15
I00
sS'coords'
p99
(F155.88731639339886
F104.2808157803304
F1.1280035126668877
tp100
sS'freeValences'
p101
(lp102
sg12
g1
sS'atomGroups'
p103
g8
((ltRp104
sS'bonds'
p105
g8
((lp106
(imodel.Bond
Bond
p107
(dp108
g12
g1
sS'bondType'
p109
S'double'
p110
sg23
g24
sg16
g8
((lp111
g18
ag88
atRp112
sbatRp113
sg94
I00
sbag33
atRp114
ssg105
g8
((lp115
g107
ag62
ag68
atRp116
sg12
g1
sS'descriptor'
p117
(S'neutral'
p118
S'none'
p119
S'default'
p120
tp121
sS'atomDict'
p122
(dp123
g10
g18
sg90
g88
sg42
g33
sg75
g29
ssg16
g8
((lp124
g18
ag88
ag33
ag29
atRp125
sg103
g8
((ltRp126
sS'polyLink'
p127
g119
sbsg95
g8
((lp128
g88
ag33
atRp129
sg14
S'S'
sg98
I0
sg15
I00
sg99
(F132.68645633505432
F141.60001594681307
F0.48507259259733937
tp130
sg101
(lp131
F4.7061812652077322
asg12
g1
sg103
g8
((ltRp132
sg105
g8
((lp133
g107
ag62
atRp134
sg94
I00
sbatRp135
sg94
I00
sbag90
ag42
ag75
atRp136
sS'ccpMolType'
p137
S'other'
p138
sS'details'
p139
V
sg122
(dp140
VS
g10
sg74
g75
sg38
g42
sVO
g90
ssS'keywords'
p141
g8
((ltRp142
sg103
g8
((ltRp143
sS'variants'
p144
g8
((lp145
g24
atRp146
sS'defaultVars'
p147
g8
((ltRp148
sb.