(imodel.Compound
Compound
p1
(dp2
S'name'
p3
S'Unnamed'
p4
sS'isModified'
p5
I01
sS'ccpCode'
p6
NsS'atoms'
p7
c__builtin__
set
p8
((lp9
(imodel.Atom
Atom
p10
(dp11
g3
VS
sS'compound'
p12
g1
sS'baseValences'
p13
I6
sS'element'
p14
S'S'
sS'isVariable'
p15
I00
sS'varAtoms'
p16
g8
((lp17
(imodel.VarAtom
VarAtom
p18
(dp19
S'neighbours'
p20
g8
((lp21
(imodel.VarAtom
VarAtom
p22
(dp23
g20
g8
((lp24
g18
atRp25
sg3
VO2
p26
sS'isLabile'
p27
I00
sS'chirality'
p28
NsS'atom'
p29
(imodel.Atom
Atom
p30
(dp31
g3
g26
sg12
g1
sg13
I2
sg14
S'O'
sg15
I00
sg16
g8
((lp32
g22
atRp33
sS'isDeleted'
p34
I00
sbsS'variant'
p35
(imodel.Variant
Variant
p36
(dp37
S'elementDict'
p38
(dp39
S'H'
g8
((ltRp40
sS'S'
g8
((lp41
g18
atRp42
sS'O'
g8
((lp43
g22
a(imodel.VarAtom
VarAtom
p44
(dp45
g20
g8
((lp46
g18
atRp47
sg3
S'O1'
p48
sg27
I00
sg28
Nsg29
(imodel.Atom
Atom
p49
(dp50
g3
g48
sg12
g1
sg13
I2
sg14
S'O'
sg15
I00
sg16
g8
((lp51
g44
atRp52
sg34
I00
sbsg35
g36
sS'charge'
p53
I0
sg14
S'O'
sg15
I00
sS'coords'
p54
(F116.43786812355354
F119.88523175820309
F2.4031208524963033
tp55
sS'freeValences'
p56
(lp57
sg12
g1
sS'atomGroups'
p58
g8
((ltRp59
sS'bonds'
p60
g8
((lp61
(imodel.Bond
Bond
p62
(dp63
S'bondType'
p64
S'double'
p65
sg12
g1
sg35
g36
sg16
g8
((lp66
g18
ag44
atRp67
sbatRp68
sg34
I00
sbatRp69
ssg60
g8
((lp70
(imodel.Bond
Bond
p71
(dp72
g64
g65
sg12
g1
sg35
g36
sg16
g8
((lp73
g18
ag22
atRp74
sbag62
atRp75
sg12
g1
sS'atomDict'
p76
(dp77
g10
g18
sg30
g22
sg49
g44
ssS'descriptor'
p78
(S'neutral'
p79
S'none'
p80
S'default'
p81
tp82
sg16
g8
((lp83
g18
ag22
ag44
atRp84
sg58
g8
((ltRp85
sS'polyLink'
p86
g80
sbsg53
I0
sg14
S'O'
sg15
I00
sg54
(F177.40300751071692
F122.39402550762195
F1.7943957477322194
tp87
sg56
(lp88
sg12
g1
sg58
g8
((ltRp89
sg60
g8
((lp90
g71
atRp91
sg34
I00
sbag44
atRp92
sg3
VS
sg27
I00
sg28
Nsg29
g10
sg35
g36
sg53
I0
sg14
S'S'
sg15
I00
sg54
(F145.59517004271444
F153.44424822411227
F0.87659342157037046
tp93
sg56
(lp94
F5.4470566649106331
aF0.7540068227238983
asg12
g1
sg58
g8
((ltRp95
sg60
g8
((lp96
g71
ag62
atRp97
sg34
I00
sbatRp98
sg34
I00
sbag30
ag49
atRp99
sS'ccpMolType'
p100
S'other'
p101
sS'details'
p102
V
sg76
(dp103
VS
g10
sg26
g30
sg48
g49
ssS'keywords'
p104
g8
((ltRp105
sg58
g8
((ltRp106
sS'variants'
p107
g8
((lp108
g36
atRp109
sS'defaultVars'
p110
g8
((ltRp111
sb.