(imodel.Compound
Compound
p1
(dp2
S'name'
p3
S'Unnamed'
p4
sS'isModified'
p5
I01
sS'ccpCode'
p6
NsS'atoms'
p7
c__builtin__
set
p8
((lp9
(imodel.Atom
Atom
p10
(dp11
g3
VO3
p12
sS'compound'
p13
g1
sS'baseValences'
p14
I2
sS'element'
p15
S'O'
sS'isVariable'
p16
I00
sS'varAtoms'
p17
g8
((lp18
(imodel.VarAtom
VarAtom
p19
(dp20
g3
g12
sS'isLabile'
p21
I00
sS'chirality'
p22
NsS'atom'
p23
g10
sS'variant'
p24
(imodel.Variant
Variant
p25
(dp26
S'elementDict'
p27
(dp28
S'H'
g8
((lp29
(imodel.VarAtom
VarAtom
p30
(dp31
S'neighbours'
p32
g8
((lp33
(imodel.VarAtom
VarAtom
p34
(dp35
g32
g8
((lp36
(imodel.VarAtom
VarAtom
p37
(dp38
g3
VS
sg21
I00
sg22
Nsg23
(imodel.Atom
Atom
p39
(dp40
g3
VS
sg13
g1
sg14
I6
sg15
S'S'
sg16
I00
sg17
g8
((lp41
g37
atRp42
sS'isDeleted'
p43
I00
sbsg24
g25
sS'neighbours'
p44
g8
((lp45
g19
ag34
a(imodel.VarAtom
VarAtom
p46
(dp47
g32
g8
((lp48
g37
atRp49
sS'name'
p50
S'O2'
p51
sS'isLabile'
p52
I00
sS'chirality'
p53
NsS'atom'
p54
(imodel.Atom
Atom
p55
(dp56
g50
g51
sS'compound'
p57
g1
sS'baseValences'
p58
I2
sS'element'
p59
S'O'
sS'isVariable'
p60
I00
sS'varAtoms'
p61
g8
((lp62
g46
atRp63
sS'isDeleted'
p64
I00
sbsS'variant'
p65
g25
sS'charge'
p66
I0
sg59
S'O'
sg60
I00
sS'coords'
p67
(F101.46876006340909
F104.76383109029305
F1.3112412187827354
tp68
sS'freeValences'
p69
(lp70
sg57
g1
sS'atomGroups'
p71
g8
((ltRp72
sS'bonds'
p73
g8
((lp74
(imodel.Bond
Bond
p75
(dp76
S'bondType'
p77
S'double'
p78
sg57
g1
sg65
g25
sg61
g8
((lp79
g37
ag46
atRp80
sbatRp81
sg64
I00
sbatRp82
sg15
S'S'
sS'charge'
p83
I0
sg16
I00
sS'coords'
p84
(F130.62739120965935
F138.24310377947219
F1.3449219426080541
tp85
sS'freeValences'
p86
(lp87
F5.4524927985752401
asg13
g1
sS'atomGroups'
p88
g8
((ltRp89
sS'bonds'
p90
g8
((lp91
(imodel.Bond
Bond
p92
(dp93
g13
g1
sS'bondType'
p94
S'double'
p95
sg24
g25
sg17
g8
((lp96
g37
ag19
atRp97
sba(imodel.Bond
Bond
p98
(dp99
g77
S'single'
p100
sg57
g1
sg65
g25
sg61
g8
((lp101
g37
ag34
atRp102
sbag75
atRp103
sg43
I00
sbag30
atRp104
sg50
S'O1'
p105
sg52
I00
sg53
Nsg54
(imodel.Atom
Atom
p106
(dp107
g50
g105
sg57
g1
sg58
I2
sg59
S'O'
sg60
I00
sg61
g8
((lp108
g34
atRp109
sg64
I00
sbsg65
g25
sg66
I0
sg59
S'O'
sg60
I00
sg67
(F165.86603753081539
F175.04673358296978
F1.0987882437247198
tp110
sg69
(lp111
sg57
g1
sg71
g8
((ltRp112
sg73
g8
((lp113
g98
a(imodel.Bond
Bond
p114
(dp115
g77
g100
sg57
g1
sg65
g25
sg61
g8
((lp116
g34
ag30
atRp117
sbatRp118
sg64
I00
sbatRp119
sg50
S'H1'
p120
sg52
I01
sg53
Nsg54
(imodel.Atom
Atom
p121
(dp122
g50
g120
sg57
g1
sg58
I1
sg59
S'H'
sg60
I00
sg61
g8
((lp123
g30
atRp124
sg64
I00
sbsg65
g25
sg66
I0
sg59
S'H'
sg60
I00
sg67
(F192.99148737076774
F201.56388633599963
F1.7088566829713607
tp125
sg69
(lp126
sg57
g1
sg71
g8
((ltRp127
sg73
g8
((lp128
g114
atRp129
sg64
I00
sbatRp130
sS'S'
g8
((lp131
g37
atRp132
sS'O'
g8
((lp133
g19
ag34
ag46
atRp134
ssg90
g8
((lp135
g92
ag98
ag114
ag75
atRp136
sg13
g1
sS'descriptor'
p137
(S'neutral'
p138
S'none'
p139
S'default'
p140
tp141
sS'atomDict'
p142
(dp143
g10
g19
sg106
g34
sg39
g37
sg121
g30
sg55
g46
ssg17
g8
((lp144
g19
ag34
ag46
ag37
ag30
atRp145
sg88
g8
((ltRp146
sS'polyLink'
p147
g139
sbsg44
g8
((lp148
g37
atRp149
sg15
S'O'
sg83
I0
sg16
I00
sg84
(F162.38198629333388
F107.31519404581297
F1.3193552512851392
tp150
sg86
(lp151
sg13
g1
sg88
g8
((ltRp152
sg90
g8
((lp153
g92
atRp154
sg43
I00
sbatRp155
sg43
I00
sbag106
ag39
ag121
ag55
atRp156
sS'ccpMolType'
p157
S'other'
p158
sS'details'
p159
V
sg142
(dp160
g120
g121
sVS
g39
sg12
g10
sg51
g55
sg105
g106
ssS'keywords'
p161
g8
((ltRp162
sg88
g8
((ltRp163
sS'variants'
p164
g8
((lp165
g25
atRp166
sS'defaultVars'
p167
g8
((ltRp168
sb.