(imodel.Compound
Compound
p1
(dp2
S'name'
p3
VALANINE
p4
sS'isModified'
p5
I01
sS'ccpCode'
p6
VAla
p7
sS'atoms'
p8
c__builtin__
set
p9
((lp10
(imodel.Atom
Atom
p11
(dp12
g3
S"O'"
p13
sS'compound'
p14
g1
sS'baseValences'
p15
I2
sS'element'
p16
S'O'
sS'isVariable'
p17
I00
sS'varAtoms'
p18
g9
((lp19
(imodel.VarAtom
VarAtom
p20
(dp21
g3
g13
sS'isLabile'
p22
I00
sS'chirality'
p23
NsS'atom'
p24
g11
sS'variant'
p25
(imodel.Variant
Variant
p26
(dp27
S'elementDict'
p28
(dp29
S'H'
g9
((lp30
(imodel.VarAtom
VarAtom
p31
(dp32
g3
S'HB2'
p33
sg22
I00
sg23
Nsg24
(imodel.Atom
Atom
p34
(dp35
g3
g33
sg14
g1
sg15
I1
sg16
S'H'
sg17
I00
sg18
g9
((lp36
g31
atRp37
sS'isDeleted'
p38
I00
sbsg25
g26
sS'neighbours'
p39
g9
((lp40
(imodel.VarAtom
VarAtom
p41
(dp42
g3
S'CB'
p43
sg22
I00
sg23
Nsg24
(imodel.Atom
Atom
p44
(dp45
g3
g43
sg14
g1
sg15
I4
sg16
S'C'
sg17
I00
sg18
g9
((lp46
g41
atRp47
sg38
I00
sbsg25
g26
sg39
g9
((lp48
(imodel.VarAtom
VarAtom
p49
(dp50
g3
S'HB1'
p51
sg22
I00
sg23
Nsg24
(imodel.Atom
Atom
p52
(dp53
g3
g51
sg14
g1
sg15
I1
sg16
S'H'
sg17
I00
sg18
g9
((lp54
g49
atRp55
sg38
I00
sbsg25
g26
sg39
g9
((lp56
g41
atRp57
sg16
S'H'
sS'charge'
p58
I0
sg17
I00
sS'coords'
p59
(F297.81307261473796
F138.28353984477565
F83.235564357855282
tp60
sS'freeValences'
p61
(lp62
sg14
g1
sS'atomGroups'
p63
g9
((ltRp64
sS'bonds'
p65
g9
((lp66
(imodel.Bond
Bond
p67
(dp68
g14
g1
sS'bondType'
p69
S'single'
p70
sg25
g26
sg18
g9
((lp71
g49
ag41
atRp72
sbatRp73
sg38
I00
sbag31
a(imodel.VarAtom
VarAtom
p74
(dp75
g3
S'HB3'
p76
sg22
I00
sg23
Nsg24
(imodel.Atom
Atom
p77
(dp78
g3
g76
sg14
g1
sg15
I1
sg16
S'H'
sg17
I00
sg18
g9
((lp79
g74
atRp80
sg38
I00
sbsg25
g26
sg39
g9
((lp81
g41
atRp82
sg16
S'H'
sg58
I0
sg17
I00
sg59
(F248.44743001477335
F134.03094001956163
F2.3042663708240254
tp83
sg61
(lp84
sg14
g1
sg63
g9
((ltRp85
sg65
g9
((lp86
(imodel.Bond
Bond
p87
(dp88
g14
g1
sg69
g70
sg25
g26
sg18
g9
((lp89
g74
ag41
atRp90
sbatRp91
sg38
I00
sba(imodel.VarAtom
VarAtom
p92
(dp93
g3
S'CA'
p94
sg22
I00
sg23
S'S'
sg24
(imodel.Atom
Atom
p95
(dp96
g3
g94
sg14
g1
sg15
I4
sg16
S'C'
sg17
I00
sg18
g9
((lp97
g92
atRp98
sg38
I00
sbsg25
g26
sg39
g9
((lp99
g41
a(imodel.VarAtom
VarAtom
p100
(dp101
g3
S'C'
sg22
I00
sg23
Nsg24
(imodel.Atom
Atom
p102
(dp103
g3
S'C'
sg14
g1
sg15
I4
sg16
S'C'
sg17
I00
sg18
g9
((lp104
g100
atRp105
sg38
I00
sbsg25
g26
sg39
g9
((lp106
g20
ag92
atRp107
sg16
S'C'
sg58
I0
sg17
I00
sg59
(F261.50685615705669
F246.26230479143626
F-68.215952718468145
tp108
sg61
(lp109
F4.2796007051047074
asg14
g1
sg63
g9
((ltRp110
sg65
g9
((lp111
(imodel.Bond
Bond
p112
(dp113
g14
g1
sg69
S'double'
p114
sg25
g26
sg18
g9
((lp115
g20
ag100
atRp116
sba(imodel.Bond
Bond
p117
(dp118
g14
g1
sg69
g70
sg25
g26
sg18
g9
((lp119
g92
ag100
atRp120
sbatRp121
sg38
I00
sba(imodel.VarAtom
VarAtom
p122
(dp123
g3
S'N'
sg22
I00
sg23
Nsg24
(imodel.Atom
Atom
p124
(dp125
g3
S'N'
sg14
g1
sg15
I3
sg16
S'N'
sg17
I00
sg18
g9
((lp126
g122
atRp127
sg38
I00
sbsg25
g26
sg39
g9
((lp128
(imodel.VarAtom
VarAtom
p129
(dp130
g3
VH
sg22
I00
sg23
Nsg24
(imodel.Atom
Atom
p131
(dp132
g3
VH
sg14
g1
sg15
I1
sg16
S'H'
sg17
I00
sg18
g9
((lp133
g129
atRp134
sg38
I00
sbsg25
g26
sg39
g9
((lp135
g122
atRp136
sg16
S'H'
sg58
I0
sg17
I00
sg59
(F340.66472223729818
F291.72375993651144
F41.277944883081183
tp137
sg61
(lp138
sg14
g1
sg63
g9
((ltRp139
sg65
g9
((lp140
(imodel.Bond
Bond
p141
(dp142
g14
g1
sg69
g70
sg25
g26
sg18
g9
((lp143
g129
ag122
atRp144
sbatRp145
sg38
I00
sbag92
atRp146
sg16
S'N'
sg58
I0
sg17
I00
sg59
(F343.40666687545843
F246.92747358748571
F42.062943552910667
tp147
sg61
(lp148
F1.9890199212247595
asg14
g1
sg63
g9
((ltRp149
sg65
g9
((lp150
g141
a(imodel.Bond
Bond
p151
(dp152
g14
g1
sg69
g70
sg25
g26
sg18
g9
((lp153
g122
ag92
atRp154
sbatRp155
sg38
I00
sba(imodel.VarAtom
VarAtom
p156
(dp157
g3
S'HA'
p158
sg22
I00
sg23
Nsg24
(imodel.Atom
Atom
p159
(dp160
g3
g158
sg14
g1
sg15
I1
sg16
S'H'
sg17
I00
sg18
g9
((lp161
g156
atRp162
sg38
I00
sbsg25
g26
sg39
g9
((lp163
g92
atRp164
sg16
S'H'
sg58
I0
sg17
I00
sg59
(F328.85743400503389
F187.06357877392946
F1.606361117854969
tp165
sg61
(lp166
sg14
g1
sg63
g9
((ltRp167
sg65
g9
((lp168
(imodel.Bond
Bond
p169
(dp170
g14
g1
sg69
g70
sg25
g26
sg18
g9
((lp171
g156
ag92
atRp172
sbatRp173
sg38
I00
sbatRp174
sg16
S'C'
sg58
I0
sg17
I00
sg59
(F300.24053353441622
F212.50237484641895
F2.0443273471725467
tp175
sg61
(lp176
sg14
g1
sg63
g9
((ltRp177
sg65
g9
((lp178
g169
a(imodel.Bond
Bond
p179
(dp180
g14
g1
sg69
g70
sg25
g26
sg18
g9
((lp181
g92
ag41
atRp182
sbag117
ag151
atRp183
sg38
I00
sbatRp184
sg16
S'C'
sg58
I0
sg17
I00
sg59
(F270.80023071245546
F166.19410406230287
F32.58133591269403
tp185
sg61
(lp186
sg14
g1
sg63
g9
((ltRp187
sg65
g9
((lp188
g67
ag179
a(imodel.Bond
Bond
p189
(dp190
g14
g1
sg69
g70
sg25
g26
sg18
g9
((lp191
g31
ag41
atRp192
sbag87
atRp193
sg38
I00
sbatRp194
sg16
S'H'
sg58
I0
sg17
I00
sg59
(F235.01060296914727
F180.62634857605951
F32.141721220842044
tp195
sg61
(lp196
sg14
g1
sg63
g9
((ltRp197
sg65
g9
((lp198
g189
atRp199
sg38
I00
sbag74
ag129
ag49
ag156
atRp200
sS'C'
g9
((lp201
g100
ag41
ag92
atRp202
sS'O'
g9
((lp203
g20
atRp204
sS'N'
g9
((lp205
g122
atRp206
ssg65
g9
((lp207
g179
ag117
ag169
ag112
ag67
ag141
ag87
ag189
ag151
atRp208
sg14
g1
sS'descriptor'
p209
(S'neutral'
p210
S'none'
p211
S'default'
p212
tp213
sS'atomDict'
p214
(dp215
g34
g31
sg124
g122
sg52
g49
sg77
g74
sg11
g20
sg159
g156
sg131
g129
sg95
g92
sg102
g100
sg44
g41
ssg18
g9
((lp216
g31
ag129
ag74
ag20
ag92
ag122
ag100
ag49
ag156
ag41
atRp217
sg63
g9
((ltRp218
sS'polyLink'
p219
g211
sbsg39
g9
((lp220
g100
atRp221
sg16
S'O'
sg58
I0
sg17
I00
sg59
(F261.036537117948
F286.54035864650564
F-78.893857752281818
tp222
sg61
(lp223
sg14
g1
sg63
g9
((ltRp224
sg65
g9
((lp225
g112
atRp226
sg38
I00
sbatRp227
sg38
I00
sbag159
ag77
ag124
ag52
ag131
ag102
ag95
ag44
ag34
atRp228
sS'ccpMolType'
p229
S'protein'
p230
sS'details'
p231
V
sg214
(dp232
S'C'
g102
sg13
g11
sg43
g44
sg94
g95
sS'N'
g124
sVH
g131
sg158
g159
sg51
g52
sg76
g77
sg33
g34
ssS'keywords'
p233
g9
((ltRp234
sg63
g9
((ltRp235
sS'variants'
p236
g9
((lp237
g26
atRp238
sS'defaultVars'
p239
g9
((ltRp240
sb.