(imodel.Compound
Compound
p1
(dp2
S'name'
p3
VARGININE
p4
sS'isModified'
p5
I01
sS'ccpCode'
p6
VArg
p7
sS'atoms'
p8
c__builtin__
set
p9
((lp10
(imodel.Atom
Atom
p11
(dp12
g3
S'CG'
p13
sS'compound'
p14
g1
sS'baseValences'
p15
I4
sS'element'
p16
S'C'
sS'isVariable'
p17
I00
sS'varAtoms'
p18
g9
((lp19
(imodel.VarAtom
VarAtom
p20
(dp21
g3
g13
sS'isLabile'
p22
I00
sS'chirality'
p23
NsS'atom'
p24
g11
sS'variant'
p25
(imodel.Variant
Variant
p26
(dp27
S'elementDict'
p28
(dp29
S'H'
g9
((lp30
(imodel.VarAtom
VarAtom
p31
(dp32
g3
S'HH22'
p33
sg22
I00
sg23
Nsg24
(imodel.Atom
Atom
p34
(dp35
g3
g33
sg14
g1
sg15
I1
sg16
S'H'
sg17
I00
sg18
g9
((lp36
g31
atRp37
sS'isDeleted'
p38
I00
sbsg25
g26
sS'neighbours'
p39
g9
((lp40
(imodel.VarAtom
VarAtom
p41
(dp42
g3
S'NH2'
p43
sg22
I00
sg23
Nsg24
(imodel.Atom
Atom
p44
(dp45
g3
g43
sg14
g1
sg15
I3
sg16
S'N'
sg17
I00
sg18
g9
((lp46
g41
atRp47
sg38
I00
sbsg25
g26
sg39
g9
((lp48
(imodel.VarAtom
VarAtom
p49
(dp50
g3
S'CZ'
p51
sg22
I00
sg23
Nsg24
(imodel.Atom
Atom
p52
(dp53
g3
g51
sg14
g1
sg15
I4
sg16
S'C'
sg17
I00
sg18
g9
((lp54
g49
atRp55
sg38
I00
sbsg25
g26
sg39
g9
((lp56
g41
a(imodel.VarAtom
VarAtom
p57
(dp58
g3
S'NE'
p59
sg22
I00
sg23
Nsg24
(imodel.Atom
Atom
p60
(dp61
g3
g59
sg14
g1
sg15
I3
sg16
S'N'
sg17
I00
sg18
g9
((lp62
g57
atRp63
sg38
I00
sbsg25
g26
sg39
g9
((lp64
(imodel.VarAtom
VarAtom
p65
(dp66
g3
S'HE'
p67
sg22
I00
sg23
Nsg24
(imodel.Atom
Atom
p68
(dp69
g3
g67
sg14
g1
sg15
I1
sg16
S'H'
sg17
I00
sg18
g9
((lp70
g65
atRp71
sg38
I00
sbsg25
g26
sg39
g9
((lp72
g57
atRp73
sg16
S'H'
sS'charge'
p74
I0
sg17
I00
sS'coords'
p75
(F511.65218685916614
F252.86162626622738
F42.627853979948348
tp76
sS'freeValences'
p77
(lp78
sg14
g1
sS'atomGroups'
p79
g9
((ltRp80
sS'bonds'
p81
g9
((lp82
(imodel.Bond
Bond
p83
(dp84
g14
g1
sS'bondType'
p85
S'single'
p86
sg25
g26
sg18
g9
((lp87
g65
ag57
atRp88
sbatRp89
sg38
I00
sbag49
a(imodel.VarAtom
VarAtom
p90
(dp91
g3
S'CD'
p92
sg22
I00
sg23
Nsg24
(imodel.Atom
Atom
p93
(dp94
g3
g92
sg14
g1
sg15
I4
sg16
S'C'
sg17
I00
sg18
g9
((lp95
g90
atRp96
sg38
I00
sbsg25
g26
sg39
g9
((lp97
g57
a(imodel.VarAtom
VarAtom
p98
(dp99
g3
S'HD2'
p100
sg22
I00
sg23
Nsg24
(imodel.Atom
Atom
p101
(dp102
g3
g100
sg14
g1
sg15
I1
sg16
S'H'
sg17
I00
sg18
g9
((lp103
g98
atRp104
sg38
I00
sbsg25
g26
sg39
g9
((lp105
g90
atRp106
sg16
S'H'
sg74
I0
sg17
I00
sg75
(F480.91546695205955
F313.48164460910635
F144.13355842829469
tp107
sg77
(lp108
sg14
g1
sg79
g9
((ltRp109
sg81
g9
((lp110
(imodel.Bond
Bond
p111
(dp112
g14
g1
sg85
g86
sg25
g26
sg18
g9
((lp113
g90
ag98
atRp114
sbatRp115
sg38
I00
sbag20
a(imodel.VarAtom
VarAtom
p116
(dp117
g3
S'HD3'
p118
sg22
I00
sg23
Nsg24
(imodel.Atom
Atom
p119
(dp120
g3
g118
sg14
g1
sg15
I1
sg16
S'H'
sg17
I00
sg18
g9
((lp121
g116
atRp122
sg38
I00
sbsg25
g26
sg39
g9
((lp123
g90
atRp124
sg16
S'H'
sg74
I0
sg17
I00
sg75
(F419.87274902089581
F268.53528729644654
F90.815174235895654
tp125
sg77
(lp126
sg14
g1
sg79
g9
((ltRp127
sg81
g9
((lp128
(imodel.Bond
Bond
p129
(dp130
g14
g1
sg85
g86
sg25
g26
sg18
g9
((lp131
g90
ag116
atRp132
sbatRp133
sg38
I00
sbatRp134
sg16
S'C'
sg74
I0
sg17
I00
sg75
(F447.34605248928676
F294.79996941004123
F90.322853630911553
tp135
sg77
(lp136
sg14
g1
sg79
g9
((ltRp137
sg81
g9
((lp138
g111
a(imodel.Bond
Bond
p139
(dp140
g14
g1
sg85
g86
sg25
g26
sg18
g9
((lp141
g90
ag57
atRp142
sba(imodel.Bond
Bond
p143
(dp144
g14
g1
sg85
g86
sg25
g26
sg18
g9
((lp145
g90
ag20
atRp146
sbag129
atRp147
sg38
I00
sbatRp148
sg16
S'N'
sg74
I0
sg17
I00
sg75
(F473.42953115387218
F250.1254711066677
F45.946618574223081
tp149
sg77
(lp150
sg14
g1
sg79
g9
((ltRp151
sg81
g9
((lp152
g83
ag139
a(imodel.Bond
Bond
p153
(dp154
g14
g1
sg85
g86
sg25
g26
sg18
g9
((lp155
g49
ag57
atRp156
sbatRp157
sg38
I00
sba(imodel.VarAtom
VarAtom
p158
(dp159
g3
S'NH1'
p160
sg22
I00
sg23
Nsg24
(imodel.Atom
Atom
p161
(dp162
g3
g160
sg14
g1
sg15
I3
sg16
S'N'
sg17
I00
sg18
g9
((lp163
g158
atRp164
sg38
I00
sbsg25
g26
sg39
g9
((lp165
(imodel.VarAtom
VarAtom
p166
(dp167
g3
VHH11
p168
sg22
I00
sg23
Nsg24
(imodel.Atom
Atom
p169
(dp170
g3
g168
sg14
g1
sg15
I1
sg16
S'H'
sg17
I00
sg18
g9
((lp171
g166
atRp172
sg38
I00
sbsg25
g26
sg39
g9
((lp173
g158
atRp174
sg16
S'H'
sg74
I0
sg17
I00
sg75
(F401.24588494124055
F146.73590248793198
F116.99356504785588
tp175
sg77
(lp176
sg14
g1
sg79
g9
((ltRp177
sg81
g9
((lp178
(imodel.Bond
Bond
p179
(dp180
g14
g1
sg85
g86
sg25
g26
sg18
g9
((lp181
g166
ag158
atRp182
sbatRp183
sg38
I00
sbag49
a(imodel.VarAtom
VarAtom
p184
(dp185
S'neighbours'
p186
g9
((lp187
g158
atRp188
sS'name'
p189
VHH12
p190
sS'isLabile'
p191
I00
sS'chirality'
p192
NsS'atom'
p193
(imodel.Atom
Atom
p194
(dp195
g189
g190
sS'compound'
p196
g1
sg15
I1
sS'element'
p197
S'H'
sS'isVariable'
p198
I00
sS'varAtoms'
p199
g9
((lp200
g184
atRp201
sS'isDeleted'
p202
I00
sbsS'variant'
p203
g26
sS'charge'
p204
I0
sg197
S'H'
sg198
I00
sS'coords'
p205
(F382.14277862192455
F201.4823145325642
F0.62705031227000252
tp206
sS'freeValences'
p207
(lp208
sg196
g1
sS'atomGroups'
p209
g9
((ltRp210
sS'bonds'
p211
g9
((lp212
(imodel.Bond
Bond
p213
(dp214
S'bondType'
p215
S'single'
p216
sg196
g1
sg203
g26
sg199
g9
((lp217
g158
ag184
atRp218
sbatRp219
sg202
I00
sbatRp220
sg16
S'N'
sg74
I1
sg17
I00
sg75
(F415.04798622558741
F182.02974024173605
F109.50950787130917
tp221
sg77
(lp222
sg14
g1
sg79
g9
((ltRp223
sg81
g9
((lp224
g179
a(imodel.Bond
Bond
p225
(dp226
g14
g1
sg85
S'double'
p227
sg25
g26
sg18
g9
((lp228
g158
ag49
atRp229
sbag213
atRp230
sg38
I00
sbatRp231
sg16
S'C'
sg74
I0
sg17
I00
sg75
(F462.86442754378714
F199.960515160375
F56.881150404881957
tp232
sg77
(lp233
sg14
g1
sg79
g9
((ltRp234
sg81
g9
((lp235
(imodel.Bond
Bond
p236
(dp237
g14
g1
sg85
g86
sg25
g26
sg18
g9
((lp238
g41
ag49
atRp239
sbag225
ag153
atRp240
sg38
I00
sbag31
a(imodel.VarAtom
VarAtom
p241
(dp242
g3
S'HH21'
p243
sg22
I00
sg23
Nsg24
(imodel.Atom
Atom
p244
(dp245
g3
g243
sg14
g1
sg15
I1
sg16
S'H'
sg17
I00
sg18
g9
((lp246
g241
atRp247
sg38
I00
sbsg25
g26
sg39
g9
((lp248
g41
atRp249
sg16
S'H'
sg74
I0
sg17
I00
sg75
(F535.27629844301282
F167.08129395217082
F-23.494750097589328
tp250
sg77
(lp251
sg14
g1
sg79
g9
((ltRp252
sg81
g9
((lp253
(imodel.Bond
Bond
p254
(dp255
g14
g1
sg85
g86
sg25
g26
sg18
g9
((lp256
g41
ag241
atRp257
sbatRp258
sg38
I00
sbatRp259
sg16
S'N'
sg74
I0
sg17
I00
sg75
(F497.36791831775088
F162.33063702418826
F14.779338100948413
tp260
sg77
(lp261
sg14
g1
sg79
g9
((ltRp262
sg81
g9
((lp263
g236
a(imodel.Bond
Bond
p264
(dp265
g14
g1
sg85
g86
sg25
g26
sg18
g9
((lp266
g41
ag31
atRp267
sbag254
atRp268
sg38
I00
sbatRp269
sg16
S'H'
sg74
I0
sg17
I00
sg75
(F492.0741094915544
F124.4320094044601
F22.728131609503297
tp270
sg77
(lp271
sg14
g1
sg79
g9
((ltRp272
sg81
g9
((lp273
g264
atRp274
sg38
I00
sbag65
a(imodel.VarAtom
VarAtom
p275
(dp276
g3
S'HG2'
p277
sg22
I00
sg23
Nsg24
(imodel.Atom
Atom
p278
(dp279
g3
g277
sg14
g1
sg15
I1
sg16
S'H'
sg17
I00
sg18
g9
((lp280
g275
atRp281
sg38
I00
sbsg25
g26
sg39
g9
((lp282
g20
atRp283
sg16
S'H'
sg74
I0
sg17
I00
sg75
(F375.84721151366506
F353.54365095756702
F100.66486098342729
tp284
sg77
(lp285
sg14
g1
sg79
g9
((ltRp286
sg81
g9
((lp287
(imodel.Bond
Bond
p288
(dp289
g14
g1
sg85
g86
sg25
g26
sg18
g9
((lp290
g20
ag275
atRp291
sbatRp292
sg38
I00
sba(imodel.VarAtom
VarAtom
p293
(dp294
g3
S'HB2'
p295
sg22
I00
sg23
Nsg24
(imodel.Atom
Atom
p296
(dp297
g3
g295
sg14
g1
sg15
I1
sg16
S'H'
sg17
I00
sg18
g9
((lp298
g293
atRp299
sg38
I00
sbsg25
g26
sg39
g9
((lp300
(imodel.VarAtom
VarAtom
p301
(dp302
g3
S'CB'
p303
sg22
I00
sg23
Nsg24
(imodel.Atom
Atom
p304
(dp305
g3
g303
sg14
g1
sg15
I4
sg16
S'C'
sg17
I00
sg18
g9
((lp306
g301
atRp307
sg38
I00
sbsg25
g26
sg39
g9
((lp308
(imodel.VarAtom
VarAtom
p309
(dp310
g3
S'CA'
p311
sg22
I00
sg23
S'S'
sg24
(imodel.Atom
Atom
p312
(dp313
g3
g311
sg14
g1
sg15
I4
sg16
S'C'
sg17
I00
sg18
g9
((lp314
g309
atRp315
sg38
I00
sbsg25
g26
sg39
g9
((lp316
g301
a(imodel.VarAtom
VarAtom
p317
(dp318
g3
S'C'
sg22
I00
sg23
Nsg24
(imodel.Atom
Atom
p319
(dp320
g3
S'C'
sg14
g1
sg15
I4
sg16
S'C'
sg17
I00
sg18
g9
((lp321
g317
atRp322
sg38
I00
sbsg25
g26
sg39
g9
((lp323
(imodel.VarAtom
VarAtom
p324
(dp325
g3
S"O'"
p326
sg22
I00
sg23
Nsg24
(imodel.Atom
Atom
p327
(dp328
g3
g326
sg14
g1
sg15
I2
sg16
S'O'
sg17
I00
sg18
g9
((lp329
g324
atRp330
sg38
I00
sbsg25
g26
sg39
g9
((lp331
g317
atRp332
sg16
S'O'
sg74
I0
sg17
I00
sg75
(F417.037585746817
F518.43887564303941
F21.11198874807679
tp333
sg77
(lp334
sg14
g1
sg79
g9
((ltRp335
sg81
g9
((lp336
(imodel.Bond
Bond
p337
(dp338
g14
g1
sg85
S'double'
p339
sg25
g26
sg18
g9
((lp340
g324
ag317
atRp341
sbatRp342
sg38
I00
sbag309
atRp343
sg16
S'C'
sg74
I0
sg17
I00
sg75
(F420.76830296009979
F474.42256175331522
F67.789017922121531
tp344
sg77
(lp345
F1.8881729055375942
asg14
g1
sg79
g9
((ltRp346
sg81
g9
((lp347
g337
a(imodel.Bond
Bond
p348
(dp349
g14
g1
sg85
g86
sg25
g26
sg18
g9
((lp350
g309
ag317
atRp351
sbatRp352
sg38
I00
sba(imodel.VarAtom
VarAtom
p353
(dp354
g3
S'HA'
p355
sg22
I00
sg23
Nsg24
(imodel.Atom
Atom
p356
(dp357
g3
g355
sg14
g1
sg15
I1
sg16
S'H'
sg17
I00
sg18
g9
((lp358
g353
atRp359
sg38
I00
sbsg25
g26
sg39
g9
((lp360
g309
atRp361
sg16
S'H'
sg74
I0
sg17
I00
sg75
(F371.34363686244103
F470.39027657082767
F76.14847412517058
tp362
sg77
(lp363
sg14
g1
sg79
g9
((ltRp364
sg81
g9
((lp365
(imodel.Bond
Bond
p366
(dp367
g14
g1
sg85
g86
sg25
g26
sg18
g9
((lp368
g309
ag353
atRp369
sbatRp370
sg38
I00
sba(imodel.VarAtom
VarAtom
p371
(dp372
g3
S'N'
sg22
I00
sg23
Nsg24
(imodel.Atom
Atom
p373
(dp374
g3
S'N'
sg14
g1
sg15
I3
sg16
S'N'
sg17
I00
sg18
g9
((lp375
g371
atRp376
sg38
I00
sbsg25
g26
sg39
g9
((lp377
(imodel.VarAtom
VarAtom
p378
(dp379
g3
VH
sg22
I00
sg23
Nsg24
(imodel.Atom
Atom
p380
(dp381
g3
VH
sg14
g1
sg15
I1
sg16
S'H'
sg17
I00
sg18
g9
((lp382
g378
atRp383
sg38
I00
sbsg25
g26
sg39
g9
((lp384
g371
atRp385
sg16
S'H'
sg74
I0
sg17
I00
sg75
(F315.35953846616604
F466.2648969021115
F-32.509010315058617
tp386
sg77
(lp387
sg14
g1
sg79
g9
((ltRp388
sg81
g9
((lp389
(imodel.Bond
Bond
p390
(dp391
g14
g1
sg85
g86
sg25
g26
sg18
g9
((lp392
g378
ag371
atRp393
sbatRp394
sg38
I00
sbag309
atRp395
sg16
S'N'
sg74
I0
sg17
I00
sg75
(F329.47880752696477
F430.05580339300712
F-21.799199661164923
tp396
sg77
(lp397
F3.6934744593866378
asg14
g1
sg79
g9
((ltRp398
sg81
g9
((lp399
g390
a(imodel.Bond
Bond
p400
(dp401
g14
g1
sg85
g86
sg25
g26
sg18
g9
((lp402
g309
ag371
atRp403
sbatRp404
sg38
I00
sbatRp405
sg16
S'C'
sg74
I0
sg17
I00
sg75
(F386.69678517340384
F435.52127416359303
F51.835512693140764
tp406
sg77
(lp407
sg14
g1
sg79
g9
((ltRp408
sg81
g9
((lp409
(imodel.Bond
Bond
p410
(dp411
g14
g1
sg85
g86
sg25
g26
sg18
g9
((lp412
g309
ag301
atRp413
sbag366
ag348
ag400
atRp414
sg38
I00
sbag20
ag293
a(imodel.VarAtom
VarAtom
p415
(dp416
g3
S'HB3'
p417
sg22
I00
sg23
Nsg24
(imodel.Atom
Atom
p418
(dp419
g3
g417
sg14
g1
sg15
I1
sg16
S'H'
sg17
I00
sg18
g9
((lp420
g415
atRp421
sg38
I00
sbsg25
g26
sg39
g9
((lp422
g301
atRp423
sg16
S'H'
sg74
I0
sg17
I00
sg75
(F448.23377381898405
F419.1031434124659
F134.3688996314626
tp424
sg77
(lp425
sg14
g1
sg79
g9
((ltRp426
sg81
g9
((lp427
(imodel.Bond
Bond
p428
(dp429
g14
g1
sg85
g86
sg25
g26
sg18
g9
((lp430
g301
ag415
atRp431
sbatRp432
sg38
I00
sbatRp433
sg16
S'C'
sg74
I0
sg17
I00
sg75
(F421.67076103605893
F391.38869045276761
F81.272647480119915
tp434
sg77
(lp435
sg14
g1
sg79
g9
((ltRp436
sg81
g9
((lp437
g410
ag428
a(imodel.Bond
Bond
p438
(dp439
g14
g1
sg85
g86
sg25
g26
sg18
g9
((lp440
g301
ag20
atRp441
sba(imodel.Bond
Bond
p442
(dp443
g14
g1
sg85
g86
sg25
g26
sg18
g9
((lp444
g301
ag293
atRp445
sbatRp446
sg38
I00
sbatRp447
sg16
S'H'
sg74
I0
sg17
I00
sg75
(F456.9967124023608
F375.8076627263664
F58.589636854784267
tp448
sg77
(lp449
sg14
g1
sg79
g9
((ltRp450
sg81
g9
((lp451
g442
atRp452
sg38
I00
sbag415
ag166
a(imodel.VarAtom
VarAtom
p453
(dp454
g3
S'HG3'
p455
sg22
I00
sg23
Nsg24
(imodel.Atom
Atom
p456
(dp457
g3
g455
sg14
g1
sg15
I1
sg16
S'H'
sg17
I00
sg18
g9
((lp458
g453
atRp459
sg38
I00
sbsg25
g26
sg39
g9
((lp460
g20
atRp461
sg16
S'H'
sg74
I0
sg17
I00
sg75
(F382.76800288927041
F308.81186833378263
F20.712418720829696
tp462
sg77
(lp463
sg14
g1
sg79
g9
((ltRp464
sg81
g9
((lp465
(imodel.Bond
Bond
p466
(dp467
g14
g1
sg85
g86
sg25
g26
sg18
g9
((lp468
g20
ag453
atRp469
sbatRp470
sg38
I00
sbag353
ag116
ag98
ag184
ag241
ag378
atRp471
sS'C'
g9
((lp472
g317
ag20
ag301
ag309
ag49
ag90
atRp473
sS'O'
g9
((lp474
g324
atRp475
sS'N'
g9
((lp476
g57
ag371
ag41
ag158
atRp477
ssg81
g9
((lp478
g143
ag438
ag410
ag254
ag83
ag288
ag179
ag111
ag390
ag236
ag129
ag428
ag348
ag264
ag337
ag466
ag153
ag139
ag366
ag400
ag442
ag213
ag225
atRp479
sg14
g1
sS'descriptor'
p480
(S'neutral'
p481
S'none'
p482
S'default'
p483
tp484
sS'atomDict'
p485
(dp486
g11
g20
sg319
g317
sg52
g49
sg418
g415
sg44
g41
sg169
g166
sg356
g353
sg119
g116
sg244
g241
sg278
g275
sg161
g158
sg373
g371
sg312
g309
sg194
g184
sg68
g65
sg380
g378
sg456
g453
sg93
g90
sg60
g57
sg296
g293
sg101
g98
sg327
g324
sg304
g301
sg34
g31
ssg18
g9
((lp487
g158
ag241
ag293
ag166
ag57
ag275
ag31
ag324
ag90
ag65
ag184
ag453
ag301
ag49
ag353
ag415
ag309
ag371
ag41
ag317
ag378
ag20
ag116
ag98
atRp488
sg79
g9
((ltRp489
sS'polyLink'
p490
g482
sbsg39
g9
((lp491
g301
ag275
ag90
ag453
atRp492
sg16
S'C'
sg74
I0
sg17
I00
sg75
(F410.11556986511482
F336.45181500502434
F71.283989600841537
tp493
sg77
(lp494
sg14
g1
sg79
g9
((ltRp495
sg81
g9
((lp496
g438
ag143
ag288
ag466
atRp497
sg38
I00
sbatRp498
sg38
I00
sbag278
ag52
ag418
ag44
ag169
ag456
ag119
ag356
ag319
ag161
ag373
ag312
ag194
ag68
ag296
ag327
ag60
ag244
ag101
ag93
ag380
ag34
ag304
atRp499
sS'ccpMolType'
p500
S'protein'
p501
sS'details'
p502
V
sg485
(dp503
g326
g327
sg59
g60
sg355
g356
sg67
g68
sg277
g278
sg455
g456
sg33
g34
sg243
g244
sVH
g380
sS'C'
g319
sg303
g304
sg311
g312
sg13
g11
sg92
g93
sg51
g52
sg160
g161
sg43
g44
sS'N'
g373
sg118
g119
sg100
g101
sg190
g194
sg168
g169
sg417
g418
sg295
g296
ssS'keywords'
p504
g9
((ltRp505
sg79
g9
((ltRp506
sS'variants'
p507
g9
((lp508
g26
atRp509
sS'defaultVars'
p510
g9
((ltRp511
sb.