(imodel.Compound
Compound
p1
(dp2
S'name'
p3
VASPARAGINE
p4
sS'isModified'
p5
I01
sS'ccpCode'
p6
VAsn
p7
sS'atoms'
p8
c__builtin__
set
p9
((lp10
(imodel.Atom
Atom
p11
(dp12
g3
S'HB3'
p13
sS'compound'
p14
g1
sS'baseValences'
p15
I1
sS'element'
p16
S'H'
sS'isVariable'
p17
I00
sS'varAtoms'
p18
g9
((lp19
(imodel.VarAtom
VarAtom
p20
(dp21
g3
g13
sS'isLabile'
p22
I00
sS'chirality'
p23
NsS'atom'
p24
g11
sS'variant'
p25
(imodel.Variant
Variant
p26
(dp27
S'elementDict'
p28
(dp29
S'H'
g9
((lp30
g20
a(imodel.VarAtom
VarAtom
p31
(dp32
g3
S'HD21'
p33
sg22
I00
sg23
Nsg24
(imodel.Atom
Atom
p34
(dp35
g3
g33
sg14
g1
sg15
I1
sg16
S'H'
sg17
I00
sg18
g9
((lp36
g31
atRp37
sS'isDeleted'
p38
I00
sbsg25
g26
sS'neighbours'
p39
g9
((lp40
(imodel.VarAtom
VarAtom
p41
(dp42
g3
S'ND2'
p43
sg22
I00
sg23
Nsg24
(imodel.Atom
Atom
p44
(dp45
g3
g43
sg14
g1
sg15
I3
sg16
S'N'
sg17
I00
sg18
g9
((lp46
g41
atRp47
sg38
I00
sbsg25
g26
sg39
g9
((lp48
(imodel.VarAtom
VarAtom
p49
(dp50
g3
S'CG'
p51
sg22
I00
sg23
Nsg24
(imodel.Atom
Atom
p52
(dp53
g3
g51
sg14
g1
sg15
I4
sg16
S'C'
sg17
I00
sg18
g9
((lp54
g49
atRp55
sg38
I00
sbsg25
g26
sg39
g9
((lp56
g41
a(imodel.VarAtom
VarAtom
p57
(dp58
g3
S'CB'
p59
sg22
I00
sg23
Nsg24
(imodel.Atom
Atom
p60
(dp61
g3
g59
sg14
g1
sg15
I4
sg16
S'C'
sg17
I00
sg18
g9
((lp62
g57
atRp63
sg38
I00
sbsg25
g26
sg39
g9
((lp64
g49
a(imodel.VarAtom
VarAtom
p65
(dp66
g3
S'HB2'
p67
sg22
I00
sg23
Nsg24
(imodel.Atom
Atom
p68
(dp69
g3
g67
sg14
g1
sg15
I1
sg16
S'H'
sg17
I00
sg18
g9
((lp70
g65
atRp71
sg38
I00
sbsg25
g26
sg39
g9
((lp72
g57
atRp73
sg16
S'H'
sS'charge'
p74
I0
sg17
I00
sS'coords'
p75
(F356.30872195316482
F343.07691490023404
F-10.613367017776282
tp76
sS'freeValences'
p77
(lp78
sg14
g1
sS'atomGroups'
p79
g9
((ltRp80
sS'bonds'
p81
g9
((lp82
(imodel.Bond
Bond
p83
(dp84
g14
g1
sS'bondType'
p85
S'single'
p86
sg25
g26
sg18
g9
((lp87
g65
ag57
atRp88
sbatRp89
sg38
I00
sbag20
a(imodel.VarAtom
VarAtom
p90
(dp91
g3
S'CA'
p92
sg22
I00
sg23
S'S'
sg24
(imodel.Atom
Atom
p93
(dp94
g3
g92
sg14
g1
sg15
I4
sg16
S'C'
sg17
I00
sg18
g9
((lp95
g90
atRp96
sg38
I00
sbsg25
g26
sg39
g9
((lp97
(imodel.VarAtom
VarAtom
p98
(dp99
g3
S'HA'
p100
sg22
I00
sg23
Nsg24
(imodel.Atom
Atom
p101
(dp102
g3
g100
sg14
g1
sg15
I1
sg16
S'H'
sg17
I00
sg18
g9
((lp103
g98
atRp104
sg38
I00
sbsg25
g26
sg39
g9
((lp105
g90
atRp106
sg16
S'H'
sg74
I0
sg17
I00
sg75
(F382.42511644543202
F468.38037514424059
F25.410610670277276
tp107
sg77
(lp108
sg14
g1
sg79
g9
((ltRp109
sg81
g9
((lp110
(imodel.Bond
Bond
p111
(dp112
g14
g1
sg85
g86
sg25
g26
sg18
g9
((lp113
g98
ag90
atRp114
sbatRp115
sg38
I00
sbag57
a(imodel.VarAtom
VarAtom
p116
(dp117
g3
S'N'
sg22
I00
sg23
Nsg24
(imodel.Atom
Atom
p118
(dp119
g3
S'N'
sg14
g1
sg15
I3
sg16
S'N'
sg17
I00
sg18
g9
((lp120
g116
atRp121
sg38
I00
sbsg25
g26
sg39
g9
((lp122
g90
a(imodel.VarAtom
VarAtom
p123
(dp124
g3
VH
sg22
I00
sg23
Nsg24
(imodel.Atom
Atom
p125
(dp126
g3
VH
sg14
g1
sg15
I1
sg16
S'H'
sg17
I00
sg18
g9
((lp127
g123
atRp128
sg38
I00
sbsg25
g26
sg39
g9
((lp129
g116
atRp130
sg16
S'H'
sg74
I0
sg17
I00
sg75
(F465.54319357760301
F425.28578292534701
F27.923406061189429
tp131
sg77
(lp132
sg14
g1
sg79
g9
((ltRp133
sg81
g9
((lp134
(imodel.Bond
Bond
p135
(dp136
g14
g1
sg85
g86
sg25
g26
sg18
g9
((lp137
g123
ag116
atRp138
sbatRp139
sg38
I00
sbatRp140
sg16
S'N'
sg74
I0
sg17
I00
sg75
(F428.27662272226229
F439.24572292230471
F22.290921059366791
tp141
sg77
(lp142
F0.088937552714757118
asg14
g1
sg79
g9
((ltRp143
sg81
g9
((lp144
(imodel.Bond
Bond
p145
(dp146
g14
g1
sg85
g86
sg25
g26
sg18
g9
((lp147
g116
ag90
atRp148
sbag135
atRp149
sg38
I00
sba(imodel.VarAtom
VarAtom
p150
(dp151
g3
S'C'
sg22
I00
sg23
Nsg24
(imodel.Atom
Atom
p152
(dp153
g3
S'C'
sg14
g1
sg15
I4
sg16
S'C'
sg17
I00
sg18
g9
((lp154
g150
atRp155
sg38
I00
sbsg25
g26
sg39
g9
((lp156
g90
a(imodel.VarAtom
VarAtom
p157
(dp158
g3
S"O'"
p159
sg22
I00
sg23
Nsg24
(imodel.Atom
Atom
p160
(dp161
g3
g159
sg14
g1
sg15
I2
sg16
S'O'
sg17
I00
sg18
g9
((lp162
g157
atRp163
sg38
I00
sbsg25
g26
sg39
g9
((lp164
g150
atRp165
sg16
S'O'
sg74
I0
sg17
I00
sg75
(F295.55021100329009
F423.00229392314202
F129.24793568379309
tp166
sg77
(lp167
sg14
g1
sg79
g9
((ltRp168
sg81
g9
((lp169
(imodel.Bond
Bond
p170
(dp171
g14
g1
sg85
S'double'
p172
sg25
g26
sg18
g9
((lp173
g157
ag150
atRp174
sbatRp175
sg38
I00
sbatRp176
sg16
S'C'
sg74
I0
sg17
I00
sg75
(F330.97095794490122
F450.01878694118449
F102.92362454267139
tp177
sg77
(lp178
F6.1575969900942749
asg14
g1
sg79
g9
((ltRp179
sg81
g9
((lp180
(imodel.Bond
Bond
p181
(dp182
g14
g1
sg85
g86
sg25
g26
sg18
g9
((lp183
g150
ag90
atRp184
sbag170
atRp185
sg38
I00
sbatRp186
sg16
S'C'
sg74
I0
sg17
I00
sg75
(F378.07106153615058
F430.08172172165058
F32.095073687640742
tp187
sg77
(lp188
sg14
g1
sg79
g9
((ltRp189
sg81
g9
((lp190
g181
ag145
ag111
a(imodel.Bond
Bond
p191
(dp192
g14
g1
sg85
g86
sg25
g26
sg18
g9
((lp193
g57
ag90
atRp194
sbatRp195
sg38
I00
sbatRp196
sg16
S'C'
sg74
I0
sg17
I00
sg75
(F371.28071471849501
F378.68389933079828
F-16.891510648958988
tp197
sg77
(lp198
sg14
g1
sg79
g9
((ltRp199
sg81
g9
((lp200
(imodel.Bond
Bond
p201
(dp202
g14
g1
sg85
g86
sg25
g26
sg18
g9
((lp203
g49
ag57
atRp204
sba(imodel.Bond
Bond
p205
(dp206
g14
g1
sg85
g86
sg25
g26
sg18
g9
((lp207
g20
ag57
atRp208
sbag191
ag83
atRp209
sg38
I00
sba(imodel.VarAtom
VarAtom
p210
(dp211
g3
S'OD1'
p212
sg22
I00
sg23
Nsg24
(imodel.Atom
Atom
p213
(dp214
g3
g212
sg14
g1
sg15
I2
sg16
S'O'
sg17
I00
sg18
g9
((lp215
g210
atRp216
sg38
I00
sbsg25
g26
sg39
g9
((lp217
g49
atRp218
sg16
S'O'
sg74
I0
sg17
I00
sg75
(F454.20463191759109
F363.44998998068854
F-96.220769621630367
tp219
sg77
(lp220
sg14
g1
sg79
g9
((ltRp221
sg81
g9
((lp222
(imodel.Bond
Bond
p223
(dp224
g14
g1
sg85
S'double'
p225
sg25
g26
sg18
g9
((lp226
g49
ag210
atRp227
sbatRp228
sg38
I00
sbatRp229
sg16
S'C'
sg74
I0
sg17
I00
sg75
(F412.9571872767886
F348.41832405667799
F-87.867536442459851
tp230
sg77
(lp231
sg14
g1
sg79
g9
((ltRp232
sg81
g9
((lp233
(imodel.Bond
Bond
p234
(dp235
g14
g1
sg85
g86
sg25
g26
sg18
g9
((lp236
g49
ag41
atRp237
sbag201
ag223
atRp238
sg38
I00
sbag31
a(imodel.VarAtom
VarAtom
p239
(dp240
g3
S'HD22'
p241
sg22
I00
sg23
Nsg24
(imodel.Atom
Atom
p242
(dp243
g3
g241
sg14
g1
sg15
I1
sg16
S'H'
sg17
I00
sg18
g9
((lp244
g239
atRp245
sg38
I00
sbsg25
g26
sg39
g9
((lp246
g41
atRp247
sg16
S'H'
sg74
I0
sg17
I00
sg75
(F462.0459812126511
F284.80710153703194
F-132.82075176836341
tp248
sg77
(lp249
sg14
g1
sg79
g9
((ltRp250
sg81
g9
((lp251
(imodel.Bond
Bond
p252
(dp253
g14
g1
sg85
g86
sg25
g26
sg18
g9
((lp254
g239
ag41
atRp255
sbatRp256
sg38
I00
sbatRp257
sg16
S'N'
sg74
I0
sg17
I00
sg75
(F426.53356564298906
F299.12686594158021
F-139.56998841196693
tp258
sg77
(lp259
sg14
g1
sg79
g9
((ltRp260
sg81
g9
((lp261
g234
ag252
a(imodel.Bond
Bond
p262
(dp263
g14
g1
sg85
g86
sg25
g26
sg18
g9
((lp264
g31
ag41
atRp265
sbatRp266
sg38
I00
sbatRp267
sg16
S'H'
sg74
I0
sg17
I00
sg75
(F402.44076545202921
F269.44090958142232
F-185.23583519337308
tp268
sg77
(lp269
sg14
g1
sg79
g9
((ltRp270
sg81
g9
((lp271
g262
atRp272
sg38
I00
sbag65
ag123
ag239
ag98
atRp273
sS'C'
g9
((lp274
g57
ag49
ag150
ag90
atRp275
sS'O'
g9
((lp276
g157
ag210
atRp277
sS'N'
g9
((lp278
g41
ag116
atRp279
ssg81
g9
((lp280
g223
ag201
ag181
ag191
ag252
ag145
ag262
ag111
ag205
ag234
ag135
ag170
ag83
atRp281
sg14
g1
sS'descriptor'
p282
(S'neutral'
p283
S'none'
p284
S'default'
p285
tp286
sS'atomDict'
p287
(dp288
g11
g20
sg213
g210
sg52
g49
sg93
g90
sg101
g98
sg160
g157
sg118
g116
sg152
g150
sg60
g57
sg68
g65
sg242
g239
sg125
g123
sg44
g41
sg34
g31
ssg18
g9
((lp289
g210
ag49
ag65
ag41
ag31
ag20
ag239
ag116
ag57
ag150
ag157
ag98
ag123
ag90
atRp290
sg79
g9
((ltRp291
sS'polyLink'
p292
g284
sbsg39
g9
((lp293
g57
atRp294
sg16
S'H'
sg74
I0
sg17
I00
sg75
(F332.94442373035372
F383.63051474970388
F-9.339694676750268
tp295
sg77
(lp296
sg14
g1
sg79
g9
((ltRp297
sg81
g9
((lp298
g205
atRp299
sg38
I00
sbatRp300
sg38
I00
sbag60
ag213
ag93
ag101
ag160
ag68
ag152
ag52
ag242
ag118
ag44
ag34
ag125
atRp301
sS'ccpMolType'
p302
S'protein'
p303
sS'details'
p304
V
sg287
(dp305
S'C'
g152
sg43
g44
sg241
g242
sg33
g34
sg159
g160
sg59
g60
sg92
g93
sg51
g52
sS'N'
g118
sVH
g125
sg212
g213
sg100
g101
sg13
g11
sg67
g68
ssS'keywords'
p306
g9
((ltRp307
sg79
g9
((ltRp308
sS'variants'
p309
g9
((lp310
g26
atRp311
sS'defaultVars'
p312
g9
((ltRp313
sb.