(imodel.Compound
Compound
p1
(dp2
S'name'
p3
VASPARTIC ACID
p4
sS'isModified'
p5
I01
sS'ccpCode'
p6
VAsp
p7
sS'atoms'
p8
c__builtin__
set
p9
((lp10
(imodel.Atom
Atom
p11
(dp12
g3
S'HA'
p13
sS'compound'
p14
g1
sS'element'
p15
S'H'
sS'isVariable'
p16
I00
sS'varAtoms'
p17
g9
((lp18
(imodel.VarAtom
VarAtom
p19
(dp20
g3
g13
sS'isLabile'
p21
I00
sS'chirality'
p22
NsS'atom'
p23
g11
sS'variant'
p24
(imodel.Variant
Variant
p25
(dp26
S'elementDict'
p27
(dp28
S'H'
g9
((lp29
g19
a(imodel.VarAtom
VarAtom
p30
(dp31
g3
S'H2'
p32
sg21
I00
sg22
Nsg23
(imodel.Atom
Atom
p33
(dp34
g3
g32
sg14
g1
sg15
S'H'
sg16
I00
sg17
g9
((lp35
(imodel.VarAtom
VarAtom
p36
(dp37
g3
g32
sg21
I00
sg22
Nsg23
g33
sg24
(imodel.Variant
Variant
p38
(dp39
g27
(dp40
S'H'
g9
((lp41
g36
a(imodel.VarAtom
VarAtom
p42
(dp43
g3
S'HB2'
p44
sg21
I00
sg22
Nsg23
(imodel.Atom
Atom
p45
(dp46
g3
g44
sg14
g1
sg15
S'H'
sg16
I00
sg17
g9
((lp47
(imodel.VarAtom
VarAtom
p48
(dp49
g3
g44
sg21
I00
sg22
Nsg23
g45
sg24
(imodel.Variant
Variant
p50
(dp51
g27
(dp52
S'H'
g9
((lp53
(imodel.VarAtom
VarAtom
p54
(dp55
g3
g32
sg21
I00
sg22
Nsg23
g33
sg24
g50
sS'neighbours'
p56
g9
((lp57
(imodel.VarAtom
VarAtom
p58
(dp59
g3
S'N'
sg21
I00
sg22
Nsg23
(imodel.Atom
Atom
p60
(dp61
g3
S'N'
sg14
g1
sg15
S'N'
sg16
I00
sg17
g9
((lp62
(imodel.VarAtom
VarAtom
p63
(dp64
g3
S'N'
sg21
I00
sg22
Nsg23
g60
sg24
g25
sg56
g9
((lp65
(imodel.VarAtom
VarAtom
p66
(dp67
g3
S'H1'
p68
sg21
I00
sg22
Nsg23
(imodel.Atom
Atom
p69
(dp70
g3
g68
sg14
g1
sg15
S'H'
sg16
I00
sg17
g9
((lp71
(imodel.VarAtom
VarAtom
p72
(dp73
g3
g68
sg21
I00
sg22
Nsg23
g69
sg24
(imodel.Variant
Variant
p74
(dp75
g27
(dp76
S'H'
g9
((lp77
(imodel.VarAtom
VarAtom
p78
(dp79
g3
S'H3'
p80
sg21
I00
sg22
Nsg23
(imodel.Atom
Atom
p81
(dp82
g3
g80
sg14
g1
sg15
S'H'
sg16
I01
sg17
g9
((lp83
g78
a(imodel.VarAtom
VarAtom
p84
(dp85
g3
g80
sg21
I00
sg22
Nsg23
g81
sg24
g38
sg56
g9
((lp86
(imodel.VarAtom
VarAtom
p87
(dp88
g3
S'N'
sg21
I00
sg22
Nsg23
g60
sg24
g38
sg56
g9
((lp89
g36
a(imodel.VarAtom
VarAtom
p90
(dp91
g3
S'CA'
p92
sg21
I00
sg22
S'S'
sg23
(imodel.Atom
Atom
p93
(dp94
g3
g92
sg14
g1
sg15
S'C'
sg16
I00
sg17
g9
((lp95
(imodel.VarAtom
VarAtom
p96
(dp97
g3
g92
sg21
I00
sg22
S'S'
sg23
g93
sg24
(imodel.Variant
Variant
p98
(dp99
g27
(dp100
S'H'
g9
((lp101
(imodel.VarAtom
VarAtom
p102
(dp103
g3
S"H''"
p104
sg21
I01
sg22
Nsg23
(imodel.Atom
Atom
p105
(dp106
g3
g104
sg14
g1
sg15
S'H'
sg16
I01
sg17
g9
((lp107
(imodel.VarAtom
VarAtom
p108
(dp109
g3
g104
sg21
I01
sg22
Nsg23
g105
sg24
g25
sg56
g9
((lp110
(imodel.VarAtom
VarAtom
p111
(dp112
g3
S"O''"
p113
sg21
I00
sg22
Nsg23
(imodel.Atom
Atom
p114
(dp115
g3
g113
sg14
g1
sg15
S'O'
sg16
I00
sg17
g9
((lp116
(imodel.VarAtom
VarAtom
p117
(dp118
g3
g113
sg21
I00
sg22
Nsg23
g114
sg24
g50
sg56
g9
((lp119
(imodel.VarAtom
VarAtom
p120
(dp121
g3
S'C'
sg21
I00
sg22
Nsg23
(imodel.Atom
Atom
p122
(dp123
g3
S'C'
sg14
g1
sg15
S'C'
sg16
I00
sg17
g9
((lp124
(imodel.VarAtom
VarAtom
p125
(dp126
g3
S'C'
sg21
I00
sg22
Nsg23
g122
sg24
g98
sg56
g9
((lp127
g96
a(imodel.VarAtom
VarAtom
p128
(dp129
g3
S"O'"
p130
sg21
I00
sg22
Nsg23
(imodel.Atom
Atom
p131
(dp132
g3
g130
sg14
g1
sg15
S'O'
sg16
I00
sg17
g9
((lp133
(imodel.VarAtom
VarAtom
p134
(dp135
g3
g130
sg21
I00
sg22
Nsg23
g131
sg24
g50
sg56
g9
((lp136
g120
atRp137
sg15
S'O'
sS'charge'
p138
I0
sg16
I00
sS'coords'
p139
(F202.25605566336804
F228.91841286095291
F-51.450314377487871
tp140
sS'freeValences'
p141
(lp142
sg14
g1
sS'atomGroups'
p143
g9
((ltRp144
sS'bonds'
p145
g9
((lp146
(imodel.Bond
Bond
p147
(dp148
g14
g1
sS'bondType'
p149
S'double'
p150
sg24
g50
sg17
g9
((lp151
g120
ag134
atRp152
sbatRp153
sS'isDeleted'
p154
I00
sba(imodel.VarAtom
VarAtom
p155
(dp156
g3
g130
sg21
I00
sg22
Nsg23
g131
sg24
(imodel.Variant
Variant
p157
(dp158
g27
(dp159
S'H'
g9
((lp160
(imodel.VarAtom
VarAtom
p161
(dp162
g3
g104
sg21
I01
sg22
Nsg23
g105
sg24
g157
sg56
g9
((lp163
(imodel.VarAtom
VarAtom
p164
(dp165
g3
g113
sg21
I00
sg22
Nsg23
g114
sg24
g157
sg56
g9
((lp166
g161
a(imodel.VarAtom
VarAtom
p167
(dp168
g3
S'C'
sg21
I00
sg22
Nsg23
g122
sg24
g157
sg56
g9
((lp169
(imodel.VarAtom
VarAtom
p170
(dp171
g3
g92
sg21
I00
sg22
S'S'
sg23
g93
sg24
g157
sg56
g9
((lp172
g167
a(imodel.VarAtom
VarAtom
p173
(dp174
g3
g13
sg21
I00
sg22
Nsg23
g11
sg24
g157
sg56
g9
((lp175
g170
atRp176
sg15
S'H'
sg138
I0
sg16
I00
sg139
(F251.6509423130876
F347.01954069670694
F5.1904320798556425
tp177
sg141
(lp178
sg14
g1
sg143
g9
((ltRp179
sg145
g9
((lp180
(imodel.Bond
Bond
p181
(dp182
g14
g1
sg149
S'single'
p183
sg24
g157
sg17
g9
((lp184
g173
ag170
atRp185
sbatRp186
sg154
I00
sba(imodel.VarAtom
VarAtom
p187
(dp188
g3
S'N'
sg21
I00
sg22
Nsg23
g60
sg24
g157
sg56
g9
((lp189
(imodel.VarAtom
VarAtom
p190
(dp191
g3
g68
sg21
I00
sg22
Nsg23
g69
sg24
g157
sg56
g9
((lp192
g187
atRp193
sg15
S'H'
sg138
I0
sg16
I00
sg139
(F206.25291240877863
F382.47001789990009
F79.32808821503707
tp194
sg141
(lp195
sg14
g1
sg143
g9
((lp196
(imodel.AtomGroup
AtomGroup
p197
(dp198
S'groupType'
p199
S'equivalent'
p200
sS'subGroups'
p201
g9
((ltRp202
sg17
g9
((lp203
(imodel.VarAtom
VarAtom
p204
(dp205
g3
g32
sg21
I00
sg22
Nsg23
g33
sg24
g157
sg56
g9
((lp206
g187
atRp207
sg15
S'H'
sg138
I0
sg16
I00
sg139
(F158.34853406885648
F341.71453818243748
F50.358717118805174
tp208
sg141
(lp209
sg14
g1
sg143
g9
((lp210
g197
atRp211
sg145
g9
((lp212
(imodel.Bond
Bond
p213
(dp214
g14
g1
sg149
g183
sg24
g157
sg17
g9
((lp215
g204
ag187
atRp216
sbatRp217
sg154
I00
sbag190
atRp218
sg24
g157
sg14
g1
sbatRp219
sg145
g9
((lp220
(imodel.Bond
Bond
p221
(dp222
g14
g1
sg149
g183
sg24
g157
sg17
g9
((lp223
g190
ag187
atRp224
sbatRp225
sg154
I00
sbag204
ag170
atRp226
sg15
S'N'
sg138
I0
sg16
I00
sg139
(F196.76805182684072
F343.97465469362584
F40.445869321746038
tp227
sg141
(lp228
sg14
g1
sg143
g9
((ltRp229
sg145
g9
((lp230
g221
ag213
a(imodel.Bond
Bond
p231
(dp232
g14
g1
sg149
g183
sg24
g157
sg17
g9
((lp233
g170
ag187
atRp234
sbatRp235
sg154
I00
sba(imodel.VarAtom
VarAtom
p236
(dp237
g3
S'CB'
p238
sg21
I00
sg22
Nsg23
(imodel.Atom
Atom
p239
(dp240
g3
g238
sg14
g1
sg15
S'C'
sg16
I00
sg17
g9
((lp241
(imodel.VarAtom
VarAtom
p242
(dp243
g3
g238
sg21
I00
sg22
Nsg23
g239
sg24
g50
sg56
g9
((lp244
(imodel.VarAtom
VarAtom
p245
(dp246
g3
g92
sg21
I00
sg22
S'S'
sg23
g93
sg24
g50
sg56
g9
((lp247
g120
a(imodel.VarAtom
VarAtom
p248
(dp249
g3
g13
sg21
I00
sg22
Nsg23
g11
sg24
g50
sg56
g9
((lp250
g245
atRp251
sg15
S'H'
sg138
I0
sg16
I00
sg139
(F251.6509423130876
F347.01954069670694
F5.1904320798556425
tp252
sg141
(lp253
sg14
g1
sg143
g9
((ltRp254
sg145
g9
((lp255
(imodel.Bond
Bond
p256
(dp257
g14
g1
sg149
g183
sg24
g50
sg17
g9
((lp258
g248
ag245
atRp259
sbatRp260
sg154
I00
sbag58
ag242
atRp261
sg15
S'C'
sg138
I0
sg16
I00
sg139
(F237.02393117296833
F311.60333808659198
F21.189130268464709
tp262
sg141
(lp263
sg14
g1
sg143
g9
((ltRp264
sg145
g9
((lp265
(imodel.Bond
Bond
p266
(dp267
g14
g1
sg149
g183
sg24
g50
sg17
g9
((lp268
g120
ag245
atRp269
sba(imodel.Bond
Bond
p270
(dp271
g14
g1
sg149
g183
sg24
g50
sg17
g9
((lp272
g242
ag245
atRp273
sbag256
a(imodel.Bond
Bond
p274
(dp275
g14
g1
sg149
g183
sg24
g50
sg17
g9
((lp276
g245
ag58
atRp277
sbatRp278
sg154
I00
sbag48
a(imodel.VarAtom
VarAtom
p279
(dp280
g3
S'HB3'
p281
sg21
I00
sg22
Nsg23
(imodel.Atom
Atom
p282
(dp283
g3
g281
sg14
g1
sg15
S'H'
sg16
I00
sg17
g9
((lp284
(imodel.VarAtom
VarAtom
p285
(dp286
g3
g281
sg21
I00
sg22
Nsg23
g282
sg24
g74
sg56
g9
((lp287
(imodel.VarAtom
VarAtom
p288
(dp289
g3
g238
sg21
I00
sg22
Nsg23
g239
sg24
g74
sg56
g9
((lp290
(imodel.VarAtom
VarAtom
p291
(dp292
g3
g92
sg21
I00
sg22
S'S'
sg23
g93
sg24
g74
sg56
g9
((lp293
(imodel.VarAtom
VarAtom
p294
(dp295
g3
S'C'
sg21
I00
sg22
Nsg23
g122
sg24
g74
sg56
g9
((lp296
g291
a(imodel.VarAtom
VarAtom
p297
(dp298
g3
g113
sg21
I00
sg22
Nsg23
g114
sg24
g74
sg56
g9
((lp299
g294
atRp300
sg15
S'O'
sg138
I-1
sg16
I00
sg139
(F154.18484474910659
F263.09993378220105
F-68.569284021520318
tp301
sg141
(lp302
sg14
g1
sg143
g9
((ltRp303
sg145
g9
((lp304
(imodel.Bond
Bond
p305
(dp306
g14
g1
sg149
g183
sg24
g74
sg17
g9
((lp307
g294
ag297
atRp308
sbatRp309
sg154
I00
sba(imodel.VarAtom
VarAtom
p310
(dp311
g3
g130
sg21
I00
sg22
Nsg23
g131
sg24
g74
sg56
g9
((lp312
g294
atRp313
sg15
S'O'
sg138
I0
sg16
I00
sg139
(F202.25605566336804
F228.91841286095291
F-51.450314377487871
tp314
sg141
(lp315
sg14
g1
sg143
g9
((ltRp316
sg145
g9
((lp317
(imodel.Bond
Bond
p318
(dp319
g14
g1
sg149
g150
sg24
g74
sg17
g9
((lp320
g294
ag310
atRp321
sbatRp322
sg154
I00
sbatRp323
sg15
S'C'
sg138
I0
sg16
I00
sg139
(F203.82554354350083
F272.6801369710808
F-38.492018306331161
tp324
sg141
(lp325
sg14
g1
sg143
g9
((ltRp326
sg145
g9
((lp327
(imodel.Bond
Bond
p328
(dp329
g14
g1
sg149
g183
sg24
g74
sg17
g9
((lp330
g294
ag291
atRp331
sbag305
ag318
atRp332
sg154
I00
sba(imodel.VarAtom
VarAtom
p333
(dp334
g3
g13
sg21
I00
sg22
Nsg23
g11
sg24
g74
sg56
g9
((lp335
g291
atRp336
sg15
S'H'
sg138
I0
sg16
I00
sg139
(F251.6509423130876
F347.01954069670694
F5.1904320798556425
tp337
sg141
(lp338
sg14
g1
sg143
g9
((ltRp339
sg145
g9
((lp340
(imodel.Bond
Bond
p341
(dp342
g14
g1
sg149
g183
sg24
g74
sg17
g9
((lp343
g333
ag291
atRp344
sbatRp345
sg154
I00
sbag288
a(imodel.VarAtom
VarAtom
p346
(dp347
g3
S'N'
sg21
I00
sg22
Nsg23
g60
sg24
g74
sg56
g9
((lp348
g78
ag291
ag72
a(imodel.VarAtom
VarAtom
p349
(dp350
g3
g32
sg21
I00
sg22
Nsg23
g33
sg24
g74
sg56
g9
((lp351
g346
atRp352
sg15
S'H'
sg138
I0
sg16
I00
sg139
(F158.34853406885648
F341.71453818243748
F50.358717118805174
tp353
sg141
(lp354
sg14
g1
sg143
g9
((lp355
(imodel.AtomGroup
AtomGroup
p356
(dp357
g199
g200
sg201
g9
((ltRp358
sg17
g9
((lp359
g349
ag72
atRp360
sg24
g74
sg14
g1
sbatRp361
sg145
g9
((lp362
(imodel.Bond
Bond
p363
(dp364
g14
g1
sg149
g183
sg24
g74
sg17
g9
((lp365
g349
ag346
atRp366
sbatRp367
sg154
I00
sbatRp368
sg15
S'N'
sg138
I1
sg16
I00
sg139
(F196.76805182684072
F343.97465469362584
F40.445869321746038
tp369
sg141
(lp370
sg14
g1
sg143
g9
((ltRp371
sg145
g9
((lp372
(imodel.Bond
Bond
p373
(dp374
g14
g1
sg149
g183
sg24
g74
sg17
g9
((lp375
g72
ag346
atRp376
sba(imodel.Bond
Bond
p377
(dp378
g14
g1
sg149
g183
sg24
g74
sg17
g9
((lp379
g78
ag346
atRp380
sba(imodel.Bond
Bond
p381
(dp382
g14
g1
sg149
g183
sg24
g74
sg17
g9
((lp383
g291
ag346
atRp384
sbag363
atRp385
sg154
I00
sbatRp386
sg15
S'C'
sg138
I0
sg16
I00
sg139
(F237.02393117296833
F311.60333808659198
F21.189130268464709
tp387
sg141
(lp388
sg14
g1
sg143
g9
((ltRp389
sg145
g9
((lp390
g328
a(imodel.Bond
Bond
p391
(dp392
g14
g1
sg149
g183
sg24
g74
sg17
g9
((lp393
g288
ag291
atRp394
sbag381
ag341
atRp395
sg154
I00
sba(imodel.VarAtom
VarAtom
p396
(dp397
g3
g44
sg21
I00
sg22
Nsg23
g45
sg24
g74
sg56
g9
((lp398
g288
atRp399
sg15
S'H'
sg138
I0
sg16
I00
sg139
(F325.1907313452117
F287.45594249043813
F72.741671350933302
tp400
sg141
(lp401
sg14
g1
sg143
g9
((ltRp402
sg145
g9
((lp403
(imodel.Bond
Bond
p404
(dp405
g14
g1
sg149
g183
sg24
g74
sg17
g9
((lp406
g396
ag288
atRp407
sbatRp408
sg154
I00
sbag285
a(imodel.VarAtom
VarAtom
p409
(dp410
g3
S'CG'
p411
sg21
I00
sg22
Nsg23
(imodel.Atom
Atom
p412
(dp413
g3
g411
sg14
g1
sg15
S'C'
sg16
I00
sg17
g9
((lp414
g409
a(imodel.VarAtom
VarAtom
p415
(dp416
g3
g411
sg21
I00
sg22
Nsg23
g412
sg24
g38
sg56
g9
((lp417
(imodel.VarAtom
VarAtom
p418
(dp419
g3
S'OD1'
p420
sg21
I00
sg22
Nsg23
(imodel.Atom
Atom
p421
(dp422
g3
g420
sg14
g1
sg15
S'O'
sg16
I00
sg17
g9
((lp423
(imodel.VarAtom
VarAtom
p424
(dp425
g3
g420
sg21
I00
sg22
Nsg23
g421
sg24
g98
sg56
g9
((lp426
(imodel.VarAtom
VarAtom
p427
(dp428
g3
g411
sg21
I00
sg22
Nsg23
g412
sg24
g98
sg56
g9
((lp429
g424
a(imodel.VarAtom
VarAtom
p430
(dp431
g3
S'OD2'
p432
sg21
I00
sg22
Nsg23
(imodel.Atom
Atom
p433
(dp434
g3
g432
sg14
g1
sg15
S'O'
sg16
I00
sg17
g9
((lp435
g430
a(imodel.VarAtom
VarAtom
p436
(dp437
g3
g432
sg21
I00
sg22
Nsg23
g433
sg24
g50
sg56
g9
((lp438
(imodel.VarAtom
VarAtom
p439
(dp440
g3
g411
sg21
I00
sg22
Nsg23
g412
sg24
g50
sg56
g9
((lp441
(imodel.VarAtom
VarAtom
p442
(dp443
g3
g420
sg21
I00
sg22
Nsg23
g421
sg24
g50
sg56
g9
((lp444
g439
atRp445
sg15
S'O'
sg138
I0
sg16
I00
sg139
(F336.02686194018008
F222.38660481026051
F149.73296546477306
tp446
sg141
(lp447
sg14
g1
sg143
g9
((ltRp448
sg145
g9
((lp449
(imodel.Bond
Bond
p450
(dp451
g14
g1
sg149
S'double'
p452
sg24
g50
sg17
g9
((lp453
g442
ag439
atRp454
sbatRp455
sg154
I00
sbag436
ag242
atRp456
sg15
S'C'
sg138
I0
sg16
I00
sg139
(F296.24363116165728
F241.6170418643886
F100.79309708700997
tp457
sg141
(lp458
sg14
g1
sg143
g9
((ltRp459
sg145
g9
((lp460
g450
a(imodel.Bond
Bond
p461
(dp462
g14
g1
sg149
g183
sg24
g50
sg17
g9
((lp463
g436
ag439
atRp464
sba(imodel.Bond
Bond
p465
(dp466
g14
g1
sg149
g183
sg24
g50
sg17
g9
((lp467
g242
ag439
atRp468
sbatRp469
sg154
I00
sba(imodel.VarAtom
VarAtom
p470
(dp471
g3
S'HD2'
p472
sg21
I01
sg22
Nsg23
(imodel.Atom
Atom
p473
(dp474
g3
g472
sg14
g1
sg15
S'H'
sg16
I01
sg17
g9
((lp475
(imodel.VarAtom
VarAtom
p476
(dp477
g3
g472
sg21
I01
sg22
Nsg23
g473
sg24
g98
sg56
g9
((lp478
g430
atRp479
sg15
S'H'
sg138
I0
sg16
I01
sg139
(F264.33518976051528
F159.15441888239695
F79.335385274622197
tp480
sg141
(lp481
sg14
g1
sg143
g9
((ltRp482
sg145
g9
((lp483
(imodel.Bond
Bond
p484
(dp485
g14
g1
sg149
g183
sg24
g98
sg17
g9
((lp486
g430
ag476
atRp487
sbatRp488
sg154
I00
sba(imodel.VarAtom
VarAtom
p489
(dp490
g3
g472
sg21
I01
sg22
Nsg23
g473
sg24
g74
sg56
g9
((lp491
(imodel.VarAtom
VarAtom
p492
(dp493
g3
g432
sg21
I00
sg22
Nsg23
g433
sg24
g74
sg56
g9
((lp494
g409
ag489
atRp495
sg15
S'O'
sg138
I0
sg16
I00
sg139
(F275.8229460252669
F195.26507370175486
F67.353225262388634
tp496
sg141
(lp497
sg14
g1
sg143
g9
((ltRp498
sg145
g9
((lp499
(imodel.Bond
Bond
p500
(dp501
g14
g1
sg149
g183
sg24
g74
sg17
g9
((lp502
g492
ag409
atRp503
sba(imodel.Bond
Bond
p504
(dp505
g14
g1
sg149
g183
sg24
g74
sg17
g9
((lp506
g492
ag489
atRp507
sbatRp508
sg154
I00
sbatRp509
sg15
S'H'
sg138
I0
sg16
I01
sg139
(F264.33518976051528
F159.15441888239695
F79.335385274622197
tp510
sg141
(lp511
sg14
g1
sg143
g9
((ltRp512
sg145
g9
((lp513
g504
atRp514
sg154
I00
sba(imodel.VarAtom
VarAtom
p515
(dp516
g3
g472
sg21
I01
sg22
Nsg23
g473
sg24
(imodel.Variant
Variant
p517
(dp518
g27
(dp519
S'H'
g9
((lp520
(imodel.VarAtom
VarAtom
p521
(dp522
g3
g32
sg21
I00
sg22
Nsg23
g33
sg24
g517
sg56
g9
((lp523
(imodel.VarAtom
VarAtom
p524
(dp525
g3
S'N'
sg21
I00
sg22
Nsg23
g60
sg24
g517
sg56
g9
((lp526
(imodel.VarAtom
VarAtom
p527
(dp528
g3
g68
sg21
I00
sg22
Nsg23
g69
sg24
g517
sg56
g9
((lp529
g524
atRp530
sg15
S'H'
sg138
I0
sg16
I00
sg139
(F206.25291240877863
F382.47001789990009
F79.32808821503707
tp531
sg141
(lp532
sg14
g1
sg143
g9
((lp533
(imodel.AtomGroup
AtomGroup
p534
(dp535
g199
g200
sg201
g9
((ltRp536
sg17
g9
((lp537
g521
ag527
atRp538
sg24
g517
sg14
g1
sbatRp539
sg145
g9
((lp540
(imodel.Bond
Bond
p541
(dp542
g14
g1
sg149
g183
sg24
g517
sg17
g9
((lp543
g527
ag524
atRp544
sbatRp545
sg154
I00
sba(imodel.VarAtom
VarAtom
p546
(dp547
g3
g92
sg21
I00
sg22
S'S'
sg23
g93
sg24
g517
sg56
g9
((lp548
(imodel.VarAtom
VarAtom
p549
(dp550
g3
g238
sg21
I00
sg22
Nsg23
g239
sg24
g517
sg56
g9
((lp551
(imodel.VarAtom
VarAtom
p552
(dp553
g3
g44
sg21
I00
sg22
Nsg23
g45
sg24
g517
sg56
g9
((lp554
g549
atRp555
sg15
S'H'
sg138
I0
sg16
I00
sg139
(F325.1907313452117
F287.45594249043813
F72.741671350933302
tp556
sg141
(lp557
sg14
g1
sg143
g9
((ltRp558
sg145
g9
((lp559
(imodel.Bond
Bond
p560
(dp561
g14
g1
sg149
g183
sg24
g517
sg17
g9
((lp562
g552
ag549
atRp563
sbatRp564
sg154
I00
sba(imodel.VarAtom
VarAtom
p565
(dp566
g3
g281
sg21
I00
sg22
Nsg23
g282
sg24
g517
sg56
g9
((lp567
g549
atRp568
sg15
S'H'
sg138
I0
sg16
I00
sg139
(F302.629221437708
F327.59330137319091
F125.11731298030705
tp569
sg141
(lp570
sg14
g1
sg143
g9
((ltRp571
sg145
g9
((lp572
(imodel.Bond
Bond
p573
(dp574
g14
g1
sg149
g183
sg24
g517
sg17
g9
((lp575
g549
ag565
atRp576
sbatRp577
sg154
I00
sba(imodel.VarAtom
VarAtom
p578
(dp579
g3
g411
sg21
I00
sg22
Nsg23
g412
sg24
g517
sg56
g9
((lp580
(imodel.VarAtom
VarAtom
p581
(dp582
g3
g420
sg21
I00
sg22
Nsg23
g421
sg24
g517
sg56
g9
((lp583
g578
atRp584
sg15
S'O'
sg138
I0
sg16
I00
sg139
(F336.02686194018008
F222.38660481026051
F149.73296546477306
tp585
sg141
(lp586
sg14
g1
sg143
g9
((ltRp587
sg145
g9
((lp588
(imodel.Bond
Bond
p589
(dp590
g14
g1
sg149
g452
sg24
g517
sg17
g9
((lp591
g581
ag578
atRp592
sbatRp593
sg154
I00
sba(imodel.VarAtom
VarAtom
p594
(dp595
g3
g432
sg21
I00
sg22
Nsg23
g433
sg24
g517
sg56
g9
((lp596
g578
ag515
atRp597
sg15
S'O'
sg138
I0
sg16
I00
sg139
(F275.8229460252669
F195.26507370175486
F67.353225262388634
tp598
sg141
(lp599
sg14
g1
sg143
g9
((ltRp600
sg145
g9
((lp601
(imodel.Bond
Bond
p602
(dp603
g14
g1
sg149
g183
sg24
g517
sg17
g9
((lp604
g594
ag578
atRp605
sba(imodel.Bond
Bond
p606
(dp607
g14
g1
sg149
g183
sg24
g517
sg17
g9
((lp608
g594
ag515
atRp609
sbatRp610
sg154
I00
sbag549
atRp611
sg15
S'C'
sg138
I0
sg16
I00
sg139
(F296.24363116165728
F241.6170418643886
F100.79309708700997
tp612
sg141
(lp613
sg14
g1
sg143
g9
((ltRp614
sg145
g9
((lp615
g589
ag602
a(imodel.Bond
Bond
p616
(dp617
g14
g1
sg149
g183
sg24
g517
sg17
g9
((lp618
g549
ag578
atRp619
sbatRp620
sg154
I00
sbag546
atRp621
sg15
S'C'
sg138
I0
sg16
I00
sg139
(F286.68266441908725
F292.23705966261468
F81.474457814497512
tp622
sg141
(lp623
sg14
g1
sg143
g9
((ltRp624
sg145
g9
((lp625
(imodel.Bond
Bond
p626
(dp627
g14
g1
sg149
g183
sg24
g517
sg17
g9
((lp628
g549
ag546
atRp629
sbag616
ag573
ag560
atRp630
sg154
I00
sba(imodel.VarAtom
VarAtom
p631
(dp632
g3
S'C'
sg21
I00
sg22
Nsg23
g122
sg24
g517
sg56
g9
((lp633
g546
a(imodel.VarAtom
VarAtom
p634
(dp635
g3
g113
sg21
I00
sg22
Nsg23
g114
sg24
g517
sg56
g9
((lp636
(imodel.VarAtom
VarAtom
p637
(dp638
g3
g104
sg21
I01
sg22
Nsg23
g105
sg24
g517
sg56
g9
((lp639
g634
atRp640
sg15
S'H'
sg138
I0
sg16
I01
sg139
(F116.34745922115484
F260.34869429761306
F-106.17612818332839
tp641
sg141
(lp642
sg14
g1
sg143
g9
((ltRp643
sg145
g9
((lp644
(imodel.Bond
Bond
p645
(dp646
g14
g1
sg149
g183
sg24
g517
sg17
g9
((lp647
g637
ag634
atRp648
sbatRp649
sg154
I00
sbag631
atRp650
sg15
S'O'
sg138
I0
sg16
I00
sg139
(F154.18484474910659
F263.09993378220105
F-68.569284021520318
tp651
sg141
(lp652
sg14
g1
sg143
g9
((ltRp653
sg145
g9
((lp654
g645
a(imodel.Bond
Bond
p655
(dp656
g14
g1
sg149
g183
sg24
g517
sg17
g9
((lp657
g631
ag634
atRp658
sbatRp659
sg154
I00
sba(imodel.VarAtom
VarAtom
p660
(dp661
g3
g130
sg21
I00
sg22
Nsg23
g131
sg24
g517
sg56
g9
((lp662
g631
atRp663
sg15
S'O'
sg138
I0
sg16
I00
sg139
(F202.25605566336804
F228.91841286095291
F-51.450314377487871
tp664
sg141
(lp665
sg14
g1
sg143
g9
((ltRp666
sg145
g9
((lp667
(imodel.Bond
Bond
p668
(dp669
g14
g1
sg149
g150
sg24
g517
sg17
g9
((lp670
g631
ag660
atRp671
sbatRp672
sg154
I00
sbatRp673
sg15
S'C'
sg138
I0
sg16
I00
sg139
(F203.82554354350083
F272.6801369710808
F-38.492018306331161
tp674
sg141
(lp675
sg14
g1
sg143
g9
((ltRp676
sg145
g9
((lp677
(imodel.Bond
Bond
p678
(dp679
g14
g1
sg149
g183
sg24
g517
sg17
g9
((lp680
g631
ag546
atRp681
sbag655
ag668
atRp682
sg154
I00
sbag524
a(imodel.VarAtom
VarAtom
p683
(dp684
g3
g13
sg21
I00
sg22
Nsg23
g11
sg24
g517
sg56
g9
((lp685
g546
atRp686
sg15
S'H'
sg138
I0
sg16
I00
sg139
(F251.6509423130876
F347.01954069670694
F5.1904320798556425
tp687
sg141
(lp688
sg14
g1
sg143
g9
((ltRp689
sg145
g9
((lp690
(imodel.Bond
Bond
p691
(dp692
g14
g1
sg149
g183
sg24
g517
sg17
g9
((lp693
g683
ag546
atRp694
sbatRp695
sg154
I00
sbatRp696
sg15
S'C'
sg138
I0
sg16
I00
sg139
(F237.02393117296833
F311.60333808659198
F21.189130268464709
tp697
sg141
(lp698
sg14
g1
sg143
g9
((ltRp699
sg145
g9
((lp700
g678
ag626
ag691
a(imodel.Bond
Bond
p701
(dp702
g14
g1
sg149
g183
sg24
g517
sg17
g9
((lp703
g546
ag524
atRp704
sbatRp705
sg154
I00
sba(imodel.VarAtom
VarAtom
p706
(dp707
g3
g80
sg21
I00
sg22
Nsg23
g81
sg24
g517
sg56
g9
((lp708
g524
atRp709
sg15
S'H'
sg138
I0
sg16
I01
sg139
(F156.90774115101829
F377.8563475946105
F-1914.2975397935984
tp710
sg141
(lp711
sg14
g1
sg143
g9
((ltRp712
sg145
g9
((lp713
(imodel.Bond
Bond
p714
(dp715
g14
g1
sg149
g183
sg24
g517
sg17
g9
((lp716
g706
ag524
atRp717
sbatRp718
sg154
I00
sbag521
atRp719
sg15
S'N'
sg138
I1
sg16
I00
sg139
(F196.76805182684072
F343.97465469362584
F40.445869321746038
tp720
sg141
(lp721
sg14
g1
sg143
g9
((ltRp722
sg145
g9
((lp723
g541
ag714
ag701
a(imodel.Bond
Bond
p724
(dp725
g14
g1
sg149
g183
sg24
g517
sg17
g9
((lp726
g521
ag524
atRp727
sbatRp728
sg154
I00
sbatRp729
sg15
S'H'
sg138
I0
sg16
I00
sg139
(F158.34853406885648
F341.71453818243748
F50.358717118805174
tp730
sg141
(lp731
sg14
g1
sg143
g9
((lp732
g534
atRp733
sg145
g9
((lp734
g724
atRp735
sg154
I00
sbag683
ag515
ag552
ag527
ag565
ag637
ag706
atRp736
sS'C'
g9
((lp737
g578
ag549
ag631
ag546
atRp738
sS'O'
g9
((lp739
g581
ag594
ag634
ag660
atRp740
sS'N'
g9
((lp741
g524
atRp742
ssg145
g9
((lp743
g560
ag691
ag678
ag541
ag724
ag668
ag616
ag602
ag714
ag655
ag573
ag606
ag626
ag701
ag645
ag589
atRp744
sg14
g1
sS'descriptor'
p745
(S"+H'',+H3,+HD2"
S'none'
p746
S'default'
p747
tp748
sS'atomDict'
p749
(dp750
g433
g594
sg33
g521
sg122
g631
sg131
g660
sg93
g546
sg81
g706
sg60
g524
sg282
g565
sg473
g515
sg239
g549
sg105
g637
sg114
g634
sg412
g578
sg69
g527
sg421
g581
sg45
g552
sg11
g683
ssg17
g9
((lp751
g521
ag660
ag631
ag581
ag546
ag634
ag578
ag549
ag552
ag527
ag565
ag594
ag637
ag515
ag524
ag683
ag706
atRp752
sg143
g9
((lp753
g534
atRp754
sS'polyLink'
p755
g746
sbsg56
g9
((lp756
g594
atRp757
sg15
S'H'
sg138
I0
sg16
I01
sg139
(F264.33518976051528
F159.15441888239695
F79.335385274622197
tp758
sg141
(lp759
sg14
g1
sg143
g9
((ltRp760
sg145
g9
((lp761
g606
atRp762
sg154
I00
sbag470
atRp763
sg154
I00
sbsg24
g50
sg56
g9
((lp764
g436
atRp765
sg15
S'H'
sg138
I0
sg16
I01
sg139
(F264.33518976051528
F159.15441888239695
F79.335385274622197
tp766
sg141
(lp767
sg14
g1
sg143
g9
((ltRp768
sg145
g9
((lp769
(imodel.Bond
Bond
p770
(dp771
g14
g1
sg149
g183
sg24
g50
sg17
g9
((lp772
g436
ag470
atRp773
sbatRp774
sg154
I00
sbatRp775
sg15
S'O'
sg138
I0
sg16
I00
sg139
(F275.8229460252669
F195.26507370175486
F67.353225262388634
tp776
sg141
(lp777
sg14
g1
sg143
g9
((ltRp778
sg145
g9
((lp779
g461
ag770
atRp780
sg154
I00
sba(imodel.VarAtom
VarAtom
p781
(dp782
g3
g432
sg21
I00
sg22
Nsg23
g433
sg24
g157
sg56
g9
((lp783
(imodel.VarAtom
VarAtom
p784
(dp785
g3
g411
sg21
I00
sg22
Nsg23
g412
sg24
g157
sg56
g9
((lp786
(imodel.VarAtom
VarAtom
p787
(dp788
g3
g420
sg21
I00
sg22
Nsg23
g421
sg24
g157
sg56
g9
((lp789
g784
atRp790
sg15
S'O'
sg138
I0
sg16
I00
sg139
(F336.02686194018008
F222.38660481026051
F149.73296546477306
tp791
sg141
(lp792
sg14
g1
sg143
g9
((ltRp793
sg145
g9
((lp794
(imodel.Bond
Bond
p795
(dp796
g14
g1
sg149
g452
sg24
g157
sg17
g9
((lp797
g787
ag784
atRp798
sbatRp799
sg154
I00
sbag236
ag781
atRp800
sg15
S'C'
sg138
I0
sg16
I00
sg139
(F296.24363116165728
F241.6170418643886
F100.79309708700997
tp801
sg141
(lp802
sg14
g1
sg143
g9
((ltRp803
sg145
g9
((lp804
g795
a(imodel.Bond
Bond
p805
(dp806
g14
g1
sg149
g183
sg24
g157
sg17
g9
((lp807
g781
ag784
atRp808
sba(imodel.Bond
Bond
p809
(dp810
g14
g1
sg149
g183
sg24
g157
sg17
g9
((lp811
g236
ag784
atRp812
sbatRp813
sg154
I00
sbatRp814
sg15
S'O'
sg138
I-1
sg16
I00
sg139
(F275.8229460252669
F195.26507370175486
F67.353225262388634
tp815
sg141
(lp816
sg14
g1
sg143
g9
((ltRp817
sg145
g9
((lp818
g805
atRp819
sg154
I00
sba(imodel.VarAtom
VarAtom
p820
(dp821
g3
g432
sg21
I00
sg22
Nsg23
g433
sg24
g25
sg56
g9
((lp822
(imodel.VarAtom
VarAtom
p823
(dp824
g3
g411
sg21
I00
sg22
Nsg23
g412
sg24
g25
sg56
g9
((lp825
(imodel.VarAtom
VarAtom
p826
(dp827
g3
g420
sg21
I00
sg22
Nsg23
g421
sg24
g25
sg56
g9
((lp828
g823
atRp829
sg15
S'O'
sg138
I0
sg16
I00
sg139
(F336.02686194018008
F222.38660481026051
F149.73296546477306
tp830
sg141
(lp831
sg14
g1
sg143
g9
((ltRp832
sg145
g9
((lp833
(imodel.Bond
Bond
p834
(dp835
g14
g1
sg149
g452
sg24
g25
sg17
g9
((lp836
g826
ag823
atRp837
sbatRp838
sg154
I00
sbag820
a(imodel.VarAtom
VarAtom
p839
(dp840
g3
g238
sg21
I00
sg22
Nsg23
g239
sg24
g25
sg56
g9
((lp841
(imodel.VarAtom
VarAtom
p842
(dp843
g3
g92
sg21
I00
sg22
S'S'
sg23
g93
sg24
g25
sg56
g9
((lp844
g63
ag19
a(imodel.VarAtom
VarAtom
p845
(dp846
g3
S'C'
sg21
I00
sg22
Nsg23
g122
sg24
g25
sg56
g9
((lp847
g842
a(imodel.VarAtom
VarAtom
p848
(dp849
g3
g130
sg21
I00
sg22
Nsg23
g131
sg24
g25
sg56
g9
((lp850
g845
atRp851
sg15
S'O'
sg138
I0
sg16
I00
sg139
(F202.25605566336804
F228.91841286095291
F-51.450314377487871
tp852
sg141
(lp853
sg14
g1
sg143
g9
((ltRp854
sg145
g9
((lp855
(imodel.Bond
Bond
p856
(dp857
g14
g1
sg149
g150
sg24
g25
sg17
g9
((lp858
g845
ag848
atRp859
sbatRp860
sg154
I00
sbag111
atRp861
sg15
S'C'
sg138
I0
sg16
I00
sg139
(F203.82554354350083
F272.6801369710808
F-38.492018306331161
tp862
sg141
(lp863
sg14
g1
sg143
g9
((ltRp864
sg145
g9
((lp865
(imodel.Bond
Bond
p866
(dp867
g14
g1
sg149
g183
sg24
g25
sg17
g9
((lp868
g845
ag842
atRp869
sba(imodel.Bond
Bond
p870
(dp871
g14
g1
sg149
g183
sg24
g25
sg17
g9
((lp872
g845
ag111
atRp873
sbag856
atRp874
sg154
I00
sbag839
atRp875
sg15
S'C'
sg138
I0
sg16
I00
sg139
(F237.02393117296833
F311.60333808659198
F21.189130268464709
tp876
sg141
(lp877
sg14
g1
sg143
g9
((ltRp878
sg145
g9
((lp879
g866
a(imodel.Bond
Bond
p880
(dp881
g14
g1
sg149
g183
sg24
g25
sg17
g9
((lp882
g839
ag842
atRp883
sba(imodel.Bond
Bond
p884
(dp885
g14
g1
sg149
g183
sg24
g25
sg17
g9
((lp886
g19
ag842
atRp887
sba(imodel.Bond
Bond
p888
(dp889
g14
g1
sg149
g183
sg24
g25
sg17
g9
((lp890
g842
ag63
atRp891
sbatRp892
sg154
I00
sba(imodel.VarAtom
VarAtom
p893
(dp894
g3
g44
sg21
I00
sg22
Nsg23
g45
sg24
g25
sg56
g9
((lp895
g839
atRp896
sg15
S'H'
sg138
I0
sg16
I00
sg139
(F325.1907313452117
F287.45594249043813
F72.741671350933302
tp897
sg141
(lp898
sg14
g1
sg143
g9
((ltRp899
sg145
g9
((lp900
(imodel.Bond
Bond
p901
(dp902
g14
g1
sg149
g183
sg24
g25
sg17
g9
((lp903
g893
ag839
atRp904
sbatRp905
sg154
I00
sba(imodel.VarAtom
VarAtom
p906
(dp907
g3
g281
sg21
I00
sg22
Nsg23
g282
sg24
g25
sg56
g9
((lp908
g839
atRp909
sg15
S'H'
sg138
I0
sg16
I00
sg139
(F302.629221437708
F327.59330137319091
F125.11731298030705
tp910
sg141
(lp911
sg14
g1
sg143
g9
((ltRp912
sg145
g9
((lp913
(imodel.Bond
Bond
p914
(dp915
g14
g1
sg149
g183
sg24
g25
sg17
g9
((lp916
g839
ag906
atRp917
sbatRp918
sg154
I00
sbag823
atRp919
sg15
S'C'
sg138
I0
sg16
I00
sg139
(F286.68266441908725
F292.23705966261468
F81.474457814497512
tp920
sg141
(lp921
sg14
g1
sg143
g9
((ltRp922
sg145
g9
((lp923
g880
a(imodel.Bond
Bond
p924
(dp925
g14
g1
sg149
g183
sg24
g25
sg17
g9
((lp926
g839
ag823
atRp927
sbag914
ag901
atRp928
sg154
I00
sbatRp929
sg15
S'C'
sg138
I0
sg16
I00
sg139
(F296.24363116165728
F241.6170418643886
F100.79309708700997
tp930
sg141
(lp931
sg14
g1
sg143
g9
((ltRp932
sg145
g9
((lp933
g834
a(imodel.Bond
Bond
p934
(dp935
g14
g1
sg149
g183
sg24
g25
sg17
g9
((lp936
g820
ag823
atRp937
sbag924
atRp938
sg154
I00
sbatRp939
sg15
S'O'
sg138
I-1
sg16
I00
sg139
(F275.8229460252669
F195.26507370175486
F67.353225262388634
tp940
sg141
(lp941
sg14
g1
sg143
g9
((ltRp942
sg145
g9
((lp943
g934
atRp944
sg154
I00
sbag594
a(imodel.VarAtom
VarAtom
p945
(dp946
g3
g432
sg21
I00
sg22
Nsg23
g433
sg24
(imodel.Variant
Variant
p947
(dp948
g27
(dp949
S'H'
g9
((lp950
(imodel.VarAtom
VarAtom
p951
(dp952
g3
g44
sg21
I00
sg22
Nsg23
g45
sg24
g947
sg56
g9
((lp953
(imodel.VarAtom
VarAtom
p954
(dp955
g3
g238
sg21
I00
sg22
Nsg23
g239
sg24
g947
sg56
g9
((lp956
(imodel.VarAtom
VarAtom
p957
(dp958
g3
g281
sg21
I00
sg22
Nsg23
g282
sg24
g947
sg56
g9
((lp959
g954
atRp960
sg15
S'H'
sg138
I0
sg16
I00
sg139
(F302.629221437708
F327.59330137319091
F125.11731298030705
tp961
sg141
(lp962
sg14
g1
sg143
g9
((ltRp963
sg145
g9
((lp964
(imodel.Bond
Bond
p965
(dp966
g14
g1
sg149
g183
sg24
g947
sg17
g9
((lp967
g954
ag957
atRp968
sbatRp969
sg154
I00
sba(imodel.VarAtom
VarAtom
p970
(dp971
g3
g411
sg21
I00
sg22
Nsg23
g412
sg24
g947
sg56
g9
((lp972
(imodel.VarAtom
VarAtom
p973
(dp974
g3
g420
sg21
I00
sg22
Nsg23
g421
sg24
g947
sg56
g9
((lp975
g970
atRp976
sg15
S'O'
sg138
I0
sg16
I00
sg139
(F336.02686194018008
F222.38660481026051
F149.73296546477306
tp977
sg141
(lp978
sg14
g1
sg143
g9
((ltRp979
sg145
g9
((lp980
(imodel.Bond
Bond
p981
(dp982
g14
g1
sg149
g452
sg24
g947
sg17
g9
((lp983
g973
ag970
atRp984
sbatRp985
sg154
I00
sbag945
ag954
atRp986
sg15
S'C'
sg138
I0
sg16
I00
sg139
(F296.24363116165728
F241.6170418643886
F100.79309708700997
tp987
sg141
(lp988
sg14
g1
sg143
g9
((ltRp989
sg145
g9
((lp990
g981
a(imodel.Bond
Bond
p991
(dp992
g14
g1
sg149
g183
sg24
g947
sg17
g9
((lp993
g945
ag970
atRp994
sba(imodel.Bond
Bond
p995
(dp996
g14
g1
sg149
g183
sg24
g947
sg17
g9
((lp997
g954
ag970
atRp998
sbatRp999
sg154
I00
sbag951
a(imodel.VarAtom
VarAtom
p1000
(dp1001
g3
g92
sg21
I00
sg22
S'S'
sg23
g93
sg24
g947
sg56
g9
((lp1002
(imodel.VarAtom
VarAtom
p1003
(dp1004
g3
S'C'
sg21
I00
sg22
Nsg23
g122
sg24
g947
sg56
g9
((lp1005
g1000
a(imodel.VarAtom
VarAtom
p1006
(dp1007
g3
g113
sg21
I00
sg22
Nsg23
g114
sg24
g947
sg56
g9
((lp1008
g1003
atRp1009
sg15
S'O'
sg138
I-1
sg16
I00
sg139
(F154.18484474910659
F263.09993378220105
F-68.569284021520318
tp1010
sg141
(lp1011
sg14
g1
sg143
g9
((ltRp1012
sg145
g9
((lp1013
(imodel.Bond
Bond
p1014
(dp1015
g14
g1
sg149
g183
sg24
g947
sg17
g9
((lp1016
g1003
ag1006
atRp1017
sbatRp1018
sg154
I00
sba(imodel.VarAtom
VarAtom
p1019
(dp1020
g3
g130
sg21
I00
sg22
Nsg23
g131
sg24
g947
sg56
g9
((lp1021
g1003
atRp1022
sg15
S'O'
sg138
I0
sg16
I00
sg139
(F202.25605566336804
F228.91841286095291
F-51.450314377487871
tp1023
sg141
(lp1024
sg14
g1
sg143
g9
((ltRp1025
sg145
g9
((lp1026
(imodel.Bond
Bond
p1027
(dp1028
g14
g1
sg149
g150
sg24
g947
sg17
g9
((lp1029
g1003
ag1019
atRp1030
sbatRp1031
sg154
I00
sbatRp1032
sg15
S'C'
sg138
I0
sg16
I00
sg139
(F203.82554354350083
F272.6801369710808
F-38.492018306331161
tp1033
sg141
(lp1034
sg14
g1
sg143
g9
((ltRp1035
sg145
g9
((lp1036
(imodel.Bond
Bond
p1037
(dp1038
g14
g1
sg149
g183
sg24
g947
sg17
g9
((lp1039
g1003
ag1000
atRp1040
sbag1014
ag1027
atRp1041
sg154
I00
sba(imodel.VarAtom
VarAtom
p1042
(dp1043
g3
S'N'
sg21
I00
sg22
Nsg23
g60
sg24
g947
sg56
g9
((lp1044
(imodel.VarAtom
VarAtom
p1045
(dp1046
g3
g68
sg21
I00
sg22
Nsg23
g69
sg24
g947
sg56
g9
((lp1047
g1042
atRp1048
sg15
S'H'
sg138
I0
sg16
I00
sg139
(F206.25291240877863
F382.47001789990009
F79.32808821503707
tp1049
sg141
(lp1050
sg14
g1
sg143
g9
((lp1051
(imodel.AtomGroup
AtomGroup
p1052
(dp1053
g199
g200
sg201
g9
((ltRp1054
sg17
g9
((lp1055
(imodel.VarAtom
VarAtom
p1056
(dp1057
g3
g32
sg21
I00
sg22
Nsg23
g33
sg24
g947
sg56
g9
((lp1058
g1042
atRp1059
sg15
S'H'
sg138
I0
sg16
I00
sg139
(F158.34853406885648
F341.71453818243748
F50.358717118805174
tp1060
sg141
(lp1061
sg14
g1
sg143
g9
((lp1062
g1052
atRp1063
sg145
g9
((lp1064
(imodel.Bond
Bond
p1065
(dp1066
g14
g1
sg149
g183
sg24
g947
sg17
g9
((lp1067
g1056
ag1042
atRp1068
sbatRp1069
sg154
I00
sbag1045
atRp1070
sg24
g947
sg14
g1
sbatRp1071
sg145
g9
((lp1072
(imodel.Bond
Bond
p1073
(dp1074
g14
g1
sg149
g183
sg24
g947
sg17
g9
((lp1075
g1045
ag1042
atRp1076
sbatRp1077
sg154
I00
sbag1000
ag1056
atRp1078
sg15
S'N'
sg138
I0
sg16
I00
sg139
(F196.76805182684072
F343.97465469362584
F40.445869321746038
tp1079
sg141
(lp1080
sg14
g1
sg143
g9
((ltRp1081
sg145
g9
((lp1082
g1073
ag1065
a(imodel.Bond
Bond
p1083
(dp1084
g14
g1
sg149
g183
sg24
g947
sg17
g9
((lp1085
g1000
ag1042
atRp1086
sbatRp1087
sg154
I00
sbag954
a(imodel.VarAtom
VarAtom
p1088
(dp1089
g3
g13
sg21
I00
sg22
Nsg23
g11
sg24
g947
sg56
g9
((lp1090
g1000
atRp1091
sg15
S'H'
sg138
I0
sg16
I00
sg139
(F251.6509423130876
F347.01954069670694
F5.1904320798556425
tp1092
sg141
(lp1093
sg14
g1
sg143
g9
((ltRp1094
sg145
g9
((lp1095
(imodel.Bond
Bond
p1096
(dp1097
g14
g1
sg149
g183
sg24
g947
sg17
g9
((lp1098
g1088
ag1000
atRp1099
sbatRp1100
sg154
I00
sbatRp1101
sg15
S'C'
sg138
I0
sg16
I00
sg139
(F237.02393117296833
F311.60333808659198
F21.189130268464709
tp1102
sg141
(lp1103
sg14
g1
sg143
g9
((ltRp1104
sg145
g9
((lp1105
g1037
a(imodel.Bond
Bond
p1106
(dp1107
g14
g1
sg149
g183
sg24
g947
sg17
g9
((lp1108
g954
ag1000
atRp1109
sbag1083
ag1096
atRp1110
sg154
I00
sbatRp1111
sg15
S'C'
sg138
I0
sg16
I00
sg139
(F286.68266441908725
F292.23705966261468
F81.474457814497512
tp1112
sg141
(lp1113
sg14
g1
sg143
g9
((ltRp1114
sg145
g9
((lp1115
g1106
ag995
a(imodel.Bond
Bond
p1116
(dp1117
g14
g1
sg149
g183
sg24
g947
sg17
g9
((lp1118
g951
ag954
atRp1119
sbag965
atRp1120
sg154
I00
sbatRp1121
sg15
S'H'
sg138
I0
sg16
I00
sg139
(F325.1907313452117
F287.45594249043813
F72.741671350933302
tp1122
sg141
(lp1123
sg14
g1
sg143
g9
((ltRp1124
sg145
g9
((lp1125
g1116
atRp1126
sg154
I00
sbag957
ag1056
ag1045
ag1088
atRp1127
sS'C'
g9
((lp1128
g970
ag954
ag1003
ag1000
atRp1129
sS'O'
g9
((lp1130
g1006
ag973
ag1019
ag945
atRp1131
sS'N'
g9
((lp1132
g1042
atRp1133
ssg145
g9
((lp1134
g1096
ag1037
ag1116
ag1065
ag981
ag995
ag1027
ag1106
ag991
ag1014
ag1073
ag1083
ag965
atRp1135
sg14
g1
sg745
(S"-H'',-H3,-HD2"
g746
g747
tp1136
sg749
(dp1137
g421
g973
sg239
g954
sg122
g1003
sg93
g1000
sg60
g1042
sg131
g1019
sg45
g951
sg114
g1006
sg412
g970
sg69
g1045
sg282
g957
sg33
g1056
sg11
g1088
sg433
g945
ssg17
g9
((lp1138
g1000
ag1045
ag957
ag973
ag954
ag1003
ag951
ag945
ag1042
ag1019
ag1056
ag1006
ag1088
ag970
atRp1139
sg143
g9
((lp1140
g1052
atRp1141
sg755
g746
sbsg56
g9
((lp1142
g970
atRp1143
sg15
S'O'
sg138
I-1
sg16
I00
sg139
(F275.8229460252669
F195.26507370175486
F67.353225262388634
tp1144
sg141
(lp1145
sg14
g1
sg143
g9
((ltRp1146
sg145
g9
((lp1147
g991
atRp1148
sg154
I00
sbag492
a(imodel.VarAtom
VarAtom
p1149
(dp1150
g3
g432
sg21
I00
sg22
Nsg23
g433
sg24
g38
sg56
g9
((lp1151
g415
atRp1152
sg15
S'O'
sg138
I-1
sg16
I00
sg139
(F275.8229460252669
F195.26507370175486
F67.353225262388634
tp1153
sg141
(lp1154
sg14
g1
sg143
g9
((ltRp1155
sg145
g9
((lp1156
(imodel.Bond
Bond
p1157
(dp1158
g14
g1
sg149
g183
sg24
g38
sg17
g9
((lp1159
g1149
ag415
atRp1160
sbatRp1161
sg154
I00
sbatRp1162
sg154
I00
sbsg24
g98
sg56
g9
((lp1163
g427
ag476
atRp1164
sg15
S'O'
sg138
I0
sg16
I00
sg139
(F275.8229460252669
F195.26507370175486
F67.353225262388634
tp1165
sg141
(lp1166
sg14
g1
sg143
g9
((ltRp1167
sg145
g9
((lp1168
(imodel.Bond
Bond
p1169
(dp1170
g14
g1
sg149
g183
sg24
g98
sg17
g9
((lp1171
g430
ag427
atRp1172
sbag484
atRp1173
sg154
I00
sba(imodel.VarAtom
VarAtom
p1174
(dp1175
g3
g238
sg21
I00
sg22
Nsg23
g239
sg24
g98
sg56
g9
((lp1176
g96
ag427
a(imodel.VarAtom
VarAtom
p1177
(dp1178
g3
g44
sg21
I00
sg22
Nsg23
g45
sg24
g98
sg56
g9
((lp1179
g1174
atRp1180
sg15
S'H'
sg138
I0
sg16
I00
sg139
(F325.1907313452117
F287.45594249043813
F72.741671350933302
tp1181
sg141
(lp1182
sg14
g1
sg143
g9
((ltRp1183
sg145
g9
((lp1184
(imodel.Bond
Bond
p1185
(dp1186
g14
g1
sg149
g183
sg24
g98
sg17
g9
((lp1187
g1177
ag1174
atRp1188
sbatRp1189
sg154
I00
sba(imodel.VarAtom
VarAtom
p1190
(dp1191
g3
g281
sg21
I00
sg22
Nsg23
g282
sg24
g98
sg56
g9
((lp1192
g1174
atRp1193
sg15
S'H'
sg138
I0
sg16
I00
sg139
(F302.629221437708
F327.59330137319091
F125.11731298030705
tp1194
sg141
(lp1195
sg14
g1
sg143
g9
((ltRp1196
sg145
g9
((lp1197
(imodel.Bond
Bond
p1198
(dp1199
g14
g1
sg149
g183
sg24
g98
sg17
g9
((lp1200
g1174
ag1190
atRp1201
sbatRp1202
sg154
I00
sbatRp1203
sg15
S'C'
sg138
I0
sg16
I00
sg139
(F286.68266441908725
F292.23705966261468
F81.474457814497512
tp1204
sg141
(lp1205
sg14
g1
sg143
g9
((ltRp1206
sg145
g9
((lp1207
(imodel.Bond
Bond
p1208
(dp1209
g14
g1
sg149
g183
sg24
g98
sg17
g9
((lp1210
g1174
ag96
atRp1211
sba(imodel.Bond
Bond
p1212
(dp1213
g14
g1
sg149
g183
sg24
g98
sg17
g9
((lp1214
g1174
ag427
atRp1215
sbag1198
ag1185
atRp1216
sg154
I00
sbatRp1217
sg15
S'C'
sg138
I0
sg16
I00
sg139
(F296.24363116165728
F241.6170418643886
F100.79309708700997
tp1218
sg141
(lp1219
sg14
g1
sg143
g9
((ltRp1220
sg145
g9
((lp1221
(imodel.Bond
Bond
p1222
(dp1223
g14
g1
sg149
g452
sg24
g98
sg17
g9
((lp1224
g424
ag427
atRp1225
sbag1169
ag1212
atRp1226
sg154
I00
sbatRp1227
sg15
S'O'
sg138
I0
sg16
I00
sg139
(F336.02686194018008
F222.38660481026051
F149.73296546477306
tp1228
sg141
(lp1229
sg14
g1
sg143
g9
((ltRp1230
sg145
g9
((lp1231
g1222
atRp1232
sg154
I00
sba(imodel.VarAtom
VarAtom
p1233
(dp1234
g3
g420
sg21
I00
sg22
Nsg23
g421
sg24
g74
sg56
g9
((lp1235
g409
atRp1236
sg15
S'O'
sg138
I0
sg16
I00
sg139
(F336.02686194018008
F222.38660481026051
F149.73296546477306
tp1237
sg141
(lp1238
sg14
g1
sg143
g9
((ltRp1239
sg145
g9
((lp1240
(imodel.Bond
Bond
p1241
(dp1242
g14
g1
sg149
g452
sg24
g74
sg17
g9
((lp1243
g1233
ag409
atRp1244
sbatRp1245
sg154
I00
sbag581
ag442
ag973
ag787
ag826
ag418
atRp1246
sg154
I00
sbsg24
g38
sg56
g9
((lp1247
g415
atRp1248
sg15
S'O'
sg138
I0
sg16
I00
sg139
(F336.02686194018008
F222.38660481026051
F149.73296546477306
tp1249
sg141
(lp1250
sg14
g1
sg143
g9
((ltRp1251
sg145
g9
((lp1252
(imodel.Bond
Bond
p1253
(dp1254
g14
g1
sg149
g452
sg24
g38
sg17
g9
((lp1255
g418
ag415
atRp1256
sbatRp1257
sg154
I00
sbag1149
a(imodel.VarAtom
VarAtom
p1258
(dp1259
g3
g238
sg21
I00
sg22
Nsg23
g239
sg24
g38
sg56
g9
((lp1260
g415
ag90
ag42
a(imodel.VarAtom
VarAtom
p1261
(dp1262
g3
g281
sg21
I00
sg22
Nsg23
g282
sg24
g38
sg56
g9
((lp1263
g1258
atRp1264
sg15
S'H'
sg138
I0
sg16
I00
sg139
(F302.629221437708
F327.59330137319091
F125.11731298030705
tp1265
sg141
(lp1266
sg14
g1
sg143
g9
((ltRp1267
sg145
g9
((lp1268
(imodel.Bond
Bond
p1269
(dp1270
g14
g1
sg149
g183
sg24
g38
sg17
g9
((lp1271
g1258
ag1261
atRp1272
sbatRp1273
sg154
I00
sbatRp1274
sg15
S'C'
sg138
I0
sg16
I00
sg139
(F286.68266441908725
F292.23705966261468
F81.474457814497512
tp1275
sg141
(lp1276
sg14
g1
sg143
g9
((ltRp1277
sg145
g9
((lp1278
(imodel.Bond
Bond
p1279
(dp1280
g14
g1
sg149
g183
sg24
g38
sg17
g9
((lp1281
g1258
ag90
atRp1282
sba(imodel.Bond
Bond
p1283
(dp1284
g14
g1
sg149
g183
sg24
g38
sg17
g9
((lp1285
g1258
ag415
atRp1286
sba(imodel.Bond
Bond
p1287
(dp1288
g14
g1
sg149
g183
sg24
g38
sg17
g9
((lp1289
g42
ag1258
atRp1290
sbag1269
atRp1291
sg154
I00
sbatRp1292
sg15
S'C'
sg138
I0
sg16
I00
sg139
(F296.24363116165728
F241.6170418643886
F100.79309708700997
tp1293
sg141
(lp1294
sg14
g1
sg143
g9
((ltRp1295
sg145
g9
((lp1296
g1253
ag1157
ag1283
atRp1297
sg154
I00
sbag784
ag578
ag823
ag439
ag427
ag970
atRp1298
sg154
I00
sbsg24
g74
sg56
g9
((lp1299
g1233
ag492
ag288
atRp1300
sg15
S'C'
sg138
I0
sg16
I00
sg139
(F296.24363116165728
F241.6170418643886
F100.79309708700997
tp1301
sg141
(lp1302
sg14
g1
sg143
g9
((ltRp1303
sg145
g9
((lp1304
g1241
ag500
a(imodel.Bond
Bond
p1305
(dp1306
g14
g1
sg149
g183
sg24
g74
sg17
g9
((lp1307
g288
ag409
atRp1308
sbatRp1309
sg154
I00
sbatRp1310
sg15
S'C'
sg138
I0
sg16
I00
sg139
(F286.68266441908725
F292.23705966261468
F81.474457814497512
tp1311
sg141
(lp1312
sg14
g1
sg143
g9
((ltRp1313
sg145
g9
((lp1314
g391
ag1305
ag404
a(imodel.Bond
Bond
p1315
(dp1316
g14
g1
sg149
g183
sg24
g74
sg17
g9
((lp1317
g288
ag285
atRp1318
sbatRp1319
sg154
I00
sbatRp1320
sg15
S'H'
sg138
I0
sg16
I00
sg139
(F302.629221437708
F327.59330137319091
F125.11731298030705
tp1321
sg141
(lp1322
sg14
g1
sg143
g9
((ltRp1323
sg145
g9
((lp1324
g1315
atRp1325
sg154
I00
sba(imodel.VarAtom
VarAtom
p1326
(dp1327
g3
g281
sg21
I00
sg22
Nsg23
g282
sg24
g157
sg56
g9
((lp1328
g236
atRp1329
sg15
S'H'
sg138
I0
sg16
I00
sg139
(F302.629221437708
F327.59330137319091
F125.11731298030705
tp1330
sg141
(lp1331
sg14
g1
sg143
g9
((ltRp1332
sg145
g9
((lp1333
(imodel.Bond
Bond
p1334
(dp1335
g14
g1
sg149
g183
sg24
g157
sg17
g9
((lp1336
g236
ag1326
atRp1337
sbatRp1338
sg154
I00
sbag957
ag565
ag906
ag1261
ag279
ag1190
atRp1339
sg154
I00
sbsg24
g50
sg56
g9
((lp1340
g242
atRp1341
sg15
S'H'
sg138
I0
sg16
I00
sg139
(F302.629221437708
F327.59330137319091
F125.11731298030705
tp1342
sg141
(lp1343
sg14
g1
sg143
g9
((ltRp1344
sg145
g9
((lp1345
(imodel.Bond
Bond
p1346
(dp1347
g14
g1
sg149
g183
sg24
g50
sg17
g9
((lp1348
g242
ag279
atRp1349
sbatRp1350
sg154
I00
sbag439
atRp1351
sg15
S'C'
sg138
I0
sg16
I00
sg139
(F286.68266441908725
F292.23705966261468
F81.474457814497512
tp1352
sg141
(lp1353
sg14
g1
sg143
g9
((ltRp1354
sg145
g9
((lp1355
g270
ag465
ag1346
a(imodel.Bond
Bond
p1356
(dp1357
g14
g1
sg149
g183
sg24
g50
sg17
g9
((lp1358
g48
ag242
atRp1359
sbatRp1360
sg154
I00
sbag1174
ag288
ag236
ag549
ag839
ag1258
ag954
atRp1361
sg154
I00
sbsg24
g157
sg56
g9
((lp1362
g170
ag784
ag1326
a(imodel.VarAtom
VarAtom
p1363
(dp1364
g3
g44
sg21
I00
sg22
Nsg23
g45
sg24
g157
sg56
g9
((lp1365
g236
atRp1366
sg15
S'H'
sg138
I0
sg16
I00
sg139
(F325.1907313452117
F287.45594249043813
F72.741671350933302
tp1367
sg141
(lp1368
sg14
g1
sg143
g9
((ltRp1369
sg145
g9
((lp1370
(imodel.Bond
Bond
p1371
(dp1372
g14
g1
sg149
g183
sg24
g157
sg17
g9
((lp1373
g1363
ag236
atRp1374
sbatRp1375
sg154
I00
sbatRp1376
sg15
S'C'
sg138
I0
sg16
I00
sg139
(F286.68266441908725
F292.23705966261468
F81.474457814497512
tp1377
sg141
(lp1378
sg14
g1
sg143
g9
((ltRp1379
sg145
g9
((lp1380
(imodel.Bond
Bond
p1381
(dp1382
g14
g1
sg149
g183
sg24
g157
sg17
g9
((lp1383
g236
ag170
atRp1384
sbag809
ag1371
ag1334
atRp1385
sg154
I00
sbatRp1386
sg15
S'C'
sg138
I0
sg16
I00
sg139
(F237.02393117296833
F311.60333808659198
F21.189130268464709
tp1387
sg141
(lp1388
sg14
g1
sg143
g9
((ltRp1389
sg145
g9
((lp1390
(imodel.Bond
Bond
p1391
(dp1392
g14
g1
sg149
g183
sg24
g157
sg17
g9
((lp1393
g167
ag170
atRp1394
sbag1381
ag181
ag231
atRp1395
sg154
I00
sbag164
ag155
atRp1396
sg15
S'C'
sg138
I0
sg16
I00
sg139
(F203.82554354350083
F272.6801369710808
F-38.492018306331161
tp1397
sg141
(lp1398
sg14
g1
sg143
g9
((ltRp1399
sg145
g9
((lp1400
g1391
a(imodel.Bond
Bond
p1401
(dp1402
g14
g1
sg149
g183
sg24
g157
sg17
g9
((lp1403
g167
ag164
atRp1404
sba(imodel.Bond
Bond
p1405
(dp1406
g14
g1
sg149
g150
sg24
g157
sg17
g9
((lp1407
g167
ag155
atRp1408
sbatRp1409
sg154
I00
sbatRp1410
sg15
S'O'
sg138
I0
sg16
I00
sg139
(F154.18484474910659
F263.09993378220105
F-68.569284021520318
tp1411
sg141
(lp1412
sg14
g1
sg143
g9
((ltRp1413
sg145
g9
((lp1414
(imodel.Bond
Bond
p1415
(dp1416
g14
g1
sg149
g183
sg24
g157
sg17
g9
((lp1417
g161
ag164
atRp1418
sbag1401
atRp1419
sg154
I00
sbatRp1420
sg15
S'H'
sg138
I0
sg16
I01
sg139
(F116.34745922115484
F260.34869429761306
F-106.17612818332839
tp1421
sg141
(lp1422
sg14
g1
sg143
g9
((ltRp1423
sg145
g9
((lp1424
g1415
atRp1425
sg154
I00
sbag204
ag190
ag1363
ag173
ag1326
atRp1426
sS'C'
g9
((lp1427
g784
ag236
ag167
ag170
atRp1428
sS'O'
g9
((lp1429
g164
ag787
ag781
ag155
atRp1430
sS'N'
g9
((lp1431
g187
atRp1432
ssg145
g9
((lp1433
g1381
ag1415
ag1401
ag181
ag213
ag1371
ag1391
ag809
ag1334
ag221
ag805
ag231
ag1405
ag795
atRp1434
sg14
g1
sg745
(S"+H'',-H3,-HD2"
g746
g747
tp1435
sg749
(dp1436
g421
g787
sg239
g236
sg122
g167
sg131
g155
sg93
g170
sg60
g187
sg69
g190
sg45
g1363
sg114
g164
sg412
g784
sg105
g161
sg282
g1326
sg33
g204
sg11
g173
sg433
g781
ssg17
g9
((lp1437
g161
ag781
ag187
ag155
ag167
ag236
ag204
ag170
ag1363
ag173
ag190
ag787
ag1326
ag164
ag784
atRp1438
sg143
g9
((lp1439
g197
atRp1440
sg755
g746
sbsg56
g9
((lp1441
g167
atRp1442
sg15
S'O'
sg138
I0
sg16
I00
sg139
(F202.25605566336804
F228.91841286095291
F-51.450314377487871
tp1443
sg141
(lp1444
sg14
g1
sg143
g9
((ltRp1445
sg145
g9
((lp1446
g1405
atRp1447
sg154
I00
sbag848
a(imodel.VarAtom
VarAtom
p1448
(dp1449
g3
g130
sg21
I00
sg22
Nsg23
g131
sg24
g38
sg56
g9
((lp1450
(imodel.VarAtom
VarAtom
p1451
(dp1452
g3
S'C'
sg21
I00
sg22
Nsg23
g122
sg24
g38
sg56
g9
((lp1453
g90
a(imodel.VarAtom
VarAtom
p1454
(dp1455
g3
g113
sg21
I00
sg22
Nsg23
g114
sg24
g38
sg56
g9
((lp1456
g1451
atRp1457
sg15
S'O'
sg138
I-1
sg16
I00
sg139
(F154.18484474910659
F263.09993378220105
F-68.569284021520318
tp1458
sg141
(lp1459
sg14
g1
sg143
g9
((ltRp1460
sg145
g9
((lp1461
(imodel.Bond
Bond
p1462
(dp1463
g14
g1
sg149
g183
sg24
g38
sg17
g9
((lp1464
g1451
ag1454
atRp1465
sbatRp1466
sg154
I00
sbag1448
atRp1467
sg15
S'C'
sg138
I0
sg16
I00
sg139
(F203.82554354350083
F272.6801369710808
F-38.492018306331161
tp1468
sg141
(lp1469
sg14
g1
sg143
g9
((ltRp1470
sg145
g9
((lp1471
(imodel.Bond
Bond
p1472
(dp1473
g14
g1
sg149
g183
sg24
g38
sg17
g9
((lp1474
g1451
ag90
atRp1475
sbag1462
a(imodel.Bond
Bond
p1476
(dp1477
g14
g1
sg149
g150
sg24
g38
sg17
g9
((lp1478
g1451
ag1448
atRp1479
sbatRp1480
sg154
I00
sbatRp1481
sg15
S'O'
sg138
I0
sg16
I00
sg139
(F202.25605566336804
F228.91841286095291
F-51.450314377487871
tp1482
sg141
(lp1483
sg14
g1
sg143
g9
((ltRp1484
sg145
g9
((lp1485
g1476
atRp1486
sg154
I00
sbag660
ag1019
ag128
ag310
atRp1487
sg154
I00
sbsg24
g98
sg56
g9
((lp1488
g125
atRp1489
sg15
S'O'
sg138
I0
sg16
I00
sg139
(F202.25605566336804
F228.91841286095291
F-51.450314377487871
tp1490
sg141
(lp1491
sg14
g1
sg143
g9
((ltRp1492
sg145
g9
((lp1493
(imodel.Bond
Bond
p1494
(dp1495
g14
g1
sg149
g150
sg24
g98
sg17
g9
((lp1496
g125
ag128
atRp1497
sbatRp1498
sg154
I00
sba(imodel.VarAtom
VarAtom
p1499
(dp1500
g3
g113
sg21
I00
sg22
Nsg23
g114
sg24
g98
sg56
g9
((lp1501
g102
ag125
atRp1502
sg15
S'O'
sg138
I0
sg16
I00
sg139
(F154.18484474910659
F263.09993378220105
F-68.569284021520318
tp1503
sg141
(lp1504
sg14
g1
sg143
g9
((ltRp1505
sg145
g9
((lp1506
(imodel.Bond
Bond
p1507
(dp1508
g14
g1
sg149
g183
sg24
g98
sg17
g9
((lp1509
g102
ag1499
atRp1510
sba(imodel.Bond
Bond
p1511
(dp1512
g14
g1
sg149
g183
sg24
g98
sg17
g9
((lp1513
g125
ag1499
atRp1514
sbatRp1515
sg154
I00
sbatRp1516
sg15
S'C'
sg138
I0
sg16
I00
sg139
(F203.82554354350083
F272.6801369710808
F-38.492018306331161
tp1517
sg141
(lp1518
sg14
g1
sg143
g9
((ltRp1519
sg145
g9
((lp1520
(imodel.Bond
Bond
p1521
(dp1522
g14
g1
sg149
g183
sg24
g98
sg17
g9
((lp1523
g125
ag96
atRp1524
sbag1511
ag1494
atRp1525
sg154
I00
sbag1003
ag120
ag294
ag631
ag167
ag1451
ag845
atRp1526
sg154
I00
sbsg24
g50
sg56
g9
((lp1527
g245
ag134
ag117
atRp1528
sg15
S'C'
sg138
I0
sg16
I00
sg139
(F203.82554354350083
F272.6801369710808
F-38.492018306331161
tp1529
sg141
(lp1530
sg14
g1
sg143
g9
((ltRp1531
sg145
g9
((lp1532
g266
a(imodel.Bond
Bond
p1533
(dp1534
g14
g1
sg149
g183
sg24
g50
sg17
g9
((lp1535
g120
ag117
atRp1536
sbag147
atRp1537
sg154
I00
sbatRp1538
sg15
S'O'
sg138
I-1
sg16
I00
sg139
(F154.18484474910659
F263.09993378220105
F-68.569284021520318
tp1539
sg141
(lp1540
sg14
g1
sg143
g9
((ltRp1541
sg145
g9
((lp1542
g1533
atRp1543
sg154
I00
sbag297
ag111
ag634
ag1006
ag1454
ag164
ag1499
atRp1544
sg154
I00
sbsg24
g25
sg56
g9
((lp1545
g108
ag845
atRp1546
sg15
S'O'
sg138
I0
sg16
I00
sg139
(F154.18484474910659
F263.09993378220105
F-68.569284021520318
tp1547
sg141
(lp1548
sg14
g1
sg143
g9
((ltRp1549
sg145
g9
((lp1550
(imodel.Bond
Bond
p1551
(dp1552
g14
g1
sg149
g183
sg24
g25
sg17
g9
((lp1553
g108
ag111
atRp1554
sbag870
atRp1555
sg154
I00
sbatRp1556
sg15
S'H'
sg138
I0
sg16
I01
sg139
(F116.34745922115484
F260.34869429761306
F-106.17612818332839
tp1557
sg141
(lp1558
sg14
g1
sg143
g9
((ltRp1559
sg145
g9
((lp1560
g1551
atRp1561
sg154
I00
sbag161
ag102
ag637
atRp1562
sg154
I00
sbsg24
g98
sg56
g9
((lp1563
g1499
atRp1564
sg15
S'H'
sg138
I0
sg16
I01
sg139
(F116.34745922115484
F260.34869429761306
F-106.17612818332839
tp1565
sg141
(lp1566
sg14
g1
sg143
g9
((ltRp1567
sg145
g9
((lp1568
g1507
atRp1569
sg154
I00
sbag476
ag1177
a(imodel.VarAtom
VarAtom
p1570
(dp1571
g3
g68
sg21
I00
sg22
Nsg23
g69
sg24
g98
sg56
g9
((lp1572
(imodel.VarAtom
VarAtom
p1573
(dp1574
g3
S'N'
sg21
I00
sg22
Nsg23
g60
sg24
g98
sg56
g9
((lp1575
g1570
a(imodel.VarAtom
VarAtom
p1576
(dp1577
g3
g32
sg21
I00
sg22
Nsg23
g33
sg24
g98
sg56
g9
((lp1578
g1573
atRp1579
sg15
S'H'
sg138
I0
sg16
I00
sg139
(F158.34853406885648
F341.71453818243748
F50.358717118805174
tp1580
sg141
(lp1581
sg14
g1
sg143
g9
((lp1582
(imodel.AtomGroup
AtomGroup
p1583
(dp1584
g199
g200
sg201
g9
((ltRp1585
sg17
g9
((lp1586
g1576
ag1570
atRp1587
sg24
g98
sg14
g1
sbatRp1588
sg145
g9
((lp1589
(imodel.Bond
Bond
p1590
(dp1591
g14
g1
sg149
g183
sg24
g98
sg17
g9
((lp1592
g1576
ag1573
atRp1593
sbatRp1594
sg154
I00
sbag96
atRp1595
sg15
S'N'
sg138
I0
sg16
I00
sg139
(F196.76805182684072
F343.97465469362584
F40.445869321746038
tp1596
sg141
(lp1597
sg14
g1
sg143
g9
((ltRp1598
sg145
g9
((lp1599
(imodel.Bond
Bond
p1600
(dp1601
g14
g1
sg149
g183
sg24
g98
sg17
g9
((lp1602
g1570
ag1573
atRp1603
sbag1590
a(imodel.Bond
Bond
p1604
(dp1605
g14
g1
sg149
g183
sg24
g98
sg17
g9
((lp1606
g96
ag1573
atRp1607
sbatRp1608
sg154
I00
sbatRp1609
sg15
S'H'
sg138
I0
sg16
I00
sg139
(F206.25291240877863
F382.47001789990009
F79.32808821503707
tp1610
sg141
(lp1611
sg14
g1
sg143
g9
((lp1612
g1583
atRp1613
sg145
g9
((lp1614
g1600
atRp1615
sg154
I00
sba(imodel.VarAtom
VarAtom
p1616
(dp1617
g3
g13
sg21
I00
sg22
Nsg23
g11
sg24
g98
sg56
g9
((lp1618
g96
atRp1619
sg15
S'H'
sg138
I0
sg16
I00
sg139
(F251.6509423130876
F347.01954069670694
F5.1904320798556425
tp1620
sg141
(lp1621
sg14
g1
sg143
g9
((ltRp1622
sg145
g9
((lp1623
(imodel.Bond
Bond
p1624
(dp1625
g14
g1
sg149
g183
sg24
g98
sg17
g9
((lp1626
g1616
ag96
atRp1627
sbatRp1628
sg154
I00
sbag1190
ag1576
atRp1629
sS'C'
g9
((lp1630
g427
ag1174
ag125
ag96
atRp1631
sS'O'
g9
((lp1632
g424
ag430
ag1499
ag128
atRp1633
sS'N'
g9
((lp1634
g1573
atRp1635
ssg145
g9
((lp1636
g1494
ag1521
ag1169
ag1600
ag1222
ag1604
ag1507
ag1208
ag1624
ag1185
ag1511
ag484
ag1198
ag1590
ag1212
atRp1637
sg14
g1
sg745
(S'neutral'
p1638
g746
g747
tp1639
sg749
(dp1640
g421
g424
sg239
g1174
sg122
g125
sg93
g96
sg60
g1573
sg282
g1190
sg473
g476
sg105
g102
sg45
g1177
sg114
g1499
sg412
g427
sg69
g1570
sg131
g128
sg33
g1576
sg11
g1616
sg433
g430
ssg17
g9
((lp1641
g102
ag1570
ag1499
ag424
ag1177
ag125
ag96
ag430
ag1573
ag128
ag476
ag1174
ag1576
ag1190
ag427
ag1616
atRp1642
sg143
g9
((lp1643
g1583
atRp1644
sg755
g746
sbsg56
g9
((lp1645
g125
ag1616
ag1174
ag1573
atRp1646
sg15
S'C'
sg138
I0
sg16
I00
sg139
(F237.02393117296833
F311.60333808659198
F21.189130268464709
tp1647
sg141
(lp1648
sg14
g1
sg143
g9
((ltRp1649
sg145
g9
((lp1650
g1521
ag1208
ag1604
ag1624
atRp1651
sg154
I00
sbag1000
ag291
ag90
ag842
ag170
ag546
ag245
atRp1652
sg154
I00
sbsg24
g38
sg56
g9
((lp1653
g1451
ag1258
ag87
a(imodel.VarAtom
VarAtom
p1654
(dp1655
g3
g13
sg21
I00
sg22
Nsg23
g11
sg24
g38
sg56
g9
((lp1656
g90
atRp1657
sg15
S'H'
sg138
I0
sg16
I00
sg139
(F251.6509423130876
F347.01954069670694
F5.1904320798556425
tp1658
sg141
(lp1659
sg14
g1
sg143
g9
((ltRp1660
sg145
g9
((lp1661
(imodel.Bond
Bond
p1662
(dp1663
g14
g1
sg149
g183
sg24
g38
sg17
g9
((lp1664
g1654
ag90
atRp1665
sbatRp1666
sg154
I00
sbatRp1667
sg15
S'C'
sg138
I0
sg16
I00
sg139
(F237.02393117296833
F311.60333808659198
F21.189130268464709
tp1668
sg141
(lp1669
sg14
g1
sg143
g9
((ltRp1670
sg145
g9
((lp1671
g1472
ag1279
a(imodel.Bond
Bond
p1672
(dp1673
g14
g1
sg149
g183
sg24
g38
sg17
g9
((lp1674
g90
ag87
atRp1675
sbag1662
atRp1676
sg154
I00
sba(imodel.VarAtom
VarAtom
p1677
(dp1678
g3
g68
sg21
I00
sg22
Nsg23
g69
sg24
g38
sg56
g9
((lp1679
g87
atRp1680
sg15
S'H'
sg138
I0
sg16
I00
sg139
(F206.25291240877863
F382.47001789990009
F79.32808821503707
tp1681
sg141
(lp1682
sg14
g1
sg143
g9
((lp1683
(imodel.AtomGroup
AtomGroup
p1684
(dp1685
g199
g200
sg201
g9
((ltRp1686
sg17
g9
((lp1687
g36
ag1677
atRp1688
sg24
g38
sg14
g1
sbatRp1689
sg145
g9
((lp1690
(imodel.Bond
Bond
p1691
(dp1692
g14
g1
sg149
g183
sg24
g38
sg17
g9
((lp1693
g1677
ag87
atRp1694
sbatRp1695
sg154
I00
sbag84
atRp1696
sg15
S'N'
sg138
I1
sg16
I00
sg139
(F196.76805182684072
F343.97465469362584
F40.445869321746038
tp1697
sg141
(lp1698
sg14
g1
sg143
g9
((ltRp1699
sg145
g9
((lp1700
g1691
a(imodel.Bond
Bond
p1701
(dp1702
g14
g1
sg149
g183
sg24
g38
sg17
g9
((lp1703
g84
ag87
atRp1704
sbag1672
a(imodel.Bond
Bond
p1705
(dp1706
g14
g1
sg149
g183
sg24
g38
sg17
g9
((lp1707
g36
ag87
atRp1708
sbatRp1709
sg154
I00
sbatRp1710
sg15
S'H'
sg138
I0
sg16
I01
sg139
(F156.90774115101829
F377.8563475946105
F-1914.2975397935984
tp1711
sg141
(lp1712
sg14
g1
sg143
g9
((ltRp1713
sg145
g9
((lp1714
g1701
atRp1715
sg154
I00
sbag706
a(imodel.VarAtom
VarAtom
p1716
(dp1717
g3
g80
sg21
I00
sg22
Nsg23
g81
sg24
g25
sg56
g9
((lp1718
g63
atRp1719
sg15
S'H'
sg138
I0
sg16
I01
sg139
(F156.90774115101829
F377.8563475946105
F-1914.2975397935984
tp1720
sg141
(lp1721
sg14
g1
sg143
g9
((ltRp1722
sg145
g9
((lp1723
(imodel.Bond
Bond
p1724
(dp1725
g14
g1
sg149
g183
sg24
g25
sg17
g9
((lp1726
g1716
ag63
atRp1727
sbatRp1728
sg154
I00
sbatRp1729
sg154
I00
sbsg24
g74
sg56
g9
((lp1730
g346
atRp1731
sg15
S'H'
sg138
I0
sg16
I01
sg139
(F156.90774115101829
F377.8563475946105
F-1914.2975397935984
tp1732
sg141
(lp1733
sg14
g1
sg143
g9
((ltRp1734
sg145
g9
((lp1735
g377
atRp1736
sg154
I00
sbag349
ag285
ag489
ag72
ag333
ag396
atRp1737
sS'C'
g9
((lp1738
g409
ag288
ag294
ag291
atRp1739
sS'O'
g9
((lp1740
g1233
ag492
ag297
ag310
atRp1741
sS'N'
g9
((lp1742
g346
atRp1743
ssg145
g9
((lp1744
g500
ag1305
ag341
ag318
ag404
ag391
ag363
ag373
ag328
ag504
ag1315
ag305
ag377
ag381
ag1241
atRp1745
sg14
g1
sg745
(S"+H3,+HD2,-H''"
g746
g747
tp1746
sg749
(dp1747
g433
g492
sg33
g349
sg122
g294
sg131
g310
sg93
g291
sg81
g78
sg60
g346
sg282
g285
sg473
g489
sg239
g288
sg114
g297
sg412
g409
sg69
g72
sg421
g1233
sg45
g396
sg11
g333
ssg17
g9
((lp1748
g1233
ag349
ag297
ag285
ag396
ag291
ag294
ag346
ag409
ag78
ag72
ag492
ag489
ag288
ag310
ag333
atRp1749
sg143
g9
((lp1750
g356
atRp1751
sg755
g746
sbsg56
g9
((lp1752
g346
atRp1753
sg15
S'H'
sg138
I0
sg16
I00
sg139
(F206.25291240877863
F382.47001789990009
F79.32808821503707
tp1754
sg141
(lp1755
sg14
g1
sg143
g9
((lp1756
g356
atRp1757
sg145
g9
((lp1758
g373
atRp1759
sg154
I00
sbag1570
ag1677
ag66
ag1045
ag527
ag190
a(imodel.VarAtom
VarAtom
p1760
(dp1761
g3
g68
sg21
I00
sg22
Nsg23
g69
sg24
g50
sg56
g9
((lp1762
g58
atRp1763
sg15
S'H'
sg138
I0
sg16
I00
sg139
(F206.25291240877863
F382.47001789990009
F79.32808821503707
tp1764
sg141
(lp1765
sg14
g1
sg143
g9
((lp1766
(imodel.AtomGroup
AtomGroup
p1767
(dp1768
g199
g200
sg201
g9
((ltRp1769
sg17
g9
((lp1770
g54
ag1760
atRp1771
sg24
g50
sg14
g1
sbatRp1772
sg145
g9
((lp1773
(imodel.Bond
Bond
p1774
(dp1775
g14
g1
sg149
g183
sg24
g50
sg17
g9
((lp1776
g1760
ag58
atRp1777
sbatRp1778
sg154
I00
sbatRp1779
sg154
I00
sbsg24
g25
sg56
g9
((lp1780
g63
atRp1781
sg15
S'H'
sg138
I0
sg16
I00
sg139
(F206.25291240877863
F382.47001789990009
F79.32808821503707
tp1782
sg141
(lp1783
sg14
g1
sg143
g9
((lp1784
(imodel.AtomGroup
AtomGroup
p1785
(dp1786
g199
g200
sg201
g9
((ltRp1787
sg17
g9
((lp1788
g30
ag66
atRp1789
sg24
g25
sg14
g1
sbatRp1790
sg145
g9
((lp1791
(imodel.Bond
Bond
p1792
(dp1793
g14
g1
sg149
g183
sg24
g25
sg17
g9
((lp1794
g66
ag63
atRp1795
sbatRp1796
sg154
I00
sbag1716
ag842
ag30
atRp1797
sg15
S'N'
sg138
I1
sg16
I00
sg139
(F196.76805182684072
F343.97465469362584
F40.445869321746038
tp1798
sg141
(lp1799
sg14
g1
sg143
g9
((ltRp1800
sg145
g9
((lp1801
g1792
ag1724
ag888
a(imodel.Bond
Bond
p1802
(dp1803
g14
g1
sg149
g183
sg24
g25
sg17
g9
((lp1804
g30
ag63
atRp1805
sbatRp1806
sg154
I00
sbag187
ag346
ag87
ag1042
ag58
ag1573
ag524
atRp1807
sg154
I00
sbsg24
g50
sg56
g9
((lp1808
g1760
ag54
ag245
atRp1809
sg15
S'N'
sg138
I0
sg16
I00
sg139
(F196.76805182684072
F343.97465469362584
F40.445869321746038
tp1810
sg141
(lp1811
sg14
g1
sg143
g9
((ltRp1812
sg145
g9
((lp1813
g1774
a(imodel.Bond
Bond
p1814
(dp1815
g14
g1
sg149
g183
sg24
g50
sg17
g9
((lp1816
g54
ag58
atRp1817
sbag274
atRp1818
sg154
I00
sbatRp1819
sg15
S'H'
sg138
I0
sg16
I00
sg139
(F158.34853406885648
F341.71453818243748
F50.358717118805174
tp1820
sg141
(lp1821
sg14
g1
sg143
g9
((lp1822
g1767
atRp1823
sg145
g9
((lp1824
g1814
atRp1825
sg154
I00
sbag470
ag279
ag248
ag48
ag1760
atRp1826
sS'C'
g9
((lp1827
g439
ag242
ag245
ag120
atRp1828
sS'O'
g9
((lp1829
g117
ag442
ag436
ag134
atRp1830
sS'N'
g9
((lp1831
g58
atRp1832
ssg145
g9
((lp1833
g450
ag147
ag266
ag1814
ag1346
ag1356
ag461
ag270
ag770
ag1774
ag256
ag274
ag465
ag1533
atRp1834
sg14
g1
sg745
(S"+HD2,-H'',-H3"
g746
g747
tp1835
sg749
(dp1836
g11
g248
sg60
g58
sg122
g120
sg131
g134
sg93
g245
sg282
g279
sg473
g470
sg239
g242
sg45
g48
sg114
g117
sg412
g439
sg69
g1760
sg421
g442
sg33
g54
sg433
g436
ssg17
g9
((lp1837
g54
ag242
ag58
ag470
ag117
ag120
ag134
ag439
ag436
ag248
ag48
ag279
ag245
ag1760
ag442
atRp1838
sg143
g9
((lp1839
g1767
atRp1840
sg755
g746
sbsg56
g9
((lp1841
g242
atRp1842
sg15
S'H'
sg138
I0
sg16
I00
sg139
(F325.1907313452117
F287.45594249043813
F72.741671350933302
tp1843
sg141
(lp1844
sg14
g1
sg143
g9
((ltRp1845
sg145
g9
((lp1846
g1356
atRp1847
sg154
I00
sbag1177
ag552
ag951
ag42
ag396
ag1363
ag893
atRp1848
sg154
I00
sbsg24
g38
sg56
g9
((lp1849
g1258
atRp1850
sg15
S'H'
sg138
I0
sg16
I00
sg139
(F325.1907313452117
F287.45594249043813
F72.741671350933302
tp1851
sg141
(lp1852
sg14
g1
sg143
g9
((ltRp1853
sg145
g9
((lp1854
g1287
atRp1855
sg154
I00
sbag84
ag1654
ag1261
ag1677
atRp1856
sS'C'
g9
((lp1857
g415
ag1258
ag90
ag1451
atRp1858
sS'O'
g9
((lp1859
g1454
ag418
ag1448
ag1149
atRp1860
sS'N'
g9
((lp1861
g87
atRp1862
ssg145
g9
((lp1863
g1691
ag1283
ag1279
ag1157
ag1476
ag1701
ag1705
ag1662
ag1253
ag1462
ag1269
ag1672
ag1287
ag1472
atRp1864
sg14
g1
sg745
(S"+H3,-H'',-HD2"
g746
g747
tp1865
sg749
(dp1866
g11
g1654
sg33
g36
sg122
g1451
sg131
g1448
sg93
g90
sg81
g84
sg282
g1261
sg60
g87
sg239
g1258
sg114
g1454
sg412
g415
sg69
g1677
sg421
g418
sg45
g42
sg433
g1149
ssg17
g9
((lp1867
g42
ag415
ag36
ag90
ag1654
ag87
ag84
ag1454
ag1448
ag1261
ag1258
ag418
ag1451
ag1677
ag1149
atRp1868
sg143
g9
((lp1869
g1684
atRp1870
sg755
g746
sbsg56
g9
((lp1871
g87
atRp1872
sg15
S'H'
sg138
I0
sg16
I00
sg139
(F158.34853406885648
F341.71453818243748
F50.358717118805174
tp1873
sg141
(lp1874
sg14
g1
sg143
g9
((lp1875
g1684
atRp1876
sg145
g9
((lp1877
g1705
atRp1878
sg154
I00
sbag349
ag204
ag1576
ag54
ag1056
ag30
ag521
atRp1879
sg154
I00
sbsg24
g25
sg56
g9
((lp1880
g63
atRp1881
sg15
S'H'
sg138
I0
sg16
I00
sg139
(F158.34853406885648
F341.71453818243748
F50.358717118805174
tp1882
sg141
(lp1883
sg14
g1
sg143
g9
((lp1884
g1785
atRp1885
sg145
g9
((lp1886
g1802
atRp1887
sg154
I00
sbag66
ag108
ag893
ag1716
ag906
atRp1888
sS'C'
g9
((lp1889
g823
ag839
ag845
ag842
atRp1890
sS'O'
g9
((lp1891
g826
ag820
ag111
ag848
atRp1892
sS'N'
g9
((lp1893
g63
atRp1894
ssg145
g9
((lp1895
g1802
ag1792
ag888
ag1724
ag934
ag884
ag834
ag880
ag856
ag870
ag924
ag914
ag901
ag866
ag1551
atRp1896
sg14
g1
sg745
(S"+H'',+H3,-HD2"
g746
g747
tp1897
sg749
(dp1898
g433
g820
sg33
g30
sg122
g845
sg131
g848
sg93
g842
sg81
g1716
sg60
g63
sg282
g906
sg239
g839
sg105
g108
sg114
g111
sg412
g823
sg69
g66
sg421
g826
sg45
g893
sg11
g19
ssg17
g9
((lp1899
g30
ag893
ag848
ag66
ag839
ag845
ag820
ag108
ag842
ag1716
ag111
ag823
ag906
ag826
ag19
ag63
atRp1900
sg143
g9
((lp1901
g1785
atRp1902
sg755
g746
sbsg56
g9
((lp1903
g842
atRp1904
sg15
S'H'
sg138
I0
sg16
I00
sg139
(F251.6509423130876
F347.01954069670694
F5.1904320798556425
tp1905
sg141
(lp1906
sg14
g1
sg143
g9
((ltRp1907
sg145
g9
((lp1908
g884
atRp1909
sg154
I00
sbag248
ag1616
ag1088
ag173
ag683
ag1654
ag333
atRp1910
sg154
I00
sbag473
ag45
ag433
ag412
ag81
ag122
ag105
ag421
ag69
ag114
ag93
ag60
ag239
ag131
ag282
ag33
atRp1911
sS'ccpMolType'
p1912
S'protein'
p1913
sS'details'
p1914
V
sg749
(dp1915
g130
g131
sg104
g105
sg13
g11
sg113
g114
sg432
g433
sg238
g239
sS'C'
g122
sg420
g421
sg92
g93
sg411
g412
sS'N'
g60
sg472
g473
sg32
g33
sg80
g81
sg68
g69
sg281
g282
sg44
g45
ssS'keywords'
p1916
g9
((ltRp1917
sg143
g9
((lp1918
g356
ag1684
ag1052
ag197
ag534
ag1583
ag1767
ag1785
atRp1919
sS'variants'
p1920
g9
((lp1921
g50
ag517
ag25
ag38
ag98
ag947
ag74
ag157
atRp1922
sS'defaultVars'
p1923
g9
((ltRp1924
sb.