(imodel.Compound
Compound
p1
(dp2
S'name'
p3
VCYSTEINE
p4
sS'isModified'
p5
I01
sS'ccpCode'
p6
VCys
p7
sS'atoms'
p8
c__builtin__
set
p9
((lp10
(imodel.Atom
Atom
p11
(dp12
g3
S'C'
sS'compound'
p13
g1
sS'baseValences'
p14
I4
sS'element'
p15
S'C'
sS'isVariable'
p16
I00
sS'varAtoms'
p17
g9
((lp18
(imodel.VarAtom
VarAtom
p19
(dp20
g3
S'C'
sS'isLabile'
p21
I00
sS'chirality'
p22
NsS'atom'
p23
g11
sS'variant'
p24
(imodel.Variant
Variant
p25
(dp26
S'elementDict'
p27
(dp28
S'H'
g9
((lp29
(imodel.VarAtom
VarAtom
p30
(dp31
g3
S'HB2'
p32
sg21
I00
sg22
Nsg23
(imodel.Atom
Atom
p33
(dp34
g3
g32
sg13
g1
sg14
I1
sg15
S'H'
sg16
I00
sg17
g9
((lp35
g30
atRp36
sS'isDeleted'
p37
I00
sbsg24
g25
sS'neighbours'
p38
g9
((lp39
(imodel.VarAtom
VarAtom
p40
(dp41
g3
S'CB'
p42
sg21
I00
sg22
Nsg23
(imodel.Atom
Atom
p43
(dp44
g3
g42
sg13
g1
sg14
I4
sg15
S'C'
sg16
I00
sg17
g9
((lp45
g40
atRp46
sg37
I00
sbsg24
g25
sg38
g9
((lp47
g30
a(imodel.VarAtom
VarAtom
p48
(dp49
g3
S'HB3'
p50
sg21
I00
sg22
Nsg23
(imodel.Atom
Atom
p51
(dp52
g3
g50
sg13
g1
sg14
I1
sg15
S'H'
sg16
I00
sg17
g9
((lp53
g48
atRp54
sg37
I00
sbsg24
g25
sg38
g9
((lp55
g40
atRp56
sg15
S'H'
sS'charge'
p57
I0
sg16
I00
sS'coords'
p58
(F203.93569120402913
F188.00305227800823
F-31.794466618683142
tp59
sS'freeValences'
p60
(lp61
sg13
g1
sS'atomGroups'
p62
g9
((ltRp63
sS'bonds'
p64
g9
((lp65
(imodel.Bond
Bond
p66
(dp67
g13
g1
sS'bondType'
p68
S'single'
p69
sg24
g25
sg17
g9
((lp70
g48
ag40
atRp71
sbatRp72
sg37
I00
sba(imodel.VarAtom
VarAtom
p73
(dp74
g3
S'SG'
p75
sg21
I00
sg22
Nsg23
(imodel.Atom
Atom
p76
(dp77
g3
g75
sg13
g1
sg14
I2
sg15
S'S'
sg16
I00
sg17
g9
((lp78
g73
atRp79
sg37
I00
sbsg24
g25
sg38
g9
((lp80
g40
a(imodel.VarAtom
VarAtom
p81
(dp82
g3
S'HG'
p83
sg21
I00
sg22
Nsg23
(imodel.Atom
Atom
p84
(dp85
g3
g83
sg13
g1
sg14
I1
sg15
S'H'
sg16
I01
sg17
g9
((lp86
g81
atRp87
sg37
I00
sbsg24
g25
sg38
g9
((lp88
g73
atRp89
sg15
S'H'
sg57
I0
sg16
I01
sg58
(F186.04953185887871
F112.54025762278138
F-159.46150468689962
tp90
sg60
(lp91
sg13
g1
sg62
g9
((ltRp92
sg64
g9
((lp93
(imodel.Bond
Bond
p94
(dp95
g13
g1
sg68
g69
sg24
g25
sg17
g9
((lp96
g81
ag73
atRp97
sbatRp98
sg37
I00
sbatRp99
sg15
S'S'
sg57
I0
sg16
I00
sg58
(F214.85820097000192
F137.41778097941551
F-126.9183967485728
tp100
sg60
(lp101
sg13
g1
sg62
g9
((ltRp102
sg64
g9
((lp103
(imodel.Bond
Bond
p104
(dp105
g13
g1
sg68
g69
sg24
g25
sg17
g9
((lp106
g73
ag40
atRp107
sbag94
atRp108
sg37
I00
sba(imodel.VarAtom
VarAtom
p109
(dp110
g3
S'CA'
p111
sg21
I00
sg22
S'R'
sg23
(imodel.Atom
Atom
p112
(dp113
g3
g111
sg13
g1
sg14
I4
sg15
S'C'
sg16
I00
sg17
g9
((lp114
g109
atRp115
sg37
I00
sbsg24
g25
sg38
g9
((lp116
g40
a(imodel.VarAtom
VarAtom
p117
(dp118
g3
S'N'
sg21
I00
sg22
Nsg23
(imodel.Atom
Atom
p119
(dp120
g3
S'N'
sg13
g1
sg14
I3
sg15
S'N'
sg16
I00
sg17
g9
((lp121
g117
atRp122
sg37
I00
sbsg24
g25
sg38
g9
((lp123
g109
a(imodel.VarAtom
VarAtom
p124
(dp125
g3
VH
sg21
I00
sg22
Nsg23
(imodel.Atom
Atom
p126
(dp127
g3
VH
sg13
g1
sg14
I1
sg15
S'H'
sg16
I00
sg17
g9
((lp128
g124
atRp129
sg37
I00
sbsg24
g25
sg38
g9
((lp130
g117
atRp131
sg15
S'H'
sg57
I0
sg16
I00
sg58
(F343.23255131312817
F200.75305018731342
F0.20725352936001329
tp132
sg60
(lp133
sg13
g1
sg62
g9
((ltRp134
sg64
g9
((lp135
(imodel.Bond
Bond
p136
(dp137
g13
g1
sg68
g69
sg24
g25
sg17
g9
((lp138
g124
ag117
atRp139
sbatRp140
sg37
I00
sbatRp141
sg15
S'N'
sg57
I0
sg16
I00
sg58
(F312.09741652900198
F235.09948171566225
F-6.7480456630089671
tp142
sg60
(lp143
F0.38087349944057358
asg13
g1
sg62
g9
((ltRp144
sg64
g9
((lp145
(imodel.Bond
Bond
p146
(dp147
g13
g1
sg68
g69
sg24
g25
sg17
g9
((lp148
g109
ag117
atRp149
sbag136
atRp150
sg37
I00
sbag19
a(imodel.VarAtom
VarAtom
p151
(dp152
g3
S'HA'
p153
sg21
I00
sg22
Nsg23
(imodel.Atom
Atom
p154
(dp155
g3
g153
sg13
g1
sg14
I1
sg15
S'H'
sg16
I00
sg17
g9
((lp156
g151
atRp157
sg37
I00
sbsg24
g25
sg38
g9
((lp158
g109
atRp159
sg15
S'H'
sg57
I0
sg16
I00
sg58
(F259.14599260446596
F269.35184228991466
F-0.25676109207195053
tp160
sg60
(lp161
sg13
g1
sg62
g9
((ltRp162
sg64
g9
((lp163
(imodel.Bond
Bond
p164
(dp165
g13
g1
sg68
g69
sg24
g25
sg17
g9
((lp166
g151
ag109
atRp167
sbatRp168
sg37
I00
sbatRp169
sg15
S'C'
sg57
I0
sg16
I00
sg58
(F256.27299201021049
F231.03651077660288
F6.3950694447920151
tp170
sg60
(lp171
sg13
g1
sg62
g9
((ltRp172
sg64
g9
((lp173
g146
a(imodel.Bond
Bond
p174
(dp175
g13
g1
sg68
g69
sg24
g25
sg17
g9
((lp176
g109
ag40
atRp177
sba(imodel.Bond
Bond
p178
(dp179
g13
g1
sg68
g69
sg24
g25
sg17
g9
((lp180
g19
ag109
atRp181
sbag164
atRp182
sg37
I00
sbatRp183
sg15
S'C'
sg57
I0
sg16
I00
sg58
(F241.37756780168775
F181.295507628716
F-41.459287876188945
tp184
sg60
(lp185
sg13
g1
sg62
g9
((ltRp186
sg64
g9
((lp187
g174
ag104
a(imodel.Bond
Bond
p188
(dp189
g13
g1
sg68
g69
sg24
g25
sg17
g9
((lp190
g30
ag40
atRp191
sbag66
atRp192
sg37
I00
sbatRp193
sg15
S'H'
sg57
I0
sg16
I00
sg58
(F270.20648549922407
F155.90473924981802
F-34.554962361823733
tp194
sg60
(lp195
sg13
g1
sg62
g9
((ltRp196
sg64
g9
((lp197
g188
atRp198
sg37
I00
sbag81
ag124
ag151
ag48
atRp199
sS'S'
g9
((lp200
g73
atRp201
sS'C'
g9
((lp202
g40
ag109
ag19
atRp203
sS'O'
g9
((lp204
(imodel.VarAtom
VarAtom
p205
(dp206
g3
S"O'"
p207
sg21
I00
sg22
Nsg23
(imodel.Atom
Atom
p208
(dp209
g3
g207
sg13
g1
sg14
I2
sg15
S'O'
sg16
I00
sg17
g9
((lp210
g205
atRp211
sg37
I00
sbsg24
g25
sg38
g9
((lp212
g19
atRp213
sg15
S'O'
sg57
I0
sg16
I00
sg58
(F166.90029775280573
F239.14019605395606
F104.13621515837545
tp214
sg60
(lp215
sg13
g1
sg62
g9
((ltRp216
sg64
g9
((lp217
(imodel.Bond
Bond
p218
(dp219
g13
g1
sg68
S'double'
p220
sg24
g25
sg17
g9
((lp221
g205
ag19
atRp222
sbatRp223
sg37
I00
sbatRp224
sS'N'
g9
((lp225
g117
atRp226
ssg64
g9
((lp227
g178
ag94
ag218
ag188
ag104
ag164
ag66
ag136
ag146
ag174
atRp228
sg13
g1
sS'descriptor'
p229
(S'neutral'
p230
S'none'
p231
S'default'
p232
tp233
sS'atomDict'
p234
(dp235
g154
g151
sg11
g19
sg112
g109
sg33
g30
sg51
g48
sg119
g117
sg84
g81
sg208
g205
sg76
g73
sg126
g124
sg43
g40
ssg17
g9
((lp236
g117
ag30
ag40
ag19
ag124
ag48
ag151
ag81
ag73
ag205
ag109
atRp237
sg62
g9
((ltRp238
sS'polyLink'
p239
g231
sbsg38
g9
((lp240
g109
ag205
atRp241
sg15
S'C'
sg57
I0
sg16
I00
sg58
(F209.16034810991869
F252.37823313580191
F77.777770010866561
tp242
sg60
(lp243
F0.060885453856784011
asg13
g1
sg62
g9
((ltRp244
sg64
g9
((lp245
g178
ag218
atRp246
sg37
I00
sbatRp247
sg37
I00
sbag126
ag154
ag112
ag43
ag51
ag119
ag84
ag208
ag76
ag33
atRp248
sS'ccpMolType'
p249
S'protein'
p250
sS'details'
p251
V
sg234
(dp252
S'C'
g11
sg207
g208
sVH
g126
sg111
g112
sS'N'
g119
sg42
g43
sg153
g154
sg75
g76
sg83
g84
sg50
g51
sg32
g33
ssS'keywords'
p253
g9
((ltRp254
sg62
g9
((ltRp255
sS'variants'
p256
g9
((lp257
g25
atRp258
sS'defaultVars'
p259
g9
((ltRp260
sb.