(imodel.Compound
Compound
p1
(dp2
S'name'
p3
VGLUTAMINE
p4
sS'isModified'
p5
I01
sS'ccpCode'
p6
VGln
p7
sS'atoms'
p8
c__builtin__
set
p9
((lp10
(imodel.Atom
Atom
p11
(dp12
g3
S'HA'
p13
sS'compound'
p14
g1
sS'baseValences'
p15
I1
sS'element'
p16
S'H'
sS'isVariable'
p17
I00
sS'varAtoms'
p18
g9
((lp19
(imodel.VarAtom
VarAtom
p20
(dp21
g3
g13
sS'isLabile'
p22
I00
sS'chirality'
p23
NsS'atom'
p24
g11
sS'variant'
p25
(imodel.Variant
Variant
p26
(dp27
S'elementDict'
p28
(dp29
S'H'
g9
((lp30
(imodel.VarAtom
VarAtom
p31
(dp32
g3
S'HB3'
p33
sg22
I00
sg23
Nsg24
(imodel.Atom
Atom
p34
(dp35
g3
g33
sg14
g1
sg15
I1
sg16
S'H'
sg17
I00
sg18
g9
((lp36
g31
atRp37
sS'isDeleted'
p38
I00
sbsg25
g26
sS'neighbours'
p39
g9
((lp40
(imodel.VarAtom
VarAtom
p41
(dp42
g3
S'CB'
p43
sg22
I00
sg23
Nsg24
(imodel.Atom
Atom
p44
(dp45
g3
g43
sg14
g1
sg15
I4
sg16
S'C'
sg17
I00
sg18
g9
((lp46
g41
atRp47
sg38
I00
sbsg25
g26
sg39
g9
((lp48
g31
a(imodel.VarAtom
VarAtom
p49
(dp50
g3
S'CG'
p51
sg22
I00
sg23
Nsg24
(imodel.Atom
Atom
p52
(dp53
g3
g51
sg14
g1
sg15
I4
sg16
S'C'
sg17
I00
sg18
g9
((lp54
g49
atRp55
sg38
I00
sbsg25
g26
sg39
g9
((lp56
(imodel.VarAtom
VarAtom
p57
(dp58
g3
S'HG3'
p59
sg22
I00
sg23
Nsg24
(imodel.Atom
Atom
p60
(dp61
g3
g59
sg14
g1
sg15
I1
sg16
S'H'
sg17
I00
sg18
g9
((lp62
g57
atRp63
sg38
I00
sbsg25
g26
sg39
g9
((lp64
g49
atRp65
sg16
S'H'
sS'charge'
p66
I0
sg17
I00
sS'coords'
p67
(F407.38563753410062
F205.96787006430191
F-46.137481989291032
tp68
sS'freeValences'
p69
(lp70
sg14
g1
sS'atomGroups'
p71
g9
((ltRp72
sS'bonds'
p73
g9
((lp74
(imodel.Bond
Bond
p75
(dp76
g14
g1
sS'bondType'
p77
S'single'
p78
sg25
g26
sg18
g9
((lp79
g57
ag49
atRp80
sbatRp81
sg38
I00
sba(imodel.VarAtom
VarAtom
p82
(dp83
g3
S'CD'
p84
sg22
I00
sg23
Nsg24
(imodel.Atom
Atom
p85
(dp86
g3
g84
sg14
g1
sg15
I4
sg16
S'C'
sg17
I00
sg18
g9
((lp87
g82
atRp88
sg38
I00
sbsg25
g26
sg39
g9
((lp89
g49
a(imodel.VarAtom
VarAtom
p90
(dp91
g3
S'NE2'
p92
sg22
I00
sg23
Nsg24
(imodel.Atom
Atom
p93
(dp94
g3
g92
sg14
g1
sg15
I3
sg16
S'N'
sg17
I00
sg18
g9
((lp95
g90
atRp96
sg38
I00
sbsg25
g26
sg39
g9
((lp97
(imodel.VarAtom
VarAtom
p98
(dp99
g3
S'HE21'
p100
sg22
I00
sg23
Nsg24
(imodel.Atom
Atom
p101
(dp102
g3
g100
sg14
g1
sg15
I1
sg16
S'H'
sg17
I00
sg18
g9
((lp103
g98
atRp104
sg38
I00
sbsg25
g26
sg39
g9
((lp105
g90
atRp106
sg16
S'H'
sg66
I0
sg17
I00
sg67
(F403.58470732443493
F95.142593769889686
F-208.82500395160992
tp107
sg69
(lp108
sg14
g1
sg71
g9
((ltRp109
sg73
g9
((lp110
(imodel.Bond
Bond
p111
(dp112
g14
g1
sg77
g78
sg25
g26
sg18
g9
((lp113
g90
ag98
atRp114
sbatRp115
sg38
I00
sbag82
a(imodel.VarAtom
VarAtom
p116
(dp117
g3
S'HE22'
p118
sg22
I00
sg23
Nsg24
(imodel.Atom
Atom
p119
(dp120
g3
g118
sg14
g1
sg15
I1
sg16
S'H'
sg17
I00
sg18
g9
((lp121
g116
atRp122
sg38
I00
sbsg25
g26
sg39
g9
((lp123
g90
atRp124
sg16
S'H'
sg66
I0
sg17
I00
sg67
(F440.38635407928655
F142.75343808407501
F-173.55663568378012
tp125
sg69
(lp126
sg14
g1
sg71
g9
((ltRp127
sg73
g9
((lp128
(imodel.Bond
Bond
p129
(dp130
g14
g1
sg77
g78
sg25
g26
sg18
g9
((lp131
g90
ag116
atRp132
sbatRp133
sg38
I00
sbatRp134
sg16
S'N'
sg66
I0
sg17
I00
sg67
(F403.24524333727823
F133.37795660178631
F-168.74607789077942
tp135
sg69
(lp136
sg14
g1
sg71
g9
((ltRp137
sg73
g9
((lp138
g111
a(imodel.Bond
Bond
p139
(dp140
g14
g1
sg77
g78
sg25
g26
sg18
g9
((lp141
g90
ag82
atRp142
sbag129
atRp143
sg38
I00
sba(imodel.VarAtom
VarAtom
p144
(dp145
g3
S'OE1'
p146
sg22
I00
sg23
Nsg24
(imodel.Atom
Atom
p147
(dp148
g3
g146
sg14
g1
sg15
I2
sg16
S'O'
sg17
I00
sg18
g9
((lp149
g144
atRp150
sg38
I00
sbsg25
g26
sg39
g9
((lp151
g82
atRp152
sg16
S'O'
sg66
I0
sg17
I00
sg67
(F327.27778575755883
F146.10835529917199
F-101.84010543154791
tp153
sg69
(lp154
sg14
g1
sg71
g9
((ltRp155
sg73
g9
((lp156
(imodel.Bond
Bond
p157
(dp158
g14
g1
sg77
S'double'
p159
sg25
g26
sg18
g9
((lp160
g144
ag82
atRp161
sbatRp162
sg38
I00
sbatRp163
sg16
S'C'
sg66
I0
sg17
I00
sg67
(F365.54783770931692
F167.95148137341448
F-108.18751749368514
tp164
sg69
(lp165
sg14
g1
sg71
g9
((ltRp166
sg73
g9
((lp167
(imodel.Bond
Bond
p168
(dp169
g14
g1
sg77
g78
sg25
g26
sg18
g9
((lp170
g49
ag82
atRp171
sbag157
ag139
atRp172
sg38
I00
sba(imodel.VarAtom
VarAtom
p173
(dp174
g3
S'HG2'
p175
sg22
I00
sg23
Nsg24
(imodel.Atom
Atom
p176
(dp177
g3
g175
sg14
g1
sg15
I1
sg16
S'H'
sg17
I00
sg18
g9
((lp178
g173
atRp179
sg38
I00
sbsg25
g26
sg39
g9
((lp180
g49
atRp181
sg16
S'H'
sg66
I0
sg17
I00
sg67
(F393.92893120608369
F249.48972874969854
F-47.643082847704783
tp182
sg69
(lp183
sg14
g1
sg71
g9
((ltRp184
sg73
g9
((lp185
(imodel.Bond
Bond
p186
(dp187
g14
g1
sg77
g78
sg25
g26
sg18
g9
((lp188
g173
ag49
atRp189
sbatRp190
sg38
I00
sbag41
atRp191
sg16
S'C'
sg66
I0
sg17
I00
sg67
(F371.11093567754847
F219.18713164220526
F-46.246729498675919
tp192
sg69
(lp193
sg14
g1
sg71
g9
((ltRp194
sg73
g9
((lp195
(imodel.Bond
Bond
p196
(dp197
g14
g1
sg77
g78
sg25
g26
sg18
g9
((lp198
g41
ag49
atRp199
sbag168
ag75
ag186
atRp200
sg38
I00
sba(imodel.VarAtom
VarAtom
p201
(dp202
g3
S'CA'
p203
sg22
I00
sg23
S'S'
sg24
(imodel.Atom
Atom
p204
(dp205
g3
g203
sg14
g1
sg15
I4
sg16
S'C'
sg17
I00
sg18
g9
((lp206
g201
atRp207
sg38
I00
sbsg25
g26
sg39
g9
((lp208
(imodel.VarAtom
VarAtom
p209
(dp210
g3
S'C'
sg22
I00
sg23
Nsg24
(imodel.Atom
Atom
p211
(dp212
g3
S'C'
sg14
g1
sg15
I4
sg16
S'C'
sg17
I00
sg18
g9
((lp213
g209
atRp214
sg38
I00
sbsg25
g26
sg39
g9
((lp215
(imodel.VarAtom
VarAtom
p216
(dp217
g3
S"O'"
p218
sg22
I00
sg23
Nsg24
(imodel.Atom
Atom
p219
(dp220
g3
g218
sg14
g1
sg15
I2
sg16
S'O'
sg17
I00
sg18
g9
((lp221
g216
atRp222
sg38
I00
sbsg25
g26
sg39
g9
((lp223
g209
atRp224
sg16
S'O'
sg66
I0
sg17
I00
sg67
(F273.04752042887981
F343.39224702407864
F165.42440581061808
tp225
sg69
(lp226
sg14
g1
sg71
g9
((ltRp227
sg73
g9
((lp228
(imodel.Bond
Bond
p229
(dp230
g14
g1
sg77
S'double'
p231
sg25
g26
sg18
g9
((lp232
g216
ag209
atRp233
sbatRp234
sg38
I00
sbag201
atRp235
sg16
S'C'
sg66
I0
sg17
I00
sg67
(F317.17722062289636
F343.39838677142893
F139.71657025671706
tp236
sg69
(lp237
F0.32081020872608956
asg14
g1
sg71
g9
((ltRp238
sg73
g9
((lp239
g229
a(imodel.Bond
Bond
p240
(dp241
g14
g1
sg77
g78
sg25
g26
sg18
g9
((lp242
g201
ag209
atRp243
sbatRp244
sg38
I00
sba(imodel.VarAtom
VarAtom
p245
(dp246
g3
S'N'
sg22
I00
sg23
Nsg24
(imodel.Atom
Atom
p247
(dp248
g3
S'N'
sg14
g1
sg15
I3
sg16
S'N'
sg17
I00
sg18
g9
((lp249
g245
atRp250
sg38
I00
sbsg25
g26
sg39
g9
((lp251
g201
a(imodel.VarAtom
VarAtom
p252
(dp253
g3
S'H1'
p254
sg22
I00
sg23
Nsg24
(imodel.Atom
Atom
p255
(dp256
g3
g254
sg14
g1
sg15
I1
sg16
S'H'
sg17
I00
sg18
g9
((lp257
g252
atRp258
sg38
I00
sbsg25
g26
sg39
g9
((lp259
g245
atRp260
sg16
S'H'
sg66
I0
sg17
I00
sg67
(F441.71019631271542
F291.61791659579433
F79.156840767562684
tp261
sg69
(lp262
sg14
g1
sg71
g9
((ltRp263
sg73
g9
((lp264
(imodel.Bond
Bond
p265
(dp266
g14
g1
sg77
g78
sg25
g26
sg18
g9
((lp267
g252
ag245
atRp268
sbatRp269
sg38
I00
sbatRp270
sg16
S'N'
sg66
I0
sg17
I00
sg67
(F412.35984673362077
F321.07347169416562
F79.192060247467708
tp271
sg69
(lp272
F0.31473054560517078
asg14
g1
sg71
g9
((ltRp273
sg73
g9
((lp274
(imodel.Bond
Bond
p275
(dp276
g14
g1
sg77
g78
sg25
g26
sg18
g9
((lp277
g245
ag201
atRp278
sbag265
atRp279
sg38
I00
sbag20
ag41
atRp280
sg16
S'C'
sg66
I0
sg17
I00
sg67
(F358.51256556627618
F312.50921278582496
F77.954217129908386
tp281
sg69
(lp282
sg14
g1
sg71
g9
((ltRp283
sg73
g9
((lp284
g240
a(imodel.Bond
Bond
p285
(dp286
g14
g1
sg77
g78
sg25
g26
sg18
g9
((lp287
g41
ag201
atRp288
sbag275
a(imodel.Bond
Bond
p289
(dp290
g14
g1
sg77
g78
sg25
g26
sg18
g9
((lp291
g20
ag201
atRp292
sbatRp293
sg38
I00
sba(imodel.VarAtom
VarAtom
p294
(dp295
g3
S'HB2'
p296
sg22
I00
sg23
Nsg24
(imodel.Atom
Atom
p297
(dp298
g3
g296
sg14
g1
sg15
I1
sg16
S'H'
sg17
I00
sg18
g9
((lp299
g294
atRp300
sg38
I00
sbsg25
g26
sg39
g9
((lp301
g41
atRp302
sg16
S'H'
sg66
I0
sg17
I00
sg67
(F310.69560557194211
F231.45342002648135
F16.856544364483597
tp303
sg69
(lp304
sg14
g1
sg71
g9
((ltRp305
sg73
g9
((lp306
(imodel.Bond
Bond
p307
(dp308
g14
g1
sg77
g78
sg25
g26
sg18
g9
((lp309
g41
ag294
atRp310
sbatRp311
sg38
I00
sbatRp312
sg16
S'C'
sg66
I0
sg17
I00
sg67
(F336.88043457492188
F260.11963182541058
F16.476977277614331
tp313
sg69
(lp314
sg14
g1
sg71
g9
((ltRp315
sg73
g9
((lp316
g196
ag285
ag307
a(imodel.Bond
Bond
p317
(dp318
g14
g1
sg77
g78
sg25
g26
sg18
g9
((lp319
g41
ag31
atRp320
sbatRp321
sg38
I00
sbatRp322
sg16
S'H'
sg66
I0
sg17
I00
sg67
(F301.97204987754117
F276.54563063823798
F15.78752024387391
tp323
sg69
(lp324
sg14
g1
sg71
g9
((ltRp325
sg73
g9
((lp326
g317
atRp327
sg38
I00
sbag294
ag252
ag57
ag98
ag20
ag173
ag116
atRp328
sS'C'
g9
((lp329
g209
ag82
ag49
ag41
ag201
atRp330
sS'O'
g9
((lp331
g216
ag144
atRp332
sS'N'
g9
((lp333
g245
ag90
atRp334
ssg73
g9
((lp335
g240
ag265
ag196
ag275
ag75
ag289
ag111
ag168
ag186
ag285
ag129
ag139
ag307
ag229
ag317
ag157
atRp336
sg14
g1
sS'descriptor'
p337
(S'neutral'
p338
S'none'
p339
S'default'
p340
tp341
sS'atomDict'
p342
(dp343
g11
g20
sg297
g294
sg147
g144
sg119
g116
sg44
g41
sg176
g173
sg219
g216
sg204
g201
sg34
g31
sg93
g90
sg85
g82
sg211
g209
sg52
g49
sg101
g98
sg255
g252
sg60
g57
sg247
g245
ssg18
g9
((lp344
g245
ag41
ag173
ag252
ag98
ag20
ag49
ag116
ag201
ag82
ag144
ag31
ag209
ag90
ag216
ag294
ag57
atRp345
sg71
g9
((ltRp346
sS'polyLink'
p347
g339
sbsg39
g9
((lp348
g201
atRp349
sg16
S'H'
sg66
I0
sg17
I00
sg67
(F369.64072098187467
F349.18785700417129
F77.343931073079716
tp350
sg69
(lp351
sg14
g1
sg71
g9
((ltRp352
sg73
g9
((lp353
g289
atRp354
sg38
I00
sbatRp355
sg38
I00
sbag44
ag204
ag297
ag219
ag85
ag34
ag101
ag93
ag119
ag176
ag211
ag147
ag255
ag52
ag60
ag247
atRp356
sS'ccpMolType'
p357
S'protein'
p358
sS'details'
p359
V
sg342
(dp360
S'C'
g211
sg254
g255
sg218
g219
sg43
g44
sg146
g147
sg175
g176
sg59
g60
sS'N'
g247
sg84
g85
sg92
g93
sg51
g52
sg118
g119
sg100
g101
sg13
g11
sg203
g204
sg33
g34
sg296
g297
ssS'keywords'
p361
g9
((ltRp362
sg71
g9
((ltRp363
sS'variants'
p364
g9
((lp365
g26
atRp366
sS'defaultVars'
p367
g9
((ltRp368
sb.