(imodel.Compound
Compound
p1
(dp2
S'name'
p3
VGLUTAMIC ACID
p4
sS'isModified'
p5
I01
sS'ccpCode'
p6
VGlu
p7
sS'atoms'
p8
c__builtin__
set
p9
((lp10
(imodel.Atom
Atom
p11
(dp12
g3
VH
sS'compound'
p13
g1
sS'baseValences'
p14
I1
sS'element'
p15
S'H'
sS'isVariable'
p16
I00
sS'varAtoms'
p17
g9
((lp18
(imodel.VarAtom
VarAtom
p19
(dp20
g3
VH
sS'isLabile'
p21
I00
sS'chirality'
p22
NsS'atom'
p23
g11
sS'variant'
p24
(imodel.Variant
Variant
p25
(dp26
S'elementDict'
p27
(dp28
S'H'
g9
((lp29
g19
a(imodel.VarAtom
VarAtom
p30
(dp31
g3
S'HG3'
p32
sg21
I00
sg22
Nsg23
(imodel.Atom
Atom
p33
(dp34
g3
g32
sg13
g1
sg14
I1
sg15
S'H'
sg16
I00
sg17
g9
((lp35
g30
atRp36
sS'isDeleted'
p37
I00
sbsg24
g25
sS'neighbours'
p38
g9
((lp39
(imodel.VarAtom
VarAtom
p40
(dp41
g3
S'CG'
p42
sg21
I00
sg22
Nsg23
(imodel.Atom
Atom
p43
(dp44
g3
g42
sg13
g1
sg14
I4
sg15
S'C'
sg16
I00
sg17
g9
((lp45
g40
atRp46
sg37
I00
sbsg24
g25
sg38
g9
((lp47
g30
a(imodel.VarAtom
VarAtom
p48
(dp49
g3
S'CB'
p50
sg21
I00
sg22
Nsg23
(imodel.Atom
Atom
p51
(dp52
g3
g50
sg13
g1
sg14
I4
sg15
S'C'
sg16
I00
sg17
g9
((lp53
g48
atRp54
sg37
I00
sbsg24
g25
sg38
g9
((lp55
(imodel.VarAtom
VarAtom
p56
(dp57
g3
S'HB3'
p58
sg21
I00
sg22
Nsg23
(imodel.Atom
Atom
p59
(dp60
g3
g58
sg13
g1
sg14
I1
sg15
S'H'
sg16
I00
sg17
g9
((lp61
g56
atRp62
sg37
I00
sbsg24
g25
sg38
g9
((lp63
g48
atRp64
sg15
S'H'
sS'charge'
p65
I0
sg16
I00
sS'coords'
p66
(F67.105563125124704
F337.84722367210662
F-74.615871819894664
tp67
sS'freeValences'
p68
(lp69
sg13
g1
sS'atomGroups'
p70
g9
((ltRp71
sS'bonds'
p72
g9
((lp73
(imodel.Bond
Bond
p74
(dp75
g13
g1
sS'bondType'
p76
S'single'
p77
sg24
g25
sg17
g9
((lp78
g48
ag56
atRp79
sbatRp80
sg37
I00
sba(imodel.VarAtom
VarAtom
p81
(dp82
g3
S'HB2'
p83
sg21
I00
sg22
Nsg23
(imodel.Atom
Atom
p84
(dp85
g3
g83
sg13
g1
sg14
I1
sg15
S'H'
sg16
I00
sg17
g9
((lp86
g81
atRp87
sg37
I00
sbsg24
g25
sg38
g9
((lp88
g48
atRp89
sg15
S'H'
sg65
I0
sg16
I00
sg66
(F143.71289785258219
F339.15981398017345
F5.5613321190513512
tp90
sg68
(lp91
sg13
g1
sg70
g9
((ltRp92
sg72
g9
((lp93
(imodel.Bond
Bond
p94
(dp95
g13
g1
sg76
g77
sg24
g25
sg17
g9
((lp96
g48
ag81
atRp97
sbatRp98
sg37
I00
sbag40
a(imodel.VarAtom
VarAtom
p99
(dp100
g3
S'CA'
p101
sg21
I00
sg22
S'S'
sg23
(imodel.Atom
Atom
p102
(dp103
g3
g101
sg13
g1
sg14
I4
sg15
S'C'
sg16
I00
sg17
g9
((lp104
g99
atRp105
sg37
I00
sbsg24
g25
sg38
g9
((lp106
(imodel.VarAtom
VarAtom
p107
(dp108
g3
S'HA'
p109
sg21
I00
sg22
Nsg23
(imodel.Atom
Atom
p110
(dp111
g3
g109
sg13
g1
sg14
I1
sg15
S'H'
sg16
I00
sg17
g9
((lp112
g107
atRp113
sg37
I00
sbsg24
g25
sg38
g9
((lp114
g99
atRp115
sg15
S'H'
sg65
I0
sg16
I00
sg66
(F111.02465527159747
F428.01739441371706
F-64.37833693932302
tp116
sg68
(lp117
sg13
g1
sg70
g9
((ltRp118
sg72
g9
((lp119
(imodel.Bond
Bond
p120
(dp121
g13
g1
sg76
g77
sg24
g25
sg17
g9
((lp122
g99
ag107
atRp123
sbatRp124
sg37
I00
sba(imodel.VarAtom
VarAtom
p125
(dp126
g3
S'C'
sg21
I00
sg22
Nsg23
(imodel.Atom
Atom
p127
(dp128
g3
S'C'
sg13
g1
sg14
I4
sg15
S'C'
sg16
I00
sg17
g9
((lp129
g125
atRp130
sg37
I00
sbsg24
g25
sg38
g9
((lp131
g99
a(imodel.VarAtom
VarAtom
p132
(dp133
g3
S"O'"
p134
sg21
I00
sg22
Nsg23
(imodel.Atom
Atom
p135
(dp136
g3
g134
sg13
g1
sg14
I2
sg15
S'O'
sg16
I00
sg17
g9
((lp137
g132
atRp138
sg37
I00
sbsg24
g25
sg38
g9
((lp139
g125
atRp140
sg15
S'O'
sg65
I0
sg16
I00
sg66
(F197.91778272694225
F375.23027426524277
F-8.0016872290992449
tp141
sg68
(lp142
sg13
g1
sg70
g9
((ltRp143
sg72
g9
((lp144
(imodel.Bond
Bond
p145
(dp146
g13
g1
sg76
S'double'
p147
sg24
g25
sg17
g9
((lp148
g125
ag132
atRp149
sbatRp150
sg37
I00
sbatRp151
sg15
S'C'
sg65
I0
sg16
I00
sg66
(F158.01868162974509
F400.44756470136576
F-53.01549729231499
tp152
sg68
(lp153
F0.17484623533024823
asg13
g1
sg70
g9
((ltRp154
sg72
g9
((lp155
(imodel.Bond
Bond
p156
(dp157
g13
g1
sg76
g77
sg24
g25
sg17
g9
((lp158
g99
ag125
atRp159
sbag145
atRp160
sg37
I00
sbag48
a(imodel.VarAtom
VarAtom
p161
(dp162
g3
S'N'
sg21
I00
sg22
Nsg23
(imodel.Atom
Atom
p163
(dp164
g3
S'N'
sg13
g1
sg14
I3
sg15
S'N'
sg16
I00
sg17
g9
((lp165
g161
atRp166
sg37
I00
sbsg24
g25
sg38
g9
((lp167
g99
ag19
atRp168
sg15
S'N'
sg65
I0
sg16
I00
sg66
(F60.261788865845183
F407.99268257097913
F39.29740166515294
tp169
sg68
(lp170
F6.1496652882169816
asg13
g1
sg70
g9
((ltRp171
sg72
g9
((lp172
(imodel.Bond
Bond
p173
(dp174
g13
g1
sg76
g77
sg24
g25
sg17
g9
((lp175
g99
ag161
atRp176
sba(imodel.Bond
Bond
p177
(dp178
g13
g1
sg76
g77
sg24
g25
sg17
g9
((lp179
g161
ag19
atRp180
sbatRp181
sg37
I00
sbatRp182
sg15
S'C'
sg65
I0
sg16
I00
sg66
(F108.0099705705266
F389.58223325292397
F-28.154439062833333
tp183
sg68
(lp184
sg13
g1
sg70
g9
((ltRp185
sg72
g9
((lp186
g173
ag120
ag156
a(imodel.Bond
Bond
p187
(dp188
g13
g1
sg76
g77
sg24
g25
sg17
g9
((lp189
g48
ag99
atRp190
sbatRp191
sg37
I00
sbatRp192
sg15
S'C'
sg65
I0
sg16
I00
sg66
(F105.53202462577011
F337.68390129757648
F-24.431000448513757
tp193
sg68
(lp194
sg13
g1
sg70
g9
((ltRp195
sg72
g9
((lp196
g94
a(imodel.Bond
Bond
p197
(dp198
g13
g1
sg76
g77
sg24
g25
sg17
g9
((lp199
g48
ag40
atRp200
sbag187
ag74
atRp201
sg37
I00
sba(imodel.VarAtom
VarAtom
p202
(dp203
g3
S'HG2'
p204
sg21
I00
sg22
Nsg23
(imodel.Atom
Atom
p205
(dp206
g3
g204
sg13
g1
sg14
I1
sg15
S'H'
sg16
I00
sg17
g9
((lp207
g202
atRp208
sg37
I00
sbsg24
g25
sg38
g9
((lp209
g40
atRp210
sg15
S'H'
sg65
I0
sg16
I00
sg66
(F73.650418655162554
F272.71305986375353
F-27.672281974770232
tp211
sg68
(lp212
sg13
g1
sg70
g9
((ltRp213
sg72
g9
((lp214
(imodel.Bond
Bond
p215
(dp216
g13
g1
sg76
g77
sg24
g25
sg17
g9
((lp217
g40
ag202
atRp218
sbatRp219
sg37
I00
sba(imodel.VarAtom
VarAtom
p220
(dp221
g3
S'CD'
p222
sg21
I00
sg22
Nsg23
(imodel.Atom
Atom
p223
(dp224
g3
g222
sg13
g1
sg14
I4
sg15
S'C'
sg16
I00
sg17
g9
((lp225
g220
atRp226
sg37
I00
sbsg24
g25
sg38
g9
((lp227
(imodel.VarAtom
VarAtom
p228
(dp229
g3
S'OE2'
p230
sg21
I00
sg22
Nsg23
(imodel.Atom
Atom
p231
(dp232
g3
g230
sg13
g1
sg14
I2
sg15
S'O'
sg16
I00
sg17
g9
((lp233
g228
atRp234
sg37
I00
sbsg24
g25
sg38
g9
((lp235
g220
a(imodel.VarAtom
VarAtom
p236
(dp237
g3
S'HE2'
p238
sg21
I01
sg22
Nsg23
(imodel.Atom
Atom
p239
(dp240
g3
g238
sg13
g1
sg14
I1
sg15
S'H'
sg16
I01
sg17
g9
((lp241
g236
atRp242
sg37
I00
sbsg24
g25
sg38
g9
((lp243
g228
atRp244
sg15
S'H'
sg65
I0
sg16
I01
sg66
(F79.485876560373896
F156.25492034458185
F46.850011350448497
tp245
sg68
(lp246
sg13
g1
sg70
g9
((ltRp247
sg72
g9
((lp248
(imodel.Bond
Bond
p249
(dp250
g13
g1
sg76
g77
sg24
g25
sg17
g9
((lp251
g228
ag236
atRp252
sbatRp253
sg37
I00
sbatRp254
sg15
S'O'
sg65
I0
sg16
I00
sg66
(F95.787994608746999
F190.3652819964737
F45.590493589598665
tp255
sg68
(lp256
sg13
g1
sg70
g9
((ltRp257
sg72
g9
((lp258
(imodel.Bond
Bond
p259
(dp260
g13
g1
sg76
g77
sg24
g25
sg17
g9
((lp261
g228
ag220
atRp262
sbag249
atRp263
sg37
I00
sba(imodel.VarAtom
VarAtom
p264
(dp265
g3
S'OE1'
p266
sg21
I00
sg22
Nsg23
(imodel.Atom
Atom
p267
(dp268
g3
g266
sg13
g1
sg14
I2
sg15
S'O'
sg16
I00
sg17
g9
((lp269
g264
atRp270
sg37
I00
sbsg24
g25
sg38
g9
((lp271
g220
atRp272
sg15
S'O'
sg65
I0
sg16
I00
sg66
(F160.27623478147228
F215.18858847202594
F-38.01655346802135
tp273
sg68
(lp274
sg13
g1
sg70
g9
((ltRp275
sg72
g9
((lp276
(imodel.Bond
Bond
p277
(dp278
g13
g1
sg76
S'double'
p279
sg24
g25
sg17
g9
((lp280
g220
ag264
atRp281
sbatRp282
sg37
I00
sbag40
atRp283
sg15
S'C'
sg65
I0
sg16
I00
sg66
(F120.61162053776877
F234.54257879862519
F3.6910640228198472
tp284
sg68
(lp285
sg13
g1
sg70
g9
((ltRp286
sg72
g9
((lp287
g259
ag277
a(imodel.Bond
Bond
p288
(dp289
g13
g1
sg76
g77
sg24
g25
sg17
g9
((lp290
g40
ag220
atRp291
sbatRp292
sg37
I00
sbatRp293
sg15
S'C'
sg65
I0
sg16
I00
sg66
(F110.2373952162737
F284.95521923496244
F0.72634667184226165
tp294
sg68
(lp295
sg13
g1
sg70
g9
((ltRp296
sg72
g9
((lp297
(imodel.Bond
Bond
p298
(dp299
g13
g1
sg76
g77
sg24
g25
sg17
g9
((lp300
g30
ag40
atRp301
sbag197
ag215
ag288
atRp302
sg37
I00
sbatRp303
sg15
S'H'
sg65
I0
sg16
I00
sg66
(F148.69814334726524
F283.32005472998696
F50.899552742860493
tp304
sg68
(lp305
sg13
g1
sg70
g9
((ltRp306
sg72
g9
((lp307
g298
atRp308
sg37
I00
sbag81
ag107
ag202
ag236
ag56
atRp309
sS'C'
g9
((lp310
g220
ag40
ag125
ag48
ag99
atRp311
sS'O'
g9
((lp312
g264
ag228
ag132
atRp313
sS'N'
g9
((lp314
g161
atRp315
ssg72
g9
((lp316
g145
ag74
ag156
ag215
ag187
ag94
ag177
ag197
ag288
ag173
ag298
ag277
ag120
ag249
ag259
atRp317
sg13
g1
sS'descriptor'
p318
(S'neutral'
p319
S'none'
p320
S'default'
p321
tp322
sS'atomDict'
p323
(dp324
g33
g30
sg231
g228
sg135
g132
sg163
g161
sg51
g48
sg43
g40
sg102
g99
sg127
g125
sg205
g202
sg223
g220
sg110
g107
sg267
g264
sg59
g56
sg239
g236
sg11
g19
sg84
g81
ssg17
g9
((lp325
g19
ag56
ag30
ag99
ag264
ag125
ag81
ag228
ag40
ag132
ag202
ag107
ag220
ag236
ag48
ag161
atRp326
sg70
g9
((ltRp327
sS'polyLink'
p328
g320
sbsg38
g9
((lp329
g161
atRp330
sg15
S'H'
sg65
I0
sg16
I00
sg66
(F26.656675665220348
F383.22988970118138
F54.316592308215718
tp331
sg68
(lp332
sg13
g1
sg70
g9
((ltRp333
sg72
g9
((lp334
g177
atRp335
sg37
I00
sbatRp336
sg37
I00
sbag51
ag135
ag231
ag205
ag102
ag33
ag239
ag267
ag127
ag84
ag43
ag59
ag163
ag110
ag223
atRp337
sS'ccpMolType'
p338
S'protein'
p339
sS'details'
p340
V
sg323
(dp341
g134
g135
sg230
g231
sg266
g267
sg109
g110
sg238
g239
sg204
g205
sg32
g33
sg50
g51
sS'C'
g127
sVH
g11
sg101
g102
sg42
g43
sg222
g223
sS'N'
g163
sg58
g59
sg83
g84
ssS'keywords'
p342
g9
((ltRp343
sg70
g9
((ltRp344
sS'variants'
p345
g9
((lp346
g25
atRp347
sS'defaultVars'
p348
g9
((ltRp349
sb.