(imodel.Compound
Compound
p1
(dp2
S'name'
p3
VGLYCINE
p4
sS'isModified'
p5
I01
sS'ccpCode'
p6
VGly
p7
sS'atoms'
p8
c__builtin__
set
p9
((lp10
(imodel.Atom
Atom
p11
(dp12
g3
S'HA3'
p13
sS'compound'
p14
g1
sS'baseValences'
p15
I1
sS'element'
p16
S'H'
sS'isVariable'
p17
I00
sS'varAtoms'
p18
g9
((lp19
(imodel.VarAtom
VarAtom
p20
(dp21
g3
g13
sS'isLabile'
p22
I00
sS'chirality'
p23
NsS'atom'
p24
g11
sS'variant'
p25
(imodel.Variant
Variant
p26
(dp27
S'elementDict'
p28
(dp29
S'H'
g9
((lp30
(imodel.VarAtom
VarAtom
p31
(dp32
g3
VH
sg22
I00
sg23
Nsg24
(imodel.Atom
Atom
p33
(dp34
g3
VH
sg14
g1
sg15
I1
sg16
S'H'
sg17
I00
sg18
g9
((lp35
g31
atRp36
sS'isDeleted'
p37
I00
sbsg25
g26
sS'neighbours'
p38
g9
((lp39
(imodel.VarAtom
VarAtom
p40
(dp41
g3
S'N'
sg22
I00
sg23
Nsg24
(imodel.Atom
Atom
p42
(dp43
g3
S'N'
sg14
g1
sg15
I3
sg16
S'N'
sg17
I00
sg18
g9
((lp44
g40
atRp45
sg37
I00
sbsg25
g26
sg38
g9
((lp46
(imodel.VarAtom
VarAtom
p47
(dp48
g3
S'CA'
p49
sg22
I00
sg23
Nsg24
(imodel.Atom
Atom
p50
(dp51
g3
g49
sg14
g1
sg15
I4
sg16
S'C'
sg17
I00
sg18
g9
((lp52
g47
atRp53
sg37
I00
sbsg25
g26
sg38
g9
((lp54
(imodel.VarAtom
VarAtom
p55
(dp56
g3
S'C'
sg22
I00
sg23
Nsg24
(imodel.Atom
Atom
p57
(dp58
g3
S'C'
sg14
g1
sg15
I4
sg16
S'C'
sg17
I00
sg18
g9
((lp59
g55
atRp60
sg37
I00
sbsg25
g26
sg38
g9
((lp61
g47
a(imodel.VarAtom
VarAtom
p62
(dp63
g3
S"O'"
p64
sg22
I00
sg23
Nsg24
(imodel.Atom
Atom
p65
(dp66
g3
g64
sg14
g1
sg15
I2
sg16
S'O'
sg17
I00
sg18
g9
((lp67
g62
atRp68
sg37
I00
sbsg25
g26
sg38
g9
((lp69
g55
atRp70
sg16
S'O'
sS'charge'
p71
I0
sg17
I00
sS'coords'
p72
(F160.82884076562374
F238.04497790238
F14.64869493301188
tp73
sS'freeValences'
p74
(lp75
sg14
g1
sS'atomGroups'
p76
g9
((ltRp77
sS'bonds'
p78
g9
((lp79
(imodel.Bond
Bond
p80
(dp81
g14
g1
sS'bondType'
p82
S'double'
p83
sg25
g26
sg18
g9
((lp84
g55
ag62
atRp85
sbatRp86
sg37
I00
sbatRp87
sg16
S'C'
sg71
I0
sg17
I00
sg72
(F199.40764908542423
F260.09011990984459
F32.556385483579504
tp88
sg74
(lp89
F6.2451573404941003
asg14
g1
sg76
g9
((ltRp90
sg78
g9
((lp91
(imodel.Bond
Bond
p92
(dp93
g14
g1
sg82
S'single'
p94
sg25
g26
sg18
g9
((lp95
g47
ag55
atRp96
sbag80
atRp97
sg37
I00
sbag20
a(imodel.VarAtom
VarAtom
p98
(dp99
g3
S'HA2'
p100
sg22
I00
sg23
Nsg24
(imodel.Atom
Atom
p101
(dp102
g3
g100
sg14
g1
sg15
I1
sg16
S'H'
sg17
I00
sg18
g9
((lp103
g98
atRp104
sg37
I00
sbsg25
g26
sg38
g9
((lp105
g47
atRp106
sg16
S'H'
sg71
I0
sg17
I00
sg72
(F271.05962987946941
F209.34142473279235
F96.015605146969619
tp107
sg74
(lp108
sg14
g1
sg76
g9
((ltRp109
sg78
g9
((lp110
(imodel.Bond
Bond
p111
(dp112
g14
g1
sg82
g94
sg25
g26
sg18
g9
((lp113
g47
ag98
atRp114
sbatRp115
sg37
I00
sbag40
atRp116
sg16
S'C'
sg71
I0
sg17
I00
sg72
(F245.52340473853752
F238.20525571531027
F95.969958768456507
tp117
sg74
(lp118
sg14
g1
sg76
g9
((ltRp119
sg78
g9
((lp120
g92
a(imodel.Bond
Bond
p121
(dp122
g14
g1
sg82
g94
sg25
g26
sg18
g9
((lp123
g47
ag40
atRp124
sba(imodel.Bond
Bond
p125
(dp126
g14
g1
sg82
g94
sg25
g26
sg18
g9
((lp127
g47
ag20
atRp128
sbag111
atRp129
sg37
I00
sbag31
atRp130
sg16
S'N'
sg71
I0
sg17
I00
sg72
(F288.82870186169049
F265.05505727955733
F105.87789146996862
tp131
sg74
(lp132
F0.10266928238628648
asg14
g1
sg76
g9
((ltRp133
sg78
g9
((lp134
g121
a(imodel.Bond
Bond
p135
(dp136
g14
g1
sg82
g94
sg25
g26
sg18
g9
((lp137
g31
ag40
atRp138
sbatRp139
sg37
I00
sbatRp140
sg16
S'H'
sg71
I0
sg17
I00
sg72
(F316.38920545203905
F238.84214171757381
F148.42297798949159
tp141
sg74
(lp142
sg14
g1
sg76
g9
((ltRp143
sg78
g9
((lp144
g135
atRp145
sg37
I00
sbag20
ag98
atRp146
sS'C'
g9
((lp147
g47
ag55
atRp148
sS'O'
g9
((lp149
g62
atRp150
sS'N'
g9
((lp151
g40
atRp152
ssg78
g9
((lp153
g92
ag111
ag135
ag121
ag125
ag80
atRp154
sg14
g1
sS'descriptor'
p155
(S'neutral'
p156
S'none'
p157
S'default'
p158
tp159
sS'atomDict'
p160
(dp161
g65
g62
sg50
g47
sg101
g98
sg11
g20
sg33
g31
sg42
g40
sg57
g55
ssg18
g9
((lp162
g20
ag98
ag55
ag31
ag62
ag47
ag40
atRp163
sg76
g9
((ltRp164
sS'polyLink'
p165
g157
sbsg38
g9
((lp166
g47
atRp167
sg16
S'H'
sg71
I0
sg17
I00
sg72
(F222.58950944650994
F207.37867569992923
F139.56292400359374
tp168
sg74
(lp169
sg14
g1
sg76
g9
((ltRp170
sg78
g9
((lp171
g125
atRp172
sg37
I00
sbatRp173
sg37
I00
sbag65
ag50
ag42
ag33
ag101
ag57
atRp174
sS'ccpMolType'
p175
S'protein'
p176
sS'details'
p177
V
sg160
(dp178
S'C'
g57
sg64
g65
sVH
g33
sg49
g50
sS'N'
g42
sg13
g11
sg100
g101
ssS'keywords'
p179
g9
((ltRp180
sg76
g9
((ltRp181
sS'variants'
p182
g9
((lp183
g26
atRp184
sS'defaultVars'
p185
g9
((ltRp186
sb.