(imodel.Compound
Compound
p1
(dp2
S'name'
p3
VL-Histidine
p4
sS'isModified'
p5
I01
sS'ccpCode'
p6
VHis
p7
sS'atoms'
p8
c__builtin__
set
p9
((lp10
(imodel.Atom
Atom
p11
(dp12
S'name'
p13
VHE2
p14
sS'compound'
p15
g1
sS'baseValences'
p16
I1
sS'element'
p17
S'H'
sS'isVariable'
p18
I00
sS'varAtoms'
p19
g9
((lp20
(imodel.VarAtom
VarAtom
p21
(dp22
g13
g14
sS'isLabile'
p23
I00
sS'chirality'
p24
NsS'atom'
p25
g11
sS'variant'
p26
(imodel.Variant
Variant
p27
(dp28
S'elementDict'
p29
(dp30
S'H'
g9
((lp31
(imodel.VarAtom
VarAtom
p32
(dp33
g13
S'HA'
p34
sg23
I00
sg24
Nsg25
(imodel.Atom
Atom
p35
(dp36
g3
g34
sS'compound'
p37
g1
sg16
I1
sS'element'
p38
S'H'
sS'isVariable'
p39
I00
sS'varAtoms'
p40
g9
((lp41
g32
atRp42
sS'isDeleted'
p43
I00
sbsg26
g27
sS'neighbours'
p44
g9
((lp45
(imodel.VarAtom
VarAtom
p46
(dp47
g13
S'CA'
p48
sg23
I00
sg24
Nsg25
(imodel.Atom
Atom
p49
(dp50
g3
g48
sg37
g1
sg16
I4
sg38
S'C'
sg39
I00
sg40
g9
((lp51
g46
atRp52
sg43
I00
sbsg26
g27
sg44
g9
((lp53
g32
a(imodel.VarAtom
VarAtom
p54
(dp55
g13
S'N'
sg23
I00
sg24
Nsg25
(imodel.Atom
Atom
p56
(dp57
g3
S'N'
sg37
g1
sg16
I3
sg38
S'N'
sg39
I00
sg40
g9
((lp58
g54
atRp59
sg43
I00
sbsg26
g27
sg44
g9
((lp60
g46
a(imodel.VarAtom
VarAtom
p61
(dp62
g13
VH
sg23
I00
sg24
Nsg25
(imodel.Atom
Atom
p63
(dp64
g3
VH
sg37
g1
sg16
I1
sg38
S'H'
sg39
I00
sg40
g9
((lp65
g61
atRp66
sg43
I00
sbsg26
g27
sg44
g9
((lp67
g54
atRp68
sg17
S'H'
sS'charge'
p69
I0
sg18
I00
sS'coords'
p70
(F402.42536712125468
F324.29564393947032
F1.1125118647436216
tp71
sS'freeValences'
p72
(lp73
sg15
g1
sS'atomGroups'
p74
g9
((ltRp75
sS'bonds'
p76
g9
((lp77
(imodel.Bond
Bond
p78
(dp79
g15
g1
sS'bondType'
p80
S'single'
p81
sg26
g27
sg19
g9
((lp82
g61
ag54
atRp83
sbatRp84
sS'isDeleted'
p85
I00
sbatRp86
sg17
S'N'
sg69
I0
sg18
I00
sg70
(F364.63721813871143
F330.63705583492379
F1.7683933507179077
tp87
sg72
(lp88
F6.0246631760625871
asg15
g1
sg74
g9
((ltRp89
sg76
g9
((lp90
(imodel.Bond
Bond
p91
(dp92
g15
g1
sg80
g81
sg26
g27
sg19
g9
((lp93
g46
ag54
atRp94
sbag78
atRp95
sg85
I00
sba(imodel.VarAtom
VarAtom
p96
(dp97
g13
S'CB'
p98
sg23
I00
sg24
Nsg25
(imodel.Atom
Atom
p99
(dp100
g3
g98
sg37
g1
sg16
I4
sg38
S'C'
sg39
I00
sg40
g9
((lp101
g96
atRp102
sg43
I00
sbsg26
g27
sg44
g9
((lp103
(imodel.VarAtom
VarAtom
p104
(dp105
g13
S'CG'
p106
sg23
I00
sg24
Nsg25
(imodel.Atom
Atom
p107
(dp108
g3
g106
sg37
g1
sg16
I4
sg38
S'C'
sg39
I00
sg40
g9
((lp109
g104
atRp110
sg43
I00
sbsg26
g27
sg44
g9
((lp111
g96
a(imodel.VarAtom
VarAtom
p112
(dp113
g13
S'CD2'
p114
sg23
I00
sg24
Nsg25
(imodel.Atom
Atom
p115
(dp116
g3
g114
sg37
g1
sg16
I4
sg38
S'C'
sg39
I00
sg40
g9
((lp117
g112
atRp118
sg43
I00
sbsg26
g27
sg44
g9
((lp119
(imodel.VarAtom
VarAtom
p120
(dp121
g13
S'NE2'
p122
sg23
I00
sg24
Nsg25
(imodel.Atom
Atom
p123
(dp124
g3
g122
sg37
g1
sg16
I3
sg38
S'N'
sg39
I00
sg40
g9
((lp125
g120
atRp126
sg43
I00
sbsg26
g27
sg44
g9
((lp127
g112
ag21
a(imodel.VarAtom
VarAtom
p128
(dp129
g13
S'CE1'
p130
sg23
I00
sg24
Nsg25
(imodel.Atom
Atom
p131
(dp132
g3
g130
sg37
g1
sg16
I4
sg38
S'C'
sg39
I00
sg40
g9
((lp133
g128
atRp134
sg43
I00
sbsg26
g27
sg44
g9
((lp135
(imodel.VarAtom
VarAtom
p136
(dp137
g13
VHE1
p138
sg23
I00
sg24
Nsg25
(imodel.Atom
Atom
p139
(dp140
g3
g138
sg37
g1
sg16
I1
sg38
S'H'
sg39
I00
sg40
g9
((lp141
g136
atRp142
sg43
I00
sbsg26
g27
sg44
g9
((lp143
g128
atRp144
sg17
S'H'
sg69
I0
sg18
I00
sg70
(F191.2490543350811
F199.92858519663287
F0.20674258842286308
tp145
sg72
(lp146
sg15
g1
sg74
g9
((ltRp147
sg76
g9
((lp148
(imodel.Bond
Bond
p149
(dp150
g15
g1
sg80
g81
sg26
g27
sg19
g9
((lp151
g136
ag128
atRp152
sbatRp153
sg85
I00
sbag120
a(imodel.VarAtom
VarAtom
p154
(dp155
g13
S'ND1'
p156
sg23
I00
sg24
Nsg25
(imodel.Atom
Atom
p157
(dp158
g3
g156
sg37
g1
sg16
I3
sg38
S'N'
sg39
I00
sg40
g9
((lp159
g154
atRp160
sg43
I00
sbsg26
g27
sg44
g9
((lp161
g104
ag128
atRp162
sg17
S'N'
sg69
I0
sg18
I00
sg70
(F257.19723344218568
F224.57329507668709
F2.5232585902817584
tp163
sg72
(lp164
sg15
g1
sg74
g9
((lp165
(imodel.AtomGroup
AtomGroup
p166
(dp167
S'groupType'
p168
S'aromatic'
p169
sS'subGroups'
p170
g9
((ltRp171
sg19
g9
((lp172
g128
ag120
ag154
ag104
ag112
atRp173
sg26
g27
sg15
g1
sbatRp174
sg76
g9
((lp175
(imodel.Bond
Bond
p176
(dp177
g15
g1
sg80
g169
sg26
g27
sg19
g9
((lp178
g154
ag104
atRp179
sba(imodel.Bond
Bond
p180
(dp181
g15
g1
sg80
g169
sg26
g27
sg19
g9
((lp182
g154
ag128
atRp183
sbatRp184
sg85
I00
sbatRp185
sg17
S'C'
sg69
I0
sg18
I00
sg70
(F226.45229700138214
F185.46212917485548
F1.2241484898086088
tp186
sg72
(lp187
sg15
g1
sg74
g9
((lp188
g166
atRp189
sg76
g9
((lp190
g149
a(imodel.Bond
Bond
p191
(dp192
g15
g1
sg80
g169
sg26
g27
sg19
g9
((lp193
g120
ag128
atRp194
sbag180
atRp195
sg85
I00
sbatRp196
sg17
S'N'
sg69
I0
sg18
I00
sg70
(F254.4199961316618
F143.79818268141815
F1.2990050228809056
tp197
sg72
(lp198
sg15
g1
sg74
g9
((lp199
g166
atRp200
sg76
g9
((lp201
(imodel.Bond
Bond
p202
(dp203
g15
g1
sg80
g169
sg26
g27
sg19
g9
((lp204
g120
ag112
atRp205
sba(imodel.Bond
Bond
p206
(dp207
g15
g1
sg80
S'single'
p208
sg26
g27
sg19
g9
((lp209
g120
ag21
atRp210
sbag191
atRp211
sg85
I00
sba(imodel.VarAtom
VarAtom
p212
(dp213
g13
S'HD2'
p214
sg23
I00
sg24
Nsg25
(imodel.Atom
Atom
p215
(dp216
g3
g214
sg37
g1
sg16
I1
sg38
S'H'
sg39
I00
sg40
g9
((lp217
g212
atRp218
sg43
I00
sbsg26
g27
sg44
g9
((lp219
g112
atRp220
sg17
S'H'
sg69
I0
sg18
I00
sg70
(F330.06795579853195
F131.14197322183082
F1.572094541261138
tp221
sg72
(lp222
sg15
g1
sg74
g9
((ltRp223
sg76
g9
((lp224
(imodel.Bond
Bond
p225
(dp226
g15
g1
sg80
g81
sg26
g27
sg19
g9
((lp227
g212
ag112
atRp228
sbatRp229
sg85
I00
sbag104
atRp230
sg17
S'C'
sg69
I0
sg18
I00
sg70
(F302.57127556914924
F157.5786435057031
F0.55573047070879589
tp231
sg72
(lp232
sg15
g1
sg74
g9
((lp233
g166
atRp234
sg76
g9
((lp235
g202
ag225
a(imodel.Bond
Bond
p236
(dp237
g15
g1
sg80
g169
sg26
g27
sg19
g9
((lp238
g112
ag104
atRp239
sbatRp240
sg85
I00
sbag154
atRp241
sg17
S'C'
sg69
I0
sg18
I00
sg70
(F304.3055565401134
F207.96032601616469
F0.54808799101940409
tp242
sg72
(lp243
sg15
g1
sg74
g9
((lp244
g166
atRp245
sg76
g9
((lp246
(imodel.Bond
Bond
p247
(dp248
g15
g1
sg80
g81
sg26
g27
sg19
g9
((lp249
g96
ag104
atRp250
sbag176
ag236
atRp251
sg85
I00
sba(imodel.VarAtom
VarAtom
p252
(dp253
g13
S'HB3'
p254
sg23
I00
sg24
Nsg25
(imodel.Atom
Atom
p255
(dp256
g3
g254
sg37
g1
sg16
I1
sg38
S'H'
sg39
I00
sg40
g9
((lp257
g252
atRp258
sg43
I00
sbsg26
g27
sg44
g9
((lp259
g96
atRp260
sg17
S'H'
sg69
I0
sg18
I00
sg70
(F376.28999881550106
F257.9645976367633
F2.6599580423211076
tp261
sg72
(lp262
sg15
g1
sg74
g9
((ltRp263
sg76
g9
((lp264
(imodel.Bond
Bond
p265
(dp266
g15
g1
sg80
g81
sg26
g27
sg19
g9
((lp267
g96
ag252
atRp268
sbatRp269
sg85
I00
sba(imodel.VarAtom
VarAtom
p270
(dp271
g13
S'HB2'
p272
sg23
I00
sg24
Nsg25
(imodel.Atom
Atom
p273
(dp274
g3
g272
sg37
g1
sg16
I1
sg38
S'H'
sg39
I00
sg40
g9
((lp275
g270
atRp276
sg43
I00
sbsg26
g27
sg44
g9
((lp277
g96
atRp278
sg17
S'H'
sg69
I0
sg18
I00
sg70
(F361.50356128734353
F213.59024926468754
F1.7692435189906297
tp279
sg72
(lp280
sg15
g1
sg74
g9
((ltRp281
sg76
g9
((lp282
(imodel.Bond
Bond
p283
(dp284
g15
g1
sg80
g81
sg26
g27
sg19
g9
((lp285
g96
ag270
atRp286
sbatRp287
sg85
I00
sbag46
atRp288
sg17
S'C'
sg69
I0
sg18
I00
sg70
(F339.74908659942599
F245.64533536245986
F1.7311658452072598
tp289
sg72
(lp290
sg15
g1
sg74
g9
((ltRp291
sg76
g9
((lp292
g247
a(imodel.Bond
Bond
p293
(dp294
g15
g1
sg80
g81
sg26
g27
sg19
g9
((lp295
g96
ag46
atRp296
sbag283
ag265
atRp297
sg85
I00
sba(imodel.VarAtom
VarAtom
p298
(dp299
g13
S'C'
sg23
I00
sg24
Nsg25
(imodel.Atom
Atom
p300
(dp301
g3
S'C'
sg37
g1
sg16
I4
sg38
S'C'
sg39
I00
sg40
g9
((lp302
g298
atRp303
sg43
I00
sbsg26
g27
sg44
g9
((lp304
g46
a(imodel.VarAtom
VarAtom
p305
(dp306
g13
S"O'"
p307
sg23
I00
sg24
Nsg25
(imodel.Atom
Atom
p308
(dp309
g3
g307
sg37
g1
sg16
I2
sg38
S'O'
sg39
I00
sg40
g9
((lp310
g305
atRp311
sg43
I00
sbsg26
g27
sg44
g9
((lp312
g298
atRp313
sg17
S'O'
sg69
I0
sg18
I00
sg70
(F245.32670418482078
F331.89684978040009
F2.0605269688782988
tp314
sg72
(lp315
sg15
g1
sg74
g9
((ltRp316
sg76
g9
((lp317
(imodel.Bond
Bond
p318
(dp319
g15
g1
sg80
S'double'
p320
sg26
g27
sg19
g9
((lp321
g298
ag305
atRp322
sbatRp323
sg85
I00
sbatRp324
sg17
S'C'
sg69
I0
sg18
I00
sg70
(F289.43981255052609
F335.79763107964868
F2.0320148624876668
tp325
sg72
(lp326
F0.36457896339376106
asg15
g1
sg74
g9
((ltRp327
sg76
g9
((lp328
(imodel.Bond
Bond
p329
(dp330
g15
g1
sg80
g81
sg26
g27
sg19
g9
((lp331
g46
ag298
atRp332
sbag318
atRp333
sg85
I00
sbatRp334
sg17
S'C'
sg69
I0
sg18
I00
sg70
(F324.74597477645852
F298.159584749994
F1.5248963560614361
tp335
sg72
(lp336
sg15
g1
sg74
g9
((ltRp337
sg76
g9
((lp338
g329
a(imodel.Bond
Bond
p339
(dp340
g15
g1
sg80
g81
sg26
g27
sg19
g9
((lp341
g46
ag32
atRp342
sbag91
ag293
atRp343
sg85
I00
sbatRp344
sg17
S'H'
sg69
I0
sg18
I00
sg70
(F290.64906807502854
F281.42444154385856
F1.0438611699274021
tp345
sg72
(lp346
sg15
g1
sg74
g9
((ltRp347
sg76
g9
((lp348
g339
atRp349
sg85
I00
sbag212
ag61
ag252
ag136
ag21
ag270
atRp350
sS'C'
g9
((lp351
g298
ag112
ag96
ag46
ag128
ag104
atRp352
sS'O'
g9
((lp353
g305
atRp354
sS'N'
g9
((lp355
g54
ag154
ag120
atRp356
ssg76
g9
((lp357
g329
ag202
ag176
ag247
ag293
ag283
ag149
ag225
ag191
ag206
ag265
ag339
ag78
ag180
ag91
ag318
ag236
atRp358
sg15
g1
sS'descriptor'
p359
(S'neutral'
p360
S'none'
p361
S'default'
p362
tp363
sS'atomDict'
p364
(dp365
g11
g21
sg123
g120
sg131
g128
sg157
g154
sg215
g212
sg56
g54
sg107
g104
sg273
g270
sg308
g305
sg115
g112
sg255
g252
sg35
g32
sg99
g96
sg49
g46
sg300
g298
sg139
g136
sg63
g61
ssg19
g9
((lp366
g54
ag128
ag120
ag112
ag104
ag96
ag32
ag61
ag298
ag252
ag46
ag136
ag305
ag212
ag154
ag21
ag270
atRp367
sg74
g9
((lp368
g166
atRp369
sS'polyLink'
p370
g361
sbsg44
g9
((lp371
g120
atRp372
sg17
S'H'
sg69
I0
sg18
I00
sg70
(F234.81143034843694
F111.06748061296051
F2.0438632906198904
tp373
sg72
(lp374
sg15
g1
sg74
g9
((ltRp375
sg76
g9
((lp376
g206
atRp377
sg85
I00
sbatRp378
sg85
I00
sbag131
ag49
ag157
ag56
ag107
ag63
ag308
ag115
ag123
ag255
ag215
ag99
ag35
ag300
ag139
ag273
atRp379
sS'ccpMolType'
p380
S'protein'
p381
sS'details'
p382
V
sS'atomDict'
p383
(dp384
g307
g308
sg114
g115
sg34
g35
sg138
g139
sg14
g11
sVH
g63
sg156
g157
sS'C'
g300
sg98
g99
sg48
g49
sg106
g107
sS'N'
g56
sg130
g131
sg214
g215
sg122
g123
sg254
g255
sg272
g273
ssS'keywords'
p385
g9
((ltRp386
sS'atomGroups'
p387
g9
((lp388
g166
atRp389
sS'variants'
p390
g9
((lp391
g27
atRp392
sS'defaultVars'
p393
g9
((ltRp394
sb.