(imodel.Compound
Compound
p1
(dp2
S'name'
p3
V4-HYDROXYPROLINE
p4
sS'isModified'
p5
I01
sS'ccpCode'
p6
VHyp
p7
sS'atoms'
p8
c__builtin__
set
p9
((lp10
(imodel.Atom
Atom
p11
(dp12
g3
S'HD1'
p13
sS'compound'
p14
g1
sS'baseValences'
p15
I1
sS'element'
p16
S'H'
sS'isVariable'
p17
I00
sS'varAtoms'
p18
g9
((lp19
(imodel.VarAtom
VarAtom
p20
(dp21
g3
g13
sS'isLabile'
p22
I01
sS'chirality'
p23
NsS'atom'
p24
g11
sS'variant'
p25
(imodel.Variant
Variant
p26
(dp27
S'elementDict'
p28
(dp29
S'H'
g9
((lp30
(imodel.VarAtom
VarAtom
p31
(dp32
g3
S'HA'
p33
sg22
I00
sg23
Nsg24
(imodel.Atom
Atom
p34
(dp35
g3
g33
sg14
g1
sg15
I1
sg16
S'H'
sg17
I00
sg18
g9
((lp36
g31
atRp37
sS'isDeleted'
p38
I00
sbsg25
g26
sS'neighbours'
p39
g9
((lp40
(imodel.VarAtom
VarAtom
p41
(dp42
g3
S'CA'
p43
sg22
I00
sg23
S'S'
sg24
(imodel.Atom
Atom
p44
(dp45
g3
g43
sg14
g1
sg15
I4
sg16
S'C'
sg17
I00
sg18
g9
((lp46
g41
atRp47
sg38
I00
sbsg25
g26
sg39
g9
((lp48
(imodel.VarAtom
VarAtom
p49
(dp50
g3
S'CB'
p51
sg22
I00
sg23
Nsg24
(imodel.Atom
Atom
p52
(dp53
g3
g51
sg14
g1
sg15
I4
sg16
S'C'
sg17
I00
sg18
g9
((lp54
g49
atRp55
sg38
I00
sbsg25
g26
sg39
g9
((lp56
g41
a(imodel.VarAtom
VarAtom
p57
(dp58
g3
S'CG'
p59
sg22
I00
sg23
S'R'
sg24
(imodel.Atom
Atom
p60
(dp61
g3
g59
sg14
g1
sg15
I4
sg16
S'C'
sg17
I00
sg18
g9
((lp62
g57
atRp63
sg38
I00
sbsg25
g26
sg39
g9
((lp64
(imodel.VarAtom
VarAtom
p65
(dp66
g3
S'CD'
p67
sg22
I00
sg23
Nsg24
(imodel.Atom
Atom
p68
(dp69
g3
g67
sg14
g1
sg15
I4
sg16
S'C'
sg17
I00
sg18
g9
((lp70
g65
atRp71
sg38
I00
sbsg25
g26
sg39
g9
((lp72
(imodel.VarAtom
VarAtom
p73
(dp74
g3
S'HD23'
p75
sg22
I00
sg23
Nsg24
(imodel.Atom
Atom
p76
(dp77
g3
g75
sg14
g1
sg15
I1
sg16
S'H'
sg17
I00
sg18
g9
((lp78
g73
atRp79
sg38
I00
sbsg25
g26
sg39
g9
((lp80
g65
atRp81
sg16
S'H'
sS'charge'
p82
I0
sg17
I00
sS'coords'
p83
(F214.43490600771815
F457.05834128010338
F14.535519382335414
tp84
sS'freeValences'
p85
(lp86
sg14
g1
sS'atomGroups'
p87
g9
((ltRp88
sS'bonds'
p89
g9
((lp90
(imodel.Bond
Bond
p91
(dp92
g14
g1
sS'bondType'
p93
S'single'
p94
sg25
g26
sg18
g9
((lp95
g65
ag73
atRp96
sbatRp97
sg38
I00
sbag57
a(imodel.VarAtom
VarAtom
p98
(dp99
g3
S'N'
sg22
I00
sg23
Nsg24
(imodel.Atom
Atom
p100
(dp101
g3
S'N'
sg14
g1
sg15
I3
sg16
S'N'
sg17
I00
sg18
g9
((lp102
g98
atRp103
sg38
I00
sbsg25
g26
sg39
g9
((lp104
(imodel.VarAtom
VarAtom
p105
(dp106
g3
S'H'
sg22
I00
sg23
Nsg24
(imodel.Atom
Atom
p107
(dp108
g3
S'H'
sg14
g1
sg15
I1
sg16
S'H'
sg17
I00
sg18
g9
((lp109
g105
atRp110
sg38
I00
sbsg25
g26
sg39
g9
((lp111
g98
atRp112
sg16
S'H'
sg82
I0
sg17
I00
sg83
(F152.93920849351116
F468.7358539469476
F-49.069387895189905
tp113
sg85
(lp114
sg14
g1
sg87
g9
((ltRp115
sg89
g9
((lp116
(imodel.Bond
Bond
p117
(dp118
g14
g1
sg93
g94
sg25
g26
sg18
g9
((lp119
g105
ag98
atRp120
sbatRp121
sg38
I00
sbag41
ag65
atRp122
sg16
S'N'
sg82
I0
sg17
I00
sg83
(F158.00929410168669
F430.95677568996234
F-12.043544338148601
tp123
sg85
(lp124
sg14
g1
sg87
g9
((ltRp125
sg89
g9
((lp126
g117
a(imodel.Bond
Bond
p127
(dp128
g14
g1
sg93
g94
sg25
g26
sg18
g9
((lp129
g41
ag98
atRp130
sba(imodel.Bond
Bond
p131
(dp132
g14
g1
sg93
g94
sg25
g26
sg18
g9
((lp133
g65
ag98
atRp134
sbatRp135
sg38
I00
sba(imodel.VarAtom
VarAtom
p136
(dp137
g3
S'HD22'
p138
sg22
I00
sg23
Nsg24
(imodel.Atom
Atom
p139
(dp140
g3
g138
sg14
g1
sg15
I1
sg16
S'H'
sg17
I00
sg18
g9
((lp141
g136
atRp142
sg38
I00
sbsg25
g26
sg39
g9
((lp143
g65
atRp144
sg16
S'H'
sg82
I0
sg17
I00
sg83
(F246.35845337712067
F420.8461252211564
F-62.189554509804239
tp145
sg85
(lp146
sg14
g1
sg87
g9
((ltRp147
sg89
g9
((lp148
(imodel.Bond
Bond
p149
(dp150
g14
g1
sg93
g94
sg25
g26
sg18
g9
((lp151
g65
ag136
atRp152
sbatRp153
sg38
I00
sbatRp154
sg16
S'C'
sg82
I0
sg17
I00
sg83
(F207.60724844047536
F418.8353753101967
F-11.377295652017356
tp155
sg85
(lp156
sg14
g1
sg87
g9
((ltRp157
sg89
g9
((lp158
g91
a(imodel.Bond
Bond
p159
(dp160
g14
g1
sg93
g94
sg25
g26
sg18
g9
((lp161
g65
ag57
atRp162
sbag131
ag149
atRp163
sg38
I00
sba(imodel.VarAtom
VarAtom
p164
(dp165
g3
S'HG'
p166
sg22
I00
sg23
Nsg24
(imodel.Atom
Atom
p167
(dp168
g3
g166
sg14
g1
sg15
I1
sg16
S'H'
sg17
I00
sg18
g9
((lp169
g164
atRp170
sg38
I00
sbsg25
g26
sg39
g9
((lp171
g57
atRp172
sg16
S'H'
sg82
I0
sg17
I00
sg83
(F235.79934127840124
F364.7176203901422
F80.150234258986174
tp173
sg85
(lp174
sg14
g1
sg87
g9
((ltRp175
sg89
g9
((lp176
(imodel.Bond
Bond
p177
(dp178
g14
g1
sg93
g94
sg25
g26
sg18
g9
((lp179
g57
ag164
atRp180
sbatRp181
sg38
I00
sbag49
a(imodel.VarAtom
VarAtom
p182
(dp183
g3
S'OD1'
p184
sg22
I00
sg23
Nsg24
(imodel.Atom
Atom
p185
(dp186
g3
g184
sg14
g1
sg15
I2
sg16
S'O'
sg17
I00
sg18
g9
((lp187
g182
atRp188
sg38
I00
sbsg25
g26
sg39
g9
((lp189
g20
ag57
atRp190
sg16
S'O'
sg82
I0
sg17
I00
sg83
(F213.98960302189448
F319.4234861486691
F-1.6496923490221169
tp191
sg85
(lp192
sg14
g1
sg87
g9
((ltRp193
sg89
g9
((lp194
(imodel.Bond
Bond
p195
(dp196
g14
g1
sg93
g94
sg25
g26
sg18
g9
((lp197
g182
ag20
atRp198
sba(imodel.Bond
Bond
p199
(dp200
g14
g1
sg93
g94
sg25
g26
sg18
g9
((lp201
g57
ag182
atRp202
sbatRp203
sg38
I00
sbatRp204
sg16
S'C'
sg82
I0
sg17
I00
sg83
(F197.47216092810424
F368.07767044239358
F27.603180563110175
tp205
sg85
(lp206
sg14
g1
sg87
g9
((ltRp207
sg89
g9
((lp208
g159
ag177
ag199
a(imodel.Bond
Bond
p209
(dp210
g14
g1
sg93
g94
sg25
g26
sg18
g9
((lp211
g49
ag57
atRp212
sbatRp213
sg38
I00
sba(imodel.VarAtom
VarAtom
p214
(dp215
g3
S'HB3'
p216
sg22
I00
sg23
Nsg24
(imodel.Atom
Atom
p217
(dp218
g3
g216
sg14
g1
sg15
I1
sg16
S'H'
sg17
I00
sg18
g9
((lp219
g214
atRp220
sg38
I00
sbsg25
g26
sg39
g9
((lp221
g49
atRp222
sg16
S'H'
sg82
I0
sg17
I00
sg83
(F153.78701707367259
F323.59222009523376
F-5.3813214251555355
tp223
sg85
(lp224
sg14
g1
sg87
g9
((ltRp225
sg89
g9
((lp226
(imodel.Bond
Bond
p227
(dp228
g14
g1
sg93
g94
sg25
g26
sg18
g9
((lp229
g214
ag49
atRp230
sbatRp231
sg38
I00
sba(imodel.VarAtom
VarAtom
p232
(dp233
g3
S'HB2'
p234
sg22
I00
sg23
Nsg24
(imodel.Atom
Atom
p235
(dp236
g3
g234
sg14
g1
sg15
I1
sg16
S'H'
sg17
I00
sg18
g9
((lp237
g232
atRp238
sg38
I00
sbsg25
g26
sg39
g9
((lp239
g49
atRp240
sg16
S'H'
sg82
I0
sg17
I00
sg83
(F112.86028347156463
F341.312162287874
F68.748154230573064
tp241
sg85
(lp242
sg14
g1
sg87
g9
((ltRp243
sg89
g9
((lp244
(imodel.Bond
Bond
p245
(dp246
g14
g1
sg93
g94
sg25
g26
sg18
g9
((lp247
g232
ag49
atRp248
sbatRp249
sg38
I00
sbatRp250
sg16
S'C'
sg82
I0
sg17
I00
sg83
(F145.96380089031845
F361.47535197088666
F19.986591187104281
tp251
sg85
(lp252
sg14
g1
sg87
g9
((ltRp253
sg89
g9
((lp254
g209
a(imodel.Bond
Bond
p255
(dp256
g14
g1
sg93
g94
sg25
g26
sg18
g9
((lp257
g49
ag41
atRp258
sbag245
ag227
atRp259
sg38
I00
sba(imodel.VarAtom
VarAtom
p260
(dp261
g3
S'C'
sg22
I00
sg23
Nsg24
(imodel.Atom
Atom
p262
(dp263
g3
S'C'
sg14
g1
sg15
I4
sg16
S'C'
sg17
I00
sg18
g9
((lp264
g260
atRp265
sg38
I00
sbsg25
g26
sg39
g9
((lp266
g41
a(imodel.VarAtom
VarAtom
p267
(dp268
g3
S"O'"
p269
sg22
I00
sg23
Nsg24
(imodel.Atom
Atom
p270
(dp271
g3
g269
sg14
g1
sg15
I2
sg16
S'O'
sg17
I00
sg18
g9
((lp272
g267
atRp273
sg38
I00
sbsg25
g26
sg39
g9
((lp274
g260
atRp275
sg16
S'O'
sg82
I0
sg17
I00
sg83
(F77.648746988881953
F485.04283104713932
F39.712473426815194
tp276
sg85
(lp277
sg14
g1
sg87
g9
((ltRp278
sg89
g9
((lp279
(imodel.Bond
Bond
p280
(dp281
g14
g1
sg93
S'double'
p282
sg25
g26
sg18
g9
((lp283
g267
ag260
atRp284
sbatRp285
sg38
I00
sbatRp286
sg16
S'C'
sg82
I0
sg17
I00
sg83
(F80.085890892329644
F440.91548312701866
F1.3850612343755835
tp287
sg85
(lp288
F4.3091406168064008
asg14
g1
sg87
g9
((ltRp289
sg89
g9
((lp290
(imodel.Bond
Bond
p291
(dp292
g14
g1
sg93
g94
sg25
g26
sg18
g9
((lp293
g41
ag260
atRp294
sbag280
atRp295
sg38
I00
sbag98
ag31
atRp296
sg16
S'C'
sg82
I0
sg17
I00
sg83
(F115.25287816211699
F403.26631235986838
F-22.69231227940131
tp297
sg85
(lp298
sg14
g1
sg87
g9
((ltRp299
sg89
g9
((lp300
g255
ag291
ag127
a(imodel.Bond
Bond
p301
(dp302
g14
g1
sg93
g94
sg25
g26
sg18
g9
((lp303
g31
ag41
atRp304
sbatRp305
sg38
I00
sbatRp306
sg16
S'H'
sg82
I0
sg17
I00
sg83
(F80.805932749213071
F386.24008409444218
F-75.63761647157574
tp307
sg85
(lp308
sg14
g1
sg87
g9
((ltRp309
sg89
g9
((lp310
g301
atRp311
sg38
I00
sbag136
ag105
ag232
ag164
ag20
ag214
ag73
atRp312
sS'C'
g9
((lp313
g49
ag41
ag65
ag260
ag57
atRp314
sS'O'
g9
((lp315
g182
ag267
atRp316
sS'N'
g9
((lp317
g98
atRp318
ssg89
g9
((lp319
g159
ag131
ag195
ag255
ag91
ag177
ag291
ag245
ag227
ag199
ag127
ag149
ag117
ag280
ag301
ag209
atRp320
sg14
g1
sS'descriptor'
p321
(S'neutral'
p322
S'none'
p323
S'default'
p324
tp325
sS'atomDict'
p326
(dp327
g217
g214
sg11
g20
sg68
g65
sg34
g31
sg107
g105
sg270
g267
sg100
g98
sg139
g136
sg44
g41
sg185
g182
sg52
g49
sg262
g260
sg167
g164
sg76
g73
sg60
g57
sg235
g232
ssg18
g9
((lp328
g260
ag65
ag98
ag267
ag105
ag57
ag136
ag232
ag41
ag164
ag73
ag49
ag214
ag20
ag31
ag182
atRp329
sg87
g9
((ltRp330
sS'polyLink'
p331
g323
sbsg39
g9
((lp332
g182
atRp333
sg16
S'H'
sg82
I0
sg17
I00
sg83
(F228.44446987108381
F284.20333444921141
F1.2103116190509595
tp334
sg85
(lp335
sg14
g1
sg87
g9
((ltRp336
sg89
g9
((lp337
g195
atRp338
sg38
I00
sbatRp339
sg38
I00
sbag270
ag68
ag107
ag44
ag100
ag139
ag76
ag34
ag185
ag52
ag235
ag262
ag167
ag60
ag217
atRp340
sS'ccpMolType'
p341
S'protein'
p342
sS'details'
p343
V
sg326
(dp344
S'C'
g262
sg138
g139
sg75
g76
sg13
g11
sg269
g270
sS'H'
g107
sg43
g44
sg59
g60
sg184
g185
sg67
g68
sS'N'
g100
sg51
g52
sg33
g34
sg166
g167
sg216
g217
sg234
g235
ssS'keywords'
p345
g9
((ltRp346
sg87
g9
((ltRp347
sS'variants'
p348
g9
((lp349
g26
atRp350
sS'defaultVars'
p351
g9
((ltRp352
sb.