(imodel.Compound
Compound
p1
(dp2
S'name'
p3
VISOLEUCINE
p4
sS'isModified'
p5
I01
sS'ccpCode'
p6
VIle
p7
sS'atoms'
p8
c__builtin__
set
p9
((lp10
(imodel.Atom
Atom
p11
(dp12
g3
S'N'
sS'compound'
p13
g1
sS'baseValences'
p14
I3
sS'element'
p15
S'N'
sS'isVariable'
p16
I00
sS'varAtoms'
p17
g9
((lp18
(imodel.VarAtom
VarAtom
p19
(dp20
g3
S'N'
sS'isLabile'
p21
I00
sS'chirality'
p22
NsS'atom'
p23
g11
sS'variant'
p24
(imodel.Variant
Variant
p25
(dp26
S'elementDict'
p27
(dp28
S'H'
g9
((lp29
(imodel.VarAtom
VarAtom
p30
(dp31
g3
S'HG23'
p32
sg21
I00
sg22
Nsg23
(imodel.Atom
Atom
p33
(dp34
g3
g32
sg13
g1
sg14
I1
sg15
S'H'
sg16
I00
sg17
g9
((lp35
g30
atRp36
sS'isDeleted'
p37
I00
sbsg24
g25
sS'neighbours'
p38
g9
((lp39
(imodel.VarAtom
VarAtom
p40
(dp41
g3
S'CG2'
p42
sg21
I00
sg22
Nsg23
(imodel.Atom
Atom
p43
(dp44
g3
g42
sg13
g1
sg14
I4
sg15
S'C'
sg16
I00
sg17
g9
((lp45
g40
atRp46
sg37
I00
sbsg24
g25
sg38
g9
((lp47
(imodel.VarAtom
VarAtom
p48
(dp49
g3
S'HG22'
p50
sg21
I00
sg22
Nsg23
(imodel.Atom
Atom
p51
(dp52
g3
g50
sg13
g1
sg14
I1
sg15
S'H'
sg16
I00
sg17
g9
((lp53
g48
atRp54
sg37
I00
sbsg24
g25
sg38
g9
((lp55
g40
atRp56
sg15
S'H'
sS'charge'
p57
I0
sg16
I00
sS'coords'
p58
(F246.15734125299446
F298.87480339794297
F44.497836812492999
tp59
sS'freeValences'
p60
(lp61
sg13
g1
sS'atomGroups'
p62
g9
((ltRp63
sS'bonds'
p64
g9
((lp65
(imodel.Bond
Bond
p66
(dp67
g13
g1
sS'bondType'
p68
S'single'
p69
sg24
g25
sg17
g9
((lp70
g40
ag48
atRp71
sbatRp72
sg37
I00
sbag30
a(imodel.VarAtom
VarAtom
p73
(dp74
g3
S'HG21'
p75
sg21
I00
sg22
Nsg23
(imodel.Atom
Atom
p76
(dp77
g3
g75
sg13
g1
sg14
I1
sg15
S'H'
sg16
I00
sg17
g9
((lp78
g73
atRp79
sg37
I00
sbsg24
g25
sg38
g9
((lp80
g40
atRp81
sg15
S'H'
sg57
I0
sg16
I00
sg58
(F267.93546115162371
F370.87588976964639
F5.6534395590921696
tp82
sg60
(lp83
sg13
g1
sg62
g9
((ltRp84
sg64
g9
((lp85
(imodel.Bond
Bond
p86
(dp87
g13
g1
sg68
g69
sg24
g25
sg17
g9
((lp88
g73
ag40
atRp89
sbatRp90
sg37
I00
sba(imodel.VarAtom
VarAtom
p91
(dp92
g3
S'CB'
p93
sg21
I00
sg22
S'S'
sg23
(imodel.Atom
Atom
p94
(dp95
g3
g93
sg13
g1
sg14
I4
sg15
S'C'
sg16
I00
sg17
g9
((lp96
g91
atRp97
sg37
I00
sbsg24
g25
sg38
g9
((lp98
(imodel.VarAtom
VarAtom
p99
(dp100
g3
S'CA'
p101
sg21
I00
sg22
S'S'
sg23
(imodel.Atom
Atom
p102
(dp103
g3
g101
sg13
g1
sg14
I4
sg15
S'C'
sg16
I00
sg17
g9
((lp104
g99
atRp105
sg37
I00
sbsg24
g25
sg38
g9
((lp106
(imodel.VarAtom
VarAtom
p107
(dp108
g3
S'C'
sg21
I00
sg22
Nsg23
(imodel.Atom
Atom
p109
(dp110
g3
S'C'
sg13
g1
sg14
I4
sg15
S'C'
sg16
I00
sg17
g9
((lp111
g107
atRp112
sg37
I00
sbsg24
g25
sg38
g9
((lp113
g99
a(imodel.VarAtom
VarAtom
p114
(dp115
g3
S"O'"
p116
sg21
I00
sg22
Nsg23
(imodel.Atom
Atom
p117
(dp118
g3
g116
sg13
g1
sg14
I2
sg15
S'O'
sg16
I00
sg17
g9
((lp119
g114
atRp120
sg37
I00
sbsg24
g25
sg38
g9
((lp121
g107
atRp122
sg15
S'O'
sg57
I0
sg16
I00
sg58
(F283.43255332654962
F410.51962534515792
F-147.48518919766312
tp123
sg60
(lp124
sg13
g1
sg62
g9
((ltRp125
sg64
g9
((lp126
(imodel.Bond
Bond
p127
(dp128
g13
g1
sg68
S'double'
p129
sg24
g25
sg17
g9
((lp130
g114
ag107
atRp131
sbatRp132
sg37
I00
sbatRp133
sg15
S'C'
sg57
I0
sg16
I00
sg58
(F244.78347447459862
F432.31121925440004
F-119.64717773716902
tp134
sg60
(lp135
F0.068282020694440781
asg13
g1
sg62
g9
((ltRp136
sg64
g9
((lp137
(imodel.Bond
Bond
p138
(dp139
g13
g1
sg68
g69
sg24
g25
sg17
g9
((lp140
g99
ag107
atRp141
sbag127
atRp142
sg37
I00
sba(imodel.VarAtom
VarAtom
p143
(dp144
g3
S'HA'
p145
sg21
I00
sg22
Nsg23
(imodel.Atom
Atom
p146
(dp147
g3
g145
sg13
g1
sg14
I1
sg15
S'H'
sg16
I00
sg17
g9
((lp148
g143
atRp149
sg37
I00
sbsg24
g25
sg38
g9
((lp150
g99
atRp151
sg15
S'H'
sg57
I0
sg16
I00
sg58
(F199.10239208718053
F451.8067771794606
F-53.063650932643277
tp152
sg60
(lp153
sg13
g1
sg62
g9
((ltRp154
sg64
g9
((lp155
(imodel.Bond
Bond
p156
(dp157
g13
g1
sg68
g69
sg24
g25
sg17
g9
((lp158
g99
ag143
atRp159
sbatRp160
sg37
I00
sbag19
ag91
atRp161
sg15
S'C'
sg57
I0
sg16
I00
sg58
(F197.18313895078154
F413.47340889423299
F-56.119037979760165
tp162
sg60
(lp163
sg13
g1
sg62
g9
((ltRp164
sg64
g9
((lp165
(imodel.Bond
Bond
p166
(dp167
g13
g1
sg68
g69
sg24
g25
sg17
g9
((lp168
g99
ag91
atRp169
sbag138
a(imodel.Bond
Bond
p170
(dp171
g13
g1
sg68
g69
sg24
g25
sg17
g9
((lp172
g99
ag19
atRp173
sbag156
atRp174
sg37
I00
sbag40
a(imodel.VarAtom
VarAtom
p175
(dp176
g3
S'HB'
p177
sg21
I00
sg22
Nsg23
(imodel.Atom
Atom
p178
(dp179
g3
g177
sg13
g1
sg14
I1
sg15
S'H'
sg16
I00
sg17
g9
((lp180
g175
atRp181
sg37
I00
sbsg24
g25
sg38
g9
((lp182
g91
atRp183
sg15
S'H'
sg57
I0
sg16
I00
sg58
(F193.02670919963282
F322.46037274080618
F-0.22865316609647346
tp184
sg60
(lp185
sg13
g1
sg62
g9
((ltRp186
sg64
g9
((lp187
(imodel.Bond
Bond
p188
(dp189
g13
g1
sg68
g69
sg24
g25
sg17
g9
((lp190
g91
ag175
atRp191
sbatRp192
sg37
I00
sba(imodel.VarAtom
VarAtom
p193
(dp194
g3
S'CG1'
p195
sg21
I00
sg22
Nsg23
(imodel.Atom
Atom
p196
(dp197
g3
g195
sg13
g1
sg14
I4
sg15
S'C'
sg16
I00
sg17
g9
((lp198
g193
atRp199
sg37
I00
sbsg24
g25
sg38
g9
((lp200
(imodel.VarAtom
VarAtom
p201
(dp202
g3
S'CD1'
p203
sg21
I00
sg22
Nsg23
(imodel.Atom
Atom
p204
(dp205
g3
g203
sg13
g1
sg14
I4
sg15
S'C'
sg16
I00
sg17
g9
((lp206
g201
atRp207
sg37
I00
sbsg24
g25
sg38
g9
((lp208
(imodel.VarAtom
VarAtom
p209
(dp210
g3
S'HD13'
p211
sg21
I00
sg22
Nsg23
(imodel.Atom
Atom
p212
(dp213
g3
g211
sg13
g1
sg14
I1
sg15
S'H'
sg16
I00
sg17
g9
((lp214
g209
atRp215
sg37
I00
sbsg24
g25
sg38
g9
((lp216
g201
atRp217
sg15
S'H'
sg57
I0
sg16
I00
sg58
(F160.44321068751663
F266.28006613784396
F127.40261688115548
tp218
sg60
(lp219
sg13
g1
sg62
g9
((ltRp220
sg64
g9
((lp221
(imodel.Bond
Bond
p222
(dp223
g13
g1
sg68
g69
sg24
g25
sg17
g9
((lp224
g201
ag209
atRp225
sbatRp226
sg37
I00
sba(imodel.VarAtom
VarAtom
p227
(dp228
g3
S'HD12'
p229
sg21
I00
sg22
Nsg23
(imodel.Atom
Atom
p230
(dp231
g3
g229
sg13
g1
sg14
I1
sg15
S'H'
sg16
I00
sg17
g9
((lp232
g227
atRp233
sg37
I00
sbsg24
g25
sg38
g9
((lp234
g201
atRp235
sg15
S'H'
sg57
I0
sg16
I00
sg58
(F115.89149516527038
F246.01806081678865
F124.35731129253341
tp236
sg60
(lp237
sg13
g1
sg62
g9
((ltRp238
sg64
g9
((lp239
(imodel.Bond
Bond
p240
(dp241
g13
g1
sg68
g69
sg24
g25
sg17
g9
((lp242
g227
ag201
atRp243
sbatRp244
sg37
I00
sbag193
a(imodel.VarAtom
VarAtom
p245
(dp246
g3
S'HD11'
p247
sg21
I00
sg22
Nsg23
(imodel.Atom
Atom
p248
(dp249
g3
g247
sg13
g1
sg14
I1
sg15
S'H'
sg16
I00
sg17
g9
((lp250
g245
atRp251
sg37
I00
sbsg24
g25
sg38
g9
((lp252
g201
atRp253
sg15
S'H'
sg57
I0
sg16
I00
sg58
(F87.308689065038209
F286.88856386670068
F174.36797541407236
tp254
sg60
(lp255
sg13
g1
sg62
g9
((ltRp256
sg64
g9
((lp257
(imodel.Bond
Bond
p258
(dp259
g13
g1
sg68
g69
sg24
g25
sg17
g9
((lp260
g201
ag245
atRp261
sbatRp262
sg37
I00
sbatRp263
sg15
S'C'
sg57
I0
sg16
I00
sg58
(F125.95396495382238
F283.81521270388293
F127.94487744364902
tp264
sg60
(lp265
sg13
g1
sg62
g9
((ltRp266
sg64
g9
((lp267
g222
a(imodel.Bond
Bond
p268
(dp269
g13
g1
sg68
g69
sg24
g25
sg17
g9
((lp270
g201
ag193
atRp271
sbag240
ag258
atRp272
sg37
I00
sba(imodel.VarAtom
VarAtom
p273
(dp274
g3
S'HG12'
p275
sg21
I00
sg22
Nsg23
(imodel.Atom
Atom
p276
(dp277
g3
g275
sg13
g1
sg14
I1
sg15
S'H'
sg16
I00
sg17
g9
((lp278
g273
atRp279
sg37
I00
sbsg24
g25
sg38
g9
((lp280
g193
atRp281
sg15
S'H'
sg57
I0
sg16
I00
sg58
(F101.46241807533488
F344.95724137056527
F69.272551918906956
tp282
sg60
(lp283
sg13
g1
sg62
g9
((ltRp284
sg64
g9
((lp285
(imodel.Bond
Bond
p286
(dp287
g13
g1
sg68
g69
sg24
g25
sg17
g9
((lp288
g273
ag193
atRp289
sbatRp290
sg37
I00
sba(imodel.VarAtom
VarAtom
p291
(dp292
g3
S'HG13'
p293
sg21
I00
sg22
Nsg23
(imodel.Atom
Atom
p294
(dp295
g3
g293
sg13
g1
sg14
I1
sg15
S'H'
sg16
I00
sg17
g9
((lp296
g291
atRp297
sg37
I00
sbsg24
g25
sg38
g9
((lp298
g193
atRp299
sg15
S'H'
sg57
I0
sg16
I00
sg58
(F135.46147679687761
F374.67339065851479
F72.271553669114027
tp300
sg60
(lp301
sg13
g1
sg62
g9
((ltRp302
sg64
g9
((lp303
(imodel.Bond
Bond
p304
(dp305
g13
g1
sg68
g69
sg24
g25
sg17
g9
((lp306
g291
ag193
atRp307
sbatRp308
sg37
I00
sbag91
atRp309
sg15
S'C'
sg57
I0
sg16
I00
sg58
(F139.61122177153072
F336.86614366729748
F69.331728643571651
tp310
sg60
(lp311
sg13
g1
sg62
g9
((ltRp312
sg64
g9
((lp313
g286
ag268
ag304
a(imodel.Bond
Bond
p314
(dp315
g13
g1
sg68
g69
sg24
g25
sg17
g9
((lp316
g193
ag91
atRp317
sbatRp318
sg37
I00
sbatRp319
sg15
S'C'
sg57
I0
sg16
I00
sg58
(F195.45105825053611
F359.9483645101883
F2.3410035850782185
tp320
sg60
(lp321
sg13
g1
sg62
g9
((ltRp322
sg64
g9
((lp323
(imodel.Bond
Bond
p324
(dp325
g13
g1
sg68
g69
sg24
g25
sg17
g9
((lp326
g91
ag40
atRp327
sbag166
ag188
ag314
atRp328
sg37
I00
sbatRp329
sg15
S'C'
sg57
I0
sg16
I00
sg58
(F248.75130061145046
F337.61251871647289
F2.089671129601939
tp330
sg60
(lp331
sg13
g1
sg62
g9
((ltRp332
sg64
g9
((lp333
(imodel.Bond
Bond
p334
(dp335
g13
g1
sg68
g69
sg24
g25
sg17
g9
((lp336
g30
ag40
atRp337
sbag66
ag324
ag86
atRp338
sg37
I00
sbatRp339
sg15
S'H'
sg57
I0
sg16
I00
sg58
(F286.34411944022429
F326.49944170374795
F-44.58380187532552
tp340
sg60
(lp341
sg13
g1
sg62
g9
((ltRp342
sg64
g9
((lp343
g334
atRp344
sg37
I00
sbag227
ag73
a(imodel.VarAtom
VarAtom
p345
(dp346
g3
VH
sg21
I00
sg22
Nsg23
(imodel.Atom
Atom
p347
(dp348
g3
VH
sg13
g1
sg14
I1
sg15
S'H'
sg16
I00
sg17
g9
((lp349
g345
atRp350
sg37
I00
sbsg24
g25
sg38
g9
((lp351
g19
atRp352
sg15
S'H'
sg57
I0
sg16
I00
sg58
(F111.76277220298493
F413.04659099303421
F-8.605435919192967
tp353
sg60
(lp354
sg13
g1
sg62
g9
((ltRp355
sg64
g9
((lp356
(imodel.Bond
Bond
p357
(dp358
g13
g1
sg68
g69
sg24
g25
sg17
g9
((lp359
g19
ag345
atRp360
sbatRp361
sg37
I00
sbag273
ag209
ag291
ag143
ag48
ag245
ag175
atRp362
sS'C'
g9
((lp363
g99
ag193
ag107
ag40
ag91
ag201
atRp364
sS'O'
g9
((lp365
g114
atRp366
sS'N'
g9
((lp367
g19
atRp368
ssg64
g9
((lp369
g188
ag138
ag170
ag86
ag268
ag324
ag286
ag240
ag258
ag166
ag66
ag357
ag334
ag222
ag156
ag127
ag304
ag314
atRp370
sg13
g1
sS'descriptor'
p371
(S'neutral'
p372
S'none'
p373
S'default'
p374
tp375
sS'atomDict'
p376
(dp377
g11
g19
sg212
g209
sg33
g30
sg109
g107
sg276
g273
sg117
g114
sg294
g291
sg146
g143
sg248
g245
sg102
g99
sg76
g73
sg178
g175
sg94
g91
sg43
g40
sg196
g193
sg347
g345
sg230
g227
sg51
g48
sg204
g201
ssg17
g9
((lp378
g30
ag99
ag227
ag345
ag143
ag48
ag273
ag201
ag175
ag114
ag107
ag209
ag91
ag193
ag291
ag245
ag73
ag40
ag19
atRp379
sg62
g9
((ltRp380
sS'polyLink'
p381
g373
sbsg38
g9
((lp382
g345
ag99
atRp383
sg15
S'N'
sg57
I0
sg16
I00
sg58
(F151.19706953878404
F436.1883278471646
F-55.43520811126794
tp384
sg60
(lp385
F6.2472396462768938
asg13
g1
sg62
g9
((ltRp386
sg64
g9
((lp387
g357
ag170
atRp388
sg37
I00
sbatRp389
sg37
I00
sbag212
ag33
ag109
ag276
ag43
ag117
ag294
ag146
ag248
ag102
ag76
ag178
ag94
ag196
ag347
ag230
ag51
ag204
atRp390
sS'ccpMolType'
p391
S'protein'
p392
sS'details'
p393
V
sg376
(dp394
g116
g117
sg195
g196
sg203
g204
sg177
g178
sg145
g146
sg275
g276
sg293
g294
sVH
g347
sS'C'
g109
sg93
g94
sg101
g102
sS'N'
g11
sg211
g212
sg229
g230
sg247
g248
sg42
g43
sg75
g76
sg32
g33
sg50
g51
ssS'keywords'
p395
g9
((ltRp396
sg62
g9
((ltRp397
sS'variants'
p398
g9
((lp399
g25
atRp400
sS'defaultVars'
p401
g9
((ltRp402
sb.