(imodel.Compound
Compound
p1
(dp2
S'name'
p3
VLEUCINE
p4
sS'isModified'
p5
I01
sS'ccpCode'
p6
VLeu
p7
sS'atoms'
p8
c__builtin__
set
p9
((lp10
(imodel.Atom
Atom
p11
(dp12
g3
S'CA'
p13
sS'compound'
p14
g1
sS'baseValences'
p15
I4
sS'element'
p16
S'C'
sS'isVariable'
p17
I00
sS'varAtoms'
p18
g9
((lp19
(imodel.VarAtom
VarAtom
p20
(dp21
g3
g13
sS'isLabile'
p22
I00
sS'chirality'
p23
S'S'
sS'atom'
p24
g11
sS'variant'
p25
(imodel.Variant
Variant
p26
(dp27
S'elementDict'
p28
(dp29
S'H'
g9
((lp30
(imodel.VarAtom
VarAtom
p31
(dp32
g3
VH
sg22
I00
sg23
Nsg24
(imodel.Atom
Atom
p33
(dp34
g3
VH
sg14
g1
sg15
I1
sg16
S'H'
sg17
I00
sg18
g9
((lp35
g31
atRp36
sS'isDeleted'
p37
I00
sbsg25
g26
sS'neighbours'
p38
g9
((lp39
(imodel.VarAtom
VarAtom
p40
(dp41
g3
S'N'
sg22
I00
sg23
Nsg24
(imodel.Atom
Atom
p42
(dp43
g3
S'N'
sg14
g1
sg15
I3
sg16
S'N'
sg17
I00
sg18
g9
((lp44
g40
atRp45
sg37
I00
sbsg25
g26
sg38
g9
((lp46
g31
ag20
atRp47
sg16
S'N'
sS'charge'
p48
I0
sg17
I00
sS'coords'
p49
(F18.300761275670084
F426.95038095758309
F-60.199440383990634
tp50
sS'freeValences'
p51
(lp52
F6.2358130677276478
asg14
g1
sS'atomGroups'
p53
g9
((ltRp54
sS'bonds'
p55
g9
((lp56
(imodel.Bond
Bond
p57
(dp58
g14
g1
sS'bondType'
p59
S'single'
p60
sg25
g26
sg18
g9
((lp61
g31
ag40
atRp62
sba(imodel.Bond
Bond
p63
(dp64
g14
g1
sg59
g60
sg25
g26
sg18
g9
((lp65
g20
ag40
atRp66
sbatRp67
sg37
I00
sbatRp68
sg16
S'H'
sg48
I0
sg17
I00
sg49
(F-16.786832723239741
F411.01316050745027
F-70.600370966266581
tp69
sg51
(lp70
sg14
g1
sg53
g9
((ltRp71
sg55
g9
((lp72
g57
atRp73
sg37
I00
sba(imodel.VarAtom
VarAtom
p74
(dp75
g3
S'HG'
p76
sg22
I00
sg23
Nsg24
(imodel.Atom
Atom
p77
(dp78
g3
g76
sg14
g1
sg15
I1
sg16
S'H'
sg17
I00
sg18
g9
((lp79
g74
atRp80
sg37
I00
sbsg25
g26
sg38
g9
((lp81
(imodel.VarAtom
VarAtom
p82
(dp83
g3
S'CG'
p84
sg22
I00
sg23
Nsg24
(imodel.Atom
Atom
p85
(dp86
g3
g84
sg14
g1
sg15
I4
sg16
S'C'
sg17
I00
sg18
g9
((lp87
g82
atRp88
sg37
I00
sbsg25
g26
sg38
g9
((lp89
(imodel.VarAtom
VarAtom
p90
(dp91
g3
S'CB'
p92
sg22
I00
sg23
Nsg24
(imodel.Atom
Atom
p93
(dp94
g3
g92
sg14
g1
sg15
I4
sg16
S'C'
sg17
I00
sg18
g9
((lp95
g90
atRp96
sg37
I00
sbsg25
g26
sg38
g9
((lp97
g20
a(imodel.VarAtom
VarAtom
p98
(dp99
g3
S'HB2'
p100
sg22
I00
sg23
Nsg24
(imodel.Atom
Atom
p101
(dp102
g3
g100
sg14
g1
sg15
I1
sg16
S'H'
sg17
I00
sg18
g9
((lp103
g98
atRp104
sg37
I00
sbsg25
g26
sg38
g9
((lp105
g90
atRp106
sg16
S'H'
sg48
I0
sg17
I00
sg49
(F49.020536446592473
F322.47689780220185
F-13.201334631147617
tp107
sg51
(lp108
sg14
g1
sg53
g9
((ltRp109
sg55
g9
((lp110
(imodel.Bond
Bond
p111
(dp112
g14
g1
sg59
g60
sg25
g26
sg18
g9
((lp113
g98
ag90
atRp114
sbatRp115
sg37
I00
sbag82
a(imodel.VarAtom
VarAtom
p116
(dp117
g3
S'HB3'
p118
sg22
I00
sg23
Nsg24
(imodel.Atom
Atom
p119
(dp120
g3
g118
sg14
g1
sg15
I1
sg16
S'H'
sg17
I00
sg18
g9
((lp121
g116
atRp122
sg37
I00
sbsg25
g26
sg38
g9
((lp123
g90
atRp124
sg16
S'H'
sg48
I0
sg17
I00
sg49
(F30.947377537988245
F362.57717033112556
F-19.901359488079148
tp125
sg51
(lp126
sg14
g1
sg53
g9
((ltRp127
sg55
g9
((lp128
(imodel.Bond
Bond
p129
(dp130
g14
g1
sg59
g60
sg25
g26
sg18
g9
((lp131
g116
ag90
atRp132
sbatRp133
sg37
I00
sbatRp134
sg16
S'C'
sg48
I0
sg17
I00
sg49
(F68.716307920752342
F355.19446761367726
F-10.013526800984126
tp135
sg51
(lp136
sg14
g1
sg53
g9
((ltRp137
sg55
g9
((lp138
(imodel.Bond
Bond
p139
(dp140
g14
g1
sg59
g60
sg25
g26
sg18
g9
((lp141
g20
ag90
atRp142
sbag129
ag111
a(imodel.Bond
Bond
p143
(dp144
g14
g1
sg59
g60
sg25
g26
sg18
g9
((lp145
g82
ag90
atRp146
sbatRp147
sg37
I00
sbag74
a(imodel.VarAtom
VarAtom
p148
(dp149
g3
S'CD1'
p150
sg22
I00
sg23
Nsg24
(imodel.Atom
Atom
p151
(dp152
g3
g150
sg14
g1
sg15
I4
sg16
S'C'
sg17
I00
sg18
g9
((lp153
g148
atRp154
sg37
I00
sbsg25
g26
sg38
g9
((lp155
(imodel.VarAtom
VarAtom
p156
(dp157
g3
S'HD11'
p158
sg22
I00
sg23
Nsg24
(imodel.Atom
Atom
p159
(dp160
g3
g158
sg14
g1
sg15
I1
sg16
S'H'
sg17
I00
sg18
g9
((lp161
g156
atRp162
sg37
I00
sbsg25
g26
sg38
g9
((lp163
g148
atRp164
sg16
S'H'
sg48
I0
sg17
I00
sg49
(F170.64676858435075
F260.44569014600393
F161.51982006338685
tp165
sg51
(lp166
sg14
g1
sg53
g9
((ltRp167
sg55
g9
((lp168
(imodel.Bond
Bond
p169
(dp170
g14
g1
sg59
g60
sg25
g26
sg18
g9
((lp171
g156
ag148
atRp172
sbatRp173
sg37
I00
sbag82
a(imodel.VarAtom
VarAtom
p174
(dp175
g3
S'HD13'
p176
sg22
I00
sg23
Nsg24
(imodel.Atom
Atom
p177
(dp178
g3
g176
sg14
g1
sg15
I1
sg16
S'H'
sg17
I00
sg18
g9
((lp179
g174
atRp180
sg37
I00
sbsg25
g26
sg38
g9
((lp181
g148
atRp182
sg16
S'H'
sg48
I0
sg17
I00
sg49
(F181.66518873563427
F334.65045996304707
F108.72587559801211
tp183
sg51
(lp184
sg14
g1
sg53
g9
((ltRp185
sg55
g9
((lp186
(imodel.Bond
Bond
p187
(dp188
g14
g1
sg59
g60
sg25
g26
sg18
g9
((lp189
g174
ag148
atRp190
sbatRp191
sg37
I00
sba(imodel.VarAtom
VarAtom
p192
(dp193
g3
S'HD12'
p194
sg22
I00
sg23
Nsg24
(imodel.Atom
Atom
p195
(dp196
g3
g194
sg14
g1
sg15
I1
sg16
S'H'
sg17
I00
sg18
g9
((lp197
g192
atRp198
sg37
I00
sbsg25
g26
sg38
g9
((lp199
g148
atRp200
sg16
S'H'
sg48
I0
sg17
I00
sg49
(F205.51064753941455
F292.54084421509776
F101.89892451140364
tp201
sg51
(lp202
sg14
g1
sg53
g9
((ltRp203
sg55
g9
((lp204
(imodel.Bond
Bond
p205
(dp206
g14
g1
sg59
g60
sg25
g26
sg18
g9
((lp207
g148
ag192
atRp208
sbatRp209
sg37
I00
sbatRp210
sg16
S'C'
sg48
I0
sg17
I00
sg49
(F166.81577935374935
F298.94190091438929
F111.09118158289782
tp211
sg51
(lp212
sg14
g1
sg53
g9
((lp213
(imodel.AtomGroup
AtomGroup
p214
(dp215
S'groupType'
p216
S'prochiral'
p217
sS'subGroups'
p218
g9
((ltRp219
sg18
g9
((lp220
(imodel.VarAtom
VarAtom
p221
(dp222
g3
S'CD2'
p223
sg22
I00
sg23
Nsg24
(imodel.Atom
Atom
p224
(dp225
g3
g223
sg14
g1
sg15
I4
sg16
S'C'
sg17
I00
sg18
g9
((lp226
g221
atRp227
sg37
I00
sbsg25
g26
sg38
g9
((lp228
g82
a(imodel.VarAtom
VarAtom
p229
(dp230
g3
S'HD22'
p231
sg22
I00
sg23
Nsg24
(imodel.Atom
Atom
p232
(dp233
g3
g231
sg14
g1
sg15
I1
sg16
S'H'
sg17
I00
sg18
g9
((lp234
g229
atRp235
sg37
I00
sbsg25
g26
sg38
g9
((lp236
g221
atRp237
sg16
S'H'
sg48
I0
sg17
I00
sg49
(F46.360658096012799
F263.7808019849499
F34.253128750169665
tp238
sg51
(lp239
sg14
g1
sg53
g9
((ltRp240
sg55
g9
((lp241
(imodel.Bond
Bond
p242
(dp243
g14
g1
sg59
g60
sg25
g26
sg18
g9
((lp244
g221
ag229
atRp245
sbatRp246
sg37
I00
sba(imodel.VarAtom
VarAtom
p247
(dp248
g3
S'HD21'
p249
sg22
I00
sg23
Nsg24
(imodel.Atom
Atom
p250
(dp251
g3
g249
sg14
g1
sg15
I1
sg16
S'H'
sg17
I00
sg18
g9
((lp252
g247
atRp253
sg37
I00
sbsg25
g26
sg38
g9
((lp254
g221
atRp255
sg16
S'H'
sg48
I0
sg17
I00
sg49
(F116.0404525017417
F236.81654151480166
F69.838196039251201
tp256
sg51
(lp257
sg14
g1
sg53
g9
((ltRp258
sg55
g9
((lp259
(imodel.Bond
Bond
p260
(dp261
g14
g1
sg59
g60
sg25
g26
sg18
g9
((lp262
g221
ag247
atRp263
sbatRp264
sg37
I00
sba(imodel.VarAtom
VarAtom
p265
(dp266
g3
S'HD23'
p267
sg22
I00
sg23
Nsg24
(imodel.Atom
Atom
p268
(dp269
g3
g267
sg14
g1
sg15
I1
sg16
S'H'
sg17
I00
sg18
g9
((lp270
g265
atRp271
sg37
I00
sbsg25
g26
sg38
g9
((lp272
g221
atRp273
sg16
S'H'
sg48
I0
sg17
I00
sg49
(F70.537931673183266
F222.71347947009633
F121.84762980759044
tp274
sg51
(lp275
sg14
g1
sg53
g9
((ltRp276
sg55
g9
((lp277
(imodel.Bond
Bond
p278
(dp279
g14
g1
sg59
g60
sg25
g26
sg18
g9
((lp280
g221
ag265
atRp281
sbatRp282
sg37
I00
sbatRp283
sg16
S'C'
sg48
I0
sg17
I00
sg49
(F84.771430282680285
F259.14681957030007
F72.386706512726875
tp284
sg51
(lp285
sg14
g1
sg53
g9
((lp286
g214
atRp287
sg55
g9
((lp288
(imodel.Bond
Bond
p289
(dp290
g14
g1
sg59
g60
sg25
g26
sg18
g9
((lp291
g221
ag82
atRp292
sbag278
ag242
ag260
atRp293
sg37
I00
sbag148
atRp294
sg25
g26
sg14
g1
sbatRp295
sg55
g9
((lp296
g187
ag205
a(imodel.Bond
Bond
p297
(dp298
g14
g1
sg59
g60
sg25
g26
sg18
g9
((lp299
g82
ag148
atRp300
sbag169
atRp301
sg37
I00
sbag221
atRp302
sg16
S'C'
sg48
I0
sg17
I00
sg49
(F108.13440255963951
F308.74650225902928
F59.051918659557529
tp303
sg51
(lp304
sg14
g1
sg53
g9
((ltRp305
sg55
g9
((lp306
g289
ag143
ag297
a(imodel.Bond
Bond
p307
(dp308
g14
g1
sg59
g60
sg25
g26
sg18
g9
((lp309
g74
ag82
atRp310
sbatRp311
sg37
I00
sbatRp312
sg16
S'H'
sg48
I0
sg17
I00
sg49
(F123.53546567812293
F343.53758072978394
F61.190399672337549
tp313
sg51
(lp314
sg14
g1
sg53
g9
((ltRp315
sg55
g9
((lp316
g307
atRp317
sg37
I00
sbag174
ag156
a(imodel.VarAtom
VarAtom
p318
(dp319
g3
S'HA'
p320
sg22
I00
sg23
Nsg24
(imodel.Atom
Atom
p321
(dp322
g3
g320
sg14
g1
sg15
I1
sg16
S'H'
sg17
I00
sg18
g9
((lp323
g318
atRp324
sg37
I00
sbsg25
g26
sg38
g9
((lp325
g20
atRp326
sg16
S'H'
sg48
I0
sg17
I00
sg49
(F68.82885352003791
F448.41183850648963
F-53.564626284171958
tp327
sg51
(lp328
sg14
g1
sg53
g9
((ltRp329
sg55
g9
((lp330
(imodel.Bond
Bond
p331
(dp332
g14
g1
sg59
g60
sg25
g26
sg18
g9
((lp333
g20
ag318
atRp334
sbatRp335
sg37
I00
sbag116
ag229
ag98
ag265
ag247
ag192
atRp336
sS'C'
g9
((lp337
g90
ag20
ag82
ag148
a(imodel.VarAtom
VarAtom
p338
(dp339
g3
S'C'
sg22
I00
sg23
Nsg24
(imodel.Atom
Atom
p340
(dp341
g3
S'C'
sg14
g1
sg15
I4
sg16
S'C'
sg17
I00
sg18
g9
((lp342
g338
atRp343
sg37
I00
sbsg25
g26
sg38
g9
((lp344
(imodel.VarAtom
VarAtom
p345
(dp346
g3
S"O'"
p347
sg22
I00
sg23
Nsg24
(imodel.Atom
Atom
p348
(dp349
g3
g347
sg14
g1
sg15
I2
sg16
S'O'
sg17
I00
sg18
g9
((lp350
g345
atRp351
sg37
I00
sbsg25
g26
sg38
g9
((lp352
g338
atRp353
sg16
S'O'
sg48
I0
sg17
I00
sg49
(F159.12308487714233
F417.00860136429151
F-163.414212087778
tp354
sg51
(lp355
sg14
g1
sg53
g9
((ltRp356
sg55
g9
((lp357
(imodel.Bond
Bond
p358
(dp359
g14
g1
sg59
S'double'
p360
sg25
g26
sg18
g9
((lp361
g338
ag345
atRp362
sbatRp363
sg37
I00
sbag20
atRp364
sg16
S'C'
sg48
I0
sg17
I00
sg49
(F116.14628293906708
F426.44186848657773
F-131.50058859515303
tp365
sg51
(lp366
F6.2293823251278679
asg14
g1
sg53
g9
((ltRp367
sg55
g9
((lp368
g358
a(imodel.Bond
Bond
p369
(dp370
g14
g1
sg59
g60
sg25
g26
sg18
g9
((lp371
g20
ag338
atRp372
sbatRp373
sg37
I00
sbag221
atRp374
sS'O'
g9
((lp375
g345
atRp376
sS'N'
g9
((lp377
g40
atRp378
ssg55
g9
((lp379
g358
ag111
ag297
ag369
ag307
ag187
ag242
ag205
ag260
ag57
ag139
ag63
ag278
ag129
ag331
ag289
ag143
ag169
atRp380
sg14
g1
sS'descriptor'
p381
(S'neutral'
p382
S'none'
p383
S'default'
p384
tp385
sS'atomDict'
p386
(dp387
g11
g20
sg93
g90
sg85
g82
sg42
g40
sg159
g156
sg348
g345
sg340
g338
sg177
g174
sg268
g265
sg119
g116
sg250
g247
sg224
g221
sg195
g192
sg101
g98
sg232
g229
sg321
g318
sg77
g74
sg151
g148
sg33
g31
ssg18
g9
((lp388
g90
ag174
ag98
ag265
ag247
ag20
ag74
ag82
ag40
ag345
ag192
ag31
ag229
ag148
ag318
ag156
ag116
ag221
ag338
atRp389
sg53
g9
((lp390
g214
atRp391
sS'polyLink'
p392
g383
sbsg38
g9
((lp393
g90
ag338
ag40
ag318
atRp394
sg16
S'C'
sg48
I0
sg17
I00
sg49
(F67.334863983985542
F410.06689249006558
F-62.925423295537421
tp395
sg51
(lp396
sg14
g1
sg53
g9
((ltRp397
sg55
g9
((lp398
g139
ag331
ag63
ag369
atRp399
sg37
I00
sbatRp400
sg37
I00
sbag93
ag85
ag42
ag159
ag348
ag340
ag177
ag268
ag119
ag250
ag224
ag195
ag101
ag232
ag321
ag77
ag151
ag33
atRp401
sS'ccpMolType'
p402
S'protein'
p403
sS'details'
p404
V
sg386
(dp405
g231
g232
sg267
g268
sg249
g250
sg347
g348
sg150
g151
sg223
g224
sg320
g321
sg76
g77
sVH
g33
sS'C'
g340
sg92
g93
sg13
g11
sg84
g85
sS'N'
g42
sg176
g177
sg194
g195
sg158
g159
sg118
g119
sg100
g101
ssS'keywords'
p406
g9
((ltRp407
sg53
g9
((lp408
g214
atRp409
sS'variants'
p410
g9
((lp411
g26
atRp412
sS'defaultVars'
p413
g9
((ltRp414
sb.