(imodel.Compound
Compound
p1
(dp2
S'name'
p3
VLYSINE
p4
sS'isModified'
p5
I01
sS'ccpCode'
p6
VLys
p7
sS'atoms'
p8
c__builtin__
set
p9
((lp10
(imodel.Atom
Atom
p11
(dp12
g3
S'HZ3'
p13
sS'compound'
p14
g1
sS'baseValences'
p15
I1
sS'element'
p16
S'H'
sS'isVariable'
p17
I01
sS'varAtoms'
p18
g9
((lp19
(imodel.VarAtom
VarAtom
p20
(dp21
g3
g13
sS'isLabile'
p22
I00
sS'chirality'
p23
NsS'atom'
p24
g11
sS'variant'
p25
(imodel.Variant
Variant
p26
(dp27
S'elementDict'
p28
(dp29
S'H'
g9
((lp30
(imodel.VarAtom
VarAtom
p31
(dp32
g3
VH
sg22
I00
sg23
Nsg24
(imodel.Atom
Atom
p33
(dp34
g3
VH
sg14
g1
sg15
I1
sg16
S'H'
sg17
I00
sg18
g9
((lp35
g31
a(imodel.VarAtom
VarAtom
p36
(dp37
g3
VH
sg22
I00
sg23
Nsg24
g33
sg25
(imodel.Variant
Variant
p38
(dp39
g28
(dp40
S'H'
g9
((lp41
(imodel.VarAtom
VarAtom
p42
(dp43
g3
S'HD2'
p44
sg22
I00
sg23
Nsg24
(imodel.Atom
Atom
p45
(dp46
g3
g44
sg14
g1
sg15
I1
sg16
S'H'
sg17
I00
sg18
g9
((lp47
g42
a(imodel.VarAtom
VarAtom
p48
(dp49
g3
g44
sg22
I00
sg23
Nsg24
g45
sg25
g26
sS'neighbours'
p50
g9
((lp51
(imodel.VarAtom
VarAtom
p52
(dp53
g3
S'CD'
p54
sg22
I00
sg23
Nsg24
(imodel.Atom
Atom
p55
(dp56
g3
g54
sg14
g1
sg15
I4
sg16
S'C'
sg17
I00
sg18
g9
((lp57
g52
a(imodel.VarAtom
VarAtom
p58
(dp59
g3
g54
sg22
I00
sg23
Nsg24
g55
sg25
g38
sg50
g9
((lp60
(imodel.VarAtom
VarAtom
p61
(dp62
g3
S'CE'
p63
sg22
I00
sg23
Nsg24
(imodel.Atom
Atom
p64
(dp65
g3
g63
sg14
g1
sg15
I4
sg16
S'C'
sg17
I00
sg18
g9
((lp66
(imodel.VarAtom
VarAtom
p67
(dp68
g3
g63
sg22
I00
sg23
Nsg24
g64
sg25
g26
sg50
g9
((lp69
(imodel.VarAtom
VarAtom
p70
(dp71
g3
S'NZ'
p72
sg22
I00
sg23
Nsg24
(imodel.Atom
Atom
p73
(dp74
g3
g72
sg14
g1
sg15
I3
sg16
S'N'
sg17
I00
sg18
g9
((lp75
(imodel.VarAtom
VarAtom
p76
(dp77
g3
g72
sg22
I00
sg23
Nsg24
g73
sg25
g38
sg50
g9
((lp78
g61
a(imodel.VarAtom
VarAtom
p79
(dp80
g3
S'HZ2'
p81
sg22
I00
sg23
Nsg24
(imodel.Atom
Atom
p82
(dp83
g3
g81
sg14
g1
sg15
I1
sg16
S'H'
sg17
I00
sg18
g9
((lp84
g79
a(imodel.VarAtom
VarAtom
p85
(dp86
g3
g81
sg22
I00
sg23
Nsg24
g82
sg25
g26
sg50
g9
((lp87
g70
atRp88
sg16
S'H'
sS'charge'
p89
I0
sg17
I00
sS'coords'
p90
(F65.805386952293176
F162.88158280780436
F149.72187908538373
tp91
sS'freeValences'
p92
(lp93
sg14
g1
sS'atomGroups'
p94
g9
((lp95
(imodel.AtomGroup
AtomGroup
p96
(dp97
S'groupType'
p98
S'equivalent'
p99
sS'subGroups'
p100
g9
((ltRp101
sg18
g9
((lp102
g20
ag85
a(imodel.VarAtom
VarAtom
p103
(dp104
g3
S'HZ1'
p105
sg22
I00
sg23
Nsg24
(imodel.Atom
Atom
p106
(dp107
g3
g105
sg14
g1
sg15
I1
sg16
S'H'
sg17
I00
sg18
g9
((lp108
g103
a(imodel.VarAtom
VarAtom
p109
(dp110
g3
g105
sg22
I00
sg23
Nsg24
g106
sg25
g38
sg50
g9
((lp111
g76
atRp112
sg16
S'H'
sg89
I0
sg17
I00
sg90
(F23.628078568010334
F188.95983823103396
F131.06208201765904
tp113
sg92
(lp114
sg14
g1
sg94
g9
((lp115
(imodel.AtomGroup
AtomGroup
p116
(dp117
g98
g99
sg100
g9
((ltRp118
sg18
g9
((lp119
g79
ag109
atRp120
sg25
g38
sg14
g1
sbatRp121
sS'bonds'
p122
g9
((lp123
(imodel.Bond
Bond
p124
(dp125
g14
g1
sS'bondType'
p126
S'single'
p127
sg25
g38
sg18
g9
((lp128
g109
ag76
atRp129
sbatRp130
sS'isDeleted'
p131
I00
sbatRp132
sg131
I00
sbsg25
g26
sg50
g9
((lp133
g70
atRp134
sg16
S'H'
sg89
I0
sg17
I00
sg90
(F23.628078568010334
F188.95983823103396
F131.06208201765904
tp135
sg92
(lp136
sg14
g1
sg94
g9
((lp137
g96
atRp138
sg122
g9
((lp139
(imodel.Bond
Bond
p140
(dp141
g14
g1
sg126
g127
sg25
g26
sg18
g9
((lp142
g70
ag103
atRp143
sbatRp144
sg131
I00
sbatRp145
sg25
g26
sg14
g1
sbatRp146
sg122
g9
((lp147
(imodel.Bond
Bond
p148
(dp149
g14
g1
sg126
g127
sg25
g26
sg18
g9
((lp150
g85
ag70
atRp151
sbatRp152
sg131
I00
sbatRp153
sg131
I00
sbsg25
g38
sg50
g9
((lp154
g76
atRp155
sg16
S'H'
sg89
I0
sg17
I00
sg90
(F65.805386952293176
F162.88158280780436
F149.72187908538373
tp156
sg92
(lp157
sg14
g1
sg94
g9
((lp158
g116
atRp159
sg122
g9
((lp160
(imodel.Bond
Bond
p161
(dp162
g14
g1
sg126
g127
sg25
g38
sg18
g9
((lp163
g79
ag76
atRp164
sbatRp165
sg131
I00
sbag109
atRp166
sg16
S'N'
sg89
I0
sg17
I00
sg90
(F60.326853295387707
F201.62534233298655
F113.12402937172392
tp167
sg92
(lp168
sg14
g1
sg94
g9
((ltRp169
sg122
g9
((lp170
(imodel.Bond
Bond
p171
(dp172
g14
g1
sg126
g127
sg25
g38
sg18
g9
((lp173
g76
ag61
atRp174
sbag161
ag124
atRp175
sg131
I00
sbag70
atRp176
sg131
I00
sbsg25
g26
sg50
g9
((lp177
g67
ag20
ag103
ag85
atRp178
sg16
S'N'
sg89
I1
sg17
I00
sg90
(F60.326853295387707
F201.62534233298655
F113.12402937172392
tp179
sg92
(lp180
sg14
g1
sg94
g9
((ltRp181
sg122
g9
((lp182
(imodel.Bond
Bond
p183
(dp184
g14
g1
sg126
g127
sg25
g26
sg18
g9
((lp185
g70
ag67
atRp186
sbag140
ag148
a(imodel.Bond
Bond
p187
(dp188
g14
g1
sg126
g127
sg25
g26
sg18
g9
((lp189
g70
ag20
atRp190
sbatRp191
sg131
I00
sba(imodel.VarAtom
VarAtom
p192
(dp193
g3
S'HE3'
p194
sg22
I00
sg23
Nsg24
(imodel.Atom
Atom
p195
(dp196
g3
g194
sg14
g1
sg15
I1
sg16
S'H'
sg17
I00
sg18
g9
((lp197
g192
a(imodel.VarAtom
VarAtom
p198
(dp199
g3
g194
sg22
I00
sg23
Nsg24
g195
sg25
g38
sg50
g9
((lp200
g61
atRp201
sg16
S'H'
sg89
I0
sg17
I00
sg90
(F30.927791636535915
F288.69530280069489
F98.272355181399817
tp202
sg92
(lp203
sg14
g1
sg94
g9
((ltRp204
sg122
g9
((lp205
(imodel.Bond
Bond
p206
(dp207
g14
g1
sg126
g127
sg25
g38
sg18
g9
((lp208
g198
ag61
atRp209
sbatRp210
sg131
I00
sbatRp211
sg131
I00
sbsg25
g26
sg50
g9
((lp212
g67
atRp213
sg16
S'H'
sg89
I0
sg17
I00
sg90
(F30.927791636535915
F288.69530280069489
F98.272355181399817
tp214
sg92
(lp215
sg14
g1
sg94
g9
((ltRp216
sg122
g9
((lp217
(imodel.Bond
Bond
p218
(dp219
g14
g1
sg126
g127
sg25
g26
sg18
g9
((lp220
g192
ag67
atRp221
sbatRp222
sg131
I00
sba(imodel.VarAtom
VarAtom
p223
(dp224
g3
S'HE2'
p225
sg22
I00
sg23
Nsg24
(imodel.Atom
Atom
p226
(dp227
g3
g225
sg14
g1
sg15
I1
sg16
S'H'
sg17
I00
sg18
g9
((lp228
(imodel.VarAtom
VarAtom
p229
(dp230
g3
g225
sg22
I00
sg23
Nsg24
g226
sg25
g38
sg50
g9
((lp231
g61
atRp232
sg16
S'H'
sg89
I0
sg17
I00
sg90
(F14.758188336175767
F247.53765426772176
F30.250077020421916
tp233
sg92
(lp234
sg14
g1
sg94
g9
((ltRp235
sg122
g9
((lp236
(imodel.Bond
Bond
p237
(dp238
g14
g1
sg126
g127
sg25
g38
sg18
g9
((lp239
g61
ag229
atRp240
sbatRp241
sg131
I00
sbag223
atRp242
sg131
I00
sbsg25
g26
sg50
g9
((lp243
g67
atRp244
sg16
S'H'
sg89
I0
sg17
I00
sg90
(F14.758188336175767
F247.53765426772176
F30.250077020421916
tp245
sg92
(lp246
sg14
g1
sg94
g9
((ltRp247
sg122
g9
((lp248
(imodel.Bond
Bond
p249
(dp250
g14
g1
sg126
g127
sg25
g26
sg18
g9
((lp251
g67
ag223
atRp252
sbatRp253
sg131
I00
sbag52
atRp254
sg16
S'C'
sg89
I0
sg17
I00
sg90
(F52.479196504219715
F256.79647142024254
F70.004979560087008
tp255
sg92
(lp256
sg14
g1
sg94
g9
((ltRp257
sg122
g9
((lp258
g183
a(imodel.Bond
Bond
p259
(dp260
g14
g1
sg126
g127
sg25
g26
sg18
g9
((lp261
g52
ag67
atRp262
sbag218
ag249
atRp263
sg131
I00
sbag61
atRp264
sg131
I00
sbsg25
g38
sg50
g9
((lp265
g198
ag58
ag76
ag229
atRp266
sg16
S'C'
sg89
I0
sg17
I00
sg90
(F52.479196504219715
F256.79647142024254
F70.004979560087008
tp267
sg92
(lp268
sg14
g1
sg94
g9
((ltRp269
sg122
g9
((lp270
g171
a(imodel.Bond
Bond
p271
(dp272
g14
g1
sg126
g127
sg25
g38
sg18
g9
((lp273
g58
ag61
atRp274
sbag237
ag206
atRp275
sg131
I00
sba(imodel.VarAtom
VarAtom
p276
(dp277
g3
S'HD3'
p278
sg22
I00
sg23
Nsg24
(imodel.Atom
Atom
p279
(dp280
g3
g278
sg14
g1
sg15
I1
sg16
S'H'
sg17
I00
sg18
g9
((lp281
g276
a(imodel.VarAtom
VarAtom
p282
(dp283
g3
g278
sg22
I00
sg23
Nsg24
g279
sg25
g26
sg50
g9
((lp284
g52
atRp285
sg16
S'H'
sg89
I0
sg17
I00
sg90
(F133.00451045124692
F303.85256150578635
F79.760800076835977
tp286
sg92
(lp287
sg14
g1
sg94
g9
((ltRp288
sg122
g9
((lp289
(imodel.Bond
Bond
p290
(dp291
g14
g1
sg126
g127
sg25
g26
sg18
g9
((lp292
g282
ag52
atRp293
sbatRp294
sg131
I00
sbatRp295
sg131
I00
sbsg25
g38
sg50
g9
((lp296
g58
atRp297
sg16
S'H'
sg89
I0
sg17
I00
sg90
(F133.00451045124692
F303.85256150578635
F79.760800076835977
tp298
sg92
(lp299
sg14
g1
sg94
g9
((ltRp300
sg122
g9
((lp301
(imodel.Bond
Bond
p302
(dp303
g14
g1
sg126
g127
sg25
g38
sg18
g9
((lp304
g276
ag58
atRp305
sbatRp306
sg131
I00
sba(imodel.VarAtom
VarAtom
p307
(dp308
g3
S'CG'
p309
sg22
I00
sg23
Nsg24
(imodel.Atom
Atom
p310
(dp311
g3
g309
sg14
g1
sg15
I4
sg16
S'C'
sg17
I00
sg18
g9
((lp312
(imodel.VarAtom
VarAtom
p313
(dp314
g3
g309
sg22
I00
sg23
Nsg24
g310
sg25
g26
sg50
g9
((lp315
(imodel.VarAtom
VarAtom
p316
(dp317
g3
S'HG2'
p318
sg22
I00
sg23
Nsg24
(imodel.Atom
Atom
p319
(dp320
g3
g318
sg14
g1
sg15
I1
sg16
S'H'
sg17
I00
sg18
g9
((lp321
g316
a(imodel.VarAtom
VarAtom
p322
(dp323
g3
g318
sg22
I00
sg23
Nsg24
g319
sg25
g38
sg50
g9
((lp324
g307
atRp325
sg16
S'H'
sg89
I0
sg17
I00
sg90
(F67.528559335452954
F382.52830444629984
F77.851298927867148
tp326
sg92
(lp327
sg14
g1
sg94
g9
((ltRp328
sg122
g9
((lp329
(imodel.Bond
Bond
p330
(dp331
g14
g1
sg126
g127
sg25
g38
sg18
g9
((lp332
g307
ag322
atRp333
sbatRp334
sg131
I00
sbatRp335
sg131
I00
sbsg25
g26
sg50
g9
((lp336
g313
atRp337
sg16
S'H'
sg89
I0
sg17
I00
sg90
(F67.528559335452954
F382.52830444629984
F77.851298927867148
tp338
sg92
(lp339
sg14
g1
sg94
g9
((ltRp340
sg122
g9
((lp341
(imodel.Bond
Bond
p342
(dp343
g14
g1
sg126
g127
sg25
g26
sg18
g9
((lp344
g313
ag316
atRp345
sbatRp346
sg131
I00
sbag52
a(imodel.VarAtom
VarAtom
p347
(dp348
g3
S'CB'
p349
sg22
I00
sg23
Nsg24
(imodel.Atom
Atom
p350
(dp351
g3
g349
sg14
g1
sg15
I4
sg16
S'C'
sg17
I00
sg18
g9
((lp352
(imodel.VarAtom
VarAtom
p353
(dp354
g3
g349
sg22
I00
sg23
Nsg24
g350
sg25
g38
sg50
g9
((lp355
(imodel.VarAtom
VarAtom
p356
(dp357
g3
S'CA'
p358
sg22
I00
sg23
S'S'
sg24
(imodel.Atom
Atom
p359
(dp360
g3
g358
sg14
g1
sg15
I4
sg16
S'C'
sg17
I00
sg18
g9
((lp361
(imodel.VarAtom
VarAtom
p362
(dp363
g3
g358
sg22
I00
sg23
S'S'
sg24
g359
sg25
g26
sg50
g9
((lp364
g347
a(imodel.VarAtom
VarAtom
p365
(dp366
g3
S'N'
sg22
I00
sg23
Nsg24
(imodel.Atom
Atom
p367
(dp368
g3
S'N'
sg14
g1
sg15
I3
sg16
S'N'
sg17
I00
sg18
g9
((lp369
g365
a(imodel.VarAtom
VarAtom
p370
(dp371
g3
S'N'
sg22
I00
sg23
Nsg24
g367
sg25
g38
sg50
g9
((lp372
g356
ag36
atRp373
sg16
S'N'
sg89
I0
sg17
I00
sg90
(F160.64965251696037
F479.66575142933465
F-58.349472167044077
tp374
sg92
(lp375
F6.0561039050788379
asg14
g1
sg94
g9
((ltRp376
sg122
g9
((lp377
(imodel.Bond
Bond
p378
(dp379
g14
g1
sg126
g127
sg25
g38
sg18
g9
((lp380
g356
ag370
atRp381
sba(imodel.Bond
Bond
p382
(dp383
g14
g1
sg126
g127
sg25
g38
sg18
g9
((lp384
g370
ag36
atRp385
sbatRp386
sg131
I00
sbatRp387
sg131
I00
sbsg25
g26
sg50
g9
((lp388
g31
ag362
atRp389
sg16
S'N'
sg89
I0
sg17
I00
sg90
(F160.64965251696037
F479.66575142933465
F-58.349472167044077
tp390
sg92
(lp391
F6.0561039050788379
asg14
g1
sg94
g9
((ltRp392
sg122
g9
((lp393
(imodel.Bond
Bond
p394
(dp395
g14
g1
sg126
g127
sg25
g26
sg18
g9
((lp396
g365
ag31
atRp397
sba(imodel.Bond
Bond
p398
(dp399
g14
g1
sg126
g127
sg25
g26
sg18
g9
((lp400
g362
ag365
atRp401
sbatRp402
sg131
I00
sba(imodel.VarAtom
VarAtom
p403
(dp404
g3
S'HA'
p405
sg22
I00
sg23
Nsg24
(imodel.Atom
Atom
p406
(dp407
g3
g405
sg14
g1
sg15
I1
sg16
S'H'
sg17
I00
sg18
g9
((lp408
(imodel.VarAtom
VarAtom
p409
(dp410
g3
g405
sg22
I00
sg23
Nsg24
g406
sg25
g38
sg50
g9
((lp411
g356
atRp412
sg16
S'H'
sg89
I0
sg17
I00
sg90
(F83.915845714013741
F436.61341011158413
F-109.79706226245236
tp413
sg92
(lp414
sg14
g1
sg94
g9
((ltRp415
sg122
g9
((lp416
(imodel.Bond
Bond
p417
(dp418
g14
g1
sg126
g127
sg25
g38
sg18
g9
((lp419
g409
ag356
atRp420
sbatRp421
sg131
I00
sbag403
atRp422
sg131
I00
sbsg25
g26
sg50
g9
((lp423
g362
atRp424
sg16
S'H'
sg89
I0
sg17
I00
sg90
(F83.915845714013741
F436.61341011158413
F-109.79706226245236
tp425
sg92
(lp426
sg14
g1
sg94
g9
((ltRp427
sg122
g9
((lp428
(imodel.Bond
Bond
p429
(dp430
g14
g1
sg126
g127
sg25
g26
sg18
g9
((lp431
g403
ag362
atRp432
sbatRp433
sg131
I00
sba(imodel.VarAtom
VarAtom
p434
(dp435
g3
S'C'
sg22
I00
sg23
Nsg24
(imodel.Atom
Atom
p436
(dp437
g3
S'C'
sg14
g1
sg15
I4
sg16
S'C'
sg17
I00
sg18
g9
((lp438
(imodel.VarAtom
VarAtom
p439
(dp440
g3
S'C'
sg22
I00
sg23
Nsg24
g436
sg25
g38
sg50
g9
((lp441
g356
a(imodel.VarAtom
VarAtom
p442
(dp443
g3
S"O'"
p444
sg22
I00
sg23
Nsg24
(imodel.Atom
Atom
p445
(dp446
g3
g444
sg14
g1
sg15
I2
sg16
S'O'
sg17
I00
sg18
g9
((lp447
g442
a(imodel.VarAtom
VarAtom
p448
(dp449
g3
g444
sg22
I00
sg23
Nsg24
g445
sg25
g26
sg50
g9
((lp450
g434
atRp451
sg16
S'O'
sg89
I0
sg17
I00
sg90
(F41.972048844873434
F486.80671452602689
F-135.45817211348006
tp452
sg92
(lp453
sg14
g1
sg94
g9
((ltRp454
sg122
g9
((lp455
(imodel.Bond
Bond
p456
(dp457
g14
g1
sg126
S'double'
p458
sg25
g26
sg18
g9
((lp459
g434
ag448
atRp460
sbatRp461
sg131
I00
sbatRp462
sg131
I00
sbsg25
g38
sg50
g9
((lp463
g439
atRp464
sg16
S'O'
sg89
I0
sg17
I00
sg90
(F41.972048844873434
F486.80671452602689
F-135.45817211348006
tp465
sg92
(lp466
sg14
g1
sg94
g9
((ltRp467
sg122
g9
((lp468
(imodel.Bond
Bond
p469
(dp470
g14
g1
sg126
g458
sg25
g38
sg18
g9
((lp471
g439
ag442
atRp472
sbatRp473
sg131
I00
sbatRp474
sg16
S'C'
sg89
I0
sg17
I00
sg90
(F86.149949500964468
F487.51131348664774
F-120.62546196641406
tp475
sg92
(lp476
F0.42186516824369402
asg14
g1
sg94
g9
((ltRp477
sg122
g9
((lp478
(imodel.Bond
Bond
p479
(dp480
g14
g1
sg126
g127
sg25
g38
sg18
g9
((lp481
g439
ag356
atRp482
sbag469
atRp483
sg131
I00
sbag434
atRp484
sg131
I00
sbsg25
g26
sg50
g9
((lp485
g362
ag448
atRp486
sg16
S'C'
sg89
I0
sg17
I00
sg90
(F86.149949500964468
F487.51131348664774
F-120.62546196641406
tp487
sg92
(lp488
F0.42186516824369402
asg14
g1
sg94
g9
((ltRp489
sg122
g9
((lp490
(imodel.Bond
Bond
p491
(dp492
g14
g1
sg126
g127
sg25
g26
sg18
g9
((lp493
g434
ag362
atRp494
sbag456
atRp495
sg131
I00
sbatRp496
sg16
S'C'
sg89
I0
sg17
I00
sg90
(F119.78579739337501
F448.46682272605796
F-78.410825880437699
tp497
sg92
(lp498
sg14
g1
sg94
g9
((ltRp499
sg122
g9
((lp500
(imodel.Bond
Bond
p501
(dp502
g14
g1
sg126
g127
sg25
g26
sg18
g9
((lp503
g347
ag362
atRp504
sbag491
ag398
ag429
atRp505
sg131
I00
sbag356
atRp506
sg131
I00
sbsg25
g38
sg50
g9
((lp507
g439
ag353
ag370
ag409
atRp508
sg16
S'C'
sg89
I0
sg17
I00
sg90
(F119.78579739337501
F448.46682272605796
F-78.410825880437699
tp509
sg92
(lp510
sg14
g1
sg94
g9
((ltRp511
sg122
g9
((lp512
(imodel.Bond
Bond
p513
(dp514
g14
g1
sg126
g127
sg25
g38
sg18
g9
((lp515
g353
ag356
atRp516
sbag479
ag417
ag378
atRp517
sg131
I00
sba(imodel.VarAtom
VarAtom
p518
(dp519
g3
S'HB3'
p520
sg22
I00
sg23
Nsg24
(imodel.Atom
Atom
p521
(dp522
g3
g520
sg14
g1
sg15
I1
sg16
S'H'
sg17
I00
sg18
g9
((lp523
(imodel.VarAtom
VarAtom
p524
(dp525
g3
g520
sg22
I00
sg23
Nsg24
g521
sg25
g26
sg50
g9
((lp526
g347
atRp527
sg16
S'H'
sg89
I0
sg17
I00
sg90
(F166.44094829999028
F407.3212224456995
F9.4225872783764064
tp528
sg92
(lp529
sg14
g1
sg94
g9
((ltRp530
sg122
g9
((lp531
(imodel.Bond
Bond
p532
(dp533
g14
g1
sg126
g127
sg25
g26
sg18
g9
((lp534
g524
ag347
atRp535
sbatRp536
sg131
I00
sbag518
atRp537
sg131
I00
sbsg25
g38
sg50
g9
((lp538
g353
atRp539
sg16
S'H'
sg89
I0
sg17
I00
sg90
(F166.44094829999028
F407.3212224456995
F9.4225872783764064
tp540
sg92
(lp541
sg14
g1
sg94
g9
((ltRp542
sg122
g9
((lp543
(imodel.Bond
Bond
p544
(dp545
g14
g1
sg126
g127
sg25
g38
sg18
g9
((lp546
g518
ag353
atRp547
sbatRp548
sg131
I00
sbag307
a(imodel.VarAtom
VarAtom
p549
(dp550
g3
S'HB2'
p551
sg22
I00
sg23
Nsg24
(imodel.Atom
Atom
p552
(dp553
g3
g551
sg14
g1
sg15
I1
sg16
S'H'
sg17
I00
sg18
g9
((lp554
(imodel.VarAtom
VarAtom
p555
(dp556
g3
g551
sg22
I00
sg23
Nsg24
g552
sg25
g26
sg50
g9
((lp557
g347
atRp558
sg16
S'H'
sg89
I0
sg17
I00
sg90
(F153.88746078898615
F363.71578884160158
F-34.035960559523517
tp559
sg92
(lp560
sg14
g1
sg94
g9
((ltRp561
sg122
g9
((lp562
(imodel.Bond
Bond
p563
(dp564
g14
g1
sg126
g127
sg25
g26
sg18
g9
((lp565
g555
ag347
atRp566
sbatRp567
sg131
I00
sbag549
atRp568
sg131
I00
sbsg25
g38
sg50
g9
((lp569
g353
atRp570
sg16
S'H'
sg89
I0
sg17
I00
sg90
(F153.88746078898615
F363.71578884160158
F-34.035960559523517
tp571
sg92
(lp572
sg14
g1
sg94
g9
((ltRp573
sg122
g9
((lp574
(imodel.Bond
Bond
p575
(dp576
g14
g1
sg126
g127
sg25
g38
sg18
g9
((lp577
g549
ag353
atRp578
sbatRp579
sg131
I00
sbatRp580
sg16
S'C'
sg89
I0
sg17
I00
sg90
(F130.21702690229324
F394.13840493720824
F-16.265617994040866
tp581
sg92
(lp582
sg14
g1
sg94
g9
((ltRp583
sg122
g9
((lp584
g575
ag513
a(imodel.Bond
Bond
p585
(dp586
g14
g1
sg126
g127
sg25
g38
sg18
g9
((lp587
g307
ag353
atRp588
sbag544
atRp589
sg131
I00
sbag347
atRp590
sg131
I00
sbsg25
g26
sg50
g9
((lp591
g555
ag313
ag524
ag362
atRp592
sg16
S'C'
sg89
I0
sg17
I00
sg90
(F130.21702690229324
F394.13840493720824
F-16.265617994040866
tp593
sg92
(lp594
sg14
g1
sg94
g9
((ltRp595
sg122
g9
((lp596
g563
ag501
a(imodel.Bond
Bond
p597
(dp598
g14
g1
sg126
g127
sg25
g26
sg18
g9
((lp599
g313
ag347
atRp600
sbag532
atRp601
sg131
I00
sba(imodel.VarAtom
VarAtom
p602
(dp603
g3
S'HG3'
p604
sg22
I00
sg23
Nsg24
(imodel.Atom
Atom
p605
(dp606
g3
g604
sg14
g1
sg15
I1
sg16
S'H'
sg17
I00
sg18
g9
((lp607
(imodel.VarAtom
VarAtom
p608
(dp609
g3
g604
sg22
I00
sg23
Nsg24
g605
sg25
g38
sg50
g9
((lp610
g307
atRp611
sg16
S'H'
sg89
I0
sg17
I00
sg90
(F53.792409254664172
F341.2490135119001
F13.433278639201871
tp612
sg92
(lp613
sg14
g1
sg94
g9
((ltRp614
sg122
g9
((lp615
(imodel.Bond
Bond
p616
(dp617
g14
g1
sg126
g127
sg25
g38
sg18
g9
((lp618
g307
ag608
atRp619
sbatRp620
sg131
I00
sbag602
atRp621
sg131
I00
sbsg25
g26
sg50
g9
((lp622
g313
atRp623
sg16
S'H'
sg89
I0
sg17
I00
sg90
(F53.792409254664172
F341.2490135119001
F13.433278639201871
tp624
sg92
(lp625
sg14
g1
sg94
g9
((ltRp626
sg122
g9
((lp627
(imodel.Bond
Bond
p628
(dp629
g14
g1
sg126
g127
sg25
g26
sg18
g9
((lp630
g313
ag602
atRp631
sbatRp632
sg131
I00
sbatRp633
sg16
S'C'
sg89
I0
sg17
I00
sg90
(F90.738835895168165
F351.89721956049829
F30.675182981015741
tp634
sg92
(lp635
sg14
g1
sg94
g9
((ltRp636
sg122
g9
((lp637
g342
ag628
a(imodel.Bond
Bond
p638
(dp639
g14
g1
sg126
g127
sg25
g26
sg18
g9
((lp640
g313
ag52
atRp641
sbag597
atRp642
sg131
I00
sbag307
atRp643
sg131
I00
sbsg25
g38
sg50
g9
((lp644
g608
ag353
ag322
ag58
atRp645
sg16
S'C'
sg89
I0
sg17
I00
sg90
(F90.738835895168165
F351.89721956049829
F30.675182981015741
tp646
sg92
(lp647
sg14
g1
sg94
g9
((ltRp648
sg122
g9
((lp649
g330
ag616
a(imodel.Bond
Bond
p650
(dp651
g14
g1
sg126
g127
sg25
g38
sg18
g9
((lp652
g307
ag58
atRp653
sbag585
atRp654
sg131
I00
sbag42
atRp655
sg16
S'C'
sg89
I0
sg17
I00
sg90
(F95.411770831793746
F295.26470653233082
F44.951222324995605
tp656
sg92
(lp657
sg14
g1
sg94
g9
((ltRp658
sg122
g9
((lp659
g271
a(imodel.Bond
Bond
p660
(dp661
g14
g1
sg126
g127
sg25
g38
sg18
g9
((lp662
g42
ag58
atRp663
sbag650
ag302
atRp664
sg131
I00
sbatRp665
sg131
I00
sbsg25
g26
sg50
g9
((lp666
g67
ag48
ag313
ag282
atRp667
sg16
S'C'
sg89
I0
sg17
I00
sg90
(F95.411770831793746
F295.26470653233082
F44.951222324995605
tp668
sg92
(lp669
sg14
g1
sg94
g9
((ltRp670
sg122
g9
((lp671
g259
a(imodel.Bond
Bond
p672
(dp673
g14
g1
sg126
g127
sg25
g26
sg18
g9
((lp674
g48
ag52
atRp675
sbag638
ag290
atRp676
sg131
I00
sbatRp677
sg16
S'H'
sg89
I0
sg17
I00
sg90
(F115.01942026922718
F262.17084812981506
F1.293533571321869
tp678
sg92
(lp679
sg14
g1
sg94
g9
((ltRp680
sg122
g9
((lp681
g672
atRp682
sg131
I00
sbatRp683
sg131
I00
sbsg25
g38
sg50
g9
((lp684
g58
atRp685
sg16
S'H'
sg89
I0
sg17
I00
sg90
(F115.01942026922718
F262.17084812981506
F1.293533571321869
tp686
sg92
(lp687
sg14
g1
sg94
g9
((ltRp688
sg122
g9
((lp689
g660
atRp690
sg131
I00
sbag276
ag36
ag79
ag608
ag109
ag409
ag322
ag229
ag518
ag549
ag198
atRp691
sS'C'
g9
((lp692
g439
ag307
ag61
ag58
ag356
ag353
atRp693
sS'O'
g9
((lp694
g442
atRp695
sS'N'
g9
((lp696
g370
ag76
atRp697
ssg122
g9
((lp698
g302
ag479
ag575
ag513
ag271
ag650
ag161
ag382
ag660
ag330
ag585
ag206
ag544
ag237
ag378
ag124
ag616
ag469
ag417
ag171
atRp699
sg14
g1
sS'descriptor'
p700
(S'neutral'
p701
S'none'
p702
S'default'
p703
tp704
sS'atomDict'
p705
(dp706
g73
g76
sg359
g356
sg605
g608
sg319
g322
sg310
g307
sg82
g79
sg45
g42
sg552
g549
sg226
g229
sg106
g109
sg64
g61
sg445
g442
sg55
g58
sg195
g198
sg33
g36
sg350
g353
sg406
g409
sg279
g276
sg521
g518
sg367
g370
sg436
g439
ssg18
g9
((lp707
g36
ag608
ag198
ag42
ag276
ag58
ag79
ag61
ag409
ag353
ag76
ag442
ag356
ag109
ag518
ag439
ag370
ag549
ag322
ag307
ag229
atRp708
sg94
g9
((lp709
g116
atRp710
sS'polyLink'
p711
g702
sbsg50
g9
((lp712
g370
atRp713
sg16
S'H'
sg89
I0
sg17
I00
sg90
(F198.2267963564378
F472.13010633059594
F-30.116498684137238
tp714
sg92
(lp715
sg14
g1
sg94
g9
((ltRp716
sg122
g9
((lp717
g382
atRp718
sg131
I00
sbatRp719
sg131
I00
sbsg25
g26
sg50
g9
((lp720
g365
atRp721
sg16
S'H'
sg89
I0
sg17
I00
sg90
(F198.2267963564378
F472.13010633059594
F-30.116498684137238
tp722
sg92
(lp723
sg14
g1
sg94
g9
((ltRp724
sg122
g9
((lp725
g394
atRp726
sg131
I00
sbag223
ag103
ag316
ag524
ag20
ag192
ag602
ag403
ag555
ag282
ag85
ag48
atRp727
sS'C'
g9
((lp728
g52
ag362
ag67
ag313
ag434
ag347
atRp729
sS'O'
g9
((lp730
g448
atRp731
sS'N'
g9
((lp732
g365
ag70
atRp733
ssg122
g9
((lp734
g259
ag218
ag597
ag672
ag342
ag290
ag563
ag501
ag429
ag187
ag394
ag140
ag628
ag183
ag249
ag638
ag148
ag491
ag456
ag532
ag398
atRp735
sg14
g1
sg700
(S'+HZ3'
g702
g703
tp736
sg705
(dp737
g11
g20
sg73
g70
sg359
g362
sg605
g602
sg319
g316
sg310
g313
sg82
g85
sg279
g282
sg552
g555
sg106
g103
sg226
g223
sg64
g67
sg445
g448
sg55
g52
sg195
g192
sg33
g31
sg350
g347
sg406
g403
sg436
g434
sg521
g524
sg367
g365
sg45
g48
ssg18
g9
((lp738
g103
ag223
ag362
ag48
ag434
ag347
ag282
ag85
ag365
ag31
ag67
ag555
ag192
ag524
ag316
ag448
ag52
ag403
ag313
ag20
ag70
ag602
atRp739
sg94
g9
((lp740
g96
atRp741
sg711
g702
sbsg50
g9
((lp742
g70
atRp743
sg16
S'H'
sg89
I0
sg17
I01
sg90
(F98.967542127925924
F199.12225179654016
F90.503852820729207
tp744
sg92
(lp745
sg14
g1
sg94
g9
((lp746
g96
atRp747
sg122
g9
((lp748
g187
atRp749
sg131
I00
sbatRp750
sg131
I00
sbag73
ag359
ag605
ag319
ag310
ag82
ag45
ag552
ag226
ag106
ag64
ag445
ag55
ag195
ag33
ag350
ag406
ag436
ag521
ag367
ag279
atRp751
sS'ccpMolType'
p752
S'protein'
p753
sS'details'
p754
V
sg705
(dp755
g444
g445
sg405
g406
sg225
g226
sg194
g195
sg318
g319
sg604
g605
sg72
g73
sg105
g106
sg13
g11
sg81
g82
sS'C'
g436
sg349
g350
sg358
g359
sg309
g310
sg63
g64
sg54
g55
sS'N'
g367
sg278
g279
sg44
g45
sVH
g33
sg520
g521
sg551
g552
ssS'keywords'
p756
g9
((ltRp757
sg94
g9
((lp758
g96
ag116
atRp759
sS'variants'
p760
g9
((lp761
g38
ag26
atRp762
sS'defaultVars'
p763
g9
((ltRp764
sb.