(imodel.Compound
Compound
p1
(dp2
S'name'
p3
VMETHIONINE
p4
sS'isModified'
p5
I00
sS'ccpCode'
p6
VMet
p7
sS'atoms'
p8
c__builtin__
set
p9
((lp10
(imodel.Atom
Atom
p11
(dp12
g3
S'CB'
p13
sS'compound'
p14
g1
sS'baseValences'
p15
I4
sS'element'
p16
S'C'
sS'isVariable'
p17
I00
sS'varAtoms'
p18
g9
((lp19
(imodel.VarAtom
VarAtom
p20
(dp21
g3
g13
sS'isLabile'
p22
I00
sS'chirality'
p23
NsS'atom'
p24
g11
sS'variant'
p25
(imodel.Variant
Variant
p26
(dp27
S'elementDict'
p28
(dp29
S'H'
g9
((lp30
(imodel.VarAtom
VarAtom
p31
(dp32
g3
S'HG3'
p33
sg22
I00
sg23
Nsg24
(imodel.Atom
Atom
p34
(dp35
g3
g33
sg14
g1
sg15
I1
sg16
S'H'
sg17
I00
sg18
g9
((lp36
g31
atRp37
sS'isDeleted'
p38
I00
sbsg25
g26
sS'neighbours'
p39
g9
((lp40
(imodel.VarAtom
VarAtom
p41
(dp42
g3
S'CG'
p43
sg22
I00
sg23
Nsg24
(imodel.Atom
Atom
p44
(dp45
g3
g43
sg14
g1
sg15
I4
sg16
S'C'
sg17
I00
sg18
g9
((lp46
g41
atRp47
sg38
I00
sbsg25
g26
sg39
g9
((lp48
g20
a(imodel.VarAtom
VarAtom
p49
(dp50
g3
S'SD'
p51
sg22
I00
sg23
Nsg24
(imodel.Atom
Atom
p52
(dp53
g3
g51
sg14
g1
sg15
I2
sg16
S'S'
sg17
I00
sg18
g9
((lp54
g49
atRp55
sg38
I00
sbsg25
g26
sg39
g9
((lp56
(imodel.VarAtom
VarAtom
p57
(dp58
g3
S'CE'
p59
sg22
I00
sg23
Nsg24
(imodel.Atom
Atom
p60
(dp61
g3
g59
sg14
g1
sg15
I4
sg16
S'C'
sg17
I00
sg18
g9
((lp62
g57
atRp63
sg38
I00
sbsg25
g26
sg39
g9
((lp64
(imodel.VarAtom
VarAtom
p65
(dp66
g3
S'HE2'
p67
sg22
I00
sg23
Nsg24
(imodel.Atom
Atom
p68
(dp69
g3
g67
sg14
g1
sg15
I1
sg16
S'H'
sg17
I00
sg18
g9
((lp70
g65
atRp71
sg38
I00
sbsg25
g26
sg39
g9
((lp72
g57
atRp73
sg16
S'H'
sS'charge'
p74
I0
sg17
I00
sS'coords'
p75
(F84.0236753964912
F252.91626546567807
F182.74784256347763
tp76
sS'freeValences'
p77
(lp78
sg14
g1
sS'atomGroups'
p79
g9
((ltRp80
sS'bonds'
p81
g9
((lp82
(imodel.Bond
Bond
p83
(dp84
g14
g1
sS'bondType'
p85
S'single'
p86
sg25
g26
sg18
g9
((lp87
g65
ag57
atRp88
sbatRp89
sg38
I00
sba(imodel.VarAtom
VarAtom
p90
(dp91
g3
S'HE1'
p92
sg22
I00
sg23
Nsg24
(imodel.Atom
Atom
p93
(dp94
g3
g92
sg14
g1
sg15
I1
sg16
S'H'
sg17
I00
sg18
g9
((lp95
g90
atRp96
sg38
I00
sbsg25
g26
sg39
g9
((lp97
g57
atRp98
sg16
S'H'
sg74
I0
sg17
I00
sg75
(F29.792801870090663
F245.97001867785957
F232.2664614958251
tp99
sg77
(lp100
sg14
g1
sg79
g9
((ltRp101
sg81
g9
((lp102
(imodel.Bond
Bond
p103
(dp104
g14
g1
sg85
g86
sg25
g26
sg18
g9
((lp105
g57
ag90
atRp106
sbatRp107
sg38
I00
sbag49
a(imodel.VarAtom
VarAtom
p108
(dp109
g3
S'HE3'
p110
sg22
I00
sg23
Nsg24
(imodel.Atom
Atom
p111
(dp112
g3
g110
sg14
g1
sg15
I1
sg16
S'H'
sg17
I00
sg18
g9
((lp113
g108
atRp114
sg38
I00
sbsg25
g26
sg39
g9
((lp115
g57
atRp116
sg16
S'H'
sg74
I0
sg17
I00
sg75
(F22.554115786254656
F299.67542085186545
F182.01558942095488
tp117
sg77
(lp118
sg14
g1
sg79
g9
((ltRp119
sg81
g9
((lp120
(imodel.Bond
Bond
p121
(dp122
g14
g1
sg85
g86
sg25
g26
sg18
g9
((lp123
g108
ag57
atRp124
sbatRp125
sg38
I00
sbatRp126
sg16
S'C'
sg74
I0
sg17
I00
sg75
(F53.554136381012995
F276.65937566839909
F185.00621669801404
tp127
sg77
(lp128
sg14
g1
sg79
g9
((ltRp129
sg81
g9
((lp130
g103
a(imodel.Bond
Bond
p131
(dp132
g14
g1
sg85
g86
sg25
g26
sg18
g9
((lp133
g49
ag57
atRp134
sbag121
ag83
atRp135
sg38
I00
sbag41
atRp136
sg16
S'S'
sg74
I0
sg17
I00
sg75
(F84.682799460254969
F317.09240703339202
F116.16381955976658
tp137
sg77
(lp138
sg14
g1
sg79
g9
((ltRp139
sg81
g9
((lp140
g131
a(imodel.Bond
Bond
p141
(dp142
g14
g1
sg85
g86
sg25
g26
sg18
g9
((lp143
g49
ag41
atRp144
sbatRp145
sg38
I00
sbag31
a(imodel.VarAtom
VarAtom
p146
(dp147
g3
S'HG2'
p148
sg22
I00
sg23
Nsg24
(imodel.Atom
Atom
p149
(dp150
g3
g148
sg14
g1
sg15
I1
sg16
S'H'
sg17
I00
sg18
g9
((lp151
g146
atRp152
sg38
I00
sbsg25
g26
sg39
g9
((lp153
g41
atRp154
sg16
S'H'
sg74
I0
sg17
I00
sg75
(F151.04738956003058
F374.1134722659171
F47.086301295151799
tp155
sg77
(lp156
sg14
g1
sg79
g9
((ltRp157
sg81
g9
((lp158
(imodel.Bond
Bond
p159
(dp160
g14
g1
sg85
g86
sg25
g26
sg18
g9
((lp161
g41
ag146
atRp162
sbatRp163
sg38
I00
sbatRp164
sg16
S'C'
sg74
I0
sg17
I00
sg75
(F116.15839524980686
F357.40971050573228
F46.406281553589686
tp165
sg77
(lp166
sg14
g1
sg79
g9
((ltRp167
sg81
g9
((lp168
(imodel.Bond
Bond
p169
(dp170
g14
g1
sg85
g86
sg25
g26
sg18
g9
((lp171
g20
ag41
atRp172
sbag141
ag159
a(imodel.Bond
Bond
p173
(dp174
g14
g1
sg85
g86
sg25
g26
sg18
g9
((lp175
g31
ag41
atRp176
sbatRp177
sg38
I00
sbatRp178
sg16
S'H'
sg74
I0
sg17
I00
sg75
(F140.05603631158564
F326.8279691670611
F48.778563111954796
tp179
sg77
(lp180
sg14
g1
sg79
g9
((ltRp181
sg81
g9
((lp182
g173
atRp183
sg38
I00
sbag108
ag90
a(imodel.VarAtom
VarAtom
p184
(dp185
g3
VH
sg22
I00
sg23
Nsg24
(imodel.Atom
Atom
p186
(dp187
g3
VH
sg14
g1
sg15
I1
sg16
S'H'
sg17
I00
sg18
g9
((lp188
g184
atRp189
sg38
I00
sbsg25
g26
sg39
g9
((lp190
(imodel.VarAtom
VarAtom
p191
(dp192
g3
S'N'
sg22
I00
sg23
Nsg24
(imodel.Atom
Atom
p193
(dp194
g3
S'N'
sg14
g1
sg15
I3
sg16
S'N'
sg17
I00
sg18
g9
((lp195
g191
atRp196
sg38
I00
sbsg25
g26
sg39
g9
((lp197
g184
a(imodel.VarAtom
VarAtom
p198
(dp199
g3
S'CA'
p200
sg22
I00
sg23
S'S'
sg24
(imodel.Atom
Atom
p201
(dp202
g3
g200
sg14
g1
sg15
I4
sg16
S'C'
sg17
I00
sg18
g9
((lp203
g198
atRp204
sg38
I00
sbsg25
g26
sg39
g9
((lp205
g20
a(imodel.VarAtom
VarAtom
p206
(dp207
g3
S'HA'
p208
sg22
I00
sg23
Nsg24
(imodel.Atom
Atom
p209
(dp210
g3
g208
sg14
g1
sg15
I1
sg16
S'H'
sg17
I00
sg18
g9
((lp211
g206
atRp212
sg38
I00
sbsg25
g26
sg39
g9
((lp213
g198
atRp214
sg16
S'H'
sg74
I0
sg17
I00
sg75
(F136.62095162156794
F439.13483966810719
F-75.625785211313499
tp215
sg77
(lp216
sg14
g1
sg79
g9
((ltRp217
sg81
g9
((lp218
(imodel.Bond
Bond
p219
(dp220
g14
g1
sg85
g86
sg25
g26
sg18
g9
((lp221
g206
ag198
atRp222
sbatRp223
sg38
I00
sbag191
a(imodel.VarAtom
VarAtom
p224
(dp225
g3
S'C'
sg22
I00
sg23
Nsg24
(imodel.Atom
Atom
p226
(dp227
g3
S'C'
sg14
g1
sg15
I4
sg16
S'C'
sg17
I00
sg18
g9
((lp228
g224
atRp229
sg38
I00
sbsg25
g26
sg39
g9
((lp230
g198
a(imodel.VarAtom
VarAtom
p231
(dp232
g3
S"O'"
p233
sg22
I00
sg23
Nsg24
(imodel.Atom
Atom
p234
(dp235
g3
g233
sg14
g1
sg15
I2
sg16
S'O'
sg17
I00
sg18
g9
((lp236
g231
atRp237
sg38
I00
sbsg25
g26
sg39
g9
((lp238
g224
atRp239
sg16
S'O'
sg74
I0
sg17
I00
sg75
(F17.492125774253779
F479.92425359284732
F-169.71050496471028
tp240
sg77
(lp241
sg14
g1
sg79
g9
((ltRp242
sg81
g9
((lp243
(imodel.Bond
Bond
p244
(dp245
g14
g1
sg85
S'double'
p246
sg25
g26
sg18
g9
((lp247
g231
ag224
atRp248
sbatRp249
sg38
I00
sbatRp250
sg16
S'C'
sg74
I0
sg17
I00
sg75
(F61.071290641667261
F486.42872607727656
F-142.90284462063764
tp251
sg77
(lp252
F0.24715496087130884
asg14
g1
sg79
g9
((ltRp253
sg81
g9
((lp254
(imodel.Bond
Bond
p255
(dp256
g14
g1
sg85
g86
sg25
g26
sg18
g9
((lp257
g224
ag198
atRp258
sbag244
atRp259
sg38
I00
sbatRp260
sg16
S'C'
sg74
I0
sg17
I00
sg75
(F102.2129932945069
F455.63851309334939
F-78.792665037520635
tp261
sg77
(lp262
sg14
g1
sg79
g9
((ltRp263
sg81
g9
((lp264
(imodel.Bond
Bond
p265
(dp266
g14
g1
sg85
g86
sg25
g26
sg18
g9
((lp267
g20
ag198
atRp268
sbag219
a(imodel.Bond
Bond
p269
(dp270
g14
g1
sg85
g86
sg25
g26
sg18
g9
((lp271
g191
ag198
atRp272
sbag255
atRp273
sg38
I00
sbatRp274
sg16
S'N'
sg74
I0
sg17
I00
sg75
(F133.83574170193518
F496.37672558526481
F-75.655007197478056
tp275
sg77
(lp276
F5.8172148373861763
asg14
g1
sg79
g9
((ltRp277
sg81
g9
((lp278
(imodel.Bond
Bond
p279
(dp280
g14
g1
sg85
g86
sg25
g26
sg18
g9
((lp281
g184
ag191
atRp282
sbag269
atRp283
sg38
I00
sbatRp284
sg16
S'H'
sg74
I0
sg17
I00
sg75
(F172.28767146946933
F497.19321065763575
F-29.104428255016629
tp285
sg77
(lp286
sg14
g1
sg79
g9
((ltRp287
sg81
g9
((lp288
g279
atRp289
sg38
I00
sbag206
ag146
a(imodel.VarAtom
VarAtom
p290
(dp291
g3
S'HB2'
p292
sg22
I00
sg23
Nsg24
(imodel.Atom
Atom
p293
(dp294
g3
g292
sg14
g1
sg15
I1
sg16
S'H'
sg17
I00
sg18
g9
((lp295
g290
atRp296
sg38
I00
sbsg25
g26
sg39
g9
((lp297
g20
atRp298
sg16
S'H'
sg74
I0
sg17
I00
sg75
(F57.793329558303768
F376.80893440147059
F-21.653291916605571
tp299
sg77
(lp300
sg14
g1
sg79
g9
((ltRp301
sg81
g9
((lp302
(imodel.Bond
Bond
p303
(dp304
g14
g1
sg85
g86
sg25
g26
sg18
g9
((lp305
g20
ag290
atRp306
sbatRp307
sg38
I00
sba(imodel.VarAtom
VarAtom
p308
(dp309
g3
S'HB3'
p310
sg22
I00
sg23
Nsg24
(imodel.Atom
Atom
p311
(dp312
g3
g310
sg14
g1
sg15
I1
sg16
S'H'
sg17
I00
sg18
g9
((lp313
g308
atRp314
sg38
I00
sbsg25
g26
sg39
g9
((lp315
g20
atRp316
sg16
S'H'
sg74
I0
sg17
I00
sg75
(F51.794229660904278
F420.86670533877447
F-21.773981750077006
tp317
sg77
(lp318
sg14
g1
sg79
g9
((ltRp319
sg81
g9
((lp320
(imodel.Bond
Bond
p321
(dp322
g14
g1
sg85
g86
sg25
g26
sg18
g9
((lp323
g20
ag308
atRp324
sbatRp325
sg38
I00
sbag65
atRp326
sS'C'
g9
((lp327
g41
ag57
ag224
ag198
ag20
atRp328
sS'S'
g9
((lp329
g49
atRp330
sS'O'
g9
((lp331
g231
atRp332
sS'N'
g9
((lp333
g191
atRp334
ssg81
g9
((lp335
g83
ag103
ag159
ag321
ag141
ag244
ag303
ag173
ag265
ag219
ag121
ag255
ag279
ag269
ag131
ag169
atRp336
sg14
g1
sS'descriptor'
p337
(S'neutral'
p338
S'none'
p339
S'default'
p340
tp341
sS'atomDict'
p342
(dp343
g11
g20
sg209
g206
sg293
g290
sg193
g191
sg44
g41
sg234
g231
sg34
g31
sg111
g108
sg93
g90
sg149
g146
sg68
g65
sg60
g57
sg311
g308
sg186
g184
sg201
g198
sg226
g224
sg52
g49
ssg18
g9
((lp344
g49
ag31
ag206
ag57
ag20
ag184
ag41
ag308
ag198
ag146
ag108
ag90
ag224
ag231
ag290
ag191
ag65
atRp345
sg79
g9
((ltRp346
sS'polyLink'
p347
g339
sbsg39
g9
((lp348
g198
ag41
ag290
ag308
atRp349
sg16
S'C'
sg74
I0
sg17
I00
sg75
(F85.935939989030587
F403.20983467585489
F-20.600010222919646
tp350
sg77
(lp351
sg14
g1
sg79
g9
((ltRp352
sg81
g9
((lp353
g265
ag321
ag169
ag303
atRp354
sg38
I00
sbatRp355
sg38
I00
sbag293
ag209
ag234
ag44
ag111
ag68
ag193
ag93
ag149
ag34
ag60
ag201
ag311
ag186
ag226
ag52
atRp356
sS'ccpMolType'
p357
S'protein'
p358
sS'details'
p359
V
sg342
(dp360
S'C'
g226
sg92
g93
sg67
g68
sg110
g111
sg233
g234
sg13
g11
sg200
g201
sg148
g149
sg33
g34
sg59
g60
sS'N'
g193
sg292
g293
sVH
g186
sg43
g44
sg208
g209
sg310
g311
sg51
g52
ssS'keywords'
p361
g9
((ltRp362
sg79
g9
((ltRp363
sS'variants'
p364
g9
((lp365
g26
atRp366
sS'defaultVars'
p367
g9
((ltRp368
sb.