(imodel.Compound
Compound
p1
(dp2
S'name'
p3
VORNITHINE
p4
sS'isModified'
p5
I01
sS'ccpCode'
p6
VOrn
p7
sS'atoms'
p8
c__builtin__
set
p9
((lp10
(imodel.Atom
Atom
p11
(dp12
g3
S'HD2'
p13
sS'compound'
p14
g1
sS'baseValences'
p15
I1
sS'element'
p16
S'H'
sS'isVariable'
p17
I00
sS'varAtoms'
p18
g9
((lp19
(imodel.VarAtom
VarAtom
p20
(dp21
g3
g13
sS'isLabile'
p22
I00
sS'chirality'
p23
NsS'atom'
p24
g11
sS'variant'
p25
(imodel.Variant
Variant
p26
(dp27
S'elementDict'
p28
(dp29
S'H'
g9
((lp30
(imodel.VarAtom
VarAtom
p31
(dp32
g3
S'HB2'
p33
sg22
I00
sg23
Nsg24
(imodel.Atom
Atom
p34
(dp35
g3
g33
sg14
g1
sg15
I1
sg16
S'H'
sg17
I00
sg18
g9
((lp36
g31
atRp37
sS'isDeleted'
p38
I00
sbsg25
g26
sS'neighbours'
p39
g9
((lp40
(imodel.VarAtom
VarAtom
p41
(dp42
g3
S'CB'
p43
sg22
I00
sg23
Nsg24
(imodel.Atom
Atom
p44
(dp45
g3
g43
sg14
g1
sg15
I4
sg16
S'C'
sg17
I00
sg18
g9
((lp46
g41
atRp47
sg38
I00
sbsg25
g26
sg39
g9
((lp48
(imodel.VarAtom
VarAtom
p49
(dp50
g3
S'CA'
p51
sg22
I00
sg23
S'S'
sg24
(imodel.Atom
Atom
p52
(dp53
g3
g51
sg14
g1
sg15
I4
sg16
S'C'
sg17
I00
sg18
g9
((lp54
g49
atRp55
sg38
I00
sbsg25
g26
sg39
g9
((lp56
g41
a(imodel.VarAtom
VarAtom
p57
(dp58
g3
S'N'
sg22
I00
sg23
Nsg24
(imodel.Atom
Atom
p59
(dp60
g3
S'N'
sg14
g1
sg15
I3
sg16
S'N'
sg17
I00
sg18
g9
((lp61
g57
atRp62
sg38
I00
sbsg25
g26
sg39
g9
((lp63
g49
a(imodel.VarAtom
VarAtom
p64
(dp65
g3
VH
sg22
I00
sg23
Nsg24
(imodel.Atom
Atom
p66
(dp67
g3
VH
sg14
g1
sg15
I1
sg16
S'H'
sg17
I00
sg18
g9
((lp68
g64
atRp69
sg38
I00
sbsg25
g26
sg39
g9
((lp70
g57
atRp71
sg16
S'H'
sS'charge'
p72
I0
sg17
I00
sS'coords'
p73
(F76.848979486165973
F506.20060615247962
F-37.92793856935117
tp74
sS'freeValences'
p75
(lp76
sg14
g1
sS'atomGroups'
p77
g9
((ltRp78
sS'bonds'
p79
g9
((lp80
(imodel.Bond
Bond
p81
(dp82
g14
g1
sS'bondType'
p83
S'single'
p84
sg25
g26
sg18
g9
((lp85
g64
ag57
atRp86
sbatRp87
sg38
I00
sbatRp88
sg16
S'N'
sg72
I0
sg17
I00
sg73
(F38.454595736043032
F509.19896495149584
F11.592224176305461
tp89
sg75
(lp90
F5.9047357436680272
asg14
g1
sg77
g9
((ltRp91
sg79
g9
((lp92
(imodel.Bond
Bond
p93
(dp94
g14
g1
sg83
g84
sg25
g26
sg18
g9
((lp95
g57
ag49
atRp96
sbag81
atRp97
sg38
I00
sba(imodel.VarAtom
VarAtom
p98
(dp99
g3
S'HA'
p100
sg22
I00
sg23
Nsg24
(imodel.Atom
Atom
p101
(dp102
g3
g100
sg14
g1
sg15
I1
sg16
S'H'
sg17
I00
sg18
g9
((lp103
g98
atRp104
sg38
I00
sbsg25
g26
sg39
g9
((lp105
g49
atRp106
sg16
S'H'
sg72
I0
sg17
I00
sg73
(F38.070984492914974
F454.7825146603962
F76.59318583231429
tp107
sg75
(lp108
sg14
g1
sg77
g9
((ltRp109
sg79
g9
((lp110
(imodel.Bond
Bond
p111
(dp112
g14
g1
sg83
g84
sg25
g26
sg18
g9
((lp113
g49
ag98
atRp114
sbatRp115
sg38
I00
sba(imodel.VarAtom
VarAtom
p116
(dp117
g3
S'C'
sg22
I00
sg23
Nsg24
(imodel.Atom
Atom
p118
(dp119
g3
S'C'
sg14
g1
sg15
I4
sg16
S'C'
sg17
I00
sg18
g9
((lp120
g116
atRp121
sg38
I00
sbsg25
g26
sg39
g9
((lp122
(imodel.VarAtom
VarAtom
p123
(dp124
g3
S"O'"
p125
sg22
I00
sg23
Nsg24
(imodel.Atom
Atom
p126
(dp127
g3
g125
sg14
g1
sg15
I2
sg16
S'O'
sg17
I00
sg18
g9
((lp128
g123
atRp129
sg38
I00
sbsg25
g26
sg39
g9
((lp130
g116
atRp131
sg16
S'O'
sg72
I0
sg17
I00
sg73
(F-79.353711728941164
F500.8934687952775
F-39.796286701919058
tp132
sg75
(lp133
sg14
g1
sg77
g9
((ltRp134
sg79
g9
((lp135
(imodel.Bond
Bond
p136
(dp137
g14
g1
sg83
S'double'
p138
sg25
g26
sg18
g9
((lp139
g123
ag116
atRp140
sbatRp141
sg38
I00
sbag49
atRp142
sg16
S'C'
sg72
I0
sg17
I00
sg73
(F-35.438764990872798
F504.02921219130371
F0.34223356227993873
tp143
sg75
(lp144
F0.3149543937351682
asg14
g1
sg77
g9
((ltRp145
sg79
g9
((lp146
g136
a(imodel.Bond
Bond
p147
(dp148
g14
g1
sg83
g84
sg25
g26
sg18
g9
((lp149
g116
ag49
atRp150
sbatRp151
sg38
I00
sbatRp152
sg16
S'C'
sg72
I0
sg17
I00
sg73
(F3.780546175674381
F470.91519733609709
F23.31105319163656
tp153
sg75
(lp154
sg14
g1
sg77
g9
((ltRp155
sg79
g9
((lp156
g111
ag147
a(imodel.Bond
Bond
p157
(dp158
g14
g1
sg83
g84
sg25
g26
sg18
g9
((lp159
g49
ag41
atRp160
sbag93
atRp161
sg38
I00
sba(imodel.VarAtom
VarAtom
p162
(dp163
g3
S'CG'
p164
sg22
I00
sg23
Nsg24
(imodel.Atom
Atom
p165
(dp166
g3
g164
sg14
g1
sg15
I4
sg16
S'C'
sg17
I00
sg18
g9
((lp167
g162
atRp168
sg38
I00
sbsg25
g26
sg39
g9
((lp169
(imodel.VarAtom
VarAtom
p170
(dp171
g3
S'CD'
p172
sg22
I00
sg23
Nsg24
(imodel.Atom
Atom
p173
(dp174
g3
g172
sg14
g1
sg15
I4
sg16
S'C'
sg17
I00
sg18
g9
((lp175
g170
atRp176
sg38
I00
sbsg25
g26
sg39
g9
((lp177
(imodel.VarAtom
VarAtom
p178
(dp179
g3
S'NE'
p180
sg22
I00
sg23
Nsg24
(imodel.Atom
Atom
p181
(dp182
g3
g180
sg14
g1
sg15
I3
sg16
S'N'
sg17
I00
sg18
g9
((lp183
g178
atRp184
sg38
I00
sbsg25
g26
sg39
g9
((lp185
g170
a(imodel.VarAtom
VarAtom
p186
(dp187
g3
S'HE1'
p188
sg22
I00
sg23
Nsg24
(imodel.Atom
Atom
p189
(dp190
g3
g188
sg14
g1
sg15
I1
sg16
S'H'
sg17
I00
sg18
g9
((lp191
g186
atRp192
sg38
I00
sbsg25
g26
sg39
g9
((lp193
g178
atRp194
sg16
S'H'
sg72
I0
sg17
I00
sg73
(F85.234032679052859
F253.4157386304704
F-21.022093288521035
tp195
sg75
(lp196
sg14
g1
sg77
g9
((lp197
(imodel.AtomGroup
AtomGroup
p198
(dp199
S'groupType'
p200
S'equivalent'
p201
sS'subGroups'
p202
g9
((ltRp203
sg18
g9
((lp204
(imodel.VarAtom
VarAtom
p205
(dp206
g3
S'HE3'
p207
sg22
I00
sg23
Nsg24
(imodel.Atom
Atom
p208
(dp209
g3
g207
sg14
g1
sg15
I1
sg16
S'H'
sg17
I00
sg18
g9
((lp210
g205
atRp211
sg38
I00
sbsg25
g26
sg39
g9
((lp212
g178
atRp213
sg16
S'H'
sg72
I0
sg17
I00
sg73
(F36.19525561901402
F245.63825928767562
F51.893879625726846
tp214
sg75
(lp215
sg14
g1
sg77
g9
((lp216
g198
atRp217
sg79
g9
((lp218
(imodel.Bond
Bond
p219
(dp220
g14
g1
sg83
g84
sg25
g26
sg18
g9
((lp221
g178
ag205
atRp222
sbatRp223
sg38
I00
sba(imodel.VarAtom
VarAtom
p224
(dp225
g3
S'HE2'
p226
sg22
I00
sg23
Nsg24
(imodel.Atom
Atom
p227
(dp228
g3
g226
sg14
g1
sg15
I1
sg16
S'H'
sg17
I00
sg18
g9
((lp229
g224
atRp230
sg38
I00
sbsg25
g26
sg39
g9
((lp231
g178
atRp232
sg16
S'H'
sg72
I0
sg17
I00
sg73
(F87.039947138204411
F302.00036310695742
F-1.7948434968631746
tp233
sg75
(lp234
sg14
g1
sg77
g9
((lp235
g198
atRp236
sg79
g9
((lp237
(imodel.Bond
Bond
p238
(dp239
g14
g1
sg83
g84
sg25
g26
sg18
g9
((lp240
g178
ag224
atRp241
sbatRp242
sg38
I00
sbag186
atRp243
sg25
g26
sg14
g1
sbatRp244
sg79
g9
((lp245
(imodel.Bond
Bond
p246
(dp247
g14
g1
sg83
g84
sg25
g26
sg18
g9
((lp248
g178
ag186
atRp249
sbatRp250
sg38
I00
sbag224
ag205
atRp251
sg16
S'N'
sg72
I1
sg17
I00
sg73
(F55.776781012373135
F279.07360448981171
F3.5070201181518303
tp252
sg75
(lp253
sg14
g1
sg77
g9
((ltRp254
sg79
g9
((lp255
g219
ag246
a(imodel.Bond
Bond
p256
(dp257
g14
g1
sg83
g84
sg25
g26
sg18
g9
((lp258
g178
ag170
atRp259
sbag238
atRp260
sg38
I00
sbag162
a(imodel.VarAtom
VarAtom
p261
(dp262
g3
S'HD3'
p263
sg22
I00
sg23
Nsg24
(imodel.Atom
Atom
p264
(dp265
g3
g263
sg14
g1
sg15
I1
sg16
S'H'
sg17
I00
sg18
g9
((lp266
g261
atRp267
sg38
I00
sbsg25
g26
sg39
g9
((lp268
g170
atRp269
sg16
S'H'
sg72
I0
sg17
I00
sg73
(F-23.962286669393659
F327.06360093173788
F-75.722010600126339
tp270
sg75
(lp271
sg14
g1
sg77
g9
((ltRp272
sg79
g9
((lp273
(imodel.Bond
Bond
p274
(dp275
g14
g1
sg83
g84
sg25
g26
sg18
g9
((lp276
g170
ag261
atRp277
sbatRp278
sg38
I00
sbag20
atRp279
sg16
S'C'
sg72
I0
sg17
I00
sg73
(F12.749621688835846
F315.27503137075121
F-24.345016384916665
tp280
sg75
(lp281
sg14
g1
sg77
g9
((ltRp282
sg79
g9
((lp283
(imodel.Bond
Bond
p284
(dp285
g14
g1
sg83
g84
sg25
g26
sg18
g9
((lp286
g170
ag20
atRp287
sbag274
a(imodel.Bond
Bond
p288
(dp289
g14
g1
sg83
g84
sg25
g26
sg18
g9
((lp290
g162
ag170
atRp291
sbag256
atRp292
sg38
I00
sba(imodel.VarAtom
VarAtom
p293
(dp294
g3
S'HG2'
p295
sg22
I00
sg23
Nsg24
(imodel.Atom
Atom
p296
(dp297
g3
g295
sg14
g1
sg15
I1
sg16
S'H'
sg17
I00
sg18
g9
((lp298
g293
atRp299
sg38
I00
sbsg25
g26
sg39
g9
((lp300
g162
atRp301
sg16
S'H'
sg72
I0
sg17
I00
sg73
(F49.343543310516651
F399.49183958156533
F66.776227941791916
tp302
sg75
(lp303
sg14
g1
sg77
g9
((ltRp304
sg79
g9
((lp305
(imodel.Bond
Bond
p306
(dp307
g14
g1
sg83
g84
sg25
g26
sg18
g9
((lp308
g162
ag293
atRp309
sbatRp310
sg38
I00
sbag41
a(imodel.VarAtom
VarAtom
p311
(dp312
g3
S'HG1'
p313
sg22
I00
sg23
Nsg24
(imodel.Atom
Atom
p314
(dp315
g3
g313
sg14
g1
sg15
I1
sg16
S'H'
sg17
I00
sg18
g9
((lp316
g311
atRp317
sg38
I00
sbsg25
g26
sg39
g9
((lp318
g162
atRp319
sg16
S'H'
sg72
I0
sg17
I00
sg73
(F57.897517297014019
F356.75878159130031
F8.3255205227793052
tp320
sg75
(lp321
sg14
g1
sg77
g9
((ltRp322
sg79
g9
((lp323
(imodel.Bond
Bond
p324
(dp325
g14
g1
sg83
g84
sg25
g26
sg18
g9
((lp326
g162
ag311
atRp327
sbatRp328
sg38
I00
sbatRp329
sg16
S'C'
sg72
I0
sg17
I00
sg73
(F22.573322396469173
F371.89555425938346
F15.32147284512849
tp330
sg75
(lp331
sg14
g1
sg77
g9
((ltRp332
sg79
g9
((lp333
g306
ag324
ag288
a(imodel.Bond
Bond
p334
(dp335
g14
g1
sg83
g84
sg25
g26
sg18
g9
((lp336
g162
ag41
atRp337
sbatRp338
sg38
I00
sbag31
a(imodel.VarAtom
VarAtom
p339
(dp340
g3
S'HB3'
p341
sg22
I00
sg23
Nsg24
(imodel.Atom
Atom
p342
(dp343
g3
g341
sg14
g1
sg15
I1
sg16
S'H'
sg17
I00
sg18
g9
((lp344
g339
atRp345
sg38
I00
sbsg25
g26
sg39
g9
((lp346
g41
atRp347
sg16
S'H'
sg72
I0
sg17
I00
sg73
(F-46.707106442973753
F434.47165148029791
F-68.047465528258968
tp348
sg75
(lp349
sg14
g1
sg77
g9
((ltRp350
sg79
g9
((lp351
(imodel.Bond
Bond
p352
(dp353
g14
g1
sg83
g84
sg25
g26
sg18
g9
((lp354
g339
ag41
atRp355
sbatRp356
sg38
I00
sbatRp357
sg16
S'C'
sg72
I0
sg17
I00
sg73
(F-12.08103873670575
F417.58779860608149
F-15.231425675134094
tp358
sg75
(lp359
sg14
g1
sg77
g9
((ltRp360
sg79
g9
((lp361
(imodel.Bond
Bond
p362
(dp363
g14
g1
sg83
g84
sg25
g26
sg18
g9
((lp364
g31
ag41
atRp365
sbag352
ag157
ag334
atRp366
sg38
I00
sbatRp367
sg16
S'H'
sg72
I0
sg17
I00
sg73
(F-38.675482131624619
F389.66762302925451
F-9.8031112645125038
tp368
sg75
(lp369
sg14
g1
sg77
g9
((ltRp370
sg79
g9
((lp371
g362
atRp372
sg38
I00
sbag205
ag261
ag224
ag98
ag311
ag293
ag64
ag339
ag20
ag186
atRp373
sS'C'
g9
((lp374
g162
ag49
ag170
ag116
ag41
atRp375
sS'O'
g9
((lp376
g123
atRp377
sS'N'
g9
((lp378
g57
ag178
atRp379
ssg79
g9
((lp380
g306
ag157
ag81
ag352
ag93
ag256
ag274
ag111
ag147
ag219
ag324
ag334
ag136
ag238
ag288
ag284
ag362
ag246
atRp381
sg14
g1
sS'descriptor'
p382
(S'neutral'
p383
S'none'
p384
S'default'
p385
tp386
sS'atomDict'
p387
(dp388
g11
g20
sg342
g339
sg314
g311
sg66
g64
sg173
g170
sg126
g123
sg227
g224
sg44
g41
sg264
g261
sg52
g49
sg208
g205
sg101
g98
sg118
g116
sg189
g186
sg34
g31
sg165
g162
sg59
g57
sg296
g293
sg181
g178
ssg18
g9
((lp389
g41
ag311
ag123
ag162
ag224
ag261
ag31
ag186
ag170
ag57
ag178
ag64
ag20
ag116
ag205
ag293
ag49
ag98
ag339
atRp390
sg77
g9
((lp391
g198
atRp392
sS'polyLink'
p393
g384
sbsg39
g9
((lp394
g170
atRp395
sg16
S'H'
sg72
I0
sg17
I00
sg73
(F-10.048040412494817
F283.73931659840656
F-19.074192845170153
tp396
sg75
(lp397
sg14
g1
sg77
g9
((ltRp398
sg79
g9
((lp399
g284
atRp400
sg38
I00
sbatRp401
sg38
I00
sbag342
ag314
ag66
ag189
ag227
ag59
ag126
ag173
ag44
ag181
ag165
ag118
ag101
ag34
ag264
ag52
ag296
ag208
atRp402
sS'ccpMolType'
p403
S'protein'
p404
sS'details'
p405
V
sg387
(dp406
g125
g126
sg100
g101
sg188
g189
sg226
g227
sg207
g208
sg295
g296
sg180
g181
sg313
g314
sVH
g66
sS'C'
g118
sg43
g44
sg51
g52
sg164
g165
sS'N'
g59
sg172
g173
sg263
g264
sg13
g11
sg341
g342
sg33
g34
ssS'keywords'
p407
g9
((ltRp408
sg77
g9
((lp409
g198
atRp410
sS'variants'
p411
g9
((lp412
g26
atRp413
sS'defaultVars'
p414
g9
((ltRp415
sb.