(imodel.Compound
Compound
p1
(dp2
S'name'
p3
VPHENYLALANINE
p4
sS'isModified'
p5
I01
sS'ccpCode'
p6
VPhe
p7
sS'atoms'
p8
c__builtin__
set
p9
((lp10
(imodel.Atom
Atom
p11
(dp12
g3
S'HA'
p13
sS'compound'
p14
g1
sS'baseValences'
p15
I1
sS'element'
p16
S'H'
sS'isVariable'
p17
I00
sS'varAtoms'
p18
g9
((lp19
(imodel.VarAtom
VarAtom
p20
(dp21
g3
g13
sS'isLabile'
p22
I00
sS'chirality'
p23
NsS'atom'
p24
g11
sS'variant'
p25
(imodel.Variant
Variant
p26
(dp27
S'elementDict'
p28
(dp29
S'H'
g9
((lp30
(imodel.VarAtom
VarAtom
p31
(dp32
g3
S'HD1'
p33
sg22
I00
sg23
Nsg24
(imodel.Atom
Atom
p34
(dp35
g3
g33
sg14
g1
sg15
I1
sg16
S'H'
sg17
I00
sg18
g9
((lp36
g31
atRp37
sS'isDeleted'
p38
I00
sbsg25
g26
sS'neighbours'
p39
g9
((lp40
(imodel.VarAtom
VarAtom
p41
(dp42
g3
S'CD1'
p43
sg22
I00
sg23
Nsg24
(imodel.Atom
Atom
p44
(dp45
g3
g43
sg14
g1
sg15
I4
sg16
S'C'
sg17
I00
sg18
g9
((lp46
g41
atRp47
sg38
I00
sbsg25
g26
sg39
g9
((lp48
(imodel.VarAtom
VarAtom
p49
(dp50
g3
S'CG'
p51
sg22
I00
sg23
Nsg24
(imodel.Atom
Atom
p52
(dp53
g3
g51
sg14
g1
sg15
I4
sg16
S'C'
sg17
I00
sg18
g9
((lp54
g49
atRp55
sg38
I00
sbsg25
g26
sg39
g9
((lp56
g41
a(imodel.VarAtom
VarAtom
p57
(dp58
g3
S'CD2'
p59
sg22
I00
sg23
Nsg24
(imodel.Atom
Atom
p60
(dp61
g3
g59
sg14
g1
sg15
I4
sg16
S'C'
sg17
I00
sg18
g9
((lp62
g57
atRp63
sg38
I00
sbsg25
g26
sg39
g9
((lp64
g49
a(imodel.VarAtom
VarAtom
p65
(dp66
g3
S'HD2'
p67
sg22
I00
sg23
Nsg24
(imodel.Atom
Atom
p68
(dp69
g3
g67
sg14
g1
sg15
I1
sg16
S'H'
sg17
I00
sg18
g9
((lp70
g65
atRp71
sg38
I00
sbsg25
g26
sg39
g9
((lp72
g57
atRp73
sg16
S'H'
sS'charge'
p74
I0
sg17
I00
sS'coords'
p75
(F312.46273923931017
F303.95997192650918
F-121.68902979311534
tp76
sS'freeValences'
p77
(lp78
sg14
g1
sS'atomGroups'
p79
g9
((ltRp80
sS'bonds'
p81
g9
((lp82
(imodel.Bond
Bond
p83
(dp84
g14
g1
sS'bondType'
p85
S'single'
p86
sg25
g26
sg18
g9
((lp87
g65
ag57
atRp88
sbatRp89
sg38
I00
sba(imodel.VarAtom
VarAtom
p90
(dp91
g3
S'CE2'
p92
sg22
I00
sg23
Nsg24
(imodel.Atom
Atom
p93
(dp94
g3
g92
sg14
g1
sg15
I4
sg16
S'C'
sg17
I00
sg18
g9
((lp95
g90
atRp96
sg38
I00
sbsg25
g26
sg39
g9
((lp97
g57
a(imodel.VarAtom
VarAtom
p98
(dp99
g3
S'HE2'
p100
sg22
I00
sg23
Nsg24
(imodel.Atom
Atom
p101
(dp102
g3
g100
sg14
g1
sg15
I1
sg16
S'H'
sg17
I00
sg18
g9
((lp103
g98
atRp104
sg38
I00
sbsg25
g26
sg39
g9
((lp105
g90
atRp106
sg16
S'H'
sg74
I0
sg17
I00
sg75
(F341.14003072862278
F222.60957910226176
F-143.71344690203028
tp107
sg77
(lp108
sg14
g1
sg79
g9
((ltRp109
sg81
g9
((lp110
(imodel.Bond
Bond
p111
(dp112
g14
g1
sg85
g86
sg25
g26
sg18
g9
((lp113
g90
ag98
atRp114
sbatRp115
sg38
I00
sba(imodel.VarAtom
VarAtom
p116
(dp117
g3
S'CZ'
p118
sg22
I00
sg23
Nsg24
(imodel.Atom
Atom
p119
(dp120
g3
g118
sg14
g1
sg15
I4
sg16
S'C'
sg17
I00
sg18
g9
((lp121
g116
atRp122
sg38
I00
sbsg25
g26
sg39
g9
((lp123
(imodel.VarAtom
VarAtom
p124
(dp125
g3
S'HZ'
p126
sg22
I00
sg23
Nsg24
(imodel.Atom
Atom
p127
(dp128
g3
g126
sg14
g1
sg15
I1
sg16
S'H'
sg17
I00
sg18
g9
((lp129
g124
atRp130
sg38
I00
sbsg25
g26
sg39
g9
((lp131
g116
atRp132
sg16
S'H'
sg74
I0
sg17
I00
sg75
(F431.12172657018459
F206.76432351731049
F-48.128890165892244
tp133
sg77
(lp134
sg14
g1
sg79
g9
((ltRp135
sg81
g9
((lp136
(imodel.Bond
Bond
p137
(dp138
g14
g1
sg85
g86
sg25
g26
sg18
g9
((lp139
g116
ag124
atRp140
sbatRp141
sg38
I00
sbag90
a(imodel.VarAtom
VarAtom
p142
(dp143
g3
S'CE1'
p144
sg22
I00
sg23
Nsg24
(imodel.Atom
Atom
p145
(dp146
g3
g144
sg14
g1
sg15
I4
sg16
S'C'
sg17
I00
sg18
g9
((lp147
g142
atRp148
sg38
I00
sbsg25
g26
sg39
g9
((lp149
g116
a(imodel.VarAtom
VarAtom
p150
(dp151
g3
S'HE1'
p152
sg22
I00
sg23
Nsg24
(imodel.Atom
Atom
p153
(dp154
g3
g152
sg14
g1
sg15
I1
sg16
S'H'
sg17
I00
sg18
g9
((lp155
g150
atRp156
sg38
I00
sbsg25
g26
sg39
g9
((lp157
g142
atRp158
sg16
S'H'
sg74
I0
sg17
I00
sg75
(F485.33039021836487
F274.34120624572654
F69.74499331938523
tp159
sg77
(lp160
sg14
g1
sg79
g9
((ltRp161
sg81
g9
((lp162
(imodel.Bond
Bond
p163
(dp164
g14
g1
sg85
g86
sg25
g26
sg18
g9
((lp165
g142
ag150
atRp166
sbatRp167
sg38
I00
sbag41
atRp168
sg16
S'C'
sg74
I0
sg17
I00
sg75
(F448.03481240435508
F278.32925108749498
F26.623350567770419
tp169
sg77
(lp170
sg14
g1
sg79
g9
((lp171
(imodel.AtomGroup
AtomGroup
p172
(dp173
S'groupType'
p174
S'equivalent'
p175
sS'subGroups'
p176
g9
((ltRp177
sg18
g9
((lp178
g90
ag142
atRp179
sg25
g26
sg14
g1
sba(imodel.AtomGroup
AtomGroup
p180
(dp181
g174
S'aromatic'
p182
sg176
g9
((ltRp183
sg18
g9
((lp184
g41
ag142
ag90
ag49
ag57
ag116
atRp185
sg25
g26
sg14
g1
sbatRp186
sg81
g9
((lp187
(imodel.Bond
Bond
p188
(dp189
g14
g1
sg85
g182
sg25
g26
sg18
g9
((lp190
g116
ag142
atRp191
sbag163
a(imodel.Bond
Bond
p192
(dp193
g14
g1
sg85
g182
sg25
g26
sg18
g9
((lp194
g142
ag41
atRp195
sbatRp196
sg38
I00
sbatRp197
sg16
S'C'
sg74
I0
sg17
I00
sg75
(F414.40423611907556
F241.13986263360954
F-38.671438845323514
tp198
sg77
(lp199
sg14
g1
sg79
g9
((lp200
g180
atRp201
sg81
g9
((lp202
g137
ag188
a(imodel.Bond
Bond
p203
(dp204
g14
g1
sg85
g182
sg25
g26
sg18
g9
((lp205
g116
ag90
atRp206
sbatRp207
sg38
I00
sbatRp208
sg16
S'C'
sg74
I0
sg17
I00
sg75
(F365.44638628903971
F252.10140950769608
F-91.426541557785555
tp209
sg77
(lp210
sg14
g1
sg79
g9
((lp211
g172
ag180
atRp212
sg81
g9
((lp213
(imodel.Bond
Bond
p214
(dp215
g14
g1
sg85
g182
sg25
g26
sg18
g9
((lp216
g57
ag90
atRp217
sbag203
ag111
atRp218
sg38
I00
sbatRp219
sg16
S'C'
sg74
I0
sg17
I00
sg75
(F350.34341928157386
F299.70824681076687
F-79.855499760212865
tp220
sg77
(lp221
sg14
g1
sg79
g9
((lp222
(imodel.AtomGroup
AtomGroup
p223
(dp224
g174
g175
sg176
g9
((ltRp225
sg18
g9
((lp226
g57
ag41
atRp227
sg25
g26
sg14
g1
sbag180
atRp228
sg81
g9
((lp229
(imodel.Bond
Bond
p230
(dp231
g14
g1
sg85
g182
sg25
g26
sg18
g9
((lp232
g49
ag57
atRp233
sbag83
ag214
atRp234
sg38
I00
sba(imodel.VarAtom
VarAtom
p235
(dp236
g3
S'CB'
p237
sg22
I00
sg23
Nsg24
(imodel.Atom
Atom
p238
(dp239
g3
g237
sg14
g1
sg15
I4
sg16
S'C'
sg17
I00
sg18
g9
((lp240
g235
atRp241
sg38
I00
sbsg25
g26
sg39
g9
((lp242
(imodel.VarAtom
VarAtom
p243
(dp244
g3
S'HB2'
p245
sg22
I00
sg23
Nsg24
(imodel.Atom
Atom
p246
(dp247
g3
g245
sg14
g1
sg15
I1
sg16
S'H'
sg17
I00
sg18
g9
((lp248
g243
atRp249
sg38
I00
sbsg25
g26
sg39
g9
((lp250
g235
atRp251
sg16
S'H'
sg74
I0
sg17
I00
sg75
(F410.78519004666242
F388.35525709239084
F11.753771363444883
tp252
sg77
(lp253
sg14
g1
sg79
g9
((ltRp254
sg81
g9
((lp255
(imodel.Bond
Bond
p256
(dp257
g14
g1
sg85
g86
sg25
g26
sg18
g9
((lp258
g243
ag235
atRp259
sbatRp260
sg38
I00
sba(imodel.VarAtom
VarAtom
p261
(dp262
g3
S'HB3'
p263
sg22
I00
sg23
Nsg24
(imodel.Atom
Atom
p264
(dp265
g3
g263
sg14
g1
sg15
I1
sg16
S'H'
sg17
I00
sg18
g9
((lp266
g261
atRp267
sg38
I00
sbsg25
g26
sg39
g9
((lp268
g235
atRp269
sg16
S'H'
sg74
I0
sg17
I00
sg75
(F335.50431249348878
F384.16886435196466
F-49.558549318939328
tp270
sg77
(lp271
sg14
g1
sg79
g9
((ltRp272
sg81
g9
((lp273
(imodel.Bond
Bond
p274
(dp275
g14
g1
sg85
g86
sg25
g26
sg18
g9
((lp276
g261
ag235
atRp277
sbatRp278
sg38
I00
sbag49
a(imodel.VarAtom
VarAtom
p279
(dp280
g3
S'CA'
p281
sg22
I00
sg23
S'S'
sg24
(imodel.Atom
Atom
p282
(dp283
g3
g281
sg14
g1
sg15
I4
sg16
S'C'
sg17
I00
sg18
g9
((lp284
g279
atRp285
sg38
I00
sbsg25
g26
sg39
g9
((lp286
(imodel.VarAtom
VarAtom
p287
(dp288
g3
S'C'
sg22
I00
sg23
Nsg24
(imodel.Atom
Atom
p289
(dp290
g3
S'C'
sg14
g1
sg15
I4
sg16
S'C'
sg17
I00
sg18
g9
((lp291
g287
atRp292
sg38
I00
sbsg25
g26
sg39
g9
((lp293
g279
a(imodel.VarAtom
VarAtom
p294
(dp295
g3
S"O'"
p296
sg22
I00
sg23
Nsg24
(imodel.Atom
Atom
p297
(dp298
g3
g296
sg14
g1
sg15
I2
sg16
S'O'
sg17
I00
sg18
g9
((lp299
g294
atRp300
sg38
I00
sbsg25
g26
sg39
g9
((lp301
g287
atRp302
sg16
S'O'
sg74
I0
sg17
I00
sg75
(F293.09305082222045
F445.31185315880947
F-34.070411512997353
tp303
sg77
(lp304
sg14
g1
sg79
g9
((ltRp305
sg81
g9
((lp306
(imodel.Bond
Bond
p307
(dp308
g14
g1
sg85
S'double'
p309
sg25
g26
sg18
g9
((lp310
g287
ag294
atRp311
sbatRp312
sg38
I00
sbatRp313
sg16
S'C'
sg74
I0
sg17
I00
sg75
(F334.54514294425582
F460.51670517860873
F26.818437755578607
tp314
sg77
(lp315
F6.2601900122820728
asg14
g1
sg79
g9
((ltRp316
sg81
g9
((lp317
(imodel.Bond
Bond
p318
(dp319
g14
g1
sg85
g86
sg25
g26
sg18
g9
((lp320
g279
ag287
atRp321
sbag307
atRp322
sg38
I00
sbag20
ag235
a(imodel.VarAtom
VarAtom
p323
(dp324
g3
S'N'
sg22
I00
sg23
Nsg24
(imodel.Atom
Atom
p325
(dp326
g3
S'N'
sg14
g1
sg15
I3
sg16
S'N'
sg17
I00
sg18
g9
((lp327
g323
atRp328
sg38
I00
sbsg25
g26
sg39
g9
((lp329
g279
a(imodel.VarAtom
VarAtom
p330
(dp331
g3
VH
sg22
I00
sg23
Nsg24
(imodel.Atom
Atom
p332
(dp333
g3
VH
sg14
g1
sg15
I1
sg16
S'H'
sg17
I00
sg18
g9
((lp334
g330
atRp335
sg38
I00
sbsg25
g26
sg39
g9
((lp336
g323
atRp337
sg16
S'H'
sg74
I0
sg17
I00
sg75
(F456.72091248331554
F427.62987511964769
F25.346910828081079
tp338
sg77
(lp339
sg14
g1
sg79
g9
((ltRp340
sg81
g9
((lp341
(imodel.Bond
Bond
p342
(dp343
g14
g1
sg85
g86
sg25
g26
sg18
g9
((lp344
g323
ag330
atRp345
sbatRp346
sg38
I00
sbatRp347
sg16
S'N'
sg74
I0
sg17
I00
sg75
(F440.02304929902516
F462.32735484784041
F65.219622980727877
tp348
sg77
(lp349
F0.41180587163234073
asg14
g1
sg79
g9
((ltRp350
sg81
g9
((lp351
(imodel.Bond
Bond
p352
(dp353
g14
g1
sg85
g86
sg25
g26
sg18
g9
((lp354
g323
ag279
atRp355
sbag342
atRp356
sg38
I00
sbatRp357
sg16
S'C'
sg74
I0
sg17
I00
sg75
(F383.73685288571539
F444.9988364903918
F50.448288026083681
tp358
sg77
(lp359
sg14
g1
sg79
g9
((ltRp360
sg81
g9
((lp361
(imodel.Bond
Bond
p362
(dp363
g14
g1
sg85
g86
sg25
g26
sg18
g9
((lp364
g279
ag20
atRp365
sbag318
ag352
a(imodel.Bond
Bond
p366
(dp367
g14
g1
sg85
g86
sg25
g26
sg18
g9
((lp368
g279
ag235
atRp369
sbatRp370
sg38
I00
sbatRp371
sg16
S'C'
sg74
I0
sg17
I00
sg75
(F374.20800807161334
F388.11565902512621
F-1.8111152822800234
tp372
sg77
(lp373
sg14
g1
sg79
g9
((ltRp374
sg81
g9
((lp375
g256
a(imodel.Bond
Bond
p376
(dp377
g14
g1
sg85
g86
sg25
g26
sg18
g9
((lp378
g49
ag235
atRp379
sbag366
ag274
atRp380
sg38
I00
sbatRp381
sg16
S'C'
sg74
I0
sg17
I00
sg75
(F383.94768670874646
F337.10086659906023
F-14.540157369994166
tp382
sg77
(lp383
sg14
g1
sg79
g9
((lp384
g180
atRp385
sg81
g9
((lp386
(imodel.Bond
Bond
p387
(dp388
g14
g1
sg85
g182
sg25
g26
sg18
g9
((lp389
g49
ag41
atRp390
sbag230
ag376
atRp391
sg38
I00
sbag31
ag142
atRp392
sg16
S'C'
sg74
I0
sg17
I00
sg75
(F432.95936086952378
F325.8461447935623
F38.724003962673891
tp393
sg77
(lp394
sg14
g1
sg79
g9
((lp395
g223
ag180
atRp396
sg81
g9
((lp397
g387
a(imodel.Bond
Bond
p398
(dp399
g14
g1
sg85
g86
sg25
g26
sg18
g9
((lp400
g31
ag41
atRp401
sbag192
atRp402
sg38
I00
sbatRp403
sg16
S'H'
sg74
I0
sg17
I00
sg75
(F465.60287211393779
F345.42055713417972
F89.811893176901805
tp404
sg77
(lp405
sg14
g1
sg79
g9
((ltRp406
sg81
g9
((lp407
g398
atRp408
sg38
I00
sbag98
ag65
ag20
ag330
ag243
ag150
ag124
ag261
atRp409
sS'C'
g9
((lp410
g279
ag90
ag287
ag142
ag49
ag41
ag235
ag57
ag116
atRp411
sS'O'
g9
((lp412
g294
atRp413
sS'N'
g9
((lp414
g323
atRp415
ssg81
g9
((lp416
g352
ag188
ag214
ag163
ag203
ag192
ag342
ag137
ag387
ag111
ag376
ag307
ag318
ag83
ag256
ag362
ag398
ag366
ag274
ag230
atRp417
sg14
g1
sS'descriptor'
p418
(S'neutral'
p419
S'none'
p420
S'default'
p421
tp422
sS'atomDict'
p423
(dp424
g11
g20
sg153
g150
sg101
g98
sg93
g90
sg246
g243
sg44
g41
sg119
g116
sg289
g287
sg145
g142
sg297
g294
sg264
g261
sg68
g65
sg332
g330
sg127
g124
sg52
g49
sg238
g235
sg60
g57
sg282
g279
sg34
g31
sg325
g323
ssg18
g9
((lp425
g142
ag243
ag41
ag116
ag57
ag31
ag90
ag235
ag20
ag323
ag330
ag124
ag49
ag65
ag294
ag261
ag279
ag287
ag150
ag98
atRp426
sg79
g9
((lp427
g172
ag223
ag180
atRp428
sS'polyLink'
p429
g420
sbsg39
g9
((lp430
g279
atRp431
sg16
S'H'
sg74
I0
sg17
I00
sg75
(F381.73179462464452
F483.32365946909351
F97.131125222594079
tp432
sg77
(lp433
sg14
g1
sg79
g9
((ltRp434
sg81
g9
((lp435
g362
atRp436
sg38
I00
sbatRp437
sg38
I00
sbag289
ag153
ag101
ag93
ag246
ag44
ag119
ag145
ag297
ag264
ag68
ag332
ag127
ag52
ag282
ag60
ag238
ag34
ag325
atRp438
sS'ccpMolType'
p439
S'protein'
p440
sS'details'
p441
V
sg423
(dp442
g126
g127
sg296
g297
sg43
g44
sg59
g60
sg13
g11
sg152
g153
sg100
g101
sVH
g332
sS'C'
g289
sg237
g238
sg281
g282
sg51
g52
sS'N'
g325
sg118
g119
sg92
g93
sg144
g145
sg67
g68
sg33
g34
sg263
g264
sg245
g246
ssS'keywords'
p443
g9
((ltRp444
sg79
g9
((lp445
g172
ag180
ag223
atRp446
sS'variants'
p447
g9
((lp448
g26
atRp449
sS'defaultVars'
p450
g9
((ltRp451
sb.