(imodel.Compound
Compound
p1
(dp2
S'name'
p3
VPROLINE
p4
sS'isModified'
p5
I01
sS'ccpCode'
p6
VPro
p7
sS'atoms'
p8
c__builtin__
set
p9
((lp10
(imodel.Atom
Atom
p11
(dp12
g3
S'HD2'
p13
sS'compound'
p14
g1
sS'baseValences'
p15
I1
sS'element'
p16
S'H'
sS'isVariable'
p17
I00
sS'varAtoms'
p18
g9
((lp19
(imodel.VarAtom
VarAtom
p20
(dp21
g3
g13
sS'isLabile'
p22
I00
sS'chirality'
p23
NsS'atom'
p24
g11
sS'variant'
p25
(imodel.Variant
Variant
p26
(dp27
S'elementDict'
p28
(dp29
S'H'
g9
((lp30
(imodel.VarAtom
VarAtom
p31
(dp32
g3
S'HA'
p33
sg22
I00
sg23
Nsg24
(imodel.Atom
Atom
p34
(dp35
g3
g33
sg14
g1
sg15
I1
sg16
S'H'
sg17
I00
sg18
g9
((lp36
g31
atRp37
sS'isDeleted'
p38
I00
sbsg25
g26
sS'neighbours'
p39
g9
((lp40
(imodel.VarAtom
VarAtom
p41
(dp42
g3
S'CA'
p43
sg22
I00
sg23
S'S'
sg24
(imodel.Atom
Atom
p44
(dp45
g3
g43
sg14
g1
sg15
I4
sg16
S'C'
sg17
I00
sg18
g9
((lp46
g41
atRp47
sg38
I00
sbsg25
g26
sg39
g9
((lp48
(imodel.VarAtom
VarAtom
p49
(dp50
g3
S'N'
sg22
I00
sg23
Nsg24
(imodel.Atom
Atom
p51
(dp52
g3
S'N'
sg14
g1
sg15
I3
sg16
S'N'
sg17
I00
sg18
g9
((lp53
g49
atRp54
sg38
I00
sbsg25
g26
sg39
g9
((lp55
(imodel.VarAtom
VarAtom
p56
(dp57
g3
S'CD'
p58
sg22
I00
sg23
Nsg24
(imodel.Atom
Atom
p59
(dp60
g3
g58
sg14
g1
sg15
I4
sg16
S'C'
sg17
I00
sg18
g9
((lp61
g56
atRp62
sg38
I00
sbsg25
g26
sg39
g9
((lp63
g20
a(imodel.VarAtom
VarAtom
p64
(dp65
g3
S'CG'
p66
sg22
I00
sg23
Nsg24
(imodel.Atom
Atom
p67
(dp68
g3
g66
sg14
g1
sg15
I4
sg16
S'C'
sg17
I00
sg18
g9
((lp69
g64
atRp70
sg38
I00
sbsg25
g26
sg39
g9
((lp71
(imodel.VarAtom
VarAtom
p72
(dp73
g3
S'HG3'
p74
sg22
I00
sg23
Nsg24
(imodel.Atom
Atom
p75
(dp76
g3
g74
sg14
g1
sg15
I1
sg16
S'H'
sg17
I00
sg18
g9
((lp77
g72
atRp78
sg38
I00
sbsg25
g26
sg39
g9
((lp79
g64
atRp80
sg16
S'H'
sS'charge'
p81
I0
sg17
I00
sS'coords'
p82
(F366.73604583464203
F224.77597390019363
F171.39574453250415
tp83
sS'freeValences'
p84
(lp85
sg14
g1
sS'atomGroups'
p86
g9
((ltRp87
sS'bonds'
p88
g9
((lp89
(imodel.Bond
Bond
p90
(dp91
g14
g1
sS'bondType'
p92
S'single'
p93
sg25
g26
sg18
g9
((lp94
g64
ag72
atRp95
sbatRp96
sg38
I00
sbag56
a(imodel.VarAtom
VarAtom
p97
(dp98
g3
S'CB'
p99
sg22
I00
sg23
Nsg24
(imodel.Atom
Atom
p100
(dp101
g3
g99
sg14
g1
sg15
I4
sg16
S'C'
sg17
I00
sg18
g9
((lp102
g97
atRp103
sg38
I00
sbsg25
g26
sg39
g9
((lp104
(imodel.VarAtom
VarAtom
p105
(dp106
g3
S'HB3'
p107
sg22
I00
sg23
Nsg24
(imodel.Atom
Atom
p108
(dp109
g3
g107
sg14
g1
sg15
I1
sg16
S'H'
sg17
I00
sg18
g9
((lp110
g105
atRp111
sg38
I00
sbsg25
g26
sg39
g9
((lp112
g97
atRp113
sg16
S'H'
sg81
I0
sg17
I00
sg82
(F268.35665092160838
F216.5126570705946
F148.22859428996424
tp114
sg84
(lp115
sg14
g1
sg86
g9
((ltRp116
sg88
g9
((lp117
(imodel.Bond
Bond
p118
(dp119
g14
g1
sg92
g93
sg25
g26
sg18
g9
((lp120
g105
ag97
atRp121
sbatRp122
sg38
I00
sbag64
ag41
a(imodel.VarAtom
VarAtom
p123
(dp124
g3
S'HB2'
p125
sg22
I00
sg23
Nsg24
(imodel.Atom
Atom
p126
(dp127
g3
g125
sg14
g1
sg15
I1
sg16
S'H'
sg17
I00
sg18
g9
((lp128
g123
atRp129
sg38
I00
sbsg25
g26
sg39
g9
((lp130
g97
atRp131
sg16
S'H'
sg81
I0
sg17
I00
sg82
(F238.5887369391107
F251.77706955442784
F147.86854046720111
tp132
sg84
(lp133
sg14
g1
sg86
g9
((ltRp134
sg88
g9
((lp135
(imodel.Bond
Bond
p136
(dp137
g14
g1
sg92
g93
sg25
g26
sg18
g9
((lp138
g123
ag97
atRp139
sbatRp140
sg38
I00
sbatRp141
sg16
S'C'
sg81
I0
sg17
I00
sg82
(F277.39627271053496
F254.19704013788058
F182.8427063680621
tp142
sg84
(lp143
sg14
g1
sg86
g9
((ltRp144
sg88
g9
((lp145
(imodel.Bond
Bond
p146
(dp147
g14
g1
sg92
g93
sg25
g26
sg18
g9
((lp148
g41
ag97
atRp149
sbag136
ag118
a(imodel.Bond
Bond
p150
(dp151
g14
g1
sg92
g93
sg25
g26
sg18
g9
((lp152
g64
ag97
atRp153
sbatRp154
sg38
I00
sba(imodel.VarAtom
VarAtom
p155
(dp156
g3
S'HG2'
p157
sg22
I00
sg23
Nsg24
(imodel.Atom
Atom
p158
(dp159
g3
g157
sg14
g1
sg15
I1
sg16
S'H'
sg17
I00
sg18
g9
((lp160
g155
atRp161
sg38
I00
sbsg25
g26
sg39
g9
((lp162
g64
atRp163
sg16
S'H'
sg81
I0
sg17
I00
sg82
(F325.22363273310833
F204.97446270316101
F206.43930648853797
tp164
sg84
(lp165
sg14
g1
sg86
g9
((ltRp166
sg88
g9
((lp167
(imodel.Bond
Bond
p168
(dp169
g14
g1
sg92
g93
sg25
g26
sg18
g9
((lp170
g155
ag64
atRp171
sbatRp172
sg38
I00
sbatRp173
sg16
S'C'
sg81
I0
sg17
I00
sg82
(F332.30011091669132
F243.06538676543681
F207.50447962449621
tp174
sg84
(lp175
sg14
g1
sg86
g9
((ltRp176
sg88
g9
((lp177
g90
a(imodel.Bond
Bond
p178
(dp179
g14
g1
sg92
g93
sg25
g26
sg18
g9
((lp180
g64
ag56
atRp181
sbag168
ag150
atRp182
sg38
I00
sba(imodel.VarAtom
VarAtom
p183
(dp184
g3
S'HD3'
p185
sg22
I00
sg23
Nsg24
(imodel.Atom
Atom
p186
(dp187
g3
g185
sg14
g1
sg15
I1
sg16
S'H'
sg17
I00
sg18
g9
((lp188
g183
atRp189
sg38
I00
sbsg25
g26
sg39
g9
((lp190
g56
atRp191
sg16
S'H'
sg81
I0
sg17
I00
sg82
(F399.03841138382217
F278.84040513091446
F278.30085076983255
tp192
sg84
(lp193
sg14
g1
sg86
g9
((ltRp194
sg88
g9
((lp195
(imodel.Bond
Bond
p196
(dp197
g14
g1
sg92
g93
sg25
g26
sg18
g9
((lp198
g56
ag183
atRp199
sbatRp200
sg38
I00
sbag49
atRp201
sg16
S'C'
sg81
I0
sg17
I00
sg82
(F361.04265334303352
F286.17738290368231
F275.951912188888
tp202
sg84
(lp203
sg14
g1
sg86
g9
((ltRp204
sg88
g9
((lp205
g196
a(imodel.Bond
Bond
p206
(dp207
g14
g1
sg92
g93
sg25
g26
sg18
g9
((lp208
g56
ag49
atRp209
sba(imodel.Bond
Bond
p210
(dp211
g14
g1
sg92
g93
sg25
g26
sg18
g9
((lp212
g20
ag56
atRp213
sbag178
atRp214
sg38
I00
sbag41
atRp215
sg16
S'N'
sg81
I0
sg17
I00
sg82
(F316.922639789036
F310.61780705689603
F295.45747718035608
tp216
sg84
(lp217
F0.19546530513198501
asg14
g1
sg86
g9
((ltRp218
sg88
g9
((lp219
g206
a(imodel.Bond
Bond
p220
(dp221
g14
g1
sg92
g93
sg25
g26
sg18
g9
((lp222
g41
ag49
atRp223
sbatRp224
sg38
I00
sbag97
ag31
a(imodel.VarAtom
VarAtom
p225
(dp226
g3
S'C'
sg22
I00
sg23
Nsg24
(imodel.Atom
Atom
p227
(dp228
g3
S'C'
sg14
g1
sg15
I4
sg16
S'C'
sg17
I00
sg18
g9
((lp229
g225
atRp230
sg38
I00
sbsg25
g26
sg39
g9
((lp231
g41
a(imodel.VarAtom
VarAtom
p232
(dp233
g3
S"O'"
p234
sg22
I00
sg23
Nsg24
(imodel.Atom
Atom
p235
(dp236
g3
g234
sg14
g1
sg15
I2
sg16
S'O'
sg17
I00
sg18
g9
((lp237
g232
atRp238
sg38
I00
sbsg25
g26
sg39
g9
((lp239
g225
atRp240
sg16
S'O'
sg81
I0
sg17
I00
sg82
(F179.19193799551101
F289.12455078891435
F266.41019488775225
tp241
sg84
(lp242
sg14
g1
sg86
g9
((ltRp243
sg88
g9
((lp244
(imodel.Bond
Bond
p245
(dp246
g14
g1
sg92
S'double'
p247
sg25
g26
sg18
g9
((lp248
g225
ag232
atRp249
sbatRp250
sg38
I00
sbatRp251
sg16
S'C'
sg81
I0
sg17
I00
sg82
(F217.67580345677027
F318.3919754327278
F272.69591903964846
tp252
sg84
(lp253
F6.0925702709570118
asg14
g1
sg86
g9
((ltRp254
sg88
g9
((lp255
(imodel.Bond
Bond
p256
(dp257
g14
g1
sg92
g93
sg25
g26
sg18
g9
((lp258
g41
ag225
atRp259
sbag245
atRp260
sg38
I00
sbatRp261
sg16
S'C'
sg81
I0
sg17
I00
sg82
(F266.85146660815462
F304.8370132646204
F246.7747591395993
tp262
sg84
(lp263
sg14
g1
sg86
g9
((ltRp264
sg88
g9
((lp265
g146
ag256
ag220
a(imodel.Bond
Bond
p266
(dp267
g14
g1
sg92
g93
sg25
g26
sg18
g9
((lp268
g41
ag31
atRp269
sbatRp270
sg38
I00
sbatRp271
sg16
S'H'
sg81
I0
sg17
I00
sg82
(F271.74282270336158
F343.06508575366132
F239.61764584337772
tp272
sg84
(lp273
sg14
g1
sg86
g9
((ltRp274
sg88
g9
((lp275
g266
atRp276
sg38
I00
sbag105
ag183
ag72
ag155
ag20
ag123
atRp277
sS'C'
g9
((lp278
g97
ag56
ag64
ag225
ag41
atRp279
sS'O'
g9
((lp280
g232
atRp281
sS'N'
g9
((lp282
g49
atRp283
ssg88
g9
((lp284
g150
ag210
ag118
ag196
ag146
ag256
ag220
ag206
ag178
ag136
ag168
ag245
ag90
ag266
atRp285
sg14
g1
sS'descriptor'
p286
(S'neutral'
p287
S'none'
p288
S'default'
p289
tp290
sS'atomDict'
p291
(dp292
g126
g123
sg44
g41
sg227
g225
sg59
g56
sg108
g105
sg75
g72
sg67
g64
sg235
g232
sg100
g97
sg11
g20
sg34
g31
sg51
g49
sg158
g155
sg186
g183
ssg18
g9
((lp293
g232
ag41
ag97
ag64
ag31
ag72
ag155
ag183
ag225
ag56
ag123
ag20
ag105
ag49
atRp294
sg86
g9
((ltRp295
sS'polyLink'
p296
g288
sbsg39
g9
((lp297
g56
atRp298
sg16
S'H'
sg81
I0
sg17
I00
sg82
(F371.24196073904034
F323.5749328326097
F312.96872403492512
tp299
sg84
(lp300
sg14
g1
sg86
g9
((ltRp301
sg88
g9
((lp302
g210
atRp303
sg38
I00
sbatRp304
sg38
I00
sbag126
ag186
ag108
ag59
ag75
ag67
ag44
ag100
ag227
a(imodel.Atom
Atom
p305
(dp306
g3
S'H'
sg14
g1
sg15
I1
sg16
S'H'
sg17
I00
sg18
g9
((ltRp307
sg38
I00
sbag34
ag51
ag158
ag235
atRp308
sS'ccpMolType'
p309
S'protein'
p310
sS'details'
p311
V
sg291
(dp312
S'C'
g227
sg33
g34
sg185
g186
sg13
g11
sg234
g235
sg99
g100
sg43
g44
sg157
g158
sg74
g75
sS'N'
g51
sS'H'
g305
sg66
g67
sg58
g59
sg107
g108
sg125
g126
ssS'keywords'
p313
g9
((ltRp314
sg86
g9
((ltRp315
sS'variants'
p316
g9
((lp317
g26
atRp318
sS'defaultVars'
p319
g9
((ltRp320
sb.