(imodel.Compound
Compound
p1
(dp2
S'name'
p3
VO-PHOSPHOTYROSINE
p4
sS'isModified'
p5
I00
sS'ccpCode'
p6
VPtr
p7
sS'atoms'
p8
c__builtin__
set
p9
((lp10
(imodel.Atom
Atom
p11
(dp12
g3
S'CA'
p13
sS'compound'
p14
g1
sS'baseValences'
p15
I4
sS'element'
p16
S'C'
sS'isVariable'
p17
I00
sS'varAtoms'
p18
g9
((lp19
(imodel.VarAtom
VarAtom
p20
(dp21
g3
g13
sS'isLabile'
p22
I00
sS'chirality'
p23
S'S'
sS'atom'
p24
g11
sS'variant'
p25
(imodel.Variant
Variant
p26
(dp27
S'elementDict'
p28
(dp29
S'H'
g9
((lp30
(imodel.VarAtom
VarAtom
p31
(dp32
g3
S'HA'
p33
sg22
I00
sg23
Nsg24
(imodel.Atom
Atom
p34
(dp35
g3
g33
sg14
g1
sg15
I1
sg16
S'H'
sg17
I00
sg18
g9
((lp36
g31
atRp37
sS'isDeleted'
p38
I00
sbsg25
g26
sS'neighbours'
p39
g9
((lp40
g20
atRp41
sg16
S'H'
sS'charge'
p42
I0
sg17
I00
sS'coords'
p43
(F217.36905174936157
F362.46657449637405
F144.48959897438678
tp44
sS'freeValences'
p45
(lp46
sg14
g1
sS'atomGroups'
p47
g9
((ltRp48
sS'bonds'
p49
g9
((lp50
(imodel.Bond
Bond
p51
(dp52
g14
g1
sS'bondType'
p53
S'single'
p54
sg25
g26
sg18
g9
((lp55
g31
ag20
atRp56
sbatRp57
sg38
I00
sba(imodel.VarAtom
VarAtom
p58
(dp59
g3
S'HE1'
p60
sg22
I00
sg23
Nsg24
(imodel.Atom
Atom
p61
(dp62
g3
g60
sg14
g1
sg15
I1
sg16
S'H'
sg17
I00
sg18
g9
((lp63
g58
atRp64
sg38
I00
sbsg25
g26
sg39
g9
((lp65
(imodel.VarAtom
VarAtom
p66
(dp67
g3
S'CE1'
p68
sg22
I00
sg23
Nsg24
(imodel.Atom
Atom
p69
(dp70
g3
g68
sg14
g1
sg15
I4
sg16
S'C'
sg17
I00
sg18
g9
((lp71
g66
atRp72
sg38
I00
sbsg25
g26
sg39
g9
((lp73
(imodel.VarAtom
VarAtom
p74
(dp75
g3
S'CD1'
p76
sg22
I00
sg23
Nsg24
(imodel.Atom
Atom
p77
(dp78
g3
g76
sg14
g1
sg15
I4
sg16
S'C'
sg17
I00
sg18
g9
((lp79
g74
atRp80
sg38
I00
sbsg25
g26
sg39
g9
((lp81
g66
a(imodel.VarAtom
VarAtom
p82
(dp83
g3
S'HD1'
p84
sg22
I00
sg23
Nsg24
(imodel.Atom
Atom
p85
(dp86
g3
g84
sg14
g1
sg15
I1
sg16
S'H'
sg17
I00
sg18
g9
((lp87
g82
atRp88
sg38
I00
sbsg25
g26
sg39
g9
((lp89
g74
atRp90
sg16
S'H'
sg42
I0
sg17
I00
sg43
(F219.77426166200621
F255.51967089819345
F28.291441354268105
tp91
sg45
(lp92
sg14
g1
sg47
g9
((ltRp93
sg49
g9
((lp94
(imodel.Bond
Bond
p95
(dp96
g14
g1
sg53
g54
sg25
g26
sg18
g9
((lp97
g74
ag82
atRp98
sbatRp99
sg38
I00
sba(imodel.VarAtom
VarAtom
p100
(dp101
g3
S'CG'
p102
sg22
I00
sg23
Nsg24
(imodel.Atom
Atom
p103
(dp104
g3
g102
sg14
g1
sg15
I4
sg16
S'C'
sg17
I00
sg18
g9
((lp105
g100
atRp106
sg38
I00
sbsg25
g26
sg39
g9
((lp107
(imodel.VarAtom
VarAtom
p108
(dp109
g3
S'CB'
p110
sg22
I00
sg23
Nsg24
(imodel.Atom
Atom
p111
(dp112
g3
g110
sg14
g1
sg15
I4
sg16
S'C'
sg17
I00
sg18
g9
((lp113
g108
atRp114
sg38
I00
sbsg25
g26
sg39
g9
((lp115
(imodel.VarAtom
VarAtom
p116
(dp117
g3
S'HB3'
p118
sg22
I00
sg23
Nsg24
(imodel.Atom
Atom
p119
(dp120
g3
g118
sg14
g1
sg15
I1
sg16
S'H'
sg17
I00
sg18
g9
((lp121
g116
atRp122
sg38
I00
sbsg25
g26
sg39
g9
((lp123
g108
atRp124
sg16
S'H'
sg42
I0
sg17
I00
sg43
(F311.18827294488688
F345.22037295575342
F112.50307928508087
tp125
sg45
(lp126
sg14
g1
sg47
g9
((ltRp127
sg49
g9
((lp128
(imodel.Bond
Bond
p129
(dp130
g14
g1
sg53
g54
sg25
g26
sg18
g9
((lp131
g116
ag108
atRp132
sbatRp133
sg38
I00
sba(imodel.VarAtom
VarAtom
p134
(dp135
g3
S'HB2'
p136
sg22
I00
sg23
Nsg24
(imodel.Atom
Atom
p137
(dp138
g3
g136
sg14
g1
sg15
I1
sg16
S'H'
sg17
I00
sg18
g9
((lp139
g134
atRp140
sg38
I00
sbsg25
g26
sg39
g9
((lp141
g108
atRp142
sg16
S'H'
sg42
I0
sg17
I00
sg43
(F241.66627376511769
F316.30867189147216
F113.28472790292226
tp143
sg45
(lp144
sg14
g1
sg47
g9
((ltRp145
sg49
g9
((lp146
(imodel.Bond
Bond
p147
(dp148
g14
g1
sg53
g54
sg25
g26
sg18
g9
((lp149
g108
ag134
atRp150
sbatRp151
sg38
I00
sbag20
ag100
atRp152
sg16
S'C'
sg42
I0
sg17
I00
sg43
(F274.89477949006641
F335.51482358594035
F104.5576384767358
tp153
sg45
(lp154
sg14
g1
sg47
g9
((ltRp155
sg49
g9
((lp156
(imodel.Bond
Bond
p157
(dp158
g14
g1
sg53
g54
sg25
g26
sg18
g9
((lp159
g100
ag108
atRp160
sba(imodel.Bond
Bond
p161
(dp162
g14
g1
sg53
g54
sg25
g26
sg18
g9
((lp163
g108
ag20
atRp164
sbag129
ag147
atRp165
sg38
I00
sbag74
a(imodel.VarAtom
VarAtom
p166
(dp167
g3
S'CD2'
p168
sg22
I00
sg23
Nsg24
(imodel.Atom
Atom
p169
(dp170
g3
g168
sg14
g1
sg15
I4
sg16
S'C'
sg17
I00
sg18
g9
((lp171
g166
atRp172
sg38
I00
sbsg25
g26
sg39
g9
((lp173
g100
a(imodel.VarAtom
VarAtom
p174
(dp175
g3
S'HD2'
p176
sg22
I00
sg23
Nsg24
(imodel.Atom
Atom
p177
(dp178
g3
g176
sg14
g1
sg15
I1
sg16
S'H'
sg17
I00
sg18
g9
((lp179
g174
atRp180
sg38
I00
sbsg25
g26
sg39
g9
((lp181
g166
atRp182
sg16
S'H'
sg42
I0
sg17
I00
sg43
(F375.05964518457176
F291.97973053274893
F25.571429173706655
tp183
sg45
(lp184
sg14
g1
sg47
g9
((ltRp185
sg49
g9
((lp186
(imodel.Bond
Bond
p187
(dp188
g14
g1
sg53
g54
sg25
g26
sg18
g9
((lp189
g166
ag174
atRp190
sbatRp191
sg38
I00
sba(imodel.VarAtom
VarAtom
p192
(dp193
g3
S'CE2'
p194
sg22
I00
sg23
Nsg24
(imodel.Atom
Atom
p195
(dp196
g3
g194
sg14
g1
sg15
I4
sg16
S'C'
sg17
I00
sg18
g9
((lp197
g192
atRp198
sg38
I00
sbsg25
g26
sg39
g9
((lp199
(imodel.VarAtom
VarAtom
p200
(dp201
g3
S'HE2'
p202
sg22
I00
sg23
Nsg24
(imodel.Atom
Atom
p203
(dp204
g3
g202
sg14
g1
sg15
I1
sg16
S'H'
sg17
I00
sg18
g9
((lp205
g200
atRp206
sg38
I00
sbsg25
g26
sg39
g9
((lp207
g192
atRp208
sg16
S'H'
sg42
I0
sg17
I00
sg43
(F386.30667501472931
F204.41847936554905
F-89.421938557922019
tp209
sg45
(lp210
sg14
g1
sg47
g9
((ltRp211
sg49
g9
((lp212
(imodel.Bond
Bond
p213
(dp214
g14
g1
sg53
g54
sg25
g26
sg18
g9
((lp215
g200
ag192
atRp216
sbatRp217
sg38
I00
sba(imodel.VarAtom
VarAtom
p218
(dp219
g3
S'CZ'
p220
sg22
I00
sg23
Nsg24
(imodel.Atom
Atom
p221
(dp222
g3
g220
sg14
g1
sg15
I4
sg16
S'C'
sg17
I00
sg18
g9
((lp223
g218
atRp224
sg38
I00
sbsg25
g26
sg39
g9
((lp225
(imodel.VarAtom
VarAtom
p226
(dp227
g3
S'OH'
p228
sg22
I00
sg23
Nsg24
(imodel.Atom
Atom
p229
(dp230
g3
g228
sg14
g1
sg15
I2
sg16
S'O'
sg17
I00
sg18
g9
((lp231
g226
atRp232
sg38
I00
sbsg25
g26
sg39
g9
((lp233
g218
a(imodel.VarAtom
VarAtom
p234
(dp235
g3
S'P'
sg22
I00
sg23
Nsg24
(imodel.Atom
Atom
p236
(dp237
g3
S'P'
sg14
g1
sg15
I5
sg16
S'P'
sg17
I00
sg18
g9
((lp238
g234
atRp239
sg38
I00
sbsg25
g26
sg39
g9
((lp240
g226
a(imodel.VarAtom
VarAtom
p241
(dp242
g3
S'O2P'
p243
sg22
I00
sg23
Nsg24
(imodel.Atom
Atom
p244
(dp245
g3
g243
sg14
g1
sg15
I2
sg16
S'O'
sg17
I00
sg18
g9
((lp246
g241
atRp247
sg38
I00
sbsg25
g26
sg39
g9
((lp248
(imodel.VarAtom
VarAtom
p249
(dp250
g3
S'HO2P'
p251
sg22
I01
sg23
Nsg24
(imodel.Atom
Atom
p252
(dp253
g3
g251
sg14
g1
sg15
I1
sg16
S'H'
sg17
I00
sg18
g9
((lp254
g249
atRp255
sg38
I00
sbsg25
g26
sg39
g9
((lp256
g241
atRp257
sg16
S'H'
sg42
I0
sg17
I00
sg43
(F182.65543140962188
F132.57852056054713
F-312.39044232929916
tp258
sg45
(lp259
sg14
g1
sg47
g9
((ltRp260
sg49
g9
((lp261
(imodel.Bond
Bond
p262
(dp263
g14
g1
sg53
g54
sg25
g26
sg18
g9
((lp264
g241
ag249
atRp265
sbatRp266
sg38
I00
sbag234
atRp267
sg16
S'O'
sg42
I0
sg17
I00
sg43
(F218.96628702346743
F121.40565278716656
F-285.65855365349216
tp268
sg45
(lp269
sg14
g1
sg47
g9
((ltRp270
sg49
g9
((lp271
g262
a(imodel.Bond
Bond
p272
(dp273
g14
g1
sg53
g54
sg25
g26
sg18
g9
((lp274
g241
ag234
atRp275
sbatRp276
sg38
I00
sba(imodel.VarAtom
VarAtom
p277
(dp278
g3
S'O1P'
p279
sg22
I00
sg23
Nsg24
(imodel.Atom
Atom
p280
(dp281
g3
g279
sg14
g1
sg15
I2
sg16
S'O'
sg17
I00
sg18
g9
((lp282
g277
atRp283
sg38
I00
sbsg25
g26
sg39
g9
((lp284
g234
atRp285
sg16
S'O'
sg42
I0
sg17
I00
sg43
(F237.32832021777176
F68.209777976739872
F-195.99911041609826
tp286
sg45
(lp287
sg14
g1
sg47
g9
((ltRp288
sg49
g9
((lp289
(imodel.Bond
Bond
p290
(dp291
g14
g1
sg53
S'double'
p292
sg25
g26
sg18
g9
((lp293
g234
ag277
atRp294
sbatRp295
sg38
I00
sba(imodel.VarAtom
VarAtom
p296
(dp297
g3
S'O3P'
p298
sg22
I00
sg23
Nsg24
(imodel.Atom
Atom
p299
(dp300
g3
g298
sg14
g1
sg15
I2
sg16
S'O'
sg17
I00
sg18
g9
((lp301
g296
atRp302
sg38
I00
sbsg25
g26
sg39
g9
((lp303
(imodel.VarAtom
VarAtom
p304
(dp305
g3
S'HO3P'
p306
sg22
I01
sg23
Nsg24
(imodel.Atom
Atom
p307
(dp308
g3
g306
sg14
g1
sg15
I1
sg16
S'H'
sg17
I00
sg18
g9
((lp309
g304
atRp310
sg38
I00
sbsg25
g26
sg39
g9
((lp311
g296
atRp312
sg16
S'H'
sg42
I0
sg17
I00
sg43
(F304.62438471113637
F24.993366847634945
F-202.07060856458381
tp313
sg45
(lp314
sg14
g1
sg47
g9
((ltRp315
sg49
g9
((lp316
(imodel.Bond
Bond
p317
(dp318
g14
g1
sg53
g54
sg25
g26
sg18
g9
((lp319
g304
ag296
atRp320
sbatRp321
sg38
I00
sbag234
atRp322
sg16
S'O'
sg42
I0
sg17
I00
sg43
(F297.77200940111607
F62.25498276214887
F-193.49030086952419
tp323
sg45
(lp324
sg14
g1
sg47
g9
((ltRp325
sg49
g9
((lp326
g317
a(imodel.Bond
Bond
p327
(dp328
g14
g1
sg53
g54
sg25
g26
sg18
g9
((lp329
g234
ag296
atRp330
sbatRp331
sg38
I00
sbatRp332
sg16
S'P'
sg42
I0
sg17
I00
sg43
(F266.01941196579207
F101.90057834108984
F-208.68989904649544
tp333
sg45
(lp334
sg14
g1
sg47
g9
((ltRp335
sg49
g9
((lp336
(imodel.Bond
Bond
p337
(dp338
g14
g1
sg53
g54
sg25
g26
sg18
g9
((lp339
g234
ag226
atRp340
sbag272
ag290
ag327
atRp341
sg38
I00
sbatRp342
sg16
S'O'
sg42
I0
sg17
I00
sg43
(F300.00085370249917
F140.05843204100842
F-159.3695911786659
tp343
sg45
(lp344
sg14
g1
sg47
g9
((ltRp345
sg49
g9
((lp346
(imodel.Bond
Bond
p347
(dp348
g14
g1
sg53
g54
sg25
g26
sg18
g9
((lp349
g226
ag218
atRp350
sbag337
atRp351
sg38
I00
sbag192
ag66
atRp352
sg16
S'C'
sg42
I0
sg17
I00
sg43
(F314.23566401103074
F188.95543807422126
F-96.946116720392723
tp353
sg45
(lp354
sg14
g1
sg47
g9
((lp355
(imodel.AtomGroup
AtomGroup
p356
(dp357
S'groupType'
p358
S'aromatic'
p359
sS'subGroups'
p360
g9
((ltRp361
sg18
g9
((lp362
g218
ag100
ag166
ag66
ag192
ag74
atRp363
sg25
g26
sg14
g1
sbatRp364
sg49
g9
((lp365
g347
a(imodel.Bond
Bond
p366
(dp367
g14
g1
sg53
g359
sg25
g26
sg18
g9
((lp368
g66
ag218
atRp369
sba(imodel.Bond
Bond
p370
(dp371
g14
g1
sg53
g359
sg25
g26
sg18
g9
((lp372
g192
ag218
atRp373
sbatRp374
sg38
I00
sbag166
atRp375
sg16
S'C'
sg42
I0
sg17
I00
sg43
(F351.89863712889144
F223.27616430205421
F-64.24724921036929
tp376
sg45
(lp377
sg14
g1
sg47
g9
((lp378
g356
a(imodel.AtomGroup
AtomGroup
p379
(dp380
S'groupType'
p381
S'equivalent'
p382
sS'subGroups'
p383
g9
((ltRp384
sS'varAtoms'
p385
g9
((lp386
g66
ag192
atRp387
sS'variant'
p388
g26
sS'compound'
p389
g1
sbatRp390
sg49
g9
((lp391
g213
a(imodel.Bond
Bond
p392
(dp393
g14
g1
sg53
g359
sg25
g26
sg18
g9
((lp394
g166
ag192
atRp395
sbag370
atRp396
sg38
I00
sbatRp397
sg16
S'C'
sg42
I0
sg17
I00
sg43
(F343.22553892351175
F270.86570591342593
F0.82211037279469212
tp398
sg45
(lp399
sg14
g1
sg47
g9
((lp400
g356
a(imodel.AtomGroup
AtomGroup
p401
(dp402
g381
g382
sg383
g9
((ltRp403
sg385
g9
((lp404
g74
ag166
atRp405
sg388
g26
sg389
g1
sbatRp406
sg49
g9
((lp407
(imodel.Bond
Bond
p408
(dp409
g14
g1
sg53
g359
sg25
g26
sg18
g9
((lp410
g166
ag100
atRp411
sbag392
ag187
atRp412
sg38
I00
sbatRp413
sg16
S'C'
sg42
I0
sg17
I00
sg43
(F295.90930640229942
F288.0754933416024
F32.987021841471972
tp414
sg45
(lp415
sg14
g1
sg47
g9
((lp416
g356
atRp417
sg49
g9
((lp418
g157
ag408
a(imodel.Bond
Bond
p419
(dp420
g14
g1
sg53
g359
sg25
g26
sg18
g9
((lp421
g100
ag74
atRp422
sbatRp423
sg38
I00
sbatRp424
sg16
S'C'
sg42
I0
sg17
I00
sg43
(F258.02409548551623
F255.03517252873689
F2.0505693110284864
tp425
sg45
(lp426
sg14
g1
sg47
g9
((lp427
g356
ag401
atRp428
sg49
g9
((lp429
(imodel.Bond
Bond
p430
(dp431
g14
g1
sg53
g359
sg25
g26
sg18
g9
((lp432
g74
ag66
atRp433
sbag419
ag95
atRp434
sg38
I00
sbag218
ag58
atRp435
sg16
S'C'
sg42
I0
sg17
I00
sg43
(F267.65438998612171
F208.19798835165534
F-62.373982695446692
tp436
sg45
(lp437
sg14
g1
sg47
g9
((lp438
g356
ag379
atRp439
sg49
g9
((lp440
g430
a(imodel.Bond
Bond
p441
(dp442
g14
g1
sg53
g54
sg25
g26
sg18
g9
((lp443
g66
ag58
atRp444
sbag366
atRp445
sg38
I00
sbatRp446
sg16
S'H'
sg42
I0
sg17
I00
sg43
(F232.91728410592327
F190.80236587613717
F-87.596598996614972
tp447
sg45
(lp448
sg14
g1
sg47
g9
((ltRp449
sg49
g9
((lp450
g441
atRp451
sg38
I00
sbag134
ag174
ag82
ag304
ag200
ag249
a(imodel.VarAtom
VarAtom
p452
(dp453
g3
VH
sg22
I00
sg23
Nsg24
(imodel.Atom
Atom
p454
(dp455
g3
VH
sg14
g1
sg15
I1
sg16
S'H'
sg17
I00
sg18
g9
((lp456
g452
atRp457
sg38
I00
sbsg25
g26
sg39
g9
((lp458
(imodel.VarAtom
VarAtom
p459
(dp460
g3
S'N'
sg22
I00
sg23
Nsg24
(imodel.Atom
Atom
p461
(dp462
g3
S'N'
sg14
g1
sg15
I3
sg16
S'N'
sg17
I00
sg18
g9
((lp463
g459
atRp464
sg38
I00
sbsg25
g26
sg39
g9
((lp465
g452
ag20
atRp466
sg16
S'N'
sg42
I0
sg17
I00
sg43
(F204.60043197747996
F420.74810261760592
F142.21737220321432
tp467
sg45
(lp468
F6.2241747969462367
asg14
g1
sg47
g9
((ltRp469
sg49
g9
((lp470
(imodel.Bond
Bond
p471
(dp472
g14
g1
sg53
g54
sg25
g26
sg18
g9
((lp473
g452
ag459
atRp474
sba(imodel.Bond
Bond
p475
(dp476
g14
g1
sg53
g54
sg25
g26
sg18
g9
((lp477
g459
ag20
atRp478
sbatRp479
sg38
I00
sbatRp480
sg16
S'H'
sg42
I0
sg17
I00
sg43
(F172.95891958191169
F387.55406382061631
F151.10537556081184
tp481
sg45
(lp482
sg14
g1
sg47
g9
((ltRp483
sg49
g9
((lp484
g471
atRp485
sg38
I00
sbag116
atRp486
sS'C'
g9
((lp487
g218
ag20
ag166
ag66
a(imodel.VarAtom
VarAtom
p488
(dp489
g3
S'C'
sg22
I00
sg23
Nsg24
(imodel.Atom
Atom
p490
(dp491
g3
S'C'
sg14
g1
sg15
I4
sg16
S'C'
sg17
I00
sg18
g9
((lp492
g488
atRp493
sg38
I00
sbsg25
g26
sg39
g9
((lp494
g20
a(imodel.VarAtom
VarAtom
p495
(dp496
g3
S"O'"
p497
sg22
I00
sg23
Nsg24
(imodel.Atom
Atom
p498
(dp499
g3
g497
sg14
g1
sg15
I2
sg16
S'O'
sg17
I00
sg18
g9
((lp500
g495
atRp501
sg38
I00
sbsg25
g26
sg39
g9
((lp502
g488
atRp503
sg16
S'O'
sg42
I0
sg17
I00
sg43
(F330.3205850603249
F390.85902404622846
F252.36888704860937
tp504
sg45
(lp505
sg14
g1
sg47
g9
((ltRp506
sg49
g9
((lp507
(imodel.Bond
Bond
p508
(dp509
g14
g1
sg53
S'double'
p510
sg25
g26
sg18
g9
((lp511
g495
ag488
atRp512
sbatRp513
sg38
I00
sbatRp514
sg16
S'C'
sg42
I0
sg17
I00
sg43
(F292.33722149868834
F421.35273244840323
F223.78622155367626
tp515
sg45
(lp516
F6.2693335843366294
asg14
g1
sg47
g9
((ltRp517
sg49
g9
((lp518
(imodel.Bond
Bond
p519
(dp520
g14
g1
sg53
g54
sg25
g26
sg18
g9
((lp521
g488
ag20
atRp522
sbag508
atRp523
sg38
I00
sbag108
ag100
ag192
ag74
atRp524
sS'P'
g9
((lp525
g234
atRp526
sS'O'
g9
((lp527
g226
ag296
ag277
ag241
ag495
atRp528
sS'N'
g9
((lp529
g459
atRp530
ssg49
g9
((lp531
g430
ag290
ag95
ag475
ag419
ag519
ag157
ag370
ag337
ag51
ag392
ag147
ag471
ag366
ag317
ag347
ag327
ag272
ag508
ag187
ag129
ag213
ag441
ag262
ag408
ag161
atRp532
sg14
g1
sS'descriptor'
p533
(S'neutral'
p534
S'none'
p535
S'default'
p536
tp537
sS'atomDict'
p538
(dp539
g11
g20
sg111
g108
sg236
g234
sg498
g495
sg103
g100
sg299
g296
sg454
g452
sg137
g134
sg252
g249
sg69
g66
sg77
g74
sg203
g200
sg61
g58
sg195
g192
sg34
g31
sg85
g82
sg244
g241
sg307
g304
sg461
g459
sg119
g116
sg229
g226
sg177
g174
sg490
g488
sg221
g218
sg169
g166
sg280
g277
ssg18
g9
((lp540
g100
ag200
ag226
ag304
ag108
ag192
ag296
ag459
ag82
ag31
ag495
ag249
ag74
ag134
ag241
ag166
ag218
ag234
ag488
ag58
ag20
ag66
ag174
ag277
ag452
ag116
atRp541
sg47
g9
((lp542
g401
ag356
ag379
atRp543
sS'polyLink'
p544
g535
sbsg39
g9
((lp545
g31
ag108
ag488
ag459
atRp546
sg16
S'C'
sg42
I0
sg17
I00
sg43
(F248.6803847371383
F384.26953481634814
F152.83040285491572
tp547
sg45
(lp548
sg14
g1
sg47
g9
((ltRp549
sg49
g9
((lp550
g519
ag161
ag475
ag51
atRp551
sg38
I00
sbatRp552
sg38
I00
sbag111
ag77
ag498
ag299
ag280
ag454
ag137
ag203
ag69
ag252
ag236
ag195
ag34
ag85
ag61
ag307
ag461
ag221
ag119
ag229
ag103
ag177
ag490
ag244
ag169
atRp553
sS'ccpMolType'
p554
S'protein'
p555
sS'details'
p556
V
sg538
(dp557
g279
g280
sg497
g498
sg298
g299
sg76
g77
sg168
g169
sg33
g34
sg60
g61
sg202
g203
sg251
g252
sVH
g454
sS'C'
g490
sg110
g111
sg13
g11
sg228
g229
sg102
g103
sg243
g244
sS'N'
g461
sg220
g221
sg194
g195
sg68
g69
sg176
g177
sg84
g85
sS'P'
g236
sg306
g307
sg118
g119
sg136
g137
ssS'keywords'
p558
g9
((ltRp559
sg47
g9
((lp560
g401
ag379
ag356
atRp561
sS'variants'
p562
g9
((lp563
g26
atRp564
sS'defaultVars'
p565
g9
((ltRp566
sb.