(imodel.Compound
Compound
p1
(dp2
S'name'
p3
VSERINE
p4
sS'isModified'
p5
I01
sS'ccpCode'
p6
VSer
p7
sS'atoms'
p8
c__builtin__
set
p9
((lp10
(imodel.Atom
Atom
p11
(dp12
g3
S'CB'
p13
sS'compound'
p14
g1
sS'baseValences'
p15
I4
sS'element'
p16
S'C'
sS'isVariable'
p17
I00
sS'varAtoms'
p18
g9
((lp19
(imodel.VarAtom
VarAtom
p20
(dp21
g3
g13
sS'isLabile'
p22
I00
sS'chirality'
p23
NsS'atom'
p24
g11
sS'variant'
p25
(imodel.Variant
Variant
p26
(dp27
S'elementDict'
p28
(dp29
S'H'
g9
((lp30
(imodel.VarAtom
VarAtom
p31
(dp32
g3
S'HB3'
p33
sg22
I00
sg23
Nsg24
(imodel.Atom
Atom
p34
(dp35
g3
g33
sg14
g1
sg15
I1
sg16
S'H'
sg17
I00
sg18
g9
((lp36
g31
atRp37
sS'isDeleted'
p38
I00
sbsg25
g26
sS'neighbours'
p39
g9
((lp40
g20
atRp41
sg16
S'H'
sS'charge'
p42
I0
sg17
I00
sS'coords'
p43
(F357.96108092217861
F311.18619371032327
F-26.648051061049255
tp44
sS'freeValences'
p45
(lp46
sg14
g1
sS'atomGroups'
p47
g9
((ltRp48
sS'bonds'
p49
g9
((lp50
(imodel.Bond
Bond
p51
(dp52
g14
g1
sS'bondType'
p53
S'single'
p54
sg25
g26
sg18
g9
((lp55
g31
ag20
atRp56
sbatRp57
sg38
I00
sba(imodel.VarAtom
VarAtom
p58
(dp59
g3
S'HB2'
p60
sg22
I00
sg23
Nsg24
(imodel.Atom
Atom
p61
(dp62
g3
g60
sg14
g1
sg15
I1
sg16
S'H'
sg17
I00
sg18
g9
((lp63
g58
atRp64
sg38
I00
sbsg25
g26
sg39
g9
((lp65
g20
atRp66
sg16
S'H'
sg42
I0
sg17
I00
sg43
(F343.6053210415609
F356.49909436381716
F-34.851414198743278
tp67
sg45
(lp68
sg14
g1
sg47
g9
((ltRp69
sg49
g9
((lp70
(imodel.Bond
Bond
p71
(dp72
g14
g1
sg53
g54
sg25
g26
sg18
g9
((lp73
g20
ag58
atRp74
sbatRp75
sg38
I00
sba(imodel.VarAtom
VarAtom
p76
(dp77
g3
VH
sg22
I00
sg23
Nsg24
(imodel.Atom
Atom
p78
(dp79
g3
VH
sg14
g1
sg15
I1
sg16
S'H'
sg17
I00
sg18
g9
((lp80
g76
atRp81
sg38
I00
sbsg25
g26
sg39
g9
((lp82
(imodel.VarAtom
VarAtom
p83
(dp84
g3
S'N'
sg22
I00
sg23
Nsg24
(imodel.Atom
Atom
p85
(dp86
g3
S'N'
sg14
g1
sg15
I3
sg16
S'N'
sg17
I00
sg18
g9
((lp87
g83
atRp88
sg38
I00
sbsg25
g26
sg39
g9
((lp89
g76
a(imodel.VarAtom
VarAtom
p90
(dp91
g3
S'CA'
p92
sg22
I00
sg23
S'S'
sg24
(imodel.Atom
Atom
p93
(dp94
g3
g92
sg14
g1
sg15
I4
sg16
S'C'
sg17
I00
sg18
g9
((lp95
g90
atRp96
sg38
I00
sbsg25
g26
sg39
g9
((lp97
g83
a(imodel.VarAtom
VarAtom
p98
(dp99
g3
S'HA'
p100
sg22
I00
sg23
Nsg24
(imodel.Atom
Atom
p101
(dp102
g3
g100
sg14
g1
sg15
I1
sg16
S'H'
sg17
I00
sg18
g9
((lp103
g98
atRp104
sg38
I00
sbsg25
g26
sg39
g9
((lp105
g90
atRp106
sg16
S'H'
sg42
I0
sg17
I00
sg43
(F433.50201785368824
F367.3042363290773
F1.1933768895795336
tp107
sg45
(lp108
sg14
g1
sg47
g9
((ltRp109
sg49
g9
((lp110
(imodel.Bond
Bond
p111
(dp112
g14
g1
sg53
g54
sg25
g26
sg18
g9
((lp113
g90
ag98
atRp114
sbatRp115
sg38
I00
sba(imodel.VarAtom
VarAtom
p116
(dp117
g3
S'C'
sg22
I00
sg23
Nsg24
(imodel.Atom
Atom
p118
(dp119
g3
S'C'
sg14
g1
sg15
I4
sg16
S'C'
sg17
I00
sg18
g9
((lp120
g116
atRp121
sg38
I00
sbsg25
g26
sg39
g9
((lp122
(imodel.VarAtom
VarAtom
p123
(dp124
g3
S"O'"
p125
sg22
I00
sg23
Nsg24
(imodel.Atom
Atom
p126
(dp127
g3
g125
sg14
g1
sg15
I2
sg16
S'O'
sg17
I00
sg18
g9
((lp128
g123
atRp129
sg38
I00
sbsg25
g26
sg39
g9
((lp130
g116
atRp131
sg16
S'O'
sg42
I0
sg17
I00
sg43
(F320.75458611861501
F420.32949674711881
F101.54214516476704
tp132
sg45
(lp133
sg14
g1
sg47
g9
((ltRp134
sg49
g9
((lp135
(imodel.Bond
Bond
p136
(dp137
g14
g1
sg53
S'double'
p138
sg25
g26
sg18
g9
((lp139
g116
ag123
atRp140
sbatRp141
sg38
I00
sbag90
atRp142
sg16
S'C'
sg42
I0
sg17
I00
sg43
(F364.65173631851286
F424.70291342929909
F78.862954657101284
tp143
sg45
(lp144
F0.29518407718239636
asg14
g1
sg47
g9
((ltRp145
sg49
g9
((lp146
g136
a(imodel.Bond
Bond
p147
(dp148
g14
g1
sg53
g54
sg25
g26
sg18
g9
((lp149
g90
ag116
atRp150
sbatRp151
sg38
I00
sbag20
atRp152
sg16
S'C'
sg42
I0
sg17
I00
sg43
(F404.35474766622485
F391.95665986832097
F6.5708779319249002
tp153
sg45
(lp154
sg14
g1
sg47
g9
((ltRp155
sg49
g9
((lp156
g111
a(imodel.Bond
Bond
p157
(dp158
g14
g1
sg53
g54
sg25
g26
sg18
g9
((lp159
g90
ag83
atRp160
sba(imodel.Bond
Bond
p161
(dp162
g14
g1
sg53
g54
sg25
g26
sg18
g9
((lp163
g90
ag20
atRp164
sbag147
atRp165
sg38
I00
sbatRp166
sg16
S'N'
sg42
I0
sg17
I00
sg43
(F445.76290102194412
F427.82405533796054
F-11.383373612192754
tp167
sg45
(lp168
F6.2368716299053695
asg14
g1
sg47
g9
((ltRp169
sg49
g9
((lp170
(imodel.Bond
Bond
p171
(dp172
g14
g1
sg53
g54
sg25
g26
sg18
g9
((lp173
g76
ag83
atRp174
sbag157
atRp175
sg38
I00
sbatRp176
sg16
S'H'
sg42
I0
sg17
I00
sg43
(F477.33942397059025
F405.22442024462498
F-60.037176461037745
tp177
sg45
(lp178
sg14
g1
sg47
g9
((ltRp179
sg49
g9
((lp180
g171
atRp181
sg38
I00
sba(imodel.VarAtom
VarAtom
p182
(dp183
g3
S'HG'
p184
sg22
I01
sg23
Nsg24
(imodel.Atom
Atom
p185
(dp186
g3
g184
sg14
g1
sg15
I1
sg16
S'H'
sg17
I00
sg18
g9
((lp187
g182
atRp188
sg38
I00
sbsg25
g26
sg39
g9
((lp189
(imodel.VarAtom
VarAtom
p190
(dp191
g3
S'OG'
p192
sg22
I00
sg23
Nsg24
(imodel.Atom
Atom
p193
(dp194
g3
g192
sg14
g1
sg15
I2
sg16
S'O'
sg17
I00
sg18
g9
((lp195
g190
atRp196
sg38
I00
sbsg25
g26
sg39
g9
((lp197
g182
ag20
atRp198
sg16
S'O'
sg42
I0
sg17
I00
sg43
(F412.85731419289266
F304.20141429735395
F-107.28408224114376
tp199
sg45
(lp200
sg14
g1
sg47
g9
((ltRp201
sg49
g9
((lp202
(imodel.Bond
Bond
p203
(dp204
g14
g1
sg53
g54
sg25
g26
sg18
g9
((lp205
g190
ag182
atRp206
sba(imodel.Bond
Bond
p207
(dp208
g14
g1
sg53
g54
sg25
g26
sg18
g9
((lp209
g20
ag190
atRp210
sbatRp211
sg38
I00
sbatRp212
sg16
S'H'
sg42
I0
sg17
I00
sg43
(F433.5111640771151
F272.30084479568256
F-135.15973543112969
tp213
sg45
(lp214
sg14
g1
sg47
g9
((ltRp215
sg49
g9
((lp216
g203
atRp217
sg38
I00
sbag98
atRp218
sS'C'
g9
((lp219
g116
ag90
ag20
atRp220
sS'O'
g9
((lp221
g190
ag123
atRp222
sS'N'
g9
((lp223
g83
atRp224
ssg49
g9
((lp225
g111
ag157
ag71
ag147
ag203
ag207
ag161
ag171
ag136
ag51
atRp226
sg14
g1
sS'descriptor'
p227
(S'neutral'
p228
S'none'
p229
S'default'
p230
tp231
sS'atomDict'
p232
(dp233
g11
g20
sg61
g58
sg101
g98
sg85
g83
sg193
g190
sg185
g182
sg126
g123
sg118
g116
sg34
g31
sg93
g90
sg78
g76
ssg18
g9
((lp234
g83
ag182
ag20
ag31
ag58
ag190
ag116
ag76
ag90
ag98
ag123
atRp235
sg47
g9
((ltRp236
sS'polyLink'
p237
S'none'
p238
sbsg39
g9
((lp239
g31
ag90
ag190
ag58
atRp240
sg16
S'C'
sg42
I0
sg17
I00
sg43
(F379.82973097837197
F343.36643965063877
F-39.861452422489997
tp241
sg45
(lp242
sg14
g1
sg47
g9
((ltRp243
sg49
g9
((lp244
g51
ag207
ag71
ag161
atRp245
sg38
I00
sbatRp246
sg38
I00
sbag61
ag101
ag193
ag185
ag126
ag85
ag34
ag118
ag93
ag78
atRp247
sS'ccpMolType'
p248
S'protein'
p249
sS'details'
p250
V
sg232
(dp251
S'C'
g118
sg125
g126
sg13
g11
sg92
g93
sS'N'
g85
sg192
g193
sVH
g78
sg100
g101
sg184
g185
sg33
g34
sg60
g61
ssS'keywords'
p252
g9
((ltRp253
sg47
g9
((ltRp254
sS'variants'
p255
g9
((lp256
g26
atRp257
sS'defaultVars'
p258
g9
((ltRp259
sb.