(imodel.Compound
Compound
p1
(dp2
S'name'
p3
VTHREONINE
p4
sS'isModified'
p5
I01
sS'ccpCode'
p6
VThr
p7
sS'atoms'
p8
c__builtin__
set
p9
((lp10
(imodel.Atom
Atom
p11
(dp12
g3
S'HB'
p13
sS'compound'
p14
g1
sS'baseValences'
p15
I1
sS'element'
p16
S'H'
sS'isVariable'
p17
I00
sS'varAtoms'
p18
g9
((lp19
(imodel.VarAtom
VarAtom
p20
(dp21
g3
g13
sS'isLabile'
p22
I00
sS'chirality'
p23
NsS'atom'
p24
g11
sS'variant'
p25
(imodel.Variant
Variant
p26
(dp27
S'elementDict'
p28
(dp29
S'H'
g9
((lp30
(imodel.VarAtom
VarAtom
p31
(dp32
g3
S'HG1'
p33
sg22
I00
sg23
Nsg24
(imodel.Atom
Atom
p34
(dp35
g3
g33
sg14
g1
sg15
I1
sg16
S'H'
sg17
I00
sg18
g9
((lp36
g31
atRp37
sS'isDeleted'
p38
I00
sbsg25
g26
sS'neighbours'
p39
g9
((lp40
(imodel.VarAtom
VarAtom
p41
(dp42
g3
S'OG1'
p43
sg22
I00
sg23
Nsg24
(imodel.Atom
Atom
p44
(dp45
g3
g43
sg14
g1
sg15
I2
sg16
S'O'
sg17
I00
sg18
g9
((lp46
g41
atRp47
sg38
I00
sbsg25
g26
sg39
g9
((lp48
(imodel.VarAtom
VarAtom
p49
(dp50
g3
S'CB'
p51
sg22
I00
sg23
S'R'
sg24
(imodel.Atom
Atom
p52
(dp53
g3
g51
sg14
g1
sg15
I4
sg16
S'C'
sg17
I00
sg18
g9
((lp54
g49
atRp55
sg38
I00
sbsg25
g26
sg39
g9
((lp56
(imodel.VarAtom
VarAtom
p57
(dp58
g3
S'CA'
p59
sg22
I00
sg23
S'S'
sg24
(imodel.Atom
Atom
p60
(dp61
g3
g59
sg14
g1
sg15
I4
sg16
S'C'
sg17
I00
sg18
g9
((lp62
g57
atRp63
sg38
I00
sbsg25
g26
sg39
g9
((lp64
g49
a(imodel.VarAtom
VarAtom
p65
(dp66
g3
S'C'
sg22
I00
sg23
Nsg24
(imodel.Atom
Atom
p67
(dp68
g3
S'C'
sg14
g1
sg15
I4
sg16
S'C'
sg17
I00
sg18
g9
((lp69
g65
atRp70
sg38
I00
sbsg25
g26
sg39
g9
((lp71
g57
a(imodel.VarAtom
VarAtom
p72
(dp73
g3
S"O'"
p74
sg22
I00
sg23
Nsg24
(imodel.Atom
Atom
p75
(dp76
g3
g74
sg14
g1
sg15
I2
sg16
S'O'
sg17
I00
sg18
g9
((lp77
g72
atRp78
sg38
I00
sbsg25
g26
sg39
g9
((lp79
g65
atRp80
sg16
S'O'
sS'charge'
p81
I0
sg17
I00
sS'coords'
p82
(F317.2384329416808
F447.92263460174996
F-115.7259153242148
tp83
sS'freeValences'
p84
(lp85
sg14
g1
sS'atomGroups'
p86
g9
((ltRp87
sS'bonds'
p88
g9
((lp89
(imodel.Bond
Bond
p90
(dp91
g14
g1
sS'bondType'
p92
S'double'
p93
sg25
g26
sg18
g9
((lp94
g72
ag65
atRp95
sbatRp96
sg38
I00
sbatRp97
sg16
S'C'
sg81
I0
sg17
I00
sg82
(F361.04859912454413
F450.96612289409626
F-96.997422324669415
tp98
sg84
(lp99
F0.32358018521735143
asg14
g1
sg86
g9
((ltRp100
sg88
g9
((lp101
(imodel.Bond
Bond
p102
(dp103
g14
g1
sg92
S'single'
p104
sg25
g26
sg18
g9
((lp105
g65
ag57
atRp106
sbag90
atRp107
sg38
I00
sba(imodel.VarAtom
VarAtom
p108
(dp109
g3
S'N'
sg22
I00
sg23
Nsg24
(imodel.Atom
Atom
p110
(dp111
g3
S'N'
sg14
g1
sg15
I3
sg16
S'N'
sg17
I00
sg18
g9
((lp112
g108
atRp113
sg38
I00
sbsg25
g26
sg39
g9
((lp114
(imodel.VarAtom
VarAtom
p115
(dp116
g3
VH
sg22
I00
sg23
Nsg24
(imodel.Atom
Atom
p117
(dp118
g3
VH
sg14
g1
sg15
I1
sg16
S'H'
sg17
I00
sg18
g9
((lp119
g115
atRp120
sg38
I00
sbsg25
g26
sg39
g9
((lp121
g108
atRp122
sg16
S'H'
sg81
I0
sg17
I00
sg82
(F473.28749911227504
F431.01814892225531
F38.14924278021234
tp123
sg84
(lp124
sg14
g1
sg86
g9
((ltRp125
sg88
g9
((lp126
(imodel.Bond
Bond
p127
(dp128
g14
g1
sg92
g104
sg25
g26
sg18
g9
((lp129
g115
ag108
atRp130
sbatRp131
sg38
I00
sbag57
atRp132
sg16
S'N'
sg81
I0
sg17
I00
sg82
(F441.62350069021534
F453.47053307031854
F-10.112760864048102
tp133
sg84
(lp134
F6.2352822398048522
asg14
g1
sg86
g9
((ltRp135
sg88
g9
((lp136
g127
a(imodel.Bond
Bond
p137
(dp138
g14
g1
sg92
g104
sg25
g26
sg18
g9
((lp139
g57
ag108
atRp140
sbatRp141
sg38
I00
sba(imodel.VarAtom
VarAtom
p142
(dp143
g3
S'HA'
p144
sg22
I00
sg23
Nsg24
(imodel.Atom
Atom
p145
(dp146
g3
g144
sg14
g1
sg15
I1
sg16
S'H'
sg17
I00
sg18
g9
((lp147
g142
atRp148
sg38
I00
sbsg25
g26
sg39
g9
((lp149
g57
atRp150
sg16
S'H'
sg81
I0
sg17
I00
sg82
(F428.98288219170797
F393.43734768462008
F-29.669674673566746
tp151
sg84
(lp152
sg14
g1
sg86
g9
((ltRp153
sg88
g9
((lp154
(imodel.Bond
Bond
p155
(dp156
g14
g1
sg92
g104
sg25
g26
sg18
g9
((lp157
g57
ag142
atRp158
sbatRp159
sg38
I00
sbatRp160
sg16
S'C'
sg81
I0
sg17
I00
sg82
(F399.73316905407614
F417.27466325993629
F-28.593269040453755
tp161
sg84
(lp162
sg14
g1
sg86
g9
((ltRp163
sg88
g9
((lp164
(imodel.Bond
Bond
p165
(dp166
g14
g1
sg92
g104
sg25
g26
sg18
g9
((lp167
g49
ag57
atRp168
sbag137
ag155
ag102
atRp169
sg38
I00
sbag41
ag20
a(imodel.VarAtom
VarAtom
p170
(dp171
g3
S'CG2'
p172
sg22
I00
sg23
Nsg24
(imodel.Atom
Atom
p173
(dp174
g3
g172
sg14
g1
sg15
I4
sg16
S'C'
sg17
I00
sg18
g9
((lp175
g170
atRp176
sg38
I00
sbsg25
g26
sg39
g9
((lp177
(imodel.VarAtom
VarAtom
p178
(dp179
g3
S'HG23'
p180
sg22
I00
sg23
Nsg24
(imodel.Atom
Atom
p181
(dp182
g3
g180
sg14
g1
sg15
I1
sg16
S'H'
sg17
I00
sg18
g9
((lp183
g178
atRp184
sg38
I00
sbsg25
g26
sg39
g9
((lp185
g170
atRp186
sg16
S'H'
sg81
I0
sg17
I00
sg82
(F450.63424821188994
F333.61394432723841
F105.74221279678672
tp187
sg84
(lp188
sg14
g1
sg86
g9
((ltRp189
sg88
g9
((lp190
(imodel.Bond
Bond
p191
(dp192
g14
g1
sg92
g104
sg25
g26
sg18
g9
((lp193
g170
ag178
atRp194
sbatRp195
sg38
I00
sba(imodel.VarAtom
VarAtom
p196
(dp197
g3
S'HG21'
p198
sg22
I00
sg23
Nsg24
(imodel.Atom
Atom
p199
(dp200
g3
g198
sg14
g1
sg15
I1
sg16
S'H'
sg17
I00
sg18
g9
((lp201
g196
atRp202
sg38
I00
sbsg25
g26
sg39
g9
((lp203
g170
atRp204
sg16
S'H'
sg81
I0
sg17
I00
sg82
(F388.83623918116933
F289.71144075372956
F128.19300853960308
tp205
sg84
(lp206
sg14
g1
sg86
g9
((ltRp207
sg88
g9
((lp208
(imodel.Bond
Bond
p209
(dp210
g14
g1
sg92
g104
sg25
g26
sg18
g9
((lp211
g170
ag196
atRp212
sbatRp213
sg38
I00
sbag49
a(imodel.VarAtom
VarAtom
p214
(dp215
g3
S'HG22'
p216
sg22
I00
sg23
Nsg24
(imodel.Atom
Atom
p217
(dp218
g3
g216
sg14
g1
sg15
I1
sg16
S'H'
sg17
I00
sg18
g9
((lp219
g214
atRp220
sg38
I00
sbsg25
g26
sg39
g9
((lp221
g170
atRp222
sg16
S'H'
sg81
I0
sg17
I00
sg82
(F437.92308175708609
F286.73745548924165
F91.388864310694885
tp223
sg84
(lp224
sg14
g1
sg86
g9
((ltRp225
sg88
g9
((lp226
(imodel.Bond
Bond
p227
(dp228
g14
g1
sg92
g104
sg25
g26
sg18
g9
((lp229
g170
ag214
atRp230
sbatRp231
sg38
I00
sbatRp232
sg16
S'C'
sg81
I0
sg17
I00
sg82
(F414.93938946562912
F318.44560200893278
F91.839352169092237
tp233
sg84
(lp234
sg14
g1
sg86
g9
((ltRp235
sg88
g9
((lp236
g191
ag209
ag227
a(imodel.Bond
Bond
p237
(dp238
g14
g1
sg92
g104
sg25
g26
sg18
g9
((lp239
g49
ag170
atRp240
sbatRp241
sg38
I00
sbatRp242
sg16
S'C'
sg81
I0
sg17
I00
sg82
(F380.60306056101973
F364.80348792994465
F22.205355077574591
tp243
sg84
(lp244
sg14
g1
sg86
g9
((ltRp245
sg88
g9
((lp246
g165
a(imodel.Bond
Bond
p247
(dp248
g14
g1
sg92
g104
sg25
g26
sg18
g9
((lp249
g49
ag20
atRp250
sba(imodel.Bond
Bond
p251
(dp252
g14
g1
sg92
g104
sg25
g26
sg18
g9
((lp253
g49
ag41
atRp254
sbag237
atRp255
sg38
I00
sbag31
atRp256
sg16
S'O'
sg81
I0
sg17
I00
sg82
(F330.59913588080451
F375.57189766032059
F23.476780033125358
tp257
sg84
(lp258
sg14
g1
sg86
g9
((ltRp259
sg88
g9
((lp260
g251
a(imodel.Bond
Bond
p261
(dp262
g14
g1
sg92
g104
sg25
g26
sg18
g9
((lp263
g31
ag41
atRp264
sbatRp265
sg38
I00
sbatRp266
sg16
S'H'
sg81
I0
sg17
I00
sg82
(F292.66008809493172
F372.72466737497689
F35.731799540117841
tp267
sg84
(lp268
sg14
g1
sg86
g9
((ltRp269
sg88
g9
((lp270
g261
atRp271
sg38
I00
sbag115
ag178
ag20
ag196
ag142
ag214
atRp272
sS'C'
g9
((lp273
g170
ag65
ag49
ag57
atRp274
sS'O'
g9
((lp275
g72
ag41
atRp276
sS'N'
g9
((lp277
g108
atRp278
ssg88
g9
((lp279
g251
ag155
ag90
ag261
ag209
ag102
ag165
ag191
ag227
ag237
ag247
ag127
ag137
atRp280
sg14
g1
sS'descriptor'
p281
(S'neutral'
p282
S'none'
p283
S'default'
p284
tp285
sS'atomDict'
p286
(dp287
g34
g31
sg60
g57
sg52
g49
sg110
g108
sg199
g196
sg67
g65
sg117
g115
sg75
g72
sg217
g214
sg173
g170
sg181
g178
sg145
g142
sg11
g20
sg44
g41
ssg18
g9
((lp288
g115
ag178
ag20
ag31
ag57
ag142
ag170
ag41
ag72
ag196
ag49
ag108
ag65
ag214
atRp289
sg86
g9
((ltRp290
sS'polyLink'
p291
g283
sbsg39
g9
((lp292
g49
atRp293
sg16
S'H'
sg81
I0
sg17
I00
sg82
(F355.93564525455508
F335.51703534290948
F8.0884814463768642
tp294
sg84
(lp295
sg14
g1
sg86
g9
((ltRp296
sg88
g9
((lp297
g247
atRp298
sg38
I00
sbatRp299
sg38
I00
sbag52
ag67
ag117
ag75
ag110
ag60
ag145
ag181
ag217
ag173
ag44
ag34
ag199
atRp300
sS'ccpMolType'
p301
S'protein'
p302
sS'details'
p303
V
sg286
(dp304
S'C'
g67
sg144
g145
sg74
g75
sg51
g52
sg59
g60
sg43
g44
sg198
g199
sg33
g34
sS'N'
g110
sg172
g173
sVH
g117
sg13
g11
sg216
g217
sg180
g181
ssS'keywords'
p305
g9
((ltRp306
sg86
g9
((ltRp307
sS'variants'
p308
g9
((lp309
g26
atRp310
sS'defaultVars'
p311
g9
((ltRp312
sb.