(imodel.Compound
Compound
p1
(dp2
S'name'
p3
VTRYPTOPHAN
p4
sS'isModified'
p5
I01
sS'ccpCode'
p6
VTrp
p7
sS'atoms'
p8
c__builtin__
set
p9
((lp10
(imodel.Atom
Atom
p11
(dp12
g3
S'CE2'
p13
sS'compound'
p14
g1
sS'baseValences'
p15
I4
sS'element'
p16
S'C'
sS'isVariable'
p17
I00
sS'varAtoms'
p18
g9
((lp19
(imodel.VarAtom
VarAtom
p20
(dp21
g3
g13
sS'isLabile'
p22
I00
sS'chirality'
p23
NsS'atom'
p24
g11
sS'variant'
p25
(imodel.Variant
Variant
p26
(dp27
S'elementDict'
p28
(dp29
S'H'
g9
((lp30
(imodel.VarAtom
VarAtom
p31
(dp32
g3
S'HZ3'
p33
sg22
I00
sg23
Nsg24
(imodel.Atom
Atom
p34
(dp35
g3
g33
sg14
g1
sg15
I1
sg16
S'H'
sg17
I00
sg18
g9
((lp36
g31
a(imodel.VarAtom
VarAtom
p37
(dp38
g3
g33
sg22
I00
sg23
Nsg24
g34
sg25
(imodel.Variant
Variant
p39
(dp40
g28
(dp41
S'H'
g9
((lp42
(imodel.VarAtom
VarAtom
p43
(dp44
g3
S'HA'
p45
sg22
I00
sg23
Nsg24
(imodel.Atom
Atom
p46
(dp47
g3
g45
sg14
g1
sg15
I1
sg16
S'H'
sg17
I00
sg18
g9
((lp48
(imodel.VarAtom
VarAtom
p49
(dp50
g3
g45
sg22
I00
sg23
Nsg24
g46
sg25
(imodel.Variant
Variant
p51
(dp52
g28
(dp53
S'H'
g9
((lp54
(imodel.VarAtom
VarAtom
p55
(dp56
g3
S'HB3'
p57
sg22
I00
sg23
Nsg24
(imodel.Atom
Atom
p58
(dp59
g3
g57
sg14
g1
sg15
I1
sg16
S'H'
sg17
I00
sg18
g9
((lp60
g55
a(imodel.VarAtom
VarAtom
p61
(dp62
g3
g57
sg22
I00
sg23
Nsg24
g58
sg25
g39
sS'neighbours'
p63
g9
((lp64
(imodel.VarAtom
VarAtom
p65
(dp66
g3
S'CB'
p67
sg22
I00
sg23
Nsg24
(imodel.Atom
Atom
p68
(dp69
g3
g67
sg14
g1
sg15
I4
sg16
S'C'
sg17
I00
sg18
g9
((lp70
(imodel.VarAtom
VarAtom
p71
(dp72
g3
g67
sg22
I00
sg23
Nsg24
g68
sg25
g51
sg63
g9
((lp73
g55
a(imodel.VarAtom
VarAtom
p74
(dp75
g3
S'CG'
p76
sg22
I00
sg23
Nsg24
(imodel.Atom
Atom
p77
(dp78
g3
g76
sg14
g1
sg15
I4
sg16
S'C'
sg17
I00
sg18
g9
((lp79
g74
a(imodel.VarAtom
VarAtom
p80
(dp81
g3
g76
sg22
I00
sg23
Nsg24
g77
sg25
g26
sg63
g9
((lp82
(imodel.VarAtom
VarAtom
p83
(dp84
g3
S'CD1'
p85
sg22
I00
sg23
Nsg24
(imodel.Atom
Atom
p86
(dp87
g3
g85
sg14
g1
sg15
I4
sg16
S'C'
sg17
I00
sg18
g9
((lp88
(imodel.VarAtom
VarAtom
p89
(dp90
g3
g85
sg22
I00
sg23
Nsg24
g86
sg25
g51
sg63
g9
((lp91
g74
a(imodel.VarAtom
VarAtom
p92
(dp93
g3
S'NE1'
p94
sg22
I00
sg23
Nsg24
(imodel.Atom
Atom
p95
(dp96
g3
g94
sg14
g1
sg15
I3
sg16
S'N'
sg17
I00
sg18
g9
((lp97
g92
a(imodel.VarAtom
VarAtom
p98
(dp99
g3
g94
sg22
I00
sg23
Nsg24
g95
sg25
g26
sg63
g9
((lp100
(imodel.VarAtom
VarAtom
p101
(dp102
g3
S'HE1'
p103
sg22
I00
sg23
Nsg24
(imodel.Atom
Atom
p104
(dp105
g3
g103
sg14
g1
sg15
I1
sg16
S'H'
sg17
I01
sg18
g9
((lp106
g101
a(imodel.VarAtom
VarAtom
p107
(dp108
g3
g103
sg22
I00
sg23
Nsg24
g104
sg25
g39
sg63
g9
((lp109
(imodel.VarAtom
VarAtom
p110
(dp111
g3
g94
sg22
I00
sg23
Nsg24
g95
sg25
g39
sg63
g9
((lp112
g107
a(imodel.VarAtom
VarAtom
p113
(dp114
g3
g13
sg22
I00
sg23
Nsg24
g11
sg25
g39
sg63
g9
((lp115
(imodel.VarAtom
VarAtom
p116
(dp117
g3
S'CZ2'
p118
sg22
I00
sg23
Nsg24
(imodel.Atom
Atom
p119
(dp120
g3
g118
sg14
g1
sg15
I4
sg16
S'C'
sg17
I00
sg18
g9
((lp121
(imodel.VarAtom
VarAtom
p122
(dp123
g3
g118
sg22
I00
sg23
Nsg24
g119
sg25
g51
sg63
g9
((lp124
(imodel.VarAtom
VarAtom
p125
(dp126
g3
S'HZ2'
p127
sg22
I00
sg23
Nsg24
(imodel.Atom
Atom
p128
(dp129
g3
g127
sg14
g1
sg15
I1
sg16
S'H'
sg17
I00
sg18
g9
((lp130
(imodel.VarAtom
VarAtom
p131
(dp132
g3
g127
sg22
I00
sg23
Nsg24
g128
sg25
g39
sg63
g9
((lp133
g116
atRp134
sg16
S'H'
sS'charge'
p135
I0
sg17
I00
sS'coords'
p136
(F397.12895782993303
F233.49685664770632
F-211.58585546346762
tp137
sS'freeValences'
p138
(lp139
sg14
g1
sS'atomGroups'
p140
g9
((ltRp141
sS'bonds'
p142
g9
((lp143
(imodel.Bond
Bond
p144
(dp145
g14
g1
sS'bondType'
p146
S'single'
p147
sg25
g39
sg18
g9
((lp148
g116
ag131
atRp149
sbatRp150
sS'isDeleted'
p151
I00
sba(imodel.VarAtom
VarAtom
p152
(dp153
g3
g127
sg22
I00
sg23
Nsg24
g128
sg25
g26
sg63
g9
((lp154
(imodel.VarAtom
VarAtom
p155
(dp156
g3
g118
sg22
I00
sg23
Nsg24
g119
sg25
g26
sg63
g9
((lp157
g152
a(imodel.VarAtom
VarAtom
p158
(dp159
g3
S'CH2'
p160
sg22
I00
sg23
Nsg24
(imodel.Atom
Atom
p161
(dp162
g3
g160
sg14
g1
sg15
I4
sg16
S'C'
sg17
I00
sg18
g9
((lp163
g158
a(imodel.VarAtom
VarAtom
p164
(dp165
g3
g160
sg22
I00
sg23
Nsg24
g161
sg25
g51
sg63
g9
((lp166
(imodel.VarAtom
VarAtom
p167
(dp168
g3
S'HH2'
p169
sg22
I00
sg23
Nsg24
(imodel.Atom
Atom
p170
(dp171
g3
g169
sg14
g1
sg15
I1
sg16
S'H'
sg17
I00
sg18
g9
((lp172
g167
a(imodel.VarAtom
VarAtom
p173
(dp174
g3
g169
sg22
I00
sg23
Nsg24
g170
sg25
g39
sg63
g9
((lp175
(imodel.VarAtom
VarAtom
p176
(dp177
g3
g160
sg22
I00
sg23
Nsg24
g161
sg25
g39
sg63
g9
((lp178
g173
ag116
a(imodel.VarAtom
VarAtom
p179
(dp180
g3
S'CZ3'
p181
sg22
I00
sg23
Nsg24
(imodel.Atom
Atom
p182
(dp183
g3
g181
sg14
g1
sg15
I4
sg16
S'C'
sg17
I00
sg18
g9
((lp184
(imodel.VarAtom
VarAtom
p185
(dp186
g3
g181
sg22
I00
sg23
Nsg24
g182
sg25
g51
sg63
g9
((lp187
(imodel.VarAtom
VarAtom
p188
(dp189
g3
g33
sg22
I00
sg23
Nsg24
g34
sg25
g51
sg63
g9
((lp190
g185
atRp191
sg16
S'H'
sg135
I0
sg17
I00
sg136
(F266.1068089833085
F317.9028862984087
F-135.67506344569048
tp192
sg138
(lp193
sg14
g1
sg140
g9
((ltRp194
sg142
g9
((lp195
(imodel.Bond
Bond
p196
(dp197
g14
g1
sg146
g147
sg25
g51
sg18
g9
((lp198
g188
ag185
atRp199
sbatRp200
sg151
I00
sba(imodel.VarAtom
VarAtom
p201
(dp202
g3
S'CE3'
p203
sg22
I00
sg23
Nsg24
(imodel.Atom
Atom
p204
(dp205
g3
g203
sg14
g1
sg15
I4
sg16
S'C'
sg17
I00
sg18
g9
((lp206
(imodel.VarAtom
VarAtom
p207
(dp208
g3
g203
sg22
I00
sg23
Nsg24
g204
sg25
g39
sg63
g9
((lp209
(imodel.VarAtom
VarAtom
p210
(dp211
g3
S'HE3'
p212
sg22
I00
sg23
Nsg24
(imodel.Atom
Atom
p213
(dp214
g3
g212
sg14
g1
sg15
I1
sg16
S'H'
sg17
I00
sg18
g9
((lp215
g210
a(imodel.VarAtom
VarAtom
p216
(dp217
g3
g212
sg22
I00
sg23
Nsg24
g213
sg25
g51
sg63
g9
((lp218
g201
atRp219
sg16
S'H'
sg135
I0
sg17
I00
sg136
(F314.40192192346558
F388.42351841642721
F-25.137361957902428
tp220
sg138
(lp221
sg14
g1
sg140
g9
((ltRp222
sg142
g9
((lp223
(imodel.Bond
Bond
p224
(dp225
g14
g1
sg146
g147
sg25
g51
sg18
g9
((lp226
g201
ag216
atRp227
sbatRp228
sg151
I00
sba(imodel.VarAtom
VarAtom
p229
(dp230
g3
g212
sg22
I00
sg23
Nsg24
g213
sg25
g26
sg63
g9
((lp231
(imodel.VarAtom
VarAtom
p232
(dp233
g3
g203
sg22
I00
sg23
Nsg24
g204
sg25
g26
sg63
g9
((lp234
g229
a(imodel.VarAtom
VarAtom
p235
(dp236
g3
g181
sg22
I00
sg23
Nsg24
g182
sg25
g26
sg63
g9
((lp237
g31
ag232
ag158
atRp238
sg16
S'C'
sg135
I0
sg17
I00
sg136
(F304.22298277776156
F314.84965994788666
F-127.53941629619155
tp239
sg138
(lp240
sg14
g1
sg140
g9
((lp241
(imodel.AtomGroup
AtomGroup
p242
(dp243
S'groupType'
p244
S'aromatic'
p245
sS'subGroups'
p246
g9
((ltRp247
sg18
g9
((lp248
g158
ag232
ag155
ag235
a(imodel.VarAtom
VarAtom
p249
(dp250
g3
S'CD2'
p251
sg22
I00
sg23
Nsg24
(imodel.Atom
Atom
p252
(dp253
g3
g251
sg14
g1
sg15
I4
sg16
S'C'
sg17
I00
sg18
g9
((lp254
(imodel.VarAtom
VarAtom
p255
(dp256
g3
g251
sg22
I00
sg23
Nsg24
g252
sg25
g51
sg63
g9
((lp257
g74
ag201
a(imodel.VarAtom
VarAtom
p258
(dp259
g3
g13
sg22
I00
sg23
Nsg24
g11
sg25
g51
sg63
g9
((lp260
g122
ag92
ag255
atRp261
sg16
S'C'
sg135
I0
sg17
I00
sg136
(F403.50986118498071
F305.10106978858727
F-107.93545221336886
tp262
sg138
(lp263
sg14
g1
sg140
g9
((lp264
(imodel.AtomGroup
AtomGroup
p265
(dp266
S'groupType'
p267
S'aromatic'
p268
sS'subGroups'
p269
g9
((ltRp270
sS'varAtoms'
p271
g9
((lp272
g89
ag92
ag258
ag74
ag255
atRp273
sS'variant'
p274
g51
sS'compound'
p275
g1
sba(imodel.AtomGroup
AtomGroup
p276
(dp277
g244
g245
sg246
g9
((ltRp278
sg18
g9
((lp279
g255
ag185
ag258
ag122
ag201
ag164
atRp280
sg25
g51
sg14
g1
sbatRp281
sg142
g9
((lp282
(imodel.Bond
Bond
p283
(dp284
g14
g1
sg146
g245
sg25
g51
sg18
g9
((lp285
g122
ag258
atRp286
sba(imodel.Bond
Bond
p287
(dp288
g14
g1
sg146
g268
sg25
g51
sg18
g9
((lp289
g92
ag258
atRp290
sba(imodel.Bond
Bond
p291
(dp292
g14
g1
sg146
g268
sg25
g51
sg18
g9
((lp293
g255
ag258
atRp294
sbatRp295
sg151
I00
sbatRp296
sg16
S'C'
sg135
I0
sg17
I00
sg136
(F383.49763180583284
F350.61689298605199
F-54.235311336396933
tp297
sg138
(lp298
sg14
g1
sg140
g9
((lp299
g265
ag276
atRp300
sg142
g9
((lp301
(imodel.Bond
Bond
p302
(dp303
g14
g1
sg146
g268
sg25
g51
sg18
g9
((lp304
g255
ag74
atRp305
sba(imodel.Bond
Bond
p306
(dp307
g14
g1
sg146
g245
sg25
g51
sg18
g9
((lp308
g201
ag255
atRp309
sbag291
atRp310
sg151
I00
sba(imodel.VarAtom
VarAtom
p311
(dp312
g3
g251
sg22
I00
sg23
Nsg24
g252
sg25
g39
sg63
g9
((lp313
(imodel.VarAtom
VarAtom
p314
(dp315
g3
g76
sg22
I00
sg23
Nsg24
g77
sg25
g39
sg63
g9
((lp316
(imodel.VarAtom
VarAtom
p317
(dp318
g3
g85
sg22
I00
sg23
Nsg24
g86
sg25
g39
sg63
g9
((lp319
g314
a(imodel.VarAtom
VarAtom
p320
(dp321
g3
S'HD1'
p322
sg22
I00
sg23
Nsg24
(imodel.Atom
Atom
p323
(dp324
g3
g322
sg14
g1
sg15
I1
sg16
S'H'
sg17
I00
sg18
g9
((lp325
g320
a(imodel.VarAtom
VarAtom
p326
(dp327
g3
g322
sg22
I00
sg23
Nsg24
g323
sg25
g51
sg63
g9
((lp328
g89
atRp329
sg16
S'H'
sg135
I0
sg17
I00
sg136
(F503.10130628659442
F368.10107233186238
F15.763357720302826
tp330
sg138
(lp331
sg14
g1
sg140
g9
((ltRp332
sg142
g9
((lp333
(imodel.Bond
Bond
p334
(dp335
g14
g1
sg146
g147
sg25
g51
sg18
g9
((lp336
g89
ag326
atRp337
sbatRp338
sg151
I00
sba(imodel.VarAtom
VarAtom
p339
(dp340
g3
g322
sg22
I00
sg23
Nsg24
g323
sg25
g26
sg63
g9
((lp341
g83
atRp342
sg16
S'H'
sg135
I0
sg17
I00
sg136
(F503.10130628659442
F368.10107233186238
F15.763357720302826
tp343
sg138
(lp344
sg14
g1
sg140
g9
((ltRp345
sg142
g9
((lp346
(imodel.Bond
Bond
p347
(dp348
g14
g1
sg146
g147
sg25
g26
sg18
g9
((lp349
g83
ag339
atRp350
sbatRp351
sg151
I00
sbatRp352
sg151
I00
sbsg25
g39
sg63
g9
((lp353
g317
atRp354
sg16
S'H'
sg135
I0
sg17
I00
sg136
(F503.10130628659442
F368.10107233186238
F15.763357720302826
tp355
sg138
(lp356
sg14
g1
sg140
g9
((ltRp357
sg142
g9
((lp358
(imodel.Bond
Bond
p359
(dp360
g14
g1
sg146
g147
sg25
g39
sg18
g9
((lp361
g317
ag320
atRp362
sbatRp363
sg151
I00
sbag110
atRp364
sg16
S'C'
sg135
I0
sg17
I00
sg136
(F464.39626658616112
F358.068375830408
F-16.370273973061995
tp365
sg138
(lp366
sg14
g1
sg140
g9
((lp367
(imodel.AtomGroup
AtomGroup
p368
(dp369
g267
g268
sg269
g9
((ltRp370
sg271
g9
((lp371
g317
ag110
ag113
ag311
ag314
atRp372
sg274
g39
sg275
g1
sbatRp373
sg142
g9
((lp374
(imodel.Bond
Bond
p375
(dp376
g14
g1
sg146
g268
sg25
g39
sg18
g9
((lp377
g317
ag314
atRp378
sba(imodel.Bond
Bond
p379
(dp380
g14
g1
sg146
g268
sg25
g39
sg18
g9
((lp381
g317
ag110
atRp382
sbag359
atRp383
sg151
I00
sbag311
ag65
atRp384
sg16
S'C'
sg135
I0
sg17
I00
sg136
(F421.60658295390823
F384.2432265963534
F4.2087374773221304
tp385
sg138
(lp386
sg14
g1
sg140
g9
((lp387
g368
atRp388
sg142
g9
((lp389
g375
a(imodel.Bond
Bond
p390
(dp391
g14
g1
sg146
g268
sg25
g39
sg18
g9
((lp392
g311
ag314
atRp393
sba(imodel.Bond
Bond
p394
(dp395
g14
g1
sg146
g147
sg25
g39
sg18
g9
((lp396
g314
ag65
atRp397
sbatRp398
sg151
I00
sbag207
ag113
atRp399
sg16
S'C'
sg135
I0
sg17
I00
sg136
(F383.49763180583284
F350.61689298605199
F-54.235311336396933
tp400
sg138
(lp401
sg14
g1
sg140
g9
((lp402
g368
a(imodel.AtomGroup
AtomGroup
p403
(dp404
g244
g245
sg246
g9
((ltRp405
sg18
g9
((lp406
g311
ag207
ag116
ag113
ag176
ag179
atRp407
sg25
g39
sg14
g1
sbatRp408
sg142
g9
((lp409
g390
a(imodel.Bond
Bond
p410
(dp411
g14
g1
sg146
g245
sg25
g39
sg18
g9
((lp412
g207
ag311
atRp413
sba(imodel.Bond
Bond
p414
(dp415
g14
g1
sg146
g268
sg25
g39
sg18
g9
((lp416
g311
ag113
atRp417
sbatRp418
sg151
I00
sbag249
atRp419
sg151
I00
sbsg25
g26
sg63
g9
((lp420
g80
ag232
ag20
atRp421
sg16
S'C'
sg135
I0
sg17
I00
sg136
(F383.49763180583284
F350.61689298605199
F-54.235311336396933
tp422
sg138
(lp423
sg14
g1
sg140
g9
((lp424
g242
a(imodel.AtomGroup
AtomGroup
p425
(dp426
g267
g268
sg269
g9
((ltRp427
sg271
g9
((lp428
g83
ag98
ag80
ag20
ag249
atRp429
sg274
g26
sg275
g1
sbatRp430
sg142
g9
((lp431
(imodel.Bond
Bond
p432
(dp433
g14
g1
sg146
g268
sg25
g26
sg18
g9
((lp434
g249
ag80
atRp435
sba(imodel.Bond
Bond
p436
(dp437
g14
g1
sg146
g245
sg25
g26
sg18
g9
((lp438
g232
ag249
atRp439
sba(imodel.Bond
Bond
p440
(dp441
g14
g1
sg146
g268
sg25
g26
sg18
g9
((lp442
g249
ag20
atRp443
sbatRp444
sg151
I00
sbag20
atRp445
sg25
g26
sg14
g1
sbatRp446
sg142
g9
((lp447
(imodel.Bond
Bond
p448
(dp449
g14
g1
sg146
g147
sg25
g26
sg18
g9
((lp450
g31
ag235
atRp451
sba(imodel.Bond
Bond
p452
(dp453
g14
g1
sg146
g245
sg25
g26
sg18
g9
((lp454
g232
ag235
atRp455
sba(imodel.Bond
Bond
p456
(dp457
g14
g1
sg146
g245
sg25
g26
sg18
g9
((lp458
g158
ag235
atRp459
sbatRp460
sg151
I00
sbag249
atRp461
sg16
S'C'
sg135
I0
sg17
I00
sg136
(F333.27930272781259
F355.49185306833942
F-66.052472074604992
tp462
sg138
(lp463
sg14
g1
sg140
g9
((lp464
g242
atRp465
sg142
g9
((lp466
(imodel.Bond
Bond
p467
(dp468
g14
g1
sg146
g147
sg25
g26
sg18
g9
((lp469
g232
ag229
atRp470
sbag452
ag436
atRp471
sg151
I00
sbatRp472
sg16
S'H'
sg135
I0
sg17
I00
sg136
(F314.40192192346558
F388.42351841642721
F-25.137361957902428
tp473
sg138
(lp474
sg14
g1
sg140
g9
((ltRp475
sg142
g9
((lp476
g467
atRp477
sg151
I00
sbatRp478
sg151
I00
sbsg25
g39
sg63
g9
((lp479
g207
atRp480
sg16
S'H'
sg135
I0
sg17
I00
sg136
(F314.40192192346558
F388.42351841642721
F-25.137361957902428
tp481
sg138
(lp482
sg14
g1
sg140
g9
((ltRp483
sg142
g9
((lp484
(imodel.Bond
Bond
p485
(dp486
g14
g1
sg146
g147
sg25
g39
sg18
g9
((lp487
g207
ag210
atRp488
sbatRp489
sg151
I00
sbag311
ag179
atRp490
sg16
S'C'
sg135
I0
sg17
I00
sg136
(F333.27930272781259
F355.49185306833942
F-66.052472074604992
tp491
sg138
(lp492
sg14
g1
sg140
g9
((lp493
g403
atRp494
sg142
g9
((lp495
g485
a(imodel.Bond
Bond
p496
(dp497
g14
g1
sg146
g245
sg25
g39
sg18
g9
((lp498
g207
ag179
atRp499
sbag410
atRp500
sg151
I00
sbag201
ag232
atRp501
sg151
I00
sbsg25
g51
sg63
g9
((lp502
g216
ag185
ag255
atRp503
sg16
S'C'
sg135
I0
sg17
I00
sg136
(F333.27930272781259
F355.49185306833942
F-66.052472074604992
tp504
sg138
(lp505
sg14
g1
sg140
g9
((lp506
g276
atRp507
sg142
g9
((lp508
g224
a(imodel.Bond
Bond
p509
(dp510
g14
g1
sg146
g245
sg25
g51
sg18
g9
((lp511
g201
ag185
atRp512
sbag306
atRp513
sg151
I00
sbag164
atRp514
sg16
S'C'
sg135
I0
sg17
I00
sg136
(F304.22298277776156
F314.84965994788666
F-127.53941629619155
tp515
sg138
(lp516
sg14
g1
sg140
g9
((lp517
g276
atRp518
sg142
g9
((lp519
g196
ag509
a(imodel.Bond
Bond
p520
(dp521
g14
g1
sg146
g245
sg25
g51
sg18
g9
((lp522
g164
ag185
atRp523
sbatRp524
sg151
I00
sbag179
ag235
atRp525
sg151
I00
sbsg25
g39
sg63
g9
((lp526
g37
ag207
ag176
atRp527
sg16
S'C'
sg135
I0
sg17
I00
sg136
(F304.22298277776156
F314.84965994788666
F-127.53941629619155
tp528
sg138
(lp529
sg14
g1
sg140
g9
((lp530
g403
atRp531
sg142
g9
((lp532
(imodel.Bond
Bond
p533
(dp534
g14
g1
sg146
g147
sg25
g39
sg18
g9
((lp535
g37
ag179
atRp536
sbag496
a(imodel.Bond
Bond
p537
(dp538
g14
g1
sg146
g245
sg25
g39
sg18
g9
((lp539
g176
ag179
atRp540
sbatRp541
sg151
I00
sbatRp542
sg16
S'C'
sg135
I0
sg17
I00
sg136
(F324.6728581130742
F269.07411350969062
F-180.29304238085874
tp543
sg138
(lp544
sg14
g1
sg140
g9
((lp545
g403
atRp546
sg142
g9
((lp547
(imodel.Bond
Bond
p548
(dp549
g14
g1
sg146
g147
sg25
g39
sg18
g9
((lp550
g173
ag176
atRp551
sba(imodel.Bond
Bond
p552
(dp553
g14
g1
sg146
g245
sg25
g39
sg18
g9
((lp554
g116
ag176
atRp555
sbag537
atRp556
sg151
I00
sbatRp557
sg16
S'H'
sg135
I0
sg17
I00
sg136
(F306.13348657266511
F235.63356264149445
F-230.30228567600477
tp558
sg138
(lp559
sg14
g1
sg140
g9
((ltRp560
sg142
g9
((lp561
g548
atRp562
sg151
I00
sba(imodel.VarAtom
VarAtom
p563
(dp564
g3
g169
sg22
I00
sg23
Nsg24
g170
sg25
g26
sg63
g9
((lp565
g158
atRp566
sg16
S'H'
sg135
I0
sg17
I00
sg136
(F306.13348657266511
F235.63356264149445
F-230.30228567600477
tp567
sg138
(lp568
sg14
g1
sg140
g9
((ltRp569
sg142
g9
((lp570
(imodel.Bond
Bond
p571
(dp572
g14
g1
sg146
g147
sg25
g26
sg18
g9
((lp573
g563
ag158
atRp574
sbatRp575
sg151
I00
sbatRp576
sg151
I00
sbsg25
g51
sg63
g9
((lp577
g164
atRp578
sg16
S'H'
sg135
I0
sg17
I00
sg136
(F306.13348657266511
F235.63356264149445
F-230.30228567600477
tp579
sg138
(lp580
sg14
g1
sg140
g9
((ltRp581
sg142
g9
((lp582
(imodel.Bond
Bond
p583
(dp584
g14
g1
sg146
g147
sg25
g51
sg18
g9
((lp585
g167
ag164
atRp586
sbatRp587
sg151
I00
sbag185
ag122
atRp588
sg16
S'C'
sg135
I0
sg17
I00
sg136
(F324.6728581130742
F269.07411350969062
F-180.29304238085874
tp589
sg138
(lp590
sg14
g1
sg140
g9
((lp591
g276
atRp592
sg142
g9
((lp593
g583
a(imodel.Bond
Bond
p594
(dp595
g14
g1
sg146
g245
sg25
g51
sg18
g9
((lp596
g122
ag164
atRp597
sbag520
atRp598
sg151
I00
sbag176
atRp599
sg151
I00
sbsg25
g26
sg63
g9
((lp600
g563
ag235
ag155
atRp601
sg16
S'C'
sg135
I0
sg17
I00
sg136
(F324.6728581130742
F269.07411350969062
F-180.29304238085874
tp602
sg138
(lp603
sg14
g1
sg140
g9
((lp604
g242
atRp605
sg142
g9
((lp606
g571
a(imodel.Bond
Bond
p607
(dp608
g14
g1
sg146
g245
sg25
g26
sg18
g9
((lp609
g155
ag158
atRp610
sbag456
atRp611
sg151
I00
sbag20
atRp612
sg16
S'C'
sg135
I0
sg17
I00
sg136
(F374.65914301867241
F264.29715928889641
F-170.91992193319984
tp613
sg138
(lp614
sg14
g1
sg140
g9
((lp615
g242
atRp616
sg142
g9
((lp617
(imodel.Bond
Bond
p618
(dp619
g14
g1
sg146
g147
sg25
g26
sg18
g9
((lp620
g155
ag152
atRp621
sba(imodel.Bond
Bond
p622
(dp623
g14
g1
sg146
g245
sg25
g26
sg18
g9
((lp624
g155
ag20
atRp625
sbag607
atRp626
sg151
I00
sbatRp627
sg16
S'H'
sg135
I0
sg17
I00
sg136
(F397.12895782993303
F233.49685664770632
F-211.58585546346762
tp628
sg138
(lp629
sg14
g1
sg140
g9
((ltRp630
sg142
g9
((lp631
g618
atRp632
sg151
I00
sbag125
atRp633
sg151
I00
sbsg25
g51
sg63
g9
((lp634
g122
atRp635
sg16
S'H'
sg135
I0
sg17
I00
sg136
(F397.12895782993303
F233.49685664770632
F-211.58585546346762
tp636
sg138
(lp637
sg14
g1
sg140
g9
((ltRp638
sg142
g9
((lp639
(imodel.Bond
Bond
p640
(dp641
g14
g1
sg146
g147
sg25
g51
sg18
g9
((lp642
g122
ag125
atRp643
sbatRp644
sg151
I00
sbag258
ag164
atRp645
sg16
S'C'
sg135
I0
sg17
I00
sg136
(F374.65914301867241
F264.29715928889641
F-170.91992193319984
tp646
sg138
(lp647
sg14
g1
sg140
g9
((lp648
g276
atRp649
sg142
g9
((lp650
g640
ag283
ag594
atRp651
sg151
I00
sbag155
ag116
atRp652
sg151
I00
sbsg25
g39
sg63
g9
((lp653
g131
ag113
ag176
atRp654
sg16
S'C'
sg135
I0
sg17
I00
sg136
(F374.65914301867241
F264.29715928889641
F-170.91992193319984
tp655
sg138
(lp656
sg14
g1
sg140
g9
((lp657
g403
atRp658
sg142
g9
((lp659
g144
a(imodel.Bond
Bond
p660
(dp661
g14
g1
sg146
g245
sg25
g39
sg18
g9
((lp662
g116
ag113
atRp663
sbag552
atRp664
sg151
I00
sbag311
ag110
atRp665
sg16
S'C'
sg135
I0
sg17
I00
sg136
(F403.50986118498071
F305.10106978858727
F-107.93545221336886
tp666
sg138
(lp667
sg14
g1
sg140
g9
((lp668
g368
ag403
atRp669
sg142
g9
((lp670
g660
a(imodel.Bond
Bond
p671
(dp672
g14
g1
sg146
g268
sg25
g39
sg18
g9
((lp673
g110
ag113
atRp674
sbag414
atRp675
sg151
I00
sbag317
atRp676
sg16
S'N'
sg135
I0
sg17
I00
sg136
(F453.1333813358907
F309.53155208806731
F-81.313653080648606
tp677
sg138
(lp678
sg14
g1
sg140
g9
((lp679
g368
atRp680
sg142
g9
((lp681
(imodel.Bond
Bond
p682
(dp683
g14
g1
sg146
g147
sg25
g39
sg18
g9
((lp684
g110
ag107
atRp685
sbag379
ag671
atRp686
sg151
I00
sbatRp687
sg16
S'H'
sg135
I0
sg17
I01
sg136
(F477.42885548470912
F280.1453804207668
F-107.38168595148761
tp688
sg138
(lp689
sg14
g1
sg140
g9
((ltRp690
sg142
g9
((lp691
g682
atRp692
sg151
I00
sbatRp693
sg151
I00
sbsg25
g26
sg63
g9
((lp694
g98
atRp695
sg16
S'H'
sg135
I0
sg17
I01
sg136
(F477.42885548470912
F280.1453804207668
F-107.38168595148761
tp696
sg138
(lp697
sg14
g1
sg140
g9
((ltRp698
sg142
g9
((lp699
(imodel.Bond
Bond
p700
(dp701
g14
g1
sg146
g147
sg25
g26
sg18
g9
((lp702
g98
ag101
atRp703
sbatRp704
sg151
I00
sbag83
ag20
atRp705
sg16
S'N'
sg135
I0
sg17
I00
sg136
(F453.1333813358907
F309.53155208806731
F-81.313653080648606
tp706
sg138
(lp707
sg14
g1
sg140
g9
((lp708
g425
atRp709
sg142
g9
((lp710
g700
a(imodel.Bond
Bond
p711
(dp712
g14
g1
sg146
g268
sg25
g26
sg18
g9
((lp713
g83
ag98
atRp714
sba(imodel.Bond
Bond
p715
(dp716
g14
g1
sg146
g268
sg25
g26
sg18
g9
((lp717
g98
ag20
atRp718
sbatRp719
sg151
I00
sbag110
atRp720
sg151
I00
sbsg25
g51
sg63
g9
((lp721
g89
ag258
atRp722
sg16
S'N'
sg135
I0
sg17
I00
sg136
(F453.1333813358907
F309.53155208806731
F-81.313653080648606
tp723
sg138
(lp724
sg14
g1
sg140
g9
((lp725
g265
atRp726
sg142
g9
((lp727
(imodel.Bond
Bond
p728
(dp729
g14
g1
sg146
g268
sg25
g51
sg18
g9
((lp730
g89
ag92
atRp731
sbag287
atRp732
sg151
I00
sbag326
atRp733
sg16
S'C'
sg135
I0
sg17
I00
sg136
(F464.39626658616112
F358.068375830408
F-16.370273973061995
tp734
sg138
(lp735
sg14
g1
sg140
g9
((lp736
g265
atRp737
sg142
g9
((lp738
(imodel.Bond
Bond
p739
(dp740
g14
g1
sg146
g268
sg25
g51
sg18
g9
((lp741
g89
ag74
atRp742
sbag728
ag334
atRp743
sg151
I00
sbag317
ag83
atRp744
sg151
I00
sbsg25
g26
sg63
g9
((lp745
g80
ag339
ag98
atRp746
sg16
S'C'
sg135
I0
sg17
I00
sg136
(F464.39626658616112
F358.068375830408
F-16.370273973061995
tp747
sg138
(lp748
sg14
g1
sg140
g9
((lp749
g425
atRp750
sg142
g9
((lp751
(imodel.Bond
Bond
p752
(dp753
g14
g1
sg146
g268
sg25
g26
sg18
g9
((lp754
g83
ag80
atRp755
sbag711
ag347
atRp756
sg151
I00
sba(imodel.VarAtom
VarAtom
p757
(dp758
g3
g67
sg22
I00
sg23
Nsg24
g68
sg25
g26
sg63
g9
((lp759
(imodel.VarAtom
VarAtom
p760
(dp761
g3
S'CA'
p762
sg22
I00
sg23
S'S'
sg24
(imodel.Atom
Atom
p763
(dp764
g3
g762
sg14
g1
sg15
I4
sg16
S'C'
sg17
I00
sg18
g9
((lp765
g760
a(imodel.VarAtom
VarAtom
p766
(dp767
g3
g762
sg22
I00
sg23
S'S'
sg24
g763
sg25
g51
sg63
g9
((lp768
(imodel.VarAtom
VarAtom
p769
(dp770
g3
S'N'
sg22
I00
sg23
Nsg24
(imodel.Atom
Atom
p771
(dp772
g3
S'N'
sg14
g1
sg15
I3
sg16
S'N'
sg17
I00
sg18
g9
((lp773
(imodel.VarAtom
VarAtom
p774
(dp775
g3
S'N'
sg22
I00
sg23
Nsg24
g771
sg25
g39
sg63
g9
((lp776
(imodel.VarAtom
VarAtom
p777
(dp778
g3
g762
sg22
I00
sg23
S'S'
sg24
g763
sg25
g39
sg63
g9
((lp779
g43
a(imodel.VarAtom
VarAtom
p780
(dp781
g3
S'C'
sg22
I00
sg23
Nsg24
(imodel.Atom
Atom
p782
(dp783
g3
S'C'
sg14
g1
sg15
I4
sg16
S'C'
sg17
I00
sg18
g9
((lp784
(imodel.VarAtom
VarAtom
p785
(dp786
g3
S'C'
sg22
I00
sg23
Nsg24
g782
sg25
g51
sg63
g9
((lp787
g766
a(imodel.VarAtom
VarAtom
p788
(dp789
g3
S"O'"
p790
sg22
I00
sg23
Nsg24
(imodel.Atom
Atom
p791
(dp792
g3
g790
sg14
g1
sg15
I2
sg16
S'O'
sg17
I00
sg18
g9
((lp793
g788
a(imodel.VarAtom
VarAtom
p794
(dp795
g3
g790
sg22
I00
sg23
Nsg24
g791
sg25
g26
sg63
g9
((lp796
(imodel.VarAtom
VarAtom
p797
(dp798
g3
S'C'
sg22
I00
sg23
Nsg24
g782
sg25
g26
sg63
g9
((lp799
g760
ag794
atRp800
sg16
S'C'
sg135
I0
sg17
I00
sg136
(F379.13279609948603
F498.89327927160582
F182.62922586924151
tp801
sg138
(lp802
F6.0815578327705957
asg14
g1
sg140
g9
((ltRp803
sg142
g9
((lp804
(imodel.Bond
Bond
p805
(dp806
g14
g1
sg146
g147
sg25
g26
sg18
g9
((lp807
g797
ag760
atRp808
sba(imodel.Bond
Bond
p809
(dp810
g14
g1
sg146
S'double'
p811
sg25
g26
sg18
g9
((lp812
g797
ag794
atRp813
sbatRp814
sg151
I00
sbatRp815
sg16
S'O'
sg135
I0
sg17
I00
sg136
(F341.9720022813438
F475.16059885539721
F226.82894275254438
tp816
sg138
(lp817
sg14
g1
sg140
g9
((ltRp818
sg142
g9
((lp819
g809
atRp820
sg151
I00
sba(imodel.VarAtom
VarAtom
p821
(dp822
g3
g790
sg22
I00
sg23
Nsg24
g791
sg25
g39
sg63
g9
((lp823
g780
atRp824
sg16
S'O'
sg135
I0
sg17
I00
sg136
(F341.9720022813438
F475.16059885539721
F226.82894275254438
tp825
sg138
(lp826
sg14
g1
sg140
g9
((ltRp827
sg142
g9
((lp828
(imodel.Bond
Bond
p829
(dp830
g14
g1
sg146
g811
sg25
g39
sg18
g9
((lp831
g780
ag821
atRp832
sbatRp833
sg151
I00
sbatRp834
sg151
I00
sbsg25
g51
sg63
g9
((lp835
g785
atRp836
sg16
S'O'
sg135
I0
sg17
I00
sg136
(F341.9720022813438
F475.16059885539721
F226.82894275254438
tp837
sg138
(lp838
sg14
g1
sg140
g9
((ltRp839
sg142
g9
((lp840
(imodel.Bond
Bond
p841
(dp842
g14
g1
sg146
g811
sg25
g51
sg18
g9
((lp843
g785
ag788
atRp844
sbatRp845
sg151
I00
sbatRp846
sg16
S'C'
sg135
I0
sg17
I00
sg136
(F379.13279609948603
F498.89327927160582
F182.62922586924151
tp847
sg138
(lp848
F6.0815578327705957
asg14
g1
sg140
g9
((ltRp849
sg142
g9
((lp850
(imodel.Bond
Bond
p851
(dp852
g14
g1
sg146
g147
sg25
g51
sg18
g9
((lp853
g785
ag766
atRp854
sbag841
atRp855
sg151
I00
sbag797
ag780
atRp856
sg151
I00
sbsg25
g39
sg63
g9
((lp857
g777
ag821
atRp858
sg16
S'C'
sg135
I0
sg17
I00
sg136
(F379.13279609948603
F498.89327927160582
F182.62922586924151
tp859
sg138
(lp860
F6.0815578327705957
asg14
g1
sg140
g9
((ltRp861
sg142
g9
((lp862
(imodel.Bond
Bond
p863
(dp864
g14
g1
sg146
g147
sg25
g39
sg18
g9
((lp865
g780
ag777
atRp866
sbag829
atRp867
sg151
I00
sbag65
ag774
atRp868
sg16
S'C'
sg135
I0
sg17
I00
sg136
(F430.04770508543777
F490.41007221836435
F112.67998498025247
tp869
sg138
(lp870
sg14
g1
sg140
g9
((ltRp871
sg142
g9
((lp872
(imodel.Bond
Bond
p873
(dp874
g14
g1
sg146
g147
sg25
g39
sg18
g9
((lp875
g777
ag43
atRp876
sbag863
a(imodel.Bond
Bond
p877
(dp878
g14
g1
sg146
g147
sg25
g39
sg18
g9
((lp879
g777
ag774
atRp880
sba(imodel.Bond
Bond
p881
(dp882
g14
g1
sg146
g147
sg25
g39
sg18
g9
((lp883
g777
ag65
atRp884
sbatRp885
sg151
I00
sbatRp886
sg16
S'N'
sg135
I0
sg17
I00
sg136
(F475.94244679552548
F514.53605061733117
F116.96031339178333
tp887
sg138
(lp888
F0.039618329212473213
aF2.1340134316056734
asg14
g1
sg140
g9
((ltRp889
sg142
g9
((lp890
g877
atRp891
sg151
I00
sba(imodel.VarAtom
VarAtom
p892
(dp893
g3
S'N'
sg22
I00
sg23
Nsg24
g771
sg25
g26
sg63
g9
((lp894
(imodel.VarAtom
VarAtom
p895
(dp896
g3
VH
sg22
I00
sg23
Nsg24
(imodel.Atom
Atom
p897
(dp898
g3
VH
sg14
g1
sg15
I1
sg16
S'H'
sg17
I01
sg18
g9
((lp899
g895
atRp900
sg151
I00
sbsg25
g26
sg63
g9
((lp901
g892
atRp902
sg16
S'H'
sg135
I0
sg17
I01
sg136
(F498.51311871443374
F483.45126665058973
F14.626898761257561
tp903
sg138
(lp904
sg14
g1
sg140
g9
((ltRp905
sg142
g9
((lp906
(imodel.Bond
Bond
p907
(dp908
g14
g1
sg146
g147
sg25
g26
sg18
g9
((lp909
g892
ag895
atRp910
sbatRp911
sg151
I00
sbag760
atRp912
sg16
S'N'
sg135
I0
sg17
I00
sg136
(F475.94244679552548
F514.53605061733117
F116.96031339178333
tp913
sg138
(lp914
F0.22939341621455434
asg14
g1
sg140
g9
((ltRp915
sg142
g9
((lp916
g907
a(imodel.Bond
Bond
p917
(dp918
g14
g1
sg146
g147
sg25
g26
sg18
g9
((lp919
g760
ag892
atRp920
sbatRp921
sg151
I00
sbag769
atRp922
sg151
I00
sbsg25
g51
sg63
g9
((lp923
g766
atRp924
sg16
S'N'
sg135
I0
sg17
I00
sg136
(F475.94244679552548
F514.53605061733117
F116.96031339178333
tp925
sg138
(lp926
F0.039618329212473213
aF2.1340134316056734
asg14
g1
sg140
g9
((ltRp927
sg142
g9
((lp928
(imodel.Bond
Bond
p929
(dp930
g14
g1
sg146
g147
sg25
g51
sg18
g9
((lp931
g766
ag769
atRp932
sbatRp933
sg151
I00
sbag49
ag785
ag71
atRp934
sg16
S'C'
sg135
I0
sg17
I00
sg136
(F430.04770508543777
F490.41007221836435
F112.67998498025247
tp935
sg138
(lp936
sg14
g1
sg140
g9
((ltRp937
sg142
g9
((lp938
(imodel.Bond
Bond
p939
(dp940
g14
g1
sg146
g147
sg25
g51
sg18
g9
((lp941
g766
ag49
atRp942
sbag851
ag929
a(imodel.Bond
Bond
p943
(dp944
g14
g1
sg146
g147
sg25
g51
sg18
g9
((lp945
g766
ag71
atRp946
sbatRp947
sg151
I00
sbag777
atRp948
sg151
I00
sbsg25
g26
sg63
g9
((lp949
(imodel.VarAtom
VarAtom
p950
(dp951
g3
g45
sg22
I00
sg23
Nsg24
g46
sg25
g26
sg63
g9
((lp952
g760
atRp953
sg16
S'H'
sg135
I0
sg17
I00
sg136
(F423.00008745998082
F528.16932956955384
F88.605613331349872
tp954
sg138
(lp955
sg14
g1
sg140
g9
((ltRp956
sg142
g9
((lp957
(imodel.Bond
Bond
p958
(dp959
g14
g1
sg146
g147
sg25
g26
sg18
g9
((lp960
g760
ag950
atRp961
sbatRp962
sg151
I00
sbag797
ag757
ag892
atRp963
sg16
S'C'
sg135
I0
sg17
I00
sg136
(F430.04770508543777
F490.41007221836435
F112.67998498025247
tp964
sg138
(lp965
sg14
g1
sg140
g9
((ltRp966
sg142
g9
((lp967
g958
ag805
a(imodel.Bond
Bond
p968
(dp969
g14
g1
sg146
g147
sg25
g26
sg18
g9
((lp970
g760
ag757
atRp971
sbag917
atRp972
sg151
I00
sba(imodel.VarAtom
VarAtom
p973
(dp974
g3
S'HB2'
p975
sg22
I00
sg23
Nsg24
(imodel.Atom
Atom
p976
(dp977
g3
g975
sg14
g1
sg15
I1
sg16
S'H'
sg17
I00
sg18
g9
((lp978
g973
a(imodel.VarAtom
VarAtom
p979
(dp980
g3
g975
sg22
I00
sg23
Nsg24
g976
sg25
g51
sg63
g9
((lp981
g71
atRp982
sg16
S'H'
sg135
I0
sg17
I00
sg136
(F395.12189861454243
F432.13877315259731
F97.304293629467494
tp983
sg138
(lp984
sg14
g1
sg140
g9
((ltRp985
sg142
g9
((lp986
(imodel.Bond
Bond
p987
(dp988
g14
g1
sg146
g147
sg25
g51
sg18
g9
((lp989
g979
ag71
atRp990
sbatRp991
sg151
I00
sba(imodel.VarAtom
VarAtom
p992
(dp993
g3
g975
sg22
I00
sg23
Nsg24
g976
sg25
g39
sg63
g9
((lp994
g65
atRp995
sg16
S'H'
sg135
I0
sg17
I00
sg136
(F395.12189861454243
F432.13877315259731
F97.304293629467494
tp996
sg138
(lp997
sg14
g1
sg140
g9
((ltRp998
sg142
g9
((lp999
(imodel.Bond
Bond
p1000
(dp1001
g14
g1
sg146
g147
sg25
g39
sg18
g9
((lp1002
g992
ag65
atRp1003
sbatRp1004
sg151
I00
sbatRp1005
sg151
I00
sbsg25
g26
sg63
g9
((lp1006
g757
atRp1007
sg16
S'H'
sg135
I0
sg17
I00
sg136
(F395.12189861454243
F432.13877315259731
F97.304293629467494
tp1008
sg138
(lp1009
sg14
g1
sg140
g9
((ltRp1010
sg142
g9
((lp1011
(imodel.Bond
Bond
p1012
(dp1013
g14
g1
sg146
g147
sg25
g26
sg18
g9
((lp1014
g973
ag757
atRp1015
sbatRp1016
sg151
I00
sbag80
a(imodel.VarAtom
VarAtom
p1017
(dp1018
g3
g57
sg22
I00
sg23
Nsg24
g58
sg25
g26
sg63
g9
((lp1019
g757
atRp1020
sg16
S'H'
sg135
I0
sg17
I00
sg136
(F470.84518771892351
F435.64197149875326
F71.577325430861194
tp1021
sg138
(lp1022
sg14
g1
sg140
g9
((ltRp1023
sg142
g9
((lp1024
(imodel.Bond
Bond
p1025
(dp1026
g14
g1
sg146
g147
sg25
g26
sg18
g9
((lp1027
g1017
ag757
atRp1028
sbatRp1029
sg151
I00
sbatRp1030
sg16
S'C'
sg135
I0
sg17
I00
sg136
(F432.689080030431
F435.23878597009036
F72.191211257770377
tp1031
sg138
(lp1032
sg14
g1
sg140
g9
((ltRp1033
sg142
g9
((lp1034
g1025
ag968
ag1012
a(imodel.Bond
Bond
p1035
(dp1036
g14
g1
sg146
g147
sg25
g26
sg18
g9
((lp1037
g80
ag757
atRp1038
sbatRp1039
sg151
I00
sbag249
atRp1040
sg16
S'C'
sg135
I0
sg17
I00
sg136
(F421.60658295390823
F384.2432265963534
F4.2087374773221304
tp1041
sg138
(lp1042
sg14
g1
sg140
g9
((lp1043
g425
atRp1044
sg142
g9
((lp1045
g752
ag432
ag1035
atRp1046
sg151
I00
sbag314
atRp1047
sg151
I00
sbsg25
g51
sg63
g9
((lp1048
g89
ag255
ag71
atRp1049
sg16
S'C'
sg135
I0
sg17
I00
sg136
(F421.60658295390823
F384.2432265963534
F4.2087374773221304
tp1050
sg138
(lp1051
sg14
g1
sg140
g9
((lp1052
g265
atRp1053
sg142
g9
((lp1054
g739
ag302
a(imodel.Bond
Bond
p1055
(dp1056
g14
g1
sg146
g147
sg25
g51
sg18
g9
((lp1057
g74
ag71
atRp1058
sbatRp1059
sg151
I00
sbag979
ag766
atRp1060
sg16
S'C'
sg135
I0
sg17
I00
sg136
(F432.689080030431
F435.23878597009036
F72.191211257770377
tp1061
sg138
(lp1062
sg14
g1
sg140
g9
((ltRp1063
sg142
g9
((lp1064
(imodel.Bond
Bond
p1065
(dp1066
g14
g1
sg146
g147
sg25
g51
sg18
g9
((lp1067
g55
ag71
atRp1068
sbag943
ag987
ag1055
atRp1069
sg151
I00
sbag757
ag65
atRp1070
sg151
I00
sbsg25
g39
sg63
g9
((lp1071
g61
ag777
ag992
ag314
atRp1072
sg16
S'C'
sg135
I0
sg17
I00
sg136
(F432.689080030431
F435.23878597009036
F72.191211257770377
tp1073
sg138
(lp1074
sg14
g1
sg140
g9
((ltRp1075
sg142
g9
((lp1076
(imodel.Bond
Bond
p1077
(dp1078
g14
g1
sg146
g147
sg25
g39
sg18
g9
((lp1079
g61
ag65
atRp1080
sbag881
ag1000
ag394
atRp1081
sg151
I00
sbatRp1082
sg16
S'H'
sg135
I0
sg17
I00
sg136
(F470.84518771892351
F435.64197149875326
F71.577325430861194
tp1083
sg138
(lp1084
sg14
g1
sg140
g9
((ltRp1085
sg142
g9
((lp1086
g1077
atRp1087
sg151
I00
sbag1017
atRp1088
sg151
I00
sbsg25
g51
sg63
g9
((lp1089
g71
atRp1090
sg16
S'H'
sg135
I0
sg17
I00
sg136
(F470.84518771892351
F435.64197149875326
F71.577325430861194
tp1091
sg138
(lp1092
sg14
g1
sg140
g9
((ltRp1093
sg142
g9
((lp1094
g1065
atRp1095
sg151
I00
sbag188
ag979
ag326
ag216
ag49
ag167
ag125
atRp1096
sS'C'
g9
((lp1097
g74
ag71
ag258
ag785
ag185
ag89
ag255
ag122
ag201
ag766
ag164
atRp1098
sS'O'
g9
((lp1099
g788
atRp1100
sS'N'
g9
((lp1101
g769
ag92
atRp1102
ssg142
g9
((lp1103
g283
ag987
ag306
ag583
ag334
ag640
ag929
ag302
ag287
ag851
ag224
ag594
ag943
ag1065
ag939
ag196
ag841
ag520
ag728
ag509
ag739
ag291
ag1055
atRp1104
sg14
g1
sS'descriptor'
p1105
(S'neutral'
p1106
S'none'
p1107
S'default'
p1108
tp1109
sS'atomDict'
p1110
(dp1111
g11
g258
sg95
g92
sg323
g326
sg252
g255
sg213
g216
sg771
g769
sg204
g201
sg170
g167
sg34
g188
sg161
g164
sg68
g71
sg86
g89
sg58
g55
sg46
g49
sg77
g74
sg182
g185
sg119
g122
sg128
g125
sg782
g785
sg976
g979
sg763
g766
sg791
g788
ssg18
g9
((lp1112
g74
ag89
ag122
ag258
ag125
ag55
ag201
ag71
ag785
ag788
ag216
ag92
ag326
ag766
ag769
ag49
ag167
ag188
ag979
ag255
ag185
ag164
atRp1113
sg140
g9
((lp1114
g265
ag276
atRp1115
sS'polyLink'
p1116
g1107
sbsg63
g9
((lp1117
g766
atRp1118
sg16
S'H'
sg135
I0
sg17
I00
sg136
(F423.00008745998082
F528.16932956955384
F88.605613331349872
tp1119
sg138
(lp1120
sg14
g1
sg140
g9
((ltRp1121
sg142
g9
((lp1122
g939
atRp1123
sg151
I00
sbag950
ag43
atRp1124
sg151
I00
sbsg25
g39
sg63
g9
((lp1125
g777
atRp1126
sg16
S'H'
sg135
I0
sg17
I00
sg136
(F423.00008745998082
F528.16932956955384
F88.605613331349872
tp1127
sg138
(lp1128
sg14
g1
sg140
g9
((ltRp1129
sg142
g9
((lp1130
g873
atRp1131
sg151
I00
sbag61
ag107
ag131
ag992
ag320
ag210
ag37
ag173
atRp1132
sS'C'
g9
((lp1133
g311
ag317
ag176
ag314
ag116
ag65
ag113
ag777
ag179
ag207
ag780
atRp1134
sS'O'
g9
((lp1135
g821
atRp1136
sS'N'
g9
((lp1137
g774
ag110
atRp1138
ssg142
g9
((lp1139
g829
ag552
ag660
ag533
ag548
ag485
ag1000
ag873
ag410
ag671
ag144
ag375
ag682
ag379
ag414
ag394
ag496
ag359
ag537
ag1077
ag881
ag863
ag877
ag390
atRp1140
sg14
g1
sg1105
(g1106
g1107
g1108
tp1141
sg1110
(dp1142
g11
g113
sg976
g992
sg323
g320
sg252
g311
sg213
g210
sg771
g774
sg204
g207
sg170
g173
sg34
g37
sg161
g176
sg68
g65
sg86
g317
sg58
g61
sg46
g43
sg77
g314
sg128
g131
sg182
g179
sg119
g116
sg104
g107
sg782
g780
sg95
g110
sg763
g777
sg791
g821
ssg18
g9
((lp1143
g116
ag61
ag210
ag179
ag43
ag207
ag320
ag113
ag107
ag774
ag821
ag992
ag110
ag176
ag65
ag317
ag777
ag311
ag173
ag131
ag314
ag37
ag780
atRp1144
sg140
g9
((lp1145
g368
ag403
atRp1146
sg1116
g1107
sbsg63
g9
((lp1147
g179
atRp1148
sg16
S'H'
sg135
I0
sg17
I00
sg136
(F266.1068089833085
F317.9028862984087
F-135.67506344569048
tp1149
sg138
(lp1150
sg14
g1
sg140
g9
((ltRp1151
sg142
g9
((lp1152
g533
atRp1153
sg151
I00
sbag188
atRp1154
sg151
I00
sbsg25
g26
sg63
g9
((lp1155
g235
atRp1156
sg16
S'H'
sg135
I0
sg17
I00
sg136
(F266.1068089833085
F317.9028862984087
F-135.67506344569048
tp1157
sg138
(lp1158
sg14
g1
sg140
g9
((ltRp1159
sg142
g9
((lp1160
g448
atRp1161
sg151
I00
sbag563
ag229
ag101
ag1017
ag950
ag973
ag152
ag895
ag339
atRp1162
sS'C'
g9
((lp1163
g158
ag232
ag83
ag760
ag797
ag235
ag80
ag155
ag249
ag20
ag757
atRp1164
sS'O'
g9
((lp1165
g794
atRp1166
sS'N'
g9
((lp1167
g892
ag98
atRp1168
ssg142
g9
((lp1169
g711
ag907
ag1012
ag467
ag715
ag607
ag752
ag571
ag805
ag618
ag452
ag347
ag809
ag622
ag700
ag958
ag440
ag432
ag436
ag917
ag1025
ag448
ag456
ag968
ag1035
atRp1170
sg14
g1
sg1105
(g1106
g1107
g1108
tp1171
sg1110
(dp1172
g11
g20
sg95
g98
sg323
g339
sg252
g249
sg213
g229
sg771
g892
sg204
g232
sg170
g563
sg34
g31
sg77
g80
sg161
g158
sg68
g757
sg763
g760
sg46
g950
sg86
g83
sg128
g152
sg182
g235
sg119
g155
sg104
g101
sg58
g1017
sg782
g797
sg976
g973
sg897
g895
sg791
g794
ssg18
g9
((lp1173
g158
ag31
ag1017
ag249
ag229
ag950
ag757
ag232
ag101
ag83
ag760
ag235
ag797
ag794
ag80
ag152
ag895
ag892
ag339
ag20
ag155
ag98
ag973
ag563
atRp1174
sg140
g9
((lp1175
g425
ag242
atRp1176
sg1116
g1107
sbsg63
g9
((lp1177
g155
ag249
ag98
atRp1178
sg16
S'C'
sg135
I0
sg17
I00
sg136
(F403.50986118498071
F305.10106978858727
F-107.93545221336886
tp1179
sg138
(lp1180
sg14
g1
sg140
g9
((lp1181
g242
ag425
atRp1182
sg142
g9
((lp1183
g622
ag715
ag440
atRp1184
sg151
I00
sbag258
ag113
atRp1185
sg151
I00
sbag976
ag323
ag252
ag213
ag771
ag204
ag170
ag34
ag161
ag68
ag86
ag897
ag46
ag77
ag104
ag182
ag119
ag128
ag58
ag782
ag95
ag763
ag791
atRp1186
sS'ccpMolType'
p1187
S'protein'
p1188
sS'details'
p1189
V
sg1110
(dp1190
g169
g170
sg790
g791
sg181
g182
sg85
g86
sg251
g252
sg45
g46
sg103
g104
sg212
g213
sg118
g119
sg160
g161
sg33
g34
sg127
g128
sS'C'
g782
sg67
g68
sg762
g763
sg76
g77
sS'N'
g771
sg203
g204
sg13
g11
sg322
g323
sVH
g897
sg975
g976
sg57
g58
sg94
g95
ssS'keywords'
p1191
g9
((ltRp1192
sg140
g9
((lp1193
g368
ag276
ag265
ag242
ag425
ag403
atRp1194
sS'variants'
p1195
g9
((lp1196
g51
ag39
ag26
atRp1197
sS'defaultVars'
p1198
g9
((ltRp1199
sb.