(imodel.Compound
Compound
p1
(dp2
S'name'
p3
VTYROSINE
p4
sS'isModified'
p5
I01
sS'ccpCode'
p6
VTyr
p7
sS'atoms'
p8
c__builtin__
set
p9
((lp10
(imodel.Atom
Atom
p11
(dp12
g3
VH
sS'compound'
p13
g1
sS'baseValences'
p14
I1
sS'element'
p15
S'H'
sS'isVariable'
p16
I00
sS'varAtoms'
p17
g9
((lp18
(imodel.VarAtom
VarAtom
p19
(dp20
g3
VH
sS'isLabile'
p21
I00
sS'chirality'
p22
NsS'atom'
p23
g11
sS'variant'
p24
(imodel.Variant
Variant
p25
(dp26
S'elementDict'
p27
(dp28
S'H'
g9
((lp29
(imodel.VarAtom
VarAtom
p30
(dp31
g3
S'HD1'
p32
sg21
I00
sg22
Nsg23
(imodel.Atom
Atom
p33
(dp34
g3
g32
sg13
g1
sg14
I1
sg15
S'H'
sg16
I00
sg17
g9
((lp35
g30
atRp36
sS'isDeleted'
p37
I00
sbsg24
g25
sS'neighbours'
p38
g9
((lp39
(imodel.VarAtom
VarAtom
p40
(dp41
g3
S'CD1'
p42
sg21
I00
sg22
Nsg23
(imodel.Atom
Atom
p43
(dp44
g3
g42
sg13
g1
sg14
I4
sg15
S'C'
sg16
I00
sg17
g9
((lp45
g40
atRp46
sg37
I00
sbsg24
g25
sg38
g9
((lp47
(imodel.VarAtom
VarAtom
p48
(dp49
g3
S'CE1'
p50
sg21
I00
sg22
Nsg23
(imodel.Atom
Atom
p51
(dp52
g3
g50
sg13
g1
sg14
I4
sg15
S'C'
sg16
I00
sg17
g9
((lp53
g48
atRp54
sg37
I00
sbsg24
g25
sg38
g9
((lp55
(imodel.VarAtom
VarAtom
p56
(dp57
g3
S'CZ'
p58
sg21
I00
sg22
Nsg23
(imodel.Atom
Atom
p59
(dp60
g3
g58
sg13
g1
sg14
I4
sg15
S'C'
sg16
I00
sg17
g9
((lp61
g56
atRp62
sg37
I00
sbsg24
g25
sg38
g9
((lp63
g48
a(imodel.VarAtom
VarAtom
p64
(dp65
g3
S'CE2'
p66
sg21
I00
sg22
Nsg23
(imodel.Atom
Atom
p67
(dp68
g3
g66
sg13
g1
sg14
I4
sg15
S'C'
sg16
I00
sg17
g9
((lp69
g64
atRp70
sg37
I00
sbsg24
g25
sg38
g9
((lp71
g56
a(imodel.VarAtom
VarAtom
p72
(dp73
g3
S'HE2'
p74
sg21
I00
sg22
Nsg23
(imodel.Atom
Atom
p75
(dp76
g3
g74
sg13
g1
sg14
I1
sg15
S'H'
sg16
I00
sg17
g9
((lp77
g72
atRp78
sg37
I00
sbsg24
g25
sg38
g9
((lp79
g64
atRp80
sg15
S'H'
sS'charge'
p81
I0
sg16
I00
sS'coords'
p82
(F455.80479926524117
F264.18304518755053
F-147.15800529658648
tp83
sS'freeValences'
p84
(lp85
sg13
g1
sS'atomGroups'
p86
g9
((ltRp87
sS'bonds'
p88
g9
((lp89
(imodel.Bond
Bond
p90
(dp91
g13
g1
sS'bondType'
p92
S'single'
p93
sg24
g25
sg17
g9
((lp94
g72
ag64
atRp95
sbatRp96
sg37
I00
sba(imodel.VarAtom
VarAtom
p97
(dp98
g3
S'CD2'
p99
sg21
I00
sg22
Nsg23
(imodel.Atom
Atom
p100
(dp101
g3
g99
sg13
g1
sg14
I4
sg15
S'C'
sg16
I00
sg17
g9
((lp102
g97
atRp103
sg37
I00
sbsg24
g25
sg38
g9
((lp104
(imodel.VarAtom
VarAtom
p105
(dp106
g3
S'CG'
p107
sg21
I00
sg22
Nsg23
(imodel.Atom
Atom
p108
(dp109
g3
g107
sg13
g1
sg14
I4
sg15
S'C'
sg16
I00
sg17
g9
((lp110
g105
atRp111
sg37
I00
sbsg24
g25
sg38
g9
((lp112
(imodel.VarAtom
VarAtom
p113
(dp114
g3
S'CB'
p115
sg21
I00
sg22
Nsg23
(imodel.Atom
Atom
p116
(dp117
g3
g115
sg13
g1
sg14
I4
sg15
S'C'
sg16
I00
sg17
g9
((lp118
g113
atRp119
sg37
I00
sbsg24
g25
sg38
g9
((lp120
(imodel.VarAtom
VarAtom
p121
(dp122
g3
S'HB3'
p123
sg21
I00
sg22
Nsg23
(imodel.Atom
Atom
p124
(dp125
g3
g123
sg13
g1
sg14
I1
sg15
S'H'
sg16
I00
sg17
g9
((lp126
g121
atRp127
sg37
I00
sbsg24
g25
sg38
g9
((lp128
g113
atRp129
sg15
S'H'
sg81
I0
sg16
I00
sg82
(F376.10714302415602
F430.60718203642671
F66.906399109523505
tp130
sg84
(lp131
sg13
g1
sg86
g9
((ltRp132
sg88
g9
((lp133
(imodel.Bond
Bond
p134
(dp135
g13
g1
sg92
g93
sg24
g25
sg17
g9
((lp136
g113
ag121
atRp137
sbatRp138
sg37
I00
sba(imodel.VarAtom
VarAtom
p139
(dp140
g3
S'HB2'
p141
sg21
I00
sg22
Nsg23
(imodel.Atom
Atom
p142
(dp143
g3
g141
sg13
g1
sg14
I1
sg15
S'H'
sg16
I00
sg17
g9
((lp144
g139
atRp145
sg37
I00
sbsg24
g25
sg38
g9
((lp146
g113
atRp147
sg15
S'H'
sg81
I0
sg16
I00
sg82
(F448.48151615565581
F407.79707284276805
F67.84477463112043
tp148
sg84
(lp149
sg13
g1
sg86
g9
((ltRp150
sg88
g9
((lp151
(imodel.Bond
Bond
p152
(dp153
g13
g1
sg92
g93
sg24
g25
sg17
g9
((lp154
g113
ag139
atRp155
sbatRp156
sg37
I00
sba(imodel.VarAtom
VarAtom
p157
(dp158
g3
S'CA'
p159
sg21
I00
sg22
S'S'
sg23
(imodel.Atom
Atom
p160
(dp161
g3
g159
sg13
g1
sg14
I4
sg15
S'C'
sg16
I00
sg17
g9
((lp162
g157
atRp163
sg37
I00
sbsg24
g25
sg38
g9
((lp164
(imodel.VarAtom
VarAtom
p165
(dp166
g3
S'C'
sg21
I00
sg22
Nsg23
(imodel.Atom
Atom
p167
(dp168
g3
S'C'
sg13
g1
sg14
I4
sg15
S'C'
sg16
I00
sg17
g9
((lp169
g165
atRp170
sg37
I00
sbsg24
g25
sg38
g9
((lp171
g157
a(imodel.VarAtom
VarAtom
p172
(dp173
g3
S"O'"
p174
sg21
I00
sg22
Nsg23
(imodel.Atom
Atom
p175
(dp176
g3
g174
sg13
g1
sg14
I2
sg15
S'O'
sg16
I00
sg17
g9
((lp177
g172
atRp178
sg37
I00
sbsg24
g25
sg38
g9
((lp179
g165
atRp180
sg15
S'O'
sg81
I0
sg16
I00
sg82
(F346.71621706553651
F494.95884238787357
F200.52326826331742
tp181
sg84
(lp182
sg13
g1
sg86
g9
((ltRp183
sg88
g9
((lp184
(imodel.Bond
Bond
p185
(dp186
g13
g1
sg92
S'double'
p187
sg24
g25
sg17
g9
((lp188
g165
ag172
atRp189
sbatRp190
sg37
I00
sbatRp191
sg15
S'C'
sg81
I0
sg16
I00
sg82
(F389.44307384777164
F505.68045478945294
F168.94663750521713
tp192
sg84
(lp193
F0.16888387711148845
asg13
g1
sg86
g9
((ltRp194
sg88
g9
((lp195
(imodel.Bond
Bond
p196
(dp197
g13
g1
sg92
g93
sg24
g25
sg17
g9
((lp198
g165
ag157
atRp199
sbag185
atRp200
sg37
I00
sba(imodel.VarAtom
VarAtom
p201
(dp202
g3
S'HA'
p203
sg21
I00
sg22
Nsg23
(imodel.Atom
Atom
p204
(dp205
g3
g203
sg13
g1
sg14
I1
sg15
S'H'
sg16
I00
sg17
g9
((lp206
g201
atRp207
sg37
I00
sbsg24
g25
sg38
g9
((lp208
g157
atRp209
sg15
S'H'
sg81
I0
sg16
I00
sg82
(F465.69406738381258
F459.0202059905219
F84.900405991107121
tp210
sg84
(lp211
sg13
g1
sg86
g9
((ltRp212
sg88
g9
((lp213
(imodel.Bond
Bond
p214
(dp215
g13
g1
sg92
g93
sg24
g25
sg17
g9
((lp216
g201
ag157
atRp217
sbatRp218
sg37
I00
sba(imodel.VarAtom
VarAtom
p219
(dp220
g3
S'N'
sg21
I00
sg22
Nsg23
(imodel.Atom
Atom
p221
(dp222
g3
S'N'
sg13
g1
sg14
I3
sg15
S'N'
sg16
I00
sg17
g9
((lp223
g219
atRp224
sg37
I00
sbsg24
g25
sg38
g9
((lp225
g157
ag19
atRp226
sg15
S'N'
sg81
I0
sg16
I00
sg82
(F470.14908387378256
F520.44058634824512
F81.227847404662953
tp227
sg84
(lp228
F6.0958865376559794
asg13
g1
sg86
g9
((ltRp229
sg88
g9
((lp230
(imodel.Bond
Bond
p231
(dp232
g13
g1
sg92
g93
sg24
g25
sg17
g9
((lp233
g157
ag219
atRp234
sba(imodel.Bond
Bond
p235
(dp236
g13
g1
sg92
g93
sg24
g25
sg17
g9
((lp237
g19
ag219
atRp238
sbatRp239
sg37
I00
sbag113
atRp240
sg15
S'C'
sg81
I0
sg16
I00
sg82
(F432.31581220206027
F477.36892955637819
F95.289728832943709
tp241
sg84
(lp242
sg13
g1
sg86
g9
((ltRp243
sg88
g9
((lp244
g196
ag214
a(imodel.Bond
Bond
p245
(dp246
g13
g1
sg92
g93
sg24
g25
sg17
g9
((lp247
g113
ag157
atRp248
sbag231
atRp249
sg37
I00
sbag105
atRp250
sg15
S'C'
sg81
I0
sg16
I00
sg82
(F413.03031958061376
F421.47891493657954
F55.2512551039786
tp251
sg84
(lp252
sg13
g1
sg86
g9
((ltRp253
sg88
g9
((lp254
g152
ag245
a(imodel.Bond
Bond
p255
(dp256
g13
g1
sg92
g93
sg24
g25
sg17
g9
((lp257
g113
ag105
atRp258
sbag134
atRp259
sg37
I00
sbag40
ag97
atRp260
sg15
S'C'
sg81
I0
sg16
I00
sg82
(F398.69432605012787
F371.29144635417225
F-18.506058886296103
tp261
sg84
(lp262
sg13
g1
sg86
g9
((lp263
(imodel.AtomGroup
AtomGroup
p264
(dp265
S'groupType'
p266
S'aromatic'
p267
sS'subGroups'
p268
g9
((ltRp269
sg17
g9
((lp270
g40
ag97
ag48
ag64
ag105
ag56
atRp271
sg24
g25
sg13
g1
sbatRp272
sg88
g9
((lp273
g255
a(imodel.Bond
Bond
p274
(dp275
g13
g1
sg92
g267
sg24
g25
sg17
g9
((lp276
g105
ag97
atRp277
sba(imodel.Bond
Bond
p278
(dp279
g13
g1
sg92
g267
sg24
g25
sg17
g9
((lp280
g40
ag105
atRp281
sbatRp282
sg37
I00
sbag64
a(imodel.VarAtom
VarAtom
p283
(dp284
g3
S'HD2'
p285
sg21
I00
sg22
Nsg23
(imodel.Atom
Atom
p286
(dp287
g3
g285
sg13
g1
sg14
I1
sg15
S'H'
sg16
I00
sg17
g9
((lp288
g283
atRp289
sg37
I00
sbsg24
g25
sg38
g9
((lp290
g97
atRp291
sg15
S'H'
sg81
I0
sg16
I00
sg82
(F474.25636152292111
F341.96762367781582
F-25.987341275347205
tp292
sg84
(lp293
sg13
g1
sg86
g9
((ltRp294
sg88
g9
((lp295
(imodel.Bond
Bond
p296
(dp297
g13
g1
sg92
g93
sg24
g25
sg17
g9
((lp298
g283
ag97
atRp299
sbatRp300
sg37
I00
sbatRp301
sg15
S'C'
sg81
I0
sg16
I00
sg82
(F436.35421734095371
F337.982523788739
F-51.476564917990352
tp302
sg84
(lp303
sg13
g1
sg86
g9
((lp304
(imodel.AtomGroup
AtomGroup
p305
(dp306
g266
S'equivalent'
p307
sg268
g9
((ltRp308
sg17
g9
((lp309
g97
ag40
atRp310
sg24
g25
sg13
g1
sbag264
atRp311
sg88
g9
((lp312
g274
a(imodel.Bond
Bond
p313
(dp314
g13
g1
sg92
g267
sg24
g25
sg17
g9
((lp315
g64
ag97
atRp316
sbag296
atRp317
sg37
I00
sbatRp318
sg15
S'C'
sg81
I0
sg16
I00
sg82
(F426.81993513839586
F289.00257186842612
F-119.56370565810404
tp319
sg84
(lp320
sg13
g1
sg86
g9
((lp321
(imodel.AtomGroup
AtomGroup
p322
(dp323
g266
g307
sg268
g9
((ltRp324
sg17
g9
((lp325
g64
ag48
atRp326
sg24
g25
sg13
g1
sbag264
atRp327
sg88
g9
((lp328
(imodel.Bond
Bond
p329
(dp330
g13
g1
sg92
g267
sg24
g25
sg17
g9
((lp331
g56
ag64
atRp332
sbag313
ag90
atRp333
sg37
I00
sba(imodel.VarAtom
VarAtom
p334
(dp335
g3
S'OH'
p336
sg21
I00
sg22
Nsg23
(imodel.Atom
Atom
p337
(dp338
g3
g336
sg13
g1
sg14
I2
sg15
S'O'
sg16
I00
sg17
g9
((lp339
g334
atRp340
sg37
I00
sbsg24
g25
sg38
g9
((lp341
(imodel.VarAtom
VarAtom
p342
(dp343
g3
S'HH'
p344
sg21
I01
sg22
Nsg23
(imodel.Atom
Atom
p345
(dp346
g3
g344
sg13
g1
sg14
I1
sg15
S'H'
sg16
I00
sg17
g9
((lp347
g342
atRp348
sg37
I00
sbsg24
g25
sg38
g9
((lp349
g334
atRp350
sg15
S'H'
sg81
I0
sg16
I00
sg82
(F380.39154422108703
F184.39591073214871
F-243.2930214769637
tp351
sg84
(lp352
sg13
g1
sg86
g9
((ltRp353
sg88
g9
((lp354
(imodel.Bond
Bond
p355
(dp356
g13
g1
sg92
g93
sg24
g25
sg17
g9
((lp357
g334
ag342
atRp358
sbatRp359
sg37
I00
sbag56
atRp360
sg15
S'O'
sg81
I0
sg16
I00
sg82
(F376.32056547683987
F221.9353631741092
F-218.83944338633555
tp361
sg84
(lp362
sg13
g1
sg86
g9
((ltRp363
sg88
g9
((lp364
g355
a(imodel.Bond
Bond
p365
(dp366
g13
g1
sg92
g93
sg24
g25
sg17
g9
((lp367
g334
ag56
atRp368
sbatRp369
sg37
I00
sbatRp370
sg15
S'C'
sg81
I0
sg16
I00
sg82
(F379.52690895860962
F272.47155502616312
F-152.74671332979852
tp371
sg84
(lp372
sg13
g1
sg86
g9
((lp373
g264
atRp374
sg88
g9
((lp375
(imodel.Bond
Bond
p376
(dp377
g13
g1
sg92
g267
sg24
g25
sg17
g9
((lp378
g56
ag48
atRp379
sbag329
ag365
atRp380
sg37
I00
sba(imodel.VarAtom
VarAtom
p381
(dp382
g3
S'HE1'
p383
sg21
I00
sg22
Nsg23
(imodel.Atom
Atom
p384
(dp385
g3
g383
sg13
g1
sg14
I1
sg15
S'H'
sg16
I00
sg17
g9
((lp386
g381
atRp387
sg37
I00
sbsg24
g25
sg38
g9
((lp388
g48
atRp389
sg15
S'H'
sg81
I0
sg16
I00
sg82
(F307.30458132615769
F289.03100433794191
F-145.60947715750669
tp390
sg84
(lp391
sg13
g1
sg86
g9
((ltRp392
sg88
g9
((lp393
(imodel.Bond
Bond
p394
(dp395
g13
g1
sg92
g93
sg24
g25
sg17
g9
((lp396
g381
ag48
atRp397
sbatRp398
sg37
I00
sbag40
atRp399
sg15
S'C'
sg81
I0
sg16
I00
sg82
(F341.79268201359116
F305.46544213440239
F-118.17845311283477
tp400
sg84
(lp401
sg13
g1
sg86
g9
((lp402
g322
ag264
atRp403
sg88
g9
((lp404
g376
a(imodel.Bond
Bond
p405
(dp406
g13
g1
sg92
g267
sg24
g25
sg17
g9
((lp407
g40
ag48
atRp408
sbag394
atRp409
sg37
I00
sbag30
ag105
atRp410
sg15
S'C'
sg81
I0
sg16
I00
sg82
(F351.26808853893556
F354.51244256186448
F-51.284094909643976
tp411
sg84
(lp412
sg13
g1
sg86
g9
((lp413
g305
ag264
atRp414
sg88
g9
((lp415
g405
ag278
a(imodel.Bond
Bond
p416
(dp417
g13
g1
sg92
g93
sg24
g25
sg17
g9
((lp418
g40
ag30
atRp419
sbatRp420
sg37
I00
sbatRp421
sg15
S'H'
sg81
I0
sg16
I00
sg82
(F319.30161475020492
F375.32032133295036
F-23.935451976583764
tp422
sg84
(lp423
sg13
g1
sg86
g9
((ltRp424
sg88
g9
((lp425
g416
atRp426
sg37
I00
sbag72
ag121
ag139
ag283
ag19
ag201
ag342
ag381
atRp427
sS'C'
g9
((lp428
g165
ag97
ag105
ag157
ag40
ag48
ag64
ag113
ag56
atRp429
sS'O'
g9
((lp430
g172
ag334
atRp431
sS'N'
g9
((lp432
g219
atRp433
ssg88
g9
((lp434
g255
ag329
ag313
ag90
ag355
ag196
ag185
ag134
ag214
ag416
ag296
ag278
ag376
ag245
ag235
ag152
ag274
ag405
ag231
ag365
ag394
atRp435
sg13
g1
sS'descriptor'
p436
(S'neutral'
p437
S'none'
p438
S'default'
p439
tp440
sS'atomDict'
p441
(dp442
g11
g19
sg108
g105
sg160
g157
sg345
g342
sg167
g165
sg142
g139
sg67
g64
sg286
g283
sg175
g172
sg124
g121
sg204
g201
sg100
g97
sg221
g219
sg59
g56
sg43
g40
sg337
g334
sg75
g72
sg116
g113
sg33
g30
sg51
g48
sg384
g381
ssg17
g9
((lp443
g172
ag283
ag113
ag105
ag30
ag334
ag48
ag139
ag219
ag381
ag72
ag342
ag121
ag97
ag64
ag201
ag165
ag157
ag40
ag19
ag56
atRp444
sg86
g9
((lp445
g264
ag305
ag322
atRp446
sS'polyLink'
p447
g438
sbsg38
g9
((lp448
g219
atRp449
sg15
S'H'
sg81
I0
sg16
I00
sg82
(F504.67619803307758
F502.66426319136519
F92.42418570160946
tp450
sg84
(lp451
sg13
g1
sg86
g9
((ltRp452
sg88
g9
((lp453
g235
atRp454
sg37
I00
sbatRp455
sg37
I00
sbag43
ag160
ag124
ag345
ag167
ag142
ag67
ag175
ag286
ag204
ag100
ag221
ag59
ag108
ag337
ag75
ag33
ag116
ag51
ag384
atRp456
sS'ccpMolType'
p457
S'protein'
p458
sS'details'
p459
V
sg441
(dp460
g174
g175
sg344
g345
sg42
g43
sg99
g100
sg203
g204
sg383
g384
sg74
g75
sVH
g11
sS'C'
g167
sg115
g116
sg159
g160
sg107
g108
sS'N'
g221
sg58
g59
sg66
g67
sg50
g51
sg285
g286
sg32
g33
sg336
g337
sg123
g124
sg141
g142
ssS'keywords'
p461
g9
((ltRp462
sg86
g9
((lp463
g305
ag322
ag264
atRp464
sS'variants'
p465
g9
((lp466
g25
atRp467
sS'defaultVars'
p468
g9
((ltRp469
sb.