(imodel.Compound
Compound
p1
(dp2
S'name'
p3
S'Unnamed'
p4
sS'isModified'
p5
I01
sS'ccpCode'
p6
NsS'atoms'
p7
c__builtin__
set
p8
((lp9
(imodel.Atom
Atom
p10
(dp11
g3
S'C1'
p12
sS'compound'
p13
g1
sS'element'
p14
S'C'
sS'isVariable'
p15
I00
sS'varAtoms'
p16
g8
((lp17
(imodel.VarAtom
VarAtom
p18
(dp19
S'neighbours'
p20
g8
((lp21
(imodel.VarAtom
VarAtom
p22
(dp23
g20
g8
((lp24
(imodel.VarAtom
VarAtom
p25
(dp26
g20
g8
((lp27
g22
atRp28
sg3
VH21
p29
sS'isLabile'
p30
I00
sS'chirality'
p31
NsS'atom'
p32
(imodel.Atom
Atom
p33
(dp34
g3
g29
sg13
g1
sg14
S'H'
sg15
I00
sg16
g8
((lp35
g25
atRp36
sS'isDeleted'
p37
I00
sbsS'variant'
p38
(imodel.Variant
Variant
p39
(dp40
S'elementDict'
p41
(dp42
S'H'
g8
((lp43
(imodel.VarAtom
VarAtom
p44
(dp45
g20
g8
((lp46
g22
atRp47
sg3
VH23
p48
sg30
I00
sg31
Nsg32
(imodel.Atom
Atom
p49
(dp50
g3
g48
sg13
g1
sg14
S'H'
sg15
I00
sg16
g8
((lp51
g44
atRp52
sg37
I00
sbsg38
g39
sS'charge'
p53
I0
sg14
S'H'
sg15
I00
sS'coords'
p54
(F-57.510339548266266
F-89.599510787403844
F0.95949119464420995
tp55
sS'freeValences'
p56
(lp57
sg13
g1
sS'atomGroups'
p58
g8
((lp59
(imodel.AtomGroup
AtomGroup
p60
(dp61
S'groupType'
p62
S'equivalent'
p63
sS'subGroups'
p64
g8
((ltRp65
sg16
g8
((lp66
g25
a(imodel.VarAtom
VarAtom
p67
(dp68
g20
g8
((lp69
g22
atRp70
sg3
VH22
p71
sg30
I00
sg31
Nsg32
(imodel.Atom
Atom
p72
(dp73
g3
g71
sg13
g1
sg14
S'H'
sg15
I00
sg16
g8
((lp74
g67
atRp75
sg37
I00
sbsg38
g39
sg53
I0
sg14
S'H'
sg15
I00
sg54
(F-90.810751888763178
F-127.61310157347903
F1.9790898652829536
tp76
sg56
(lp77
sg13
g1
sg58
g8
((lp78
g60
atRp79
sS'bonds'
p80
g8
((lp81
(imodel.Bond
Bond
p82
(dp83
S'bondType'
p84
S'single'
p85
sg13
g1
sg38
g39
sg16
g8
((lp86
g22
ag67
atRp87
sbatRp88
sg37
I00
sbag44
atRp89
sg38
g39
sg13
g1
sbatRp90
sg80
g8
((lp91
(imodel.Bond
Bond
p92
(dp93
g84
g85
sg13
g1
sg38
g39
sg16
g8
((lp94
g22
ag44
atRp95
sbatRp96
sg37
I00
sba(imodel.VarAtom
VarAtom
p97
(dp98
g20
g8
((lp99
g18
atRp100
sg3
VH11
p101
sg30
I00
sg31
Nsg32
(imodel.Atom
Atom
p102
(dp103
g3
g101
sg13
g1
sg14
S'H'
sg15
I00
sg16
g8
((lp104
g97
atRp105
sg37
I00
sbsg38
g39
sg53
I0
sg14
S'H'
sg15
I00
sg54
(F-154.82971641534022
F-127.1848420881774
F0.99583973775096246
tp106
sg56
(lp107
sg13
g1
sg58
g8
((lp108
(imodel.AtomGroup
AtomGroup
p109
(dp110
g62
S'prochiral'
p111
sg64
g8
((ltRp112
sg16
g8
((lp113
g97
a(imodel.VarAtom
VarAtom
p114
(dp115
g20
g8
((lp116
g18
atRp117
sg3
VH12
p118
sg30
I00
sg31
Nsg32
(imodel.Atom
Atom
p119
(dp120
g3
g118
sg13
g1
sg14
S'H'
sg15
I00
sg16
g8
((lp121
g114
atRp122
sg37
I00
sbsg38
g39
sg53
I0
sg14
S'H'
sg15
I00
sg54
(F-154.40315974612378
F-50.444600493700982
F1.0249825724491655
tp123
sg56
(lp124
sg13
g1
sg58
g8
((lp125
g109
atRp126
sg80
g8
((lp127
(imodel.Bond
Bond
p128
(dp129
g84
g85
sg13
g1
sg38
g39
sg16
g8
((lp130
g18
ag114
atRp131
sbatRp132
sg37
I00
sbatRp133
sg38
g39
sg13
g1
sbatRp134
sg80
g8
((lp135
(imodel.Bond
Bond
p136
(dp137
g84
g85
sg13
g1
sg38
g39
sg16
g8
((lp138
g18
ag97
atRp139
sbatRp140
sg37
I00
sbag25
ag67
ag114
atRp141
sS'C'
g8
((lp142
g18
ag22
atRp143
ssg80
g8
((lp144
g136
ag128
a(imodel.Bond
Bond
p145
(dp146
g84
g85
sg13
g1
sg38
g39
sg16
g8
((lp147
g18
ag22
atRp148
sbag82
a(imodel.Bond
Bond
p149
(dp150
g84
g85
sg13
g1
sg38
g39
sg16
g8
((lp151
g22
ag25
atRp152
sbag92
atRp153
sg13
g1
sS'atomDict'
p154
(dp155
g10
g18
sg33
g25
s(imodel.Atom
Atom
p156
(dp157
g3
S'C2'
p158
sg13
g1
sg14
S'C'
sg15
I00
sg16
g8
((lp159
g22
atRp160
sg37
I00
sbg22
sg72
g67
sg102
g97
sg119
g114
sg49
g44
ssS'descriptor'
p161
(S'neutral'
p162
S'none'
p163
S'default'
p164
tp165
sg16
g8
((lp166
g97
ag18
ag44
ag67
ag114
ag25
ag22
atRp167
sg58
g8
((lp168
g60
ag109
atRp169
sS'polyLink'
p170
g163
sbsg53
I0
sg14
S'H'
sg15
I00
sg54
(F-90.134021389715713
F-50.943720620919457
F1.6844201148799756
tp171
sg56
(lp172
sg13
g1
sg58
g8
((lp173
g60
atRp174
sg80
g8
((lp175
g149
atRp176
sg37
I00
sbag67
ag18
ag44
atRp177
sg3
g158
sg30
I00
sg31
Nsg32
g156
sg38
g39
sg53
I0
sg14
S'C'
sg15
I00
sg54
(F-96.4735879100825
F-89.227398917959093
F0.63125528278800425
tp178
sg56
(lp179
sg13
g1
sg58
g8
((ltRp180
sg80
g8
((lp181
g145
ag149
ag82
ag92
atRp182
sg37
I00
sbag97
ag114
atRp183
sg3
g12
sg30
I00
sg31
Nsg32
g10
sg38
g39
sg53
I0
sg14
S'C'
sg15
I00
sg54
(F-148.59800703433814
F-88.853732415017944
F0.95056472394211111
tp184
sg56
(lp185
F4.7179695456754818
asg13
g1
sg58
g8
((ltRp186
sg80
g8
((lp187
g145
ag136
ag128
atRp188
sg37
I00
sbatRp189
sg37
I00
sbag33
ag156
ag72
ag102
ag119
ag49
atRp190
sS'ccpMolType'
p191
S'other'
p192
sS'details'
p193
V
sg154
(dp194
g101
g102
sg118
g119
sg29
g33
sg48
g49
sg71
g72
sg158
g156
sg12
g10
ssS'keywords'
p195
g8
((ltRp196
sg58
g8
((lp197
g60
ag109
atRp198
sS'variants'
p199
g8
((lp200
g39
atRp201
sS'defaultVars'
p202
g8
((ltRp203
sb.