(imodel.Compound
Compound
p1
(dp2
S'name'
p3
S'Unnamed'
p4
sS'isModified'
p5
I00
sS'ccpCode'
p6
NsS'atoms'
p7
c__builtin__
set
p8
((lp9
(imodel.Atom
Atom
p10
(dp11
g3
S'C1'
p12
sS'compound'
p13
g1
sS'element'
p14
S'C'
sS'isVariable'
p15
I00
sS'varAtoms'
p16
g8
((lp17
(imodel.VarAtom
VarAtom
p18
(dp19
g3
g12
sS'isLabile'
p20
I00
sS'chirality'
p21
NsS'atom'
p22
g10
sS'variant'
p23
(imodel.Variant
Variant
p24
(dp25
S'elementDict'
p26
(dp27
S'H'
g8
((lp28
(imodel.VarAtom
VarAtom
p29
(dp30
g3
VH32
p31
sg20
I00
sg21
Nsg22
(imodel.Atom
Atom
p32
(dp33
g3
g31
sg13
g1
sg14
S'H'
sg15
I00
sg16
g8
((lp34
g29
atRp35
sS'isDeleted'
p36
I00
sbsg23
g24
sS'neighbours'
p37
g8
((lp38
(imodel.VarAtom
VarAtom
p39
(dp40
g3
S'C3'
p41
sg20
I00
sg21
Nsg22
(imodel.Atom
Atom
p42
(dp43
g3
g41
sg13
g1
sg14
S'C'
sg15
I00
sg16
g8
((lp44
g39
atRp45
sg36
I00
sbsg23
g24
sg37
g8
((lp46
(imodel.VarAtom
VarAtom
p47
(dp48
g3
VH31
p49
sg20
I00
sg21
Nsg22
(imodel.Atom
Atom
p50
(dp51
g3
g49
sg13
g1
sg14
S'H'
sg15
I00
sg16
g8
((lp52
g47
atRp53
sg36
I00
sbsg23
g24
sg37
g8
((lp54
g39
atRp55
sg14
S'H'
sS'charge'
p56
I0
sg15
I00
sS'coords'
p57
(F-138.99226777252514
F-145.05870439151141
F1.3449330733885798
tp58
sS'freeValences'
p59
(lp60
sg13
g1
sS'atomGroups'
p61
g8
((lp62
(imodel.AtomGroup
AtomGroup
p63
(dp64
S'groupType'
p65
S'equivalent'
p66
sS'subGroups'
p67
g8
((ltRp68
sg16
g8
((lp69
g47
ag29
a(imodel.VarAtom
VarAtom
p70
(dp71
g3
VH33
p72
sg20
I00
sg21
Nsg22
(imodel.Atom
Atom
p73
(dp74
g3
g72
sg13
g1
sg14
S'H'
sg15
I00
sg16
g8
((lp75
g70
atRp76
sg36
I00
sbsg23
g24
sg37
g8
((lp77
g39
atRp78
sg14
S'H'
sg56
I0
sg15
I00
sg57
(F-101.98758196678803
F-177.98873193927614
F0.23690127242084458
tp79
sg59
(lp80
sg13
g1
sg61
g8
((lp81
g63
atRp82
sS'bonds'
p83
g8
((lp84
(imodel.Bond
Bond
p85
(dp86
g13
g1
sS'bondType'
p87
S'single'
p88
sg23
g24
sg16
g8
((lp89
g39
ag70
atRp90
sbatRp91
sg36
I00
sbatRp92
sg23
g24
sg13
g1
sbatRp93
sg83
g8
((lp94
(imodel.Bond
Bond
p95
(dp96
g13
g1
sg87
g88
sg23
g24
sg16
g8
((lp97
g39
ag47
atRp98
sbatRp99
sg36
I00
sbag29
a(imodel.VarAtom
VarAtom
p100
(dp101
g3
S'C2'
p102
sg20
I00
sg21
Nsg22
(imodel.Atom
Atom
p103
(dp104
g3
g102
sg13
g1
sg14
S'C'
sg15
I00
sg16
g8
((lp105
g100
atRp106
sg36
I00
sbsg23
g24
sg37
g8
((lp107
g18
ag39
a(imodel.VarAtom
VarAtom
p108
(dp109
g3
VH21
p110
sg20
I00
sg21
Nsg22
(imodel.Atom
Atom
p111
(dp112
g3
g110
sg13
g1
sg14
S'H'
sg15
I00
sg16
g8
((lp113
g108
atRp114
sg36
I00
sbsg23
g24
sg37
g8
((lp115
g100
atRp116
sg14
S'H'
sg56
I0
sg15
I00
sg57
(F-60.104053249366743
F-87.058272142121126
F2.1624572375269313
tp117
sg59
(lp118
sg13
g1
sg61
g8
((ltRp119
sg83
g8
((lp120
(imodel.Bond
Bond
p121
(dp122
g13
g1
sg87
g88
sg23
g24
sg16
g8
((lp123
g100
ag108
atRp124
sbatRp125
sg36
I00
sbatRp126
sg14
S'C'
sg56
I0
sg15
I00
sg57
(F-98.572069728138715
F-84.90251540681632
F0.90169164997260509
tp127
sg59
(lp128
F4.7484796806187166
asg13
g1
sg61
g8
((ltRp129
sg83
g8
((lp130
(imodel.Bond
Bond
p131
(dp132
g13
g1
sg87
g88
sg23
g24
sg16
g8
((lp133
g18
ag100
atRp134
sbag121
a(imodel.Bond
Bond
p135
(dp136
g13
g1
sg87
g88
sg23
g24
sg16
g8
((lp137
g100
ag39
atRp138
sbatRp139
sg36
I00
sbag70
atRp140
sg14
S'C'
sg56
I0
sg15
I00
sg57
(F-100.55370861938344
F-139.00512213456628
F0.97630377603405927
tp141
sg59
(lp142
sg13
g1
sg61
g8
((ltRp143
sg83
g8
((lp144
g135
ag85
a(imodel.Bond
Bond
p145
(dp146
g13
g1
sg87
g88
sg23
g24
sg16
g8
((lp147
g39
ag29
atRp148
sbag95
atRp149
sg36
I00
sbatRp150
sg14
S'H'
sg56
I0
sg15
I00
sg57
(F-62.661652381608221
F-147.8625883249546
F1.4599159786580742
tp151
sg59
(lp152
sg13
g1
sg61
g8
((lp153
g63
atRp154
sg83
g8
((lp155
g145
atRp156
sg36
I00
sba(imodel.VarAtom
VarAtom
p157
(dp158
g3
VH12
p159
sg20
I00
sg21
Nsg22
(imodel.Atom
Atom
p160
(dp161
g3
g159
sg13
g1
sg14
S'H'
sg15
I00
sg16
g8
((lp162
g157
atRp163
sg36
I00
sbsg23
g24
sg37
g8
((lp164
g18
atRp165
sg14
S'H'
sg56
I0
sg15
I00
sg57
(F-58.178075416410131
F-27.053637347350254
F1.0249825724491655
tp166
sg59
(lp167
sg13
g1
sg61
g8
((lp168
(imodel.AtomGroup
AtomGroup
p169
(dp170
g65
g66
sg67
g8
((ltRp171
sg16
g8
((lp172
(imodel.VarAtom
VarAtom
p173
(dp174
g3
VH11
p175
sg20
I00
sg21
Nsg22
(imodel.Atom
Atom
p176
(dp177
g3
g175
sg13
g1
sg14
S'H'
sg15
I00
sg16
g8
((lp178
g173
atRp179
sg36
I00
sbsg23
g24
sg37
g8
((lp180
g18
atRp181
sg14
S'H'
sg56
I0
sg15
I00
sg57
(F-134.89532404275266
F-25.127399102840059
F0.99583973775096246
tp182
sg59
(lp183
sg13
g1
sg61
g8
((lp184
g169
atRp185
sg83
g8
((lp186
(imodel.Bond
Bond
p187
(dp188
g13
g1
sg87
g88
sg23
g24
sg16
g8
((lp189
g18
ag173
atRp190
sbatRp191
sg36
I00
sbag157
a(imodel.VarAtom
VarAtom
p192
(dp193
g3
VH13
p194
sg20
I00
sg21
Nsg22
(imodel.Atom
Atom
p195
(dp196
g3
g194
sg13
g1
sg14
S'H'
sg15
I00
sg16
g8
((lp197
g192
atRp198
sg36
I00
sbsg23
g24
sg37
g8
((lp199
g18
atRp200
sg14
S'H'
sg56
I0
sg15
I00
sg57
(F-95.577089638772406
F6.8600986725727324
F0.88840319711916016
tp201
sg59
(lp202
sg13
g1
sg61
g8
((lp203
g169
atRp204
sg83
g8
((lp205
(imodel.Bond
Bond
p206
(dp207
g13
g1
sg87
g88
sg23
g24
sg16
g8
((lp208
g18
ag192
atRp209
sbatRp210
sg36
I00
sbatRp211
sg23
g24
sg13
g1
sbatRp212
sg83
g8
((lp213
(imodel.Bond
Bond
p214
(dp215
g13
g1
sg87
g88
sg23
g24
sg16
g8
((lp216
g18
ag157
atRp217
sbatRp218
sg36
I00
sbag108
ag47
ag192
ag70
ag173
atRp219
sS'C'
g8
((lp220
g18
ag100
ag39
atRp221
ssg83
g8
((lp222
g214
ag85
ag187
ag206
ag95
ag135
ag145
ag131
ag121
atRp223
sg13
g1
sS'descriptor'
p224
(S'neutral'
S'none'
p225
S'default'
tp226
sS'atomDict'
p227
(dp228
g10
g18
sg103
g100
sg160
g157
sg32
g29
sg50
g47
sg111
g108
sg176
g173
sg73
g70
sg42
g39
sg195
g192
ssg16
g8
((lp229
g100
ag29
ag157
ag192
ag18
ag70
ag39
ag108
ag47
ag173
atRp230
sg61
g8
((lp231
g169
ag63
atRp232
sS'polyLink'
p233
g225
sbsg37
g8
((lp234
g173
ag100
ag157
ag192
atRp235
sg14
S'C'
sg56
I0
sg15
I00
sg57
(F-96.693323836153709
F-32.107037402928832
F0.95056472394211111
tp236
sg59
(lp237
sg13
g1
sg61
g8
((ltRp238
sg83
g8
((lp239
g131
ag187
ag206
ag214
atRp240
sg36
I00
sbatRp241
sg36
I00
sbag103
ag160
ag32
ag50
ag111
ag176
ag73
ag42
ag195
atRp242
sS'ccpMolType'
p243
S'other'
p244
sS'details'
p245
V
sg227
(dp246
g175
g176
sg159
g160
sg194
g195
sg110
g111
sg31
g32
sg72
g73
sg49
g50
sg41
g42
sg102
g103
sg12
g10
ssS'keywords'
p247
g8
((ltRp248
sg61
g8
((lp249
g169
ag63
atRp250
sS'variants'
p251
g8
((lp252
g24
atRp253
sS'defaultVars'
p254
g8
((ltRp255
sb.