(imodel.Compound
Compound
p1
(dp2
S'name'
p3
VUnnamed
p4
sS'isModified'
p5
I01
sS'ccpCode'
p6
V
sS'atoms'
p7
c__builtin__
set
p8
((lp9
(imodel.Atom
Atom
p10
(dp11
g3
S'C1'
p12
sS'compound'
p13
g1
sS'element'
p14
S'C'
sS'isVariable'
p15
I00
sS'varAtoms'
p16
g8
((lp17
(imodel.VarAtom
VarAtom
p18
(dp19
S'neighbours'
p20
g8
((lp21
(imodel.VarAtom
VarAtom
p22
(dp23
g20
g8
((lp24
g18
atRp25
sg3
S'H1_1'
p26
sS'isLabile'
p27
I00
sS'chirality'
p28
NsS'atom'
p29
(imodel.Atom
Atom
p30
(dp31
g3
g26
sg13
g1
sg14
S'H'
sg15
I00
sg16
g8
((lp32
g22
atRp33
sS'isDeleted'
p34
I00
sbsS'variant'
p35
(imodel.Variant
Variant
p36
(dp37
S'elementDict'
p38
(dp39
S'H'
g8
((lp40
(imodel.VarAtom
VarAtom
p41
(dp42
g20
g8
((lp43
g18
atRp44
sg3
S'H1_2'
p45
sg27
I00
sg28
Nsg29
(imodel.Atom
Atom
p46
(dp47
g3
g45
sg13
g1
sg14
S'H'
sg15
I00
sg16
g8
((lp48
g41
atRp49
sg34
I00
sbsg35
g36
sS'charge'
p50
I0
sg14
S'H'
sg15
I00
sS'coords'
p51
(F44.373059741487957
F152.61291390103764
F0.49570024707363569
tp52
sS'freeValences'
p53
(lp54
sg13
g1
sS'atomGroups'
p55
g8
((lp56
(imodel.AtomGroup
AtomGroup
p57
(dp58
S'groupType'
p59
S'equivalent'
p60
sS'subGroups'
p61
g8
((ltRp62
sg16
g8
((lp63
g22
ag41
a(imodel.VarAtom
VarAtom
p64
(dp65
g20
g8
((lp66
g18
atRp67
sg3
S'H1_3'
p68
sg27
I00
sg28
Nsg29
(imodel.Atom
Atom
p69
(dp70
g3
g68
sg13
g1
sg14
S'H'
sg15
I00
sg16
g8
((lp71
g64
atRp72
sg34
I00
sbsg35
g36
sg50
I0
sg14
S'H'
sg15
I00
sg51
(F76.025920805440421
F203.43662160877875
F0.57285810638077361
tp73
sg53
(lp74
sg13
g1
sg55
g8
((lp75
g57
atRp76
sS'bonds'
p77
g8
((lp78
(imodel.Bond
Bond
p79
(dp80
S'bondType'
p81
S'single'
p82
sg13
g1
sg35
g36
sg16
g8
((lp83
g18
ag64
atRp84
sbatRp85
sg34
I00
sbatRp86
sg35
g36
sg13
g1
sbatRp87
sg77
g8
((lp88
(imodel.Bond
Bond
p89
(dp90
g81
g82
sg13
g1
sg35
g36
sg16
g8
((lp91
g18
ag41
atRp92
sbatRp93
sg34
I00
sbag22
ag64
atRp94
sS'C'
g8
((lp95
g18
atRp96
ssg77
g8
((lp97
(imodel.Bond
Bond
p98
(dp99
g81
g82
sg13
g1
sg35
g36
sg16
g8
((lp100
g18
ag22
atRp101
sbag89
ag79
atRp102
sg13
g1
sS'atomDict'
p103
(dp104
g10
g18
sg46
g41
sg30
g22
sg69
g64
ssS'descriptor'
p105
(S'neutral'
p106
S'none'
p107
S'default'
p108
tp109
sg16
g8
((lp110
g18
ag41
ag64
ag22
atRp111
sg55
g8
((lp112
g57
atRp113
sS'polyLink'
p114
g107
sbsg50
I0
sg14
S'H'
sg15
I00
sg51
(F25.085304880086859
F224.60417949481257
F0.58666977013416022
tp115
sg53
(lp116
sg13
g1
sg55
g8
((lp117
g57
atRp118
sg77
g8
((lp119
g98
atRp120
sg34
I00
sbag41
ag64
atRp121
sg3
g12
sg27
I00
sg28
Nsg29
g10
sg35
g36
sg50
I0
sg14
S'C'
sg15
I00
sg51
(F41.467159891273781
F190.77272689128287
F0.18340229808236996
tp122
sg53
(lp123
F4.4489150096283883
asg13
g1
sg55
g8
((ltRp124
sg77
g8
((lp125
g98
ag89
ag79
atRp126
sg34
I00
sbatRp127
sg34
I00
sbag46
ag30
ag69
atRp128
sS'ccpMolType'
p129
S'other'
p130
sS'details'
p131
V
sg103
(dp132
g26
g30
sg12
g10
sg68
g69
sg45
g46
ssS'keywords'
p133
g8
((ltRp134
sg55
g8
((lp135
g57
atRp136
sS'variants'
p137
g8
((lp138
g36
atRp139
sS'defaultVars'
p140
g8
((ltRp141
sb.