(imodel.Compound
Compound
p1
(dp2
S'name'
p3
S'Unnamed'
p4
sS'isModified'
p5
I01
sS'ccpCode'
p6
NsS'atoms'
p7
c__builtin__
set
p8
((lp9
(imodel.Atom
Atom
p10
(dp11
g3
S'C3'
p12
sS'compound'
p13
g1
sS'element'
p14
S'C'
sS'isVariable'
p15
I00
sS'varAtoms'
p16
g8
((lp17
(imodel.VarAtom
VarAtom
p18
(dp19
g3
g12
sS'isLabile'
p20
I00
sS'chirality'
p21
NsS'atom'
p22
g10
sS'variant'
p23
(imodel.Variant
Variant
p24
(dp25
S'elementDict'
p26
(dp27
S'H'
g8
((lp28
(imodel.VarAtom
VarAtom
p29
(dp30
S'neighbours'
p31
g8
((lp32
(imodel.VarAtom
VarAtom
p33
(dp34
g3
S'C4'
p35
sg20
I00
sg21
Nsg22
(imodel.Atom
Atom
p36
(dp37
g3
g35
sg13
g1
sg14
S'C'
sg15
I00
sg16
g8
((lp38
g33
atRp39
sS'isDeleted'
p40
I00
sbsg23
g24
sS'neighbours'
p41
g8
((lp42
(imodel.VarAtom
VarAtom
p43
(dp44
g3
S'C5'
p45
sg20
I00
sg21
Nsg22
(imodel.Atom
Atom
p46
(dp47
g3
g45
sg13
g1
sg14
S'C'
sg15
I00
sg16
g8
((lp48
g43
atRp49
sg40
I00
sbsg23
g24
sg41
g8
((lp50
g33
a(imodel.VarAtom
VarAtom
p51
(dp52
g31
g8
((lp53
g43
atRp54
sS'name'
p55
S'H5'
p56
sS'isLabile'
p57
I00
sS'chirality'
p58
NsS'atom'
p59
(imodel.Atom
Atom
p60
(dp61
g55
g56
sS'compound'
p62
g1
sS'element'
p63
S'H'
sS'isVariable'
p64
I00
sS'varAtoms'
p65
g8
((lp66
g51
atRp67
sS'isDeleted'
p68
I00
sbsS'variant'
p69
g24
sS'charge'
p70
I0
sg63
S'H'
sg64
I00
sS'coords'
p71
(F39.028143656930936
F259.2994353440414
F0.88127218833038246
tp72
sS'freeValences'
p73
(lp74
sg62
g1
sS'atomGroups'
p75
g8
((ltRp76
sS'bonds'
p77
g8
((lp78
(imodel.Bond
Bond
p79
(dp80
S'bondType'
p81
S'single'
p82
sg62
g1
sg69
g24
sg65
g8
((lp83
g43
ag51
atRp84
sbatRp85
sg68
I00
sba(imodel.VarAtom
VarAtom
p86
(dp87
g3
S'C6'
p88
sg20
I00
sg21
Nsg22
(imodel.Atom
Atom
p89
(dp90
g3
g88
sg13
g1
sg14
S'C'
sg15
I00
sg16
g8
((lp91
g86
atRp92
sg40
I00
sbsg23
g24
sg41
g8
((lp93
g43
a(imodel.VarAtom
VarAtom
p94
(dp95
g3
S'C1'
p96
sg20
I00
sg21
Nsg22
(imodel.Atom
Atom
p97
(dp98
g3
g96
sg13
g1
sg14
S'C'
sg15
I00
sg16
g8
((lp99
g94
atRp100
sg40
I00
sbsg23
g24
sg41
g8
((lp101
(imodel.VarAtom
VarAtom
p102
(dp103
g3
S'C2'
p104
sg20
I00
sg21
Nsg22
(imodel.Atom
Atom
p105
(dp106
g3
g104
sg13
g1
sg14
S'C'
sg15
I00
sg16
g8
((lp107
g102
atRp108
sg40
I00
sbsg23
g24
sg41
g8
((lp109
g18
ag94
a(imodel.VarAtom
VarAtom
p110
(dp111
g31
g8
((lp112
g102
atRp113
sg55
S'H2'
p114
sg57
I00
sg58
Nsg59
(imodel.Atom
Atom
p115
(dp116
g55
g114
sg62
g1
sg63
S'H'
sg64
I00
sg65
g8
((lp117
g110
atRp118
sg68
I00
sbsg69
g24
sg70
I0
sg63
S'H'
sg64
I00
sg71
(F-33.363269730621617
F99.363415850050089
F1.0883409285639651
tp119
sg73
(lp120
sg62
g1
sg75
g8
((ltRp121
sg77
g8
((lp122
(imodel.Bond
Bond
p123
(dp124
g81
g82
sg62
g1
sg69
g24
sg65
g8
((lp125
g102
ag110
atRp126
sbatRp127
sg68
I00
sbatRp128
sg14
S'C'
sS'charge'
p129
I0
sg15
I00
sS'coords'
p130
(F-11.245323404614261
F130.38201562148132
F1.2009863795905427
tp131
sS'freeValences'
p132
(lp133
sg13
g1
sS'atomGroups'
p134
g8
((lp135
(imodel.AtomGroup
AtomGroup
p136
(dp137
S'groupType'
p138
S'aromatic'
p139
sS'subGroups'
p140
g8
((ltRp141
sg65
g8
((lp142
g86
ag102
ag43
ag94
ag33
ag18
atRp143
sg69
g24
sg62
g1
sbatRp144
sS'bonds'
p145
g8
((lp146
(imodel.Bond
Bond
p147
(dp148
g13
g1
sS'bondType'
p149
g139
sg23
g24
sg16
g8
((lp150
g102
ag18
atRp151
sba(imodel.Bond
Bond
p152
(dp153
g13
g1
sg149
g139
sg23
g24
sg16
g8
((lp154
g94
ag102
atRp155
sbag123
atRp156
sg40
I00
sbag86
atRp157
sg14
S'C'
sg129
I0
sg15
I00
sg130
(F-42.085429548773625
F169.66017138612318
F1.0900712052013448
tp158
sg132
(lp159
F4.5665249659958569
asg13
g1
sg134
g8
((lp160
g136
atRp161
sg145
g8
((lp162
g152
a(imodel.Bond
Bond
p163
(dp164
g13
g1
sg149
g139
sg23
g24
sg16
g8
((lp165
g94
ag86
atRp166
sbatRp167
sg40
I00
sba(imodel.VarAtom
VarAtom
p168
(dp169
g31
g8
((lp170
g86
atRp171
sg55
S'H6'
p172
sg57
I00
sg58
Nsg59
(imodel.Atom
Atom
p173
(dp174
g55
g172
sg62
g1
sg63
S'H'
sg64
I00
sg65
g8
((lp175
g168
atRp176
sg68
I00
sbsg69
g24
sg70
I0
sg63
S'H'
sg64
I00
sg71
(F-52.331454083116562
F241.42089779037832
F0.44627518046811554
tp177
sg73
(lp178
sg62
g1
sg75
g8
((ltRp179
sg77
g8
((lp180
(imodel.Bond
Bond
p181
(dp182
g81
g82
sg62
g1
sg69
g24
sg65
g8
((lp183
g86
ag168
atRp184
sbatRp185
sg68
I00
sbatRp186
sg14
S'C'
sg129
I0
sg15
I00
sg130
(F-23.848880814517329
F216.13889440824175
F1.140097990720768
tp187
sg132
(lp188
sg13
g1
sg134
g8
((lp189
g136
atRp190
sg145
g8
((lp191
(imodel.Bond
Bond
p192
(dp193
g13
g1
sg149
g139
sg23
g24
sg16
g8
((lp194
g86
ag43
atRp195
sbag163
ag181
atRp196
sg40
I00
sbatRp197
sg14
S'C'
sg129
I0
sg15
I00
sg130
(F25.803973153007639
F223.51219521083138
F0.92099650318783111
tp198
sg132
(lp199
sg13
g1
sg134
g8
((lp200
g136
atRp201
sg145
g8
((lp202
(imodel.Bond
Bond
p203
(dp204
g13
g1
sg149
g139
sg23
g24
sg16
g8
((lp205
g33
ag43
atRp206
sbag192
ag79
atRp207
sg40
I00
sbag29
ag18
atRp208
sg14
S'C'
sg129
I0
sg15
I00
sg130
(F56.843464896012101
F184.20368160998137
F0.8569665170131453
tp209
sg132
(lp210
sg13
g1
sg134
g8
((lp211
g136
atRp212
sg145
g8
((lp213
g203
a(imodel.Bond
Bond
p214
(dp215
g13
g1
sg149
g139
sg23
g24
sg16
g8
((lp216
g33
ag18
atRp217
sba(imodel.Bond
Bond
p218
(dp219
g81
g82
sg62
g1
sg69
g24
sg65
g8
((lp220
g33
ag29
atRp221
sbatRp222
sg40
I00
sbatRp223
sg55
S'H4'
p224
sg57
I00
sg58
Nsg59
(imodel.Atom
Atom
p225
(dp226
g55
g224
sg62
g1
sg63
S'H'
sg64
I00
sg65
g8
((lp227
g29
atRp228
sg68
I00
sbsg69
g24
sg70
I0
sg63
S'H'
sg64
I00
sg71
(F94.530005234249273
F190.18490161145806
F1.7581403239575035
tp229
sg73
(lp230
sg62
g1
sg75
g8
((ltRp231
sg77
g8
((lp232
g218
atRp233
sg68
I00
sba(imodel.VarAtom
VarAtom
p234
(dp235
g31
g8
((lp236
g18
atRp237
sg55
S'H3'
p238
sg57
I00
sg58
Nsg59
(imodel.Atom
Atom
p239
(dp240
g55
g238
sg62
g1
sg63
S'H'
sg64
I00
sg65
g8
((lp241
g234
atRp242
sg68
I00
sbsg69
g24
sg70
I0
sg63
S'H'
sg64
I00
sg71
(F62.067783928601372
F107.65408360634471
F1.8461604010974071
tp243
sg73
(lp244
sg62
g1
sg75
g8
((ltRp245
sg77
g8
((lp246
(imodel.Bond
Bond
p247
(dp248
g81
g82
sg62
g1
sg69
g24
sg65
g8
((lp249
g18
ag234
atRp250
sbatRp251
sg68
I00
sbag168
ag51
ag110
atRp252
sS'C'
g8
((lp253
g86
ag102
ag94
ag33
ag43
ag18
atRp254
ssg145
g8
((lp255
g163
ag192
ag218
ag152
ag214
ag147
ag247
ag203
ag79
ag181
ag123
atRp256
sg13
g1
sS'descriptor'
p257
(S'neutral'
S'none'
S'default'
tp258
sS'atomDict'
p259
(dp260
g10
g18
sg97
g94
sg173
g168
sg46
g43
sg60
g51
sg225
g29
sg36
g33
sg105
g102
sg115
g110
sg89
g86
sg239
g234
ssg16
g8
((lp261
g86
ag102
ag110
ag94
ag234
ag33
ag43
ag168
ag18
ag29
ag51
atRp262
sg134
g8
((lp263
g136
atRp264
sS'polyLink'
p265
S'none'
p266
sbsg41
g8
((lp267
g102
ag33
ag234
atRp268
sg14
S'C'
sg129
I0
sg15
I00
sg130
(F38.434158469884288
F137.61869519644975
F1.1566758686923859
tp269
sg132
(lp270
sg13
g1
sg134
g8
((lp271
g136
atRp272
sg145
g8
((lp273
g147
ag214
ag247
atRp274
sg40
I00
sbatRp275
sg40
I00
sbag97
ag173
ag46
ag60
ag225
ag36
ag105
ag115
ag89
ag239
atRp276
sS'ccpMolType'
p277
S'other'
p278
sS'details'
p279
V
sg259
(dp280
g114
g115
sg238
g239
sg172
g173
sg56
g60
sg224
g225
sg12
g10
sg104
g105
sg96
g97
sg88
g89
sg45
g46
sg35
g36
ssS'keywords'
p281
g8
((ltRp282
sg134
g8
((lp283
g136
atRp284
sS'variants'
p285
g8
((lp286
g24
atRp287
sS'defaultVars'
p288
g8
((ltRp289
sb.