(imodel.Compound
Compound
p1
(dp2
S'name'
p3
S'Unnamed'
p4
sS'isModified'
p5
I01
sS'ccpCode'
p6
NsS'atoms'
p7
c__builtin__
set
p8
((lp9
(imodel.Atom
Atom
p10
(dp11
g3
S'C1'
p12
sS'compound'
p13
g1
sS'element'
p14
S'C'
sS'isVariable'
p15
I00
sS'varAtoms'
p16
g8
((lp17
(imodel.VarAtom
VarAtom
p18
(dp19
S'neighbours'
p20
g8
((lp21
(imodel.VarAtom
VarAtom
p22
(dp23
g20
g8
((lp24
(imodel.VarAtom
VarAtom
p25
(dp26
g20
g8
((lp27
(imodel.VarAtom
VarAtom
p28
(dp29
g20
g8
((lp30
g25
atRp31
sg3
VH31
p32
sS'isLabile'
p33
I00
sS'chirality'
p34
NsS'atom'
p35
(imodel.Atom
Atom
p36
(dp37
g3
g32
sg13
g1
sg14
S'H'
sg15
I00
sg16
g8
((lp38
g28
atRp39
sS'isDeleted'
p40
I00
sbsS'variant'
p41
(imodel.Variant
Variant
p42
(dp43
S'elementDict'
p44
(dp45
S'H'
g8
((lp46
g28
a(imodel.VarAtom
VarAtom
p47
(dp48
g20
g8
((lp49
g18
atRp50
sg3
VH11
p51
sg33
I00
sg34
Nsg35
(imodel.Atom
Atom
p52
(dp53
g3
g51
sg13
g1
sg14
S'H'
sg15
I00
sg16
g8
((lp54
g47
atRp55
sg40
I00
sbsg41
g42
sS'charge'
p56
I0
sg14
S'H'
sg15
I00
sS'coords'
p57
(F-154.82971641534022
F-127.1848420881774
F0.99583973775096246
tp58
sS'freeValences'
p59
(lp60
sg13
g1
sS'atomGroups'
p61
g8
((lp62
(imodel.AtomGroup
AtomGroup
p63
(dp64
S'groupType'
p65
S'prochiral'
p66
sS'subGroups'
p67
g8
((ltRp68
sg16
g8
((lp69
g47
a(imodel.VarAtom
VarAtom
p70
(dp71
g20
g8
((lp72
g18
atRp73
sg3
VH12
p74
sg33
I00
sg34
Nsg35
(imodel.Atom
Atom
p75
(dp76
g3
g74
sg13
g1
sg14
S'H'
sg15
I00
sg16
g8
((lp77
g70
atRp78
sg40
I00
sbsg41
g42
sg56
I0
sg14
S'H'
sg15
I00
sg57
(F-154.40315974612378
F-50.444600493700982
F1.0249825724491655
tp79
sg59
(lp80
sg13
g1
sg61
g8
((lp81
g63
atRp82
sS'bonds'
p83
g8
((lp84
(imodel.Bond
Bond
p85
(dp86
S'bondType'
p87
S'single'
p88
sg13
g1
sg41
g42
sg16
g8
((lp89
g18
ag70
atRp90
sbatRp91
sg40
I00
sbatRp92
sg41
g42
sg13
g1
sbatRp93
sg83
g8
((lp94
(imodel.Bond
Bond
p95
(dp96
g87
g88
sg13
g1
sg41
g42
sg16
g8
((lp97
g18
ag47
atRp98
sbatRp99
sg40
I00
sba(imodel.VarAtom
VarAtom
p100
(dp101
g20
g8
((lp102
g25
atRp103
sg3
VH32
p104
sg33
I00
sg34
Nsg35
(imodel.Atom
Atom
p105
(dp106
g3
g104
sg13
g1
sg14
S'H'
sg15
I00
sg16
g8
((lp107
g100
atRp108
sg40
I00
sbsg41
g42
sg56
I0
sg14
S'H'
sg15
I00
sg57
(F-33.52965785072729
F-52.566306942680704
F1.4599159786580742
tp109
sg59
(lp110
sg13
g1
sg61
g8
((lp111
(imodel.AtomGroup
AtomGroup
p112
(dp113
g65
S'equivalent'
p114
sg67
g8
((ltRp115
sg16
g8
((lp116
g28
ag100
a(imodel.VarAtom
VarAtom
p117
(dp118
g20
g8
((lp119
g25
atRp120
sg3
VH33
p121
sg33
I00
sg34
Nsg35
(imodel.Atom
Atom
p122
(dp123
g3
g121
sg13
g1
sg14
S'H'
sg15
I00
sg16
g8
((lp124
g117
atRp125
sg40
I00
sbsg41
g42
sg56
I0
sg14
S'H'
sg15
I00
sg57
(F-2.6407067784152689
F-91.29595925794888
F0.23690127242084458
tp126
sg59
(lp127
sg13
g1
sg61
g8
((lp128
g112
atRp129
sg83
g8
((lp130
(imodel.Bond
Bond
p131
(dp132
g87
g88
sg13
g1
sg41
g42
sg16
g8
((lp133
g25
ag117
atRp134
sbatRp135
sg40
I00
sbatRp136
sg41
g42
sg13
g1
sbatRp137
sg83
g8
((lp138
(imodel.Bond
Bond
p139
(dp140
g87
g88
sg13
g1
sg41
g42
sg16
g8
((lp141
g25
ag100
atRp142
sbatRp143
sg40
I00
sba(imodel.VarAtom
VarAtom
p144
(dp145
g20
g8
((lp146
g22
atRp147
sg3
VH21
p148
sg33
I00
sg34
Nsg35
(imodel.Atom
Atom
p149
(dp150
g3
g148
sg13
g1
sg14
S'H'
sg15
I00
sg16
g8
((lp151
g144
atRp152
sg40
I00
sbsg41
g42
sg56
I0
sg14
S'H'
sg15
I00
sg57
(F-94.372345131734235
F-51.197517620386542
F2.1624572375269313
tp153
sg59
(lp154
sg13
g1
sg61
g8
((lp155
(imodel.AtomGroup
AtomGroup
p156
(dp157
g65
g66
sg67
g8
((ltRp158
sg16
g8
((lp159
(imodel.VarAtom
VarAtom
p160
(dp161
g20
g8
((lp162
g22
atRp163
sg3
VH22
p164
sg33
I00
sg34
Nsg35
(imodel.Atom
Atom
p165
(dp166
g3
g164
sg13
g1
sg14
S'H'
sg15
I00
sg16
g8
((lp167
g160
atRp168
sg40
I00
sbsg41
g42
sg56
I0
sg14
S'H'
sg15
I00
sg57
(F-95.592215916949343
F-128.24956418337922
F2.6606803126049443
tp169
sg59
(lp170
sg13
g1
sg61
g8
((lp171
g156
atRp172
sg83
g8
((lp173
(imodel.Bond
Bond
p174
(dp175
g87
g88
sg13
g1
sg41
g42
sg16
g8
((lp176
g22
ag160
atRp177
sbatRp178
sg40
I00
sbag144
atRp179
sg41
g42
sg13
g1
sbatRp180
sg83
g8
((lp181
(imodel.Bond
Bond
p182
(dp183
g87
g88
sg13
g1
sg41
g42
sg16
g8
((lp184
g22
ag144
atRp185
sbatRp186
sg40
I00
sbag160
ag70
ag117
atRp187
sS'C'
g8
((lp188
g18
ag22
ag25
atRp189
ssg83
g8
((lp190
g95
ag139
ag85
a(imodel.Bond
Bond
p191
(dp192
g87
g88
sg13
g1
sg41
g42
sg16
g8
((lp193
g18
ag22
atRp194
sbag131
ag174
ag182
a(imodel.Bond
Bond
p195
(dp196
g87
g88
sg13
g1
sg41
g42
sg16
g8
((lp197
g22
ag25
atRp198
sba(imodel.Bond
Bond
p199
(dp200
g87
g88
sg13
g1
sg41
g42
sg16
g8
((lp201
g25
ag28
atRp202
sbatRp203
sg13
g1
sS'atomDict'
p204
(dp205
g10
g18
sg149
g144
s(imodel.Atom
Atom
p206
(dp207
g3
S'C3'
p208
sg13
g1
sg14
S'C'
sg15
I00
sg16
g8
((lp209
g25
atRp210
sg40
I00
sbg25
sg36
g28
s(imodel.Atom
Atom
p211
(dp212
g3
S'C2'
p213
sg13
g1
sg14
S'C'
sg15
I00
sg16
g8
((lp214
g22
atRp215
sg40
I00
sbg22
sg165
g160
sg52
g47
sg105
g100
sg75
g70
sg122
g117
ssS'descriptor'
p216
(S'neutral'
p217
S'none'
p218
S'default'
p219
tp220
sg16
g8
((lp221
g25
ag47
ag28
ag100
ag18
ag160
ag70
ag144
ag22
ag117
atRp222
sg61
g8
((lp223
g156
ag63
ag112
atRp224
sS'polyLink'
p225
g218
sbsg56
I0
sg14
S'H'
sg15
I00
sg57
(F-34.841248704313436
F-128.93714130044498
F1.3449330733885798
tp226
sg59
(lp227
sg13
g1
sg61
g8
((lp228
g112
atRp229
sg83
g8
((lp230
g199
atRp231
sg40
I00
sbag100
ag22
ag117
atRp232
sg3
g208
sg33
I00
sg34
Nsg35
g206
sg41
g42
sg56
I0
sg14
S'C'
sg15
I00
sg57
(F-41.644893825925408
F-90.624230931088633
F0.97630377603405927
tp233
sg59
(lp234
sg13
g1
sg61
g8
((ltRp235
sg83
g8
((lp236
g195
ag131
ag199
ag139
atRp237
sg40
I00
sbag160
ag144
ag18
atRp238
sg3
g213
sg33
I00
sg34
Nsg35
g211
sg41
g42
sg56
I0
sg14
S'C'
sg15
I00
sg57
(F-95.775895405906638
F-89.700317850249789
F0.90169164997260509
tp239
sg59
(lp240
sg13
g1
sg61
g8
((ltRp241
sg83
g8
((lp242
g191
ag182
ag195
ag174
atRp243
sg40
I00
sbag47
ag70
atRp244
sg3
g12
sg33
I00
sg34
Nsg35
g10
sg41
g42
sg56
I0
sg14
S'C'
sg15
I00
sg57
(F-148.59800703433814
F-88.853732415017944
F0.95056472394211111
tp245
sg59
(lp246
F4.7179695456754818
asg13
g1
sg61
g8
((ltRp247
sg83
g8
((lp248
g191
ag95
ag85
atRp249
sg40
I00
sbatRp250
sg40
I00
sbag149
ag206
ag36
ag211
ag165
ag52
ag105
ag75
ag122
atRp251
sS'ccpMolType'
p252
S'other'
p253
sS'details'
p254
V
sg204
(dp255
g51
g52
sg74
g75
sg148
g149
sg164
g165
sg104
g105
sg121
g122
sg32
g36
sg208
g206
sg213
g211
sg12
g10
ssS'keywords'
p256
g8
((ltRp257
sg61
g8
((lp258
g156
ag63
ag112
atRp259
sS'variants'
p260
g8
((lp261
g42
atRp262
sS'defaultVars'
p263
g8
((ltRp264
sb.