(imodel.Compound
Compound
p1
(dp2
S'name'
p3
S'Unnamed'
p4
sS'isModified'
p5
I01
sS'ccpCode'
p6
NsS'atoms'
p7
c__builtin__
set
p8
((lp9
(imodel.Atom
Atom
p10
(dp11
g3
S'C4'
p12
sS'compound'
p13
g1
sS'baseValences'
p14
I4
sS'element'
p15
S'C'
sS'isVariable'
p16
I00
sS'varAtoms'
p17
g8
((lp18
(imodel.VarAtom
VarAtom
p19
(dp20
S'neighbours'
p21
g8
((lp22
(imodel.VarAtom
VarAtom
p23
(dp24
g21
g8
((lp25
g19
a(imodel.VarAtom
VarAtom
p26
(dp27
g21
g8
((lp28
(imodel.VarAtom
VarAtom
p29
(dp30
g21
g8
((lp31
g26
a(imodel.VarAtom
VarAtom
p32
(dp33
g21
g8
((lp34
g29
a(imodel.VarAtom
VarAtom
p35
(dp36
g21
g8
((lp37
g19
ag32
atRp38
sg3
S'C5'
p39
sS'isLabile'
p40
I00
sS'chirality'
p41
NsS'atom'
p42
(imodel.Atom
Atom
p43
(dp44
g3
g39
sg13
g1
sg14
I4
sg15
S'C'
sg16
I00
sg17
g8
((lp45
g35
atRp46
sS'isDeleted'
p47
I00
sbsS'variant'
p48
(imodel.Variant
Variant
p49
(dp50
S'elementDict'
p51
(dp52
S'C'
g8
((lp53
g26
ag23
ag19
ag35
ag29
ag32
atRp54
ssS'bonds'
p55
g8
((lp56
(imodel.Bond
Bond
p57
(dp58
S'bondType'
p59
S'aromatic'
p60
sg13
g1
sg48
g49
sg17
g8
((lp61
g26
ag29
atRp62
sba(imodel.Bond
Bond
p63
(dp64
g59
g60
sg13
g1
sg48
g49
sg17
g8
((lp65
g19
ag35
atRp66
sba(imodel.Bond
Bond
p67
(dp68
g59
g60
sg13
g1
sg48
g49
sg17
g8
((lp69
g35
ag32
atRp70
sba(imodel.Bond
Bond
p71
(dp72
g59
g60
sg13
g1
sg48
g49
sg17
g8
((lp73
g26
ag23
atRp74
sba(imodel.Bond
Bond
p75
(dp76
g59
g60
sg13
g1
sg48
g49
sg17
g8
((lp77
g19
ag23
atRp78
sba(imodel.Bond
Bond
p79
(dp80
g59
g60
sg13
g1
sg48
g49
sg17
g8
((lp81
g29
ag32
atRp82
sbatRp83
sg13
g1
sS'atomDict'
p84
(dp85
g10
g19
s(imodel.Atom
Atom
p86
(dp87
g3
S'C1'
p88
sg13
g1
sg14
I4
sg15
S'C'
sg16
I00
sg17
g8
((lp89
g29
atRp90
sg47
I00
sbg29
s(imodel.Atom
Atom
p91
(dp92
g3
S'C6'
p93
sg13
g1
sg14
I4
sg15
S'C'
sg16
I00
sg17
g8
((lp94
g32
atRp95
sg47
I00
sbg32
s(imodel.Atom
Atom
p96
(dp97
g3
S'C3'
p98
sg13
g1
sg14
I4
sg15
S'C'
sg16
I00
sg17
g8
((lp99
g23
atRp100
sg47
I00
sbg23
s(imodel.Atom
Atom
p101
(dp102
g3
S'C2'
p103
sg13
g1
sg14
I4
sg15
S'C'
sg16
I00
sg17
g8
((lp104
g26
atRp105
sg47
I00
sbg26
sg43
g35
ssS'descriptor'
p106
(S'neutral'
p107
S'none'
p108
S'default'
p109
tp110
sg17
g8
((lp111
g26
ag23
ag19
ag35
ag29
ag32
atRp112
sS'atomGroups'
p113
g8
((lp114
(imodel.AtomGroup
AtomGroup
p115
(dp116
S'groupType'
p117
g60
sS'subGroups'
p118
g8
((ltRp119
sg17
g8
((lp120
g35
ag23
ag32
ag19
ag29
ag26
atRp121
sg48
g49
sg13
g1
sbatRp122
sS'polyLink'
p123
g108
sbsS'charge'
p124
I0
sg15
S'C'
sg16
I00
sS'coords'
p125
(F-89.035427513882453
F-8.8247153526990338
F0.97717595408596902
tp126
sS'freeValences'
p127
(lp128
F0.83713491836925158
asg13
g1
sg113
g8
((lp129
g115
atRp130
sg55
g8
((lp131
g63
ag67
atRp132
sg47
I00
sbatRp133
sg3
g93
sg40
I00
sg41
Nsg42
g91
sg48
g49
sg124
I0
sg15
S'C'
sg16
I00
sg125
(F-136.59370701241116
F6.6028746569730119
F1.3430936596295178
tp134
sg127
(lp135
F6.0731562809020003
asg13
g1
sg113
g8
((lp136
g115
atRp137
sg55
g8
((lp138
g79
ag67
atRp139
sg47
I00
sbatRp140
sg3
g88
sg40
I00
sg41
Nsg42
g86
sg48
g49
sg124
I0
sg15
S'C'
sg16
I00
sg125
(F-173.72896494388988
F-26.881154746525318
F0.29703246326415411
tp141
sg127
(lp142
F5.0258482703508633
asg13
g1
sg113
g8
((lp143
g115
atRp144
sg55
g8
((lp145
g57
ag79
atRp146
sg47
I00
sbag23
atRp147
sg3
g103
sg40
I00
sg41
Nsg42
g101
sg48
g49
sg124
I0
sg15
S'C'
sg16
I00
sg125
(F-163.29986085766339
F-75.77860510804642
F0.28554183013517109
tp148
sg127
(lp149
F3.9788275296980888
asg13
g1
sg113
g8
((lp150
g115
atRp151
sg55
g8
((lp152
g57
ag71
atRp153
sg47
I00
sbatRp154
sg3
g98
sg40
I00
sg41
Nsg42
g96
sg48
g49
sg124
I0
sg15
S'C'
sg16
I00
sg125
(F-115.73330681810555
F-91.215550474334989
F0.52811889136143719
tp155
sg127
(lp156
F2.9314884355726423
asg13
g1
sg113
g8
((lp157
g115
atRp158
sg55
g8
((lp159
g75
ag71
atRp160
sg47
I00
sbag35
atRp161
sg3
g12
sg40
I00
sg41
Nsg42
g10
sg48
g49
sg124
I0
sg15
S'C'
sg16
I00
sg125
(F-78.603524198757043
F-57.71778810051498
F0.065141918982443259
tp162
sg127
(lp163
F1.8840804672824767
asg13
g1
sg113
g8
((lp164
g115
atRp165
sg55
g8
((lp166
g75
ag63
atRp167
sg47
I00
sbatRp168
sg47
I00
sbag86
ag91
ag96
ag101
ag43
atRp169
sS'ccpMolType'
p170
S'other'
p171
sS'details'
p172
V
sg84
(dp173
g98
g96
sg103
g101
sg88
g86
sg93
g91
sg39
g43
sg12
g10
ssS'keywords'
p174
g8
((ltRp175
sg113
g8
((lp176
g115
atRp177
sS'variants'
p178
g8
((lp179
g49
atRp180
sS'defaultVars'
p181
g8
((ltRp182
sb.