(imodel.Compound
Compound
p1
(dp2
S'name'
p3
S'Unnamed'
p4
sS'isModified'
p5
I01
sS'ccpCode'
p6
NsS'atoms'
p7
c__builtin__
set
p8
((lp9
(imodel.Atom
Atom
p10
(dp11
g3
S'C2'
p12
sS'compound'
p13
g1
sS'baseValences'
p14
I4
sS'element'
p15
S'C'
sS'isVariable'
p16
I00
sS'varAtoms'
p17
g8
((lp18
(imodel.VarAtom
VarAtom
p19
(dp20
g3
g12
sS'isLabile'
p21
I00
sS'chirality'
p22
NsS'atom'
p23
g10
sS'variant'
p24
(imodel.Variant
Variant
p25
(dp26
S'elementDict'
p27
(dp28
S'C'
g8
((lp29
(imodel.VarAtom
VarAtom
p30
(dp31
g3
S'C1'
p32
sg21
I00
sg22
Nsg23
(imodel.Atom
Atom
p33
(dp34
g3
g32
sg13
g1
sg14
I4
sg15
S'C'
sg16
I00
sg17
g8
((lp35
g30
atRp36
sS'isDeleted'
p37
I00
sbsg24
g25
sS'neighbours'
p38
g8
((lp39
g19
a(imodel.VarAtom
VarAtom
p40
(dp41
g3
S'C6'
p42
sg21
I00
sg22
Nsg23
(imodel.Atom
Atom
p43
(dp44
g3
g42
sg13
g1
sg14
I4
sg15
S'C'
sg16
I00
sg17
g8
((lp45
g40
atRp46
sg37
I00
sbsg24
g25
sg38
g8
((lp47
g30
a(imodel.VarAtom
VarAtom
p48
(dp49
g3
S'C5'
p50
sg21
I00
sg22
Nsg23
(imodel.Atom
Atom
p51
(dp52
g3
g50
sg13
g1
sg14
I4
sg15
S'C'
sg16
I00
sg17
g8
((lp53
g48
atRp54
sg37
I00
sbsg24
g25
sg38
g8
((lp55
(imodel.VarAtom
VarAtom
p56
(dp57
g3
S'C4'
p58
sg21
I00
sg22
Nsg23
(imodel.Atom
Atom
p59
(dp60
g3
g58
sg13
g1
sg14
I4
sg15
S'C'
sg16
I00
sg17
g8
((lp61
g56
atRp62
sg37
I00
sbsg24
g25
sg38
g8
((lp63
(imodel.VarAtom
VarAtom
p64
(dp65
g3
S'C3'
p66
sg21
I00
sg22
Nsg23
(imodel.Atom
Atom
p67
(dp68
g3
g66
sg13
g1
sg14
I4
sg15
S'C'
sg16
I00
sg17
g8
((lp69
g64
atRp70
sg37
I00
sbsg24
g25
sg38
g8
((lp71
g56
ag19
atRp72
sg15
S'C'
sS'charge'
p73
I0
sg16
I00
sS'coords'
p74
(F261.90528799601384
F86.569838682591069
F1.5804095285962036
tp75
sS'freeValences'
p76
(lp77
F2.1775574247134011
aF5.3191500783032009
asg13
g1
sS'atomGroups'
p78
g8
((ltRp79
sS'bonds'
p80
g8
((lp81
(imodel.Bond
Bond
p82
(dp83
g13
g1
sS'bondType'
p84
S'single'
p85
sg24
g25
sg17
g8
((lp86
g64
ag56
atRp87
sba(imodel.Bond
Bond
p88
(dp89
g13
g1
sg84
g85
sg24
g25
sg17
g8
((lp90
g19
ag64
atRp91
sbatRp92
sg37
I00
sbag48
atRp93
sg15
S'C'
sg73
I0
sg16
I00
sg74
(F266.35209825236416
F136.63477060422554
F1.3621860810893704
tp94
sg76
(lp95
F0.42333360668448616
aF1.8267573225503462
asg13
g1
sg78
g8
((ltRp96
sg80
g8
((lp97
g82
a(imodel.Bond
Bond
p98
(dp99
g13
g1
sg84
g85
sg24
g25
sg17
g8
((lp100
g56
ag48
atRp101
sbatRp102
sg37
I00
sbag40
atRp103
sg15
S'C'
sg73
I0
sg16
I00
sg74
(F224.61149820118649
F164.62513827748344
F1.0305618685926108
tp104
sg76
(lp105
F0.072319510771407636
aF3.2139121643612079
asg13
g1
sg78
g8
((ltRp106
sg80
g8
((lp107
g98
a(imodel.Bond
Bond
p108
(dp109
g13
g1
sg84
g85
sg24
g25
sg17
g8
((lp110
g48
ag40
atRp111
sbatRp112
sg37
I00
sbatRp113
sg15
S'C'
sg73
I0
sg16
I00
sg74
(F179.26804147844851
F142.94127402814337
F2.0028911462877148
tp114
sg76
(lp115
F5.3192424122853001
aF2.1776497586954999
asg13
g1
sg78
g8
((ltRp116
sg80
g8
((lp117
(imodel.Bond
Bond
p118
(dp119
g13
g1
sg84
g85
sg24
g25
sg17
g8
((lp120
g30
ag40
atRp121
sbag108
atRp122
sg37
I00
sbatRp123
sg15
S'C'
sg73
I0
sg16
I00
sg74
(F174.80112840855162
F92.871234585511274
F1.5163891791912185
tp124
sg76
(lp125
F3.5647675960766563
aF4.968465318166631
asg13
g1
sg78
g8
((ltRp126
sg80
g8
((lp127
(imodel.Bond
Bond
p128
(dp129
g13
g1
sg84
g85
sg24
g25
sg17
g8
((lp130
g19
ag30
atRp131
sbag118
atRp132
sg37
I00
sbag64
ag19
ag48
ag40
ag56
atRp133
ssg80
g8
((lp134
g88
ag128
ag82
ag98
ag118
ag108
atRp135
sg13
g1
sS'descriptor'
p136
(S'neutral'
S'none'
p137
S'default'
tp138
sS'atomDict'
p139
(dp140
g10
g19
sg43
g40
sg59
g56
sg51
g48
sg67
g64
sg33
g30
ssg17
g8
((lp141
g30
ag64
ag19
ag48
ag40
ag56
atRp142
sg78
g8
((ltRp143
sS'polyLink'
p144
g137
sbsg38
g8
((lp145
g30
ag64
atRp146
sg15
S'C'
sg73
I0
sg16
I00
sg74
(F216.55851724095481
F64.895792683327556
F0.97120911328471538
tp147
sg76
(lp148
F3.2137981692935425
aF0.072205515703742229
asg13
g1
sg78
g8
((ltRp149
sg80
g8
((lp150
g128
ag88
atRp151
sg37
I00
sbatRp152
sg37
I00
sbag43
ag59
ag51
ag67
ag33
atRp153
sS'ccpMolType'
p154
S'other'
p155
sS'details'
p156
V
sg139
(dp157
g66
g67
sg12
g10
sg32
g33
sg42
g43
sg50
g51
sg58
g59
ssS'keywords'
p158
g8
((ltRp159
sg78
g8
((ltRp160
sS'variants'
p161
g8
((lp162
g25
atRp163
sS'defaultVars'
p164
g8
((ltRp165
sb.