(imodel.Compound
Compound
p1
(dp2
S'name'
p3
S'Unnamed'
p4
sS'isModified'
p5
I01
sS'ccpCode'
p6
NsS'atoms'
p7
c__builtin__
set
p8
((lp9
(imodel.Atom
Atom
p10
(dp11
g3
VC
sS'compound'
p12
g1
sS'element'
p13
S'C'
sS'isVariable'
p14
I00
sS'varAtoms'
p15
g8
((lp16
(imodel.VarAtom
VarAtom
p17
(dp18
S'neighbours'
p19
g8
((lp20
(imodel.VarAtom
VarAtom
p21
(dp22
g19
g8
((lp23
g17
atRp24
sg3
VO
sS'isLabile'
p25
I00
sS'chirality'
p26
NsS'atom'
p27
(imodel.Atom
Atom
p28
(dp29
g3
VO
sg12
g1
sg13
S'O'
sg14
I00
sg15
g8
((lp30
g21
a(imodel.VarAtom
VarAtom
p31
(dp32
g19
g8
((lp33
(imodel.VarAtom
VarAtom
p34
(dp35
g19
g8
((lp36
g31
atRp37
sg3
VC
sg25
I00
sg26
Nsg27
g10
sS'variant'
p38
(imodel.Variant
Variant
p39
(dp40
S'elementDict'
p41
(dp42
S'C'
g8
((lp43
g34
atRp44
sS'O'
g8
((lp45
g31
atRp46
ssS'bonds'
p47
g8
((lp48
(imodel.Bond
Bond
p49
(dp50
S'bondType'
p51
S'double'
p52
sg12
g1
sg38
g39
sg15
g8
((lp53
g34
ag31
atRp54
sbatRp55
sg12
g1
sS'atomDict'
p56
(dp57
g10
g34
sg28
g31
ssS'descriptor'
p58
(S'neutral'
p59
S'none'
p60
S'default'
p61
tp62
sg15
g8
((lp63
g34
ag31
atRp64
sS'atomGroups'
p65
g8
((ltRp66
sS'polyLink'
p67
g60
sbsS'charge'
p68
I0
sg13
S'C'
sg14
I00
sS'coords'
p69
(F-52.95087019787092
F213.81626428414577
F0.18622291418981185
tp70
sS'freeValences'
p71
(lp72
F5.7887760464450473
aF1.599985841658647
asg12
g1
sg65
g8
((ltRp73
sg47
g8
((lp74
g49
atRp75
sS'isDeleted'
p76
I00
sbatRp77
sg3
VO
sg25
I00
sg26
Nsg27
g28
sg38
g39
sg68
I0
sg13
S'O'
sg14
I00
sg69
(F-75.864235998149269
F176.67641049612706
F0.90599052334989727
tp78
sg71
(lp79
sg12
g1
sg65
g8
((ltRp80
sg47
g8
((lp81
g49
atRp82
sg76
I00
sbatRp83
sg76
I00
sbsg38
(imodel.Variant
Variant
p84
(dp85
g41
(dp86
S'H'
g8
((lp87
(imodel.VarAtom
VarAtom
p88
(dp89
g19
g8
((lp90
g17
atRp91
sg3
VH
sg25
I01
sg26
Nsg27
(imodel.Atom
Atom
p92
(dp93
g3
VH
sg12
g1
sg13
S'H'
sg14
I01
sg15
g8
((lp94
g88
atRp95
sg76
I00
sbsg38
g84
sg68
I0
sg13
S'H'
sg14
I01
sg69
(F-18.384834354378889
F229.03324367014065
F1.4694731019126714
tp96
sg71
(lp97
sg12
g1
sg65
g8
((ltRp98
sg47
g8
((lp99
(imodel.Bond
Bond
p100
(dp101
g51
S'single'
p102
sg12
g1
sg38
g84
sg15
g8
((lp103
g17
ag88
atRp104
sbatRp105
sg76
I00
sbatRp106
sS'C'
g8
((lp107
g17
atRp108
sS'O'
g8
((lp109
g21
atRp110
ssg47
g8
((lp111
(imodel.Bond
Bond
p112
(dp113
g51
g52
sg12
g1
sg38
g84
sg15
g8
((lp114
g17
ag21
atRp115
sbag100
atRp116
sg12
g1
sg56
(dp117
g10
g17
sg28
g21
sg92
g88
ssg58
(g59
g60
g61
tp118
sg15
g8
((lp119
g17
ag21
ag88
atRp120
sg65
g8
((ltRp121
sg67
g60
sbsg68
I0
sg13
S'O'
sg14
I00
sg69
(F-75.864235998149269
F176.67641049612706
F0.90599052334989727
tp122
sg71
(lp123
sg12
g1
sg65
g8
((ltRp124
sg47
g8
((lp125
g112
atRp126
sg76
I00
sbag88
atRp127
sg3
VC
sg25
I00
sg26
Nsg27
g10
sg38
g84
sg68
I0
sg13
S'C'
sg14
I00
sg69
(F-52.95087019787092
F213.81626428414577
F0.18622291418981185
tp128
sg71
(lp129
F5.566831834689645
asg12
g1
sg65
g8
((ltRp130
sg47
g8
((lp131
g112
ag100
atRp132
sg76
I00
sbag34
atRp133
sg76
I00
sbag28
ag92
atRp134
sS'ccpMolType'
p135
S'other'
p136
sS'details'
p137
V
sg56
(dp138
VC
g10
sVH
g92
sVO
g28
ssS'keywords'
p139
g8
((ltRp140
sg65
g8
((ltRp141
sS'variants'
p142
g8
((lp143
g84
ag39
atRp144
sS'defaultVars'
p145
g8
((ltRp146
sb.