(imodel.Compound
Compound
p1
(dp2
S'name'
p3
S'Unnamed'
p4
sS'isModified'
p5
I01
sS'ccpCode'
p6
NsS'atoms'
p7
c__builtin__
set
p8
((lp9
(imodel.Atom
Atom
p10
(dp11
g3
VC
sS'compound'
p12
g1
sS'element'
p13
S'C'
sS'isVariable'
p14
I00
sS'varAtoms'
p15
g8
((lp16
(imodel.VarAtom
VarAtom
p17
(dp18
S'neighbours'
p19
g8
((lp20
(imodel.VarAtom
VarAtom
p21
(dp22
g19
g8
((lp23
g17
atRp24
sg3
S'O3'
p25
sS'isLabile'
p26
I00
sS'chirality'
p27
NsS'atom'
p28
(imodel.Atom
Atom
p29
(dp30
g3
g25
sg12
g1
sg13
S'O'
sg14
I00
sg15
g8
((lp31
g21
atRp32
sS'isDeleted'
p33
I00
sbsS'variant'
p34
(imodel.Variant
Variant
p35
(dp36
S'elementDict'
p37
(dp38
S'C'
g8
((lp39
g17
atRp40
sS'O'
g8
((lp41
(imodel.VarAtom
VarAtom
p42
(dp43
g19
g8
((lp44
g17
atRp45
sg3
S'O1'
p46
sg26
I00
sg27
Nsg28
(imodel.Atom
Atom
p47
(dp48
g3
g46
sg12
g1
sg13
S'O'
sg14
I00
sg15
g8
((lp49
g42
atRp50
sg33
I00
sbsg34
g35
sS'charge'
p51
I0
sg13
S'O'
sg14
I00
sS'coords'
p52
(F31.869238861955846
F-29.073374971012839
F2.4042907098406476
tp53
sS'freeValences'
p54
(lp55
sg12
g1
sS'atomGroups'
p56
g8
((ltRp57
sS'bonds'
p58
g8
((lp59
(imodel.Bond
Bond
p60
(dp61
S'bondType'
p62
S'double'
p63
sg12
g1
sg34
g35
sg15
g8
((lp64
g17
ag42
atRp65
sbatRp66
sg33
I00
sba(imodel.VarAtom
VarAtom
p67
(dp68
g19
g8
((lp69
g17
atRp70
sg3
S'O2'
p71
sg26
I00
sg27
Nsg28
(imodel.Atom
Atom
p72
(dp73
g3
g71
sg12
g1
sg13
S'O'
sg14
I00
sg15
g8
((lp74
g67
atRp75
sg33
I00
sbsg34
g35
sg51
I0
sg13
S'O'
sg14
I00
sg52
(F-11.93264998002341
F39.932705832426684
F0.53712313833181957
tp76
sg54
(lp77
F5.2360702500807292
asg12
g1
sg56
g8
((ltRp78
sg58
g8
((lp79
(imodel.Bond
Bond
p80
(dp81
g62
S'single'
p82
sg12
g1
sg34
g35
sg15
g8
((lp83
g17
ag67
atRp84
sbatRp85
sg33
I00
sbag21
atRp86
ssg58
g8
((lp87
(imodel.Bond
Bond
p88
(dp89
g62
g82
sg12
g1
sg34
g35
sg15
g8
((lp90
g17
ag21
atRp91
sbag80
ag60
atRp92
sg12
g1
sS'atomDict'
p93
(dp94
g10
g17
sg47
g42
sg29
g21
sg72
g67
ssS'descriptor'
p95
(S'neutral'
p96
S'none'
p97
S'default'
p98
tp99
sg15
g8
((lp100
g17
ag42
ag67
ag21
atRp101
sg56
g8
((ltRp102
sS'polyLink'
p103
g97
sbsg51
I0
sg13
S'O'
sg14
I00
sg52
(F74.726052652640576
F40.678034426038124
F1.5179592809550302
tp104
sg54
(lp105
F1.0298797212186308
asg12
g1
sg56
g8
((ltRp106
sg58
g8
((lp107
g88
atRp108
sg33
I00
sbag67
ag42
atRp109
sg3
VC
sg26
I00
sg27
Nsg28
g10
sg34
g35
sg51
I0
sg13
S'C'
sg14
I00
sg52
(F31.617902827810695
F14.783991999216891
F0.41860398284294209
tp110
sg54
(lp111
sg12
g1
sg56
g8
((ltRp112
sg58
g8
((lp113
g88
ag80
ag60
atRp114
sg33
I00
sbatRp115
sg33
I00
sbag47
ag29
ag72
atRp116
sS'ccpMolType'
p117
S'other'
p118
sS'details'
p119
V
sg93
(dp120
VC
g10
sg25
g29
sg71
g72
sg46
g47
ssS'keywords'
p121
g8
((ltRp122
sg56
g8
((ltRp123
sS'variants'
p124
g8
((lp125
g35
atRp126
sS'defaultVars'
p127
g8
((ltRp128
sb.