(imodel.Compound
Compound
p1
(dp2
S'name'
p3
S'Unnamed'
p4
sS'isModified'
p5
I00
sS'ccpCode'
p6
NsS'atoms'
p7
c__builtin__
set
p8
((lp9
(imodel.Atom
Atom
p10
(dp11
g3
VC
sS'compound'
p12
g1
sS'element'
p13
S'C'
sS'isVariable'
p14
I00
sS'varAtoms'
p15
g8
((lp16
(imodel.VarAtom
VarAtom
p17
(dp18
S'neighbours'
p19
g8
((lp20
(imodel.VarAtom
VarAtom
p21
(dp22
g19
g8
((lp23
g17
atRp24
sg3
VO
sS'isLabile'
p25
I00
sS'chirality'
p26
NsS'atom'
p27
(imodel.Atom
Atom
p28
(dp29
g3
VO
sg12
g1
sg13
S'O'
sg14
I00
sg15
g8
((lp30
g21
atRp31
sS'isDeleted'
p32
I00
sbsS'variant'
p33
(imodel.Variant
Variant
p34
(dp35
S'elementDict'
p36
(dp37
S'H'
g8
((ltRp38
sS'C'
g8
((lp39
g17
atRp40
sS'O'
g8
((lp41
g21
atRp42
ssS'bonds'
p43
g8
((lp44
(imodel.Bond
Bond
p45
(dp46
S'bondType'
p47
S'double'
p48
sg12
g1
sg33
g34
sg15
g8
((lp49
g17
ag21
atRp50
sbatRp51
sg12
g1
sS'atomDict'
p52
(dp53
g10
g17
sg28
g21
ssS'descriptor'
p54
(S'neutral'
p55
S'none'
p56
S'default'
p57
tp58
sg15
g8
((lp59
g17
ag21
atRp60
sS'atomGroups'
p61
g8
((ltRp62
sS'polyLink'
p63
g56
sbsS'charge'
p64
I0
sg13
S'O'
sg14
I00
sS'coords'
p65
(F-75.864235998149269
F176.67641049612706
F0.90599052334989727
tp66
sS'freeValences'
p67
(lp68
sg12
g1
sg61
g8
((ltRp69
sg43
g8
((lp70
g45
atRp71
sg32
I00
sbatRp72
sg3
VC
sg25
I00
sg26
Nsg27
g10
sg33
g34
sg64
I0
sg13
S'C'
sg14
I00
sg65
(F-52.95087019787092
F213.81626428414577
F0.18622291418981185
tp73
sg67
(lp74
F5.7887760464450473
aF1.599985841658647
asg12
g1
sg61
g8
((ltRp75
sg43
g8
((lp76
g45
atRp77
sg32
I00
sbatRp78
sg32
I00
sbag28
atRp79
sS'ccpMolType'
p80
S'other'
p81
sS'details'
p82
V
sg52
(dp83
VC
g10
sVO
g28
ssS'keywords'
p84
g8
((ltRp85
sg61
g8
((ltRp86
sS'variants'
p87
g8
((lp88
g34
atRp89
sS'defaultVars'
p90
g8
((ltRp91
sb.