(imodel.Compound
Compound
p1
(dp2
S'name'
p3
S'Unnamed'
p4
sS'isModified'
p5
I01
sS'ccpCode'
p6
NsS'atoms'
p7
c__builtin__
set
p8
((lp9
(imodel.Atom
Atom
p10
(dp11
g3
S'C1'
p12
sS'compound'
p13
g1
sS'element'
p14
S'C'
sS'isVariable'
p15
I00
sS'varAtoms'
p16
g8
((lp17
(imodel.VarAtom
VarAtom
p18
(dp19
S'neighbours'
p20
g8
((lp21
(imodel.VarAtom
VarAtom
p22
(dp23
g20
g8
((lp24
g18
atRp25
sg3
VO2
p26
sS'isLabile'
p27
I00
sS'chirality'
p28
NsS'atom'
p29
(imodel.Atom
Atom
p30
(dp31
g3
g26
sg13
g1
sg14
S'O'
sg15
I00
sg16
g8
((lp32
g22
a(imodel.VarAtom
VarAtom
p33
(dp34
g20
g8
((lp35
(imodel.VarAtom
VarAtom
p36
(dp37
g20
g8
((lp38
g33
a(imodel.VarAtom
VarAtom
p39
(dp40
g20
g8
((lp41
g36
atRp42
sg3
VO1
p43
sg27
I00
sg28
Nsg29
(imodel.Atom
Atom
p44
(dp45
g3
g43
sg13
g1
sg14
S'O'
sg15
I00
sg16
g8
((lp46
(imodel.VarAtom
VarAtom
p47
(dp48
g20
g8
((lp49
g18
a(imodel.VarAtom
VarAtom
p50
(dp51
g20
g8
((lp52
g47
atRp53
sg3
S'H1'
p54
sg27
I01
sg28
Nsg29
(imodel.Atom
Atom
p55
(dp56
g3
g54
sg13
g1
sg14
S'H'
sg15
I01
sg16
g8
((lp57
g50
atRp58
sS'isDeleted'
p59
I00
sbsS'variant'
p60
(imodel.Variant
Variant
p61
(dp62
S'elementDict'
p63
(dp64
S'H'
g8
((lp65
g50
atRp66
sS'C'
g8
((lp67
g18
atRp68
sS'O'
g8
((lp69
g22
ag47
atRp70
ssS'bonds'
p71
g8
((lp72
(imodel.Bond
Bond
p73
(dp74
S'bondType'
p75
S'double'
p76
sg13
g1
sg60
g61
sg16
g8
((lp77
g18
ag22
atRp78
sba(imodel.Bond
Bond
p79
(dp80
g75
S'single'
p81
sg13
g1
sg60
g61
sg16
g8
((lp82
g18
ag47
atRp83
sba(imodel.Bond
Bond
p84
(dp85
g75
g81
sg13
g1
sg60
g61
sg16
g8
((lp86
g47
ag50
atRp87
sbatRp88
sg13
g1
sS'atomDict'
p89
(dp90
g10
g18
sg30
g22
sg55
g50
sg44
g47
ssS'descriptor'
p91
(S'neutral'
p92
S'none'
p93
S'default'
p94
tp95
sg16
g8
((lp96
g18
ag22
ag47
ag50
atRp97
sS'atomGroups'
p98
g8
((ltRp99
sS'polyLink'
p100
g93
sbsS'charge'
p101
I0
sg14
S'H'
sg15
I01
sS'coords'
p102
(F31.519901580098498
F223.17427600122977
F0.83742222951696876
tp103
sS'freeValences'
p104
(lp105
sg13
g1
sg98
g8
((ltRp106
sg71
g8
((lp107
g84
atRp108
sg59
I00
sbatRp109
sg3
g43
sg27
I00
sg28
Nsg29
g44
sg60
g61
sg101
I0
sg14
S'O'
sg15
I00
sg102
(F-5.4848137640107293
F230.33149137237535
F0.78252345543039514
tp110
sg104
(lp111
sg13
g1
sg98
g8
((ltRp112
sg71
g8
((lp113
g79
ag84
atRp114
sg59
I00
sbag39
atRp115
sg59
I00
sbsg60
(imodel.Variant
Variant
p116
(dp117
g63
(dp118
S'C'
g8
((lp119
g36
atRp120
sS'O'
g8
((lp121
g33
ag39
atRp122
ssg71
g8
((lp123
(imodel.Bond
Bond
p124
(dp125
g75
g76
sg13
g1
sg60
g116
sg16
g8
((lp126
g36
ag33
atRp127
sba(imodel.Bond
Bond
p128
(dp129
g75
g81
sg13
g1
sg60
g116
sg16
g8
((lp130
g36
ag39
atRp131
sbatRp132
sg13
g1
sg89
(dp133
g10
g36
sg30
g33
sg44
g39
ssg91
(S'-H1'
g93
g94
tp134
sg16
g8
((lp135
g36
ag33
ag39
atRp136
sg98
g8
((ltRp137
sg100
g93
sbsg101
I-1
sg14
S'O'
sg15
I00
sg102
(F-5.4848137640107293
F230.33149137237535
F0.78252345543039514
tp138
sg104
(lp139
sg13
g1
sg98
g8
((ltRp140
sg71
g8
((lp141
g128
atRp142
sg59
I00
sbatRp143
sg3
g12
sg27
I00
sg28
Nsg29
g10
sg60
g116
sg101
I0
sg14
S'C'
sg15
I00
sg102
(F-52.95087019787092
F213.81626428414577
F0.18622291418981185
tp144
sg104
(lp145
F4.9515368562225568
asg13
g1
sg98
g8
((ltRp146
sg71
g8
((lp147
g124
ag128
atRp148
sg59
I00
sbatRp149
sg3
g26
sg27
I00
sg28
Nsg29
g30
sg60
g116
sg101
I0
sg14
S'O'
sg15
I00
sg102
(F-75.864235998149269
F176.67641049612706
F0.90599052334989727
tp150
sg104
(lp151
sg13
g1
sg98
g8
((ltRp152
sg71
g8
((lp153
g124
atRp154
sg59
I00
sbatRp155
sg59
I00
sbsg60
g61
sg101
I0
sg14
S'O'
sg15
I00
sg102
(F-75.864235998149269
F176.67641049612706
F0.90599052334989727
tp156
sg104
(lp157
sg13
g1
sg98
g8
((ltRp158
sg71
g8
((lp159
g73
atRp160
sg59
I00
sbag47
atRp161
sg3
g12
sg27
I00
sg28
Nsg29
g10
sg60
g61
sg101
I0
sg14
S'C'
sg15
I00
sg102
(F-52.95087019787092
F213.81626428414577
F0.18622291418981185
tp162
sg104
(lp163
F5.6067631206133415
asg13
g1
sg98
g8
((ltRp164
sg71
g8
((lp165
g73
ag79
atRp166
sg59
I00
sbag36
atRp167
sg59
I00
sbag30
ag55
ag44
atRp168
sS'ccpMolType'
p169
S'other'
p170
sS'details'
p171
V
sg89
(dp172
g12
g10
sg54
g55
sg26
g30
sg43
g44
ssS'keywords'
p173
g8
((ltRp174
sg98
g8
((ltRp175
sS'variants'
p176
g8
((lp177
g61
ag116
atRp178
sS'defaultVars'
p179
g8
((ltRp180
sb.