(imodel.Compound
Compound
p1
(dp2
S'name'
p3
VUnnamed
p4
sS'isModified'
p5
I01
sS'ccpCode'
p6
NsS'atoms'
p7
c__builtin__
set
p8
((lp9
(imodel.Atom
Atom
p10
(dp11
S'name'
p12
S'C5'
p13
sS'compound'
p14
g1
sS'baseValences'
p15
I4
sS'element'
p16
S'C'
sS'isVariable'
p17
I00
sS'varAtoms'
p18
g8
((lp19
(imodel.VarAtom
VarAtom
p20
(dp21
S'neighbours'
p22
g8
((lp23
(imodel.VarAtom
VarAtom
p24
(dp25
g22
g8
((lp26
(imodel.VarAtom
VarAtom
p27
(dp28
g22
g8
((lp29
g24
atRp30
sg12
S'H4_1'
p31
sS'isLabile'
p32
I00
sS'chirality'
p33
NsS'atom'
p34
(imodel.Atom
Atom
p35
(dp36
g12
g31
sg14
g1
sg15
I1
sg16
S'H'
sg17
I00
sg18
g8
((lp37
g27
atRp38
sS'isDeleted'
p39
I00
sbsS'variant'
p40
(imodel.Variant
Variant
p41
(dp42
S'elementDict'
p43
(dp44
S'H'
g8
((lp45
(imodel.VarAtom
VarAtom
p46
(dp47
g22
g8
((lp48
(imodel.VarAtom
VarAtom
p49
(dp50
g22
g8
((lp51
(imodel.VarAtom
VarAtom
p52
(dp53
g22
g8
((lp54
(imodel.VarAtom
VarAtom
p55
(dp56
g22
g8
((lp57
g52
ag20
a(imodel.VarAtom
VarAtom
p58
(dp59
g22
g8
((lp60
g55
atRp61
sg12
S'H6_1'
p62
sg32
I00
sg33
Nsg34
(imodel.Atom
Atom
p63
(dp64
g12
g62
sg14
g1
sg15
I1
sg16
S'H'
sg17
I00
sg18
g8
((lp65
g58
atRp66
sg39
I00
sbsg40
g41
sS'charge'
p67
I0
sg16
S'H'
sg17
I00
sS'coords'
p68
(F213.24913796217322
F-88.165814447455972
F0.74010018802378674
tp69
sS'freeValences'
p70
(lp71
sg14
g1
sS'atomGroups'
p72
g8
((lp73
(imodel.AtomGroup
AtomGroup
p74
(dp75
S'groupType'
p76
S'prochiral'
p77
sS'subGroups'
p78
g8
((ltRp79
sg18
g8
((lp80
g58
a(imodel.VarAtom
VarAtom
p81
(dp82
g22
g8
((lp83
g55
atRp84
sg12
S'H6_2'
p85
sg32
I00
sg33
Nsg34
(imodel.Atom
Atom
p86
(dp87
g12
g85
sg14
g1
sg15
I1
sg16
S'H'
sg17
I00
sg18
g8
((lp88
g81
atRp89
sg39
I00
sbsg40
g41
sg67
I0
sg16
S'H'
sg17
I00
sg68
(F168.65604778285294
F-88.400633108340287
F1.6128170021082915
tp90
sg70
(lp91
sg14
g1
sg72
g8
((lp92
g74
atRp93
sS'bonds'
p94
g8
((lp95
(imodel.Bond
Bond
p96
(dp97
S'bondType'
p98
S'single'
p99
sg14
g1
sg40
g41
sg18
g8
((lp100
g55
ag81
atRp101
sbatRp102
sg39
I00
sbatRp103
sg40
g41
sg14
g1
sbatRp104
sg94
g8
((lp105
(imodel.Bond
Bond
p106
(dp107
g98
g99
sg14
g1
sg40
g41
sg18
g8
((lp108
g55
ag58
atRp109
sbatRp110
sg39
I00
sbag81
atRp111
sg12
S'C6'
p112
sg32
I00
sg33
Nsg34
(imodel.Atom
Atom
p113
(dp114
g12
g112
sg14
g1
sg15
I4
sg16
S'C'
sg17
I00
sg18
g8
((lp115
g55
atRp116
sg39
I00
sbsg40
g41
sg67
I0
sg16
S'C'
sg17
I00
sg68
(F190.80520259655
F-56.895636710564098
F1.4475900879152888
tp117
sg70
(lp118
sg14
g1
sg72
g8
((ltRp119
sg94
g8
((lp120
(imodel.Bond
Bond
p121
(dp122
g98
g99
sg14
g1
sg40
g41
sg18
g8
((lp123
g52
ag55
atRp124
sba(imodel.Bond
Bond
p125
(dp126
g98
g99
sg14
g1
sg40
g41
sg18
g8
((lp127
g20
ag55
atRp128
sbag96
ag106
atRp129
sg39
I00
sba(imodel.VarAtom
VarAtom
p130
(dp131
g22
g8
((lp132
g52
atRp133
sg12
S'H7_1'
p134
sg32
I00
sg33
Nsg34
(imodel.Atom
Atom
p135
(dp136
g12
g134
sg14
g1
sg15
I1
sg16
S'H'
sg17
I00
sg18
g8
((lp137
g130
atRp138
sg39
I00
sbsg40
g41
sg67
I0
sg16
S'H'
sg17
I00
sg68
(F264.16681857420491
F0.34464847837942975
F0.97219480918899071
tp139
sg70
(lp140
sg14
g1
sg72
g8
((lp141
(imodel.AtomGroup
AtomGroup
p142
(dp143
g76
g77
sg78
g8
((ltRp144
sg18
g8
((lp145
g130
a(imodel.VarAtom
VarAtom
p146
(dp147
g22
g8
((lp148
g52
atRp149
sg12
S'H7_2'
p150
sg32
I00
sg33
Nsg34
(imodel.Atom
Atom
p151
(dp152
g12
g150
sg14
g1
sg15
I1
sg16
S'H'
sg17
I00
sg18
g8
((lp153
g146
atRp154
sg39
I00
sbsg40
g41
sg67
I0
sg16
S'H'
sg17
I00
sg68
(F220.00053490385486
F0.1842908215575905
F0.69954377095988829
tp155
sg70
(lp156
sg14
g1
sg72
g8
((lp157
g142
atRp158
sg94
g8
((lp159
(imodel.Bond
Bond
p160
(dp161
g98
g99
sg14
g1
sg40
g41
sg18
g8
((lp162
g52
ag146
atRp163
sbatRp164
sg39
I00
sbatRp165
sg40
g41
sg14
g1
sbatRp166
sg94
g8
((lp167
(imodel.Bond
Bond
p168
(dp169
g98
g99
sg14
g1
sg40
g41
sg18
g8
((lp170
g52
ag130
atRp171
sbatRp172
sg39
I00
sbag49
ag146
atRp173
sg12
S'C7'
p174
sg32
I00
sg33
Nsg34
(imodel.Atom
Atom
p175
(dp176
g12
g174
sg14
g1
sg15
I4
sg16
S'C'
sg17
I00
sg18
g8
((lp177
g52
atRp178
sg39
I00
sbsg40
g41
sg67
I0
sg16
S'C'
sg17
I00
sg68
(F242.19941620993711
F-31.260650980427105
F0.55614661484700889
tp179
sg70
(lp180
sg14
g1
sg72
g8
((ltRp181
sg94
g8
((lp182
(imodel.Bond
Bond
p183
(dp184
g98
g99
sg14
g1
sg40
g41
sg18
g8
((lp185
g52
ag49
atRp186
sbag121
ag160
ag168
atRp187
sg39
I00
sbag46
a(imodel.VarAtom
VarAtom
p188
(dp189
g22
g8
((lp190
g49
atRp191
sg12
S'H8_2'
p192
sg32
I00
sg33
Nsg34
(imodel.Atom
Atom
p193
(dp194
g12
g192
sg14
g1
sg15
I1
sg16
S'H'
sg17
I00
sg18
g8
((lp195
g188
atRp196
sg39
I00
sbsg40
g41
sg67
I0
sg16
S'H'
sg17
I00
sg68
(F318.05932639826574
F-84.442098742135357
F1.083405944657462
tp197
sg70
(lp198
sg14
g1
sg72
g8
((lp199
(imodel.AtomGroup
AtomGroup
p200
(dp201
g76
g77
sg78
g8
((ltRp202
sg18
g8
((lp203
g46
ag188
atRp204
sg40
g41
sg14
g1
sbatRp205
sg94
g8
((lp206
(imodel.Bond
Bond
p207
(dp208
g98
g99
sg14
g1
sg40
g41
sg18
g8
((lp209
g49
ag188
atRp210
sbatRp211
sg39
I00
sba(imodel.VarAtom
VarAtom
p212
(dp213
g22
g8
((lp214
(imodel.VarAtom
VarAtom
p215
(dp216
g22
g8
((lp217
g212
atRp218
sg12
S'H9_1'
p219
sg32
I00
sg33
Nsg34
(imodel.Atom
Atom
p220
(dp221
g12
g219
sg14
g1
sg15
I1
sg16
S'H'
sg17
I00
sg18
g8
((lp222
g215
atRp223
sg39
I00
sbsg40
g41
sg67
I0
sg16
S'H'
sg17
I00
sg68
(F368.47737522325292
F1.9162677600967681
F0.23047582441097203
tp224
sg70
(lp225
sg14
g1
sg72
g8
((lp226
(imodel.AtomGroup
AtomGroup
p227
(dp228
g76
g77
sg78
g8
((ltRp229
sg18
g8
((lp230
g215
a(imodel.VarAtom
VarAtom
p231
(dp232
g22
g8
((lp233
g212
atRp234
sg12
S'H9_2'
p235
sg32
I00
sg33
Nsg34
(imodel.Atom
Atom
p236
(dp237
g12
g235
sg14
g1
sg15
I1
sg16
S'H'
sg17
I00
sg18
g8
((lp238
g231
atRp239
sg39
I00
sbsg40
g41
sg67
I0
sg16
S'H'
sg17
I00
sg68
(F323.91730184707234
F2.42131625090457
F0.24263350395492578
tp240
sg70
(lp241
sg14
g1
sg72
g8
((lp242
g227
atRp243
sg94
g8
((lp244
(imodel.Bond
Bond
p245
(dp246
g98
g99
sg14
g1
sg40
g41
sg18
g8
((lp247
g212
ag231
atRp248
sbatRp249
sg39
I00
sbatRp250
sg40
g41
sg14
g1
sbatRp251
sg94
g8
((lp252
(imodel.Bond
Bond
p253
(dp254
g98
g99
sg14
g1
sg40
g41
sg18
g8
((lp255
g212
ag215
atRp256
sbatRp257
sg39
I00
sbag231
ag49
a(imodel.VarAtom
VarAtom
p258
(dp259
g22
g8
((lp260
g212
a(imodel.VarAtom
VarAtom
p261
(dp262
g22
g8
((lp263
g258
atRp264
sg12
S'H10_1'
p265
sg32
I00
sg33
Nsg34
(imodel.Atom
Atom
p266
(dp267
g12
g265
sg14
g1
sg15
I1
sg16
S'H'
sg17
I00
sg18
g8
((lp268
g261
atRp269
sg39
I00
sbsg40
g41
sg67
I0
sg16
S'H'
sg17
I00
sg68
(F419.01794773826066
F-29.195103145530421
F0.60705562910910182
tp270
sg70
(lp271
sg14
g1
sg72
g8
((lp272
(imodel.AtomGroup
AtomGroup
p273
(dp274
g76
S'equivalent'
p275
sg78
g8
((ltRp276
sg18
g8
((lp277
g261
a(imodel.VarAtom
VarAtom
p278
(dp279
g22
g8
((lp280
g258
atRp281
sg12
S'H10_2'
p282
sg32
I00
sg33
Nsg34
(imodel.Atom
Atom
p283
(dp284
g12
g282
sg14
g1
sg15
I1
sg16
S'H'
sg17
I00
sg18
g8
((lp285
g278
atRp286
sg39
I00
sbsg40
g41
sg67
I0
sg16
S'H'
sg17
I00
sg68
(F381.25744636058073
F-95.234486489226242
F1.59176305811827
tp287
sg70
(lp288
sg14
g1
sg72
g8
((lp289
g273
atRp290
sg94
g8
((lp291
(imodel.Bond
Bond
p292
(dp293
g98
g99
sg14
g1
sg40
g41
sg18
g8
((lp294
g258
ag278
atRp295
sbatRp296
sg39
I00
sba(imodel.VarAtom
VarAtom
p297
(dp298
g22
g8
((lp299
g258
atRp300
sg12
S'H10_3'
p301
sg32
I00
sg33
Nsg34
(imodel.Atom
Atom
p302
(dp303
g12
g301
sg14
g1
sg15
I1
sg16
S'H'
sg17
I00
sg18
g8
((lp304
g297
atRp305
sg39
I00
sbsg40
g41
sg67
I0
sg16
S'H'
sg17
I00
sg68
(F427.37460752005211
F-78.461486567787816
F0.98738462367475643
tp306
sg70
(lp307
sg14
g1
sg72
g8
((lp308
g273
atRp309
sg94
g8
((lp310
(imodel.Bond
Bond
p311
(dp312
g98
g99
sg14
g1
sg40
g41
sg18
g8
((lp313
g258
ag297
atRp314
sbatRp315
sg39
I00
sbatRp316
sg40
g41
sg14
g1
sbatRp317
sg94
g8
((lp318
(imodel.Bond
Bond
p319
(dp320
g98
g99
sg14
g1
sg40
g41
sg18
g8
((lp321
g258
ag261
atRp322
sbatRp323
sg39
I00
sbag278
ag297
atRp324
sg12
S'C10'
p325
sg32
I00
sg33
Nsg34
(imodel.Atom
Atom
p326
(dp327
g12
g325
sg14
g1
sg15
I4
sg16
S'C'
sg17
I00
sg18
g8
((lp328
g258
atRp329
sg39
I00
sbsg40
g41
sg67
I0
sg16
S'C'
sg17
I00
sg68
(F393.71095454467002
F-58.549675971480077
F1.9268811719272083
tp330
sg70
(lp331
sg14
g1
sg72
g8
((ltRp332
sg94
g8
((lp333
(imodel.Bond
Bond
p334
(dp335
g98
g99
sg14
g1
sg40
g41
sg18
g8
((lp336
g258
ag212
atRp337
sbag319
ag311
ag292
atRp338
sg39
I00
sbatRp339
sg12
S'C9'
p340
sg32
I00
sg33
Nsg34
(imodel.Atom
Atom
p341
(dp342
g12
g340
sg14
g1
sg15
I4
sg16
S'C'
sg17
I00
sg18
g8
((lp343
g212
atRp344
sg39
I00
sbsg40
g41
sg67
I0
sg16
S'C'
sg17
I00
sg68
(F345.55615050988939
F-29.44424843935256
F0.73463054255200166
tp345
sg70
(lp346
sg14
g1
sg72
g8
((ltRp347
sg94
g8
((lp348
g334
a(imodel.Bond
Bond
p349
(dp350
g98
g99
sg14
g1
sg40
g41
sg18
g8
((lp351
g212
ag49
atRp352
sbag253
ag245
atRp353
sg39
I00
sbatRp354
sg12
S'C8'
p355
sg32
I00
sg33
Nsg34
(imodel.Atom
Atom
p356
(dp357
g12
g355
sg14
g1
sg15
I4
sg16
S'C'
sg17
I00
sg18
g8
((lp358
g49
atRp359
sg39
I00
sbsg40
g41
sg67
I0
sg16
S'C'
sg17
I00
sg68
(F293.79105602484532
F-54.662809009377902
F0.27308325196523675
tp360
sg70
(lp361
sg14
g1
sg72
g8
((ltRp362
sg94
g8
((lp363
g183
ag349
a(imodel.Bond
Bond
p364
(dp365
g98
g99
sg14
g1
sg40
g41
sg18
g8
((lp366
g49
ag46
atRp367
sbag207
atRp368
sg39
I00
sbatRp369
sg12
S'H8_1'
p370
sg32
I00
sg33
Nsg34
(imodel.Atom
Atom
p371
(dp372
g12
g370
sg14
g1
sg15
I1
sg16
S'H'
sg17
I00
sg18
g8
((lp373
g46
atRp374
sg39
I00
sbsg40
g41
sg67
I0
sg16
S'H'
sg17
I00
sg68
(F273.38832040885001
F-87.338597062203547
F0.70551734423408363
tp375
sg70
(lp376
sg14
g1
sg72
g8
((lp377
g200
atRp378
sg94
g8
((lp379
g364
atRp380
sg39
I00
sbag81
ag27
ag215
ag146
a(imodel.VarAtom
VarAtom
p381
(dp382
g22
g8
((lp383
g24
atRp384
sg12
S'H4_2'
p385
sg32
I00
sg33
Nsg34
(imodel.Atom
Atom
p386
(dp387
g12
g385
sg14
g1
sg15
I1
sg16
S'H'
sg17
I00
sg18
g8
((lp388
g381
atRp389
sg39
I00
sbsg40
g41
sg67
I0
sg16
S'H'
sg17
I00
sg68
(F63.098624108094945
F-86.178219134340054
F1.7524515622372359
tp390
sg70
(lp391
sg14
g1
sg72
g8
((lp392
(imodel.AtomGroup
AtomGroup
p393
(dp394
g76
g77
sg78
g8
((ltRp395
sg18
g8
((lp396
g27
ag381
atRp397
sg40
g41
sg14
g1
sbatRp398
sg94
g8
((lp399
(imodel.Bond
Bond
p400
(dp401
g98
g99
sg14
g1
sg40
g41
sg18
g8
((lp402
g24
ag381
atRp403
sbatRp404
sg39
I00
sbag58
a(imodel.VarAtom
VarAtom
p405
(dp406
g22
g8
((lp407
(imodel.VarAtom
VarAtom
p408
(dp409
g22
g8
((lp410
(imodel.VarAtom
VarAtom
p411
(dp412
g22
g8
((lp413
g408
a(imodel.VarAtom
VarAtom
p414
(dp415
g22
g8
((lp416
g24
ag411
a(imodel.VarAtom
VarAtom
p417
(dp418
g22
g8
((lp419
g414
atRp420
sg12
S'H3_1'
p421
sg32
I00
sg33
Nsg34
(imodel.Atom
Atom
p422
(dp423
g12
g421
sg14
g1
sg15
I1
sg16
S'H'
sg17
I00
sg18
g8
((lp424
g417
atRp425
sg39
I00
sbsg40
g41
sg67
I0
sg16
S'H'
sg17
I00
sg68
(F59.736973168766951
F2.3242067630931826
F0.70388739999601213
tp426
sg70
(lp427
sg14
g1
sg72
g8
((lp428
(imodel.AtomGroup
AtomGroup
p429
(dp430
g76
g77
sg78
g8
((ltRp431
sg18
g8
((lp432
g417
a(imodel.VarAtom
VarAtom
p433
(dp434
g22
g8
((lp435
g414
atRp436
sg12
S'H3_2'
p437
sg32
I00
sg33
Nsg34
(imodel.Atom
Atom
p438
(dp439
g12
g437
sg14
g1
sg15
I1
sg16
S'H'
sg17
I00
sg18
g8
((lp440
g433
atRp441
sg39
I00
sbsg40
g41
sg67
I0
sg16
S'H'
sg17
I00
sg68
(F15.541845322928069
F3.3341594403363404
F1.2645926595943249
tp442
sg70
(lp443
sg14
g1
sg72
g8
((lp444
g429
atRp445
sg94
g8
((lp446
(imodel.Bond
Bond
p447
(dp448
g98
g99
sg14
g1
sg40
g41
sg18
g8
((lp449
g414
ag433
atRp450
sbatRp451
sg39
I00
sbatRp452
sg40
g41
sg14
g1
sbatRp453
sg94
g8
((lp454
(imodel.Bond
Bond
p455
(dp456
g98
g99
sg14
g1
sg40
g41
sg18
g8
((lp457
g414
ag417
atRp458
sbatRp459
sg39
I00
sbag433
atRp460
sg12
S'C3'
p461
sg32
I00
sg33
Nsg34
(imodel.Atom
Atom
p462
(dp463
g12
g461
sg14
g1
sg15
I4
sg16
S'C'
sg17
I00
sg18
g8
((lp464
g414
atRp465
sg39
I00
sbsg40
g41
sg67
I0
sg16
S'C'
sg17
I00
sg68
(F36.867486656309296
F-28.631938981537143
F0.28520361877690326
tp466
sg70
(lp467
sg14
g1
sg72
g8
((ltRp468
sg94
g8
((lp469
(imodel.Bond
Bond
p470
(dp471
g98
g99
sg14
g1
sg40
g41
sg18
g8
((lp472
g24
ag414
atRp473
sba(imodel.Bond
Bond
p474
(dp475
g98
g99
sg14
g1
sg40
g41
sg18
g8
((lp476
g411
ag414
atRp477
sbag447
ag455
atRp478
sg39
I00
sba(imodel.VarAtom
VarAtom
p479
(dp480
g22
g8
((lp481
g411
atRp482
sg12
S'H2_1'
p483
sg32
I00
sg33
Nsg34
(imodel.Atom
Atom
p484
(dp485
g12
g483
sg14
g1
sg15
I1
sg16
S'H'
sg17
I00
sg18
g8
((lp486
g479
atRp487
sg39
I00
sbsg40
g41
sg67
I0
sg16
S'H'
sg17
I00
sg68
(F-42.864015638444052
F-77.842541783575399
F0.76871810065456181
tp488
sg70
(lp489
sg14
g1
sg72
g8
((lp490
(imodel.AtomGroup
AtomGroup
p491
(dp492
g76
g77
sg78
g8
((ltRp493
sg18
g8
((lp494
g479
a(imodel.VarAtom
VarAtom
p495
(dp496
g22
g8
((lp497
g411
atRp498
sg12
S'H2_2'
p499
sg32
I00
sg33
Nsg34
(imodel.Atom
Atom
p500
(dp501
g12
g499
sg14
g1
sg15
I1
sg16
S'H'
sg17
I00
sg18
g8
((lp502
g495
atRp503
sg39
I00
sbsg40
g41
sg67
I0
sg16
S'H'
sg17
I00
sg68
(F1.8040381959360003
F-82.560464807031664
F0.86687274676254211
tp504
sg70
(lp505
sg14
g1
sg72
g8
((lp506
g491
atRp507
sg94
g8
((lp508
(imodel.Bond
Bond
p509
(dp510
g98
g99
sg14
g1
sg40
g41
sg18
g8
((lp511
g411
ag495
atRp512
sbatRp513
sg39
I00
sbatRp514
sg40
g41
sg14
g1
sbatRp515
sg94
g8
((lp516
(imodel.Bond
Bond
p517
(dp518
g98
g99
sg14
g1
sg40
g41
sg18
g8
((lp519
g411
ag479
atRp520
sbatRp521
sg39
I00
sbag495
atRp522
sg12
S'C2'
p523
sg32
I00
sg33
Nsg34
(imodel.Atom
Atom
p524
(dp525
g12
g523
sg14
g1
sg15
I4
sg16
S'C'
sg17
I00
sg18
g8
((lp526
g411
atRp527
sg39
I00
sbsg40
g41
sg67
I0
sg16
S'C'
sg17
I00
sg68
(F-16.894339001286379
F-48.876588390066843
F0.72558777682741071
tp528
sg70
(lp529
sg14
g1
sg72
g8
((ltRp530
sg94
g8
((lp531
(imodel.Bond
Bond
p532
(dp533
g98
g99
sg14
g1
sg40
g41
sg18
g8
((lp534
g411
ag408
atRp535
sbag474
ag509
ag517
atRp536
sg39
I00
sba(imodel.VarAtom
VarAtom
p537
(dp538
g22
g8
((lp539
g408
atRp540
sg12
S'H1_2'
p541
sg32
I00
sg33
Nsg34
(imodel.Atom
Atom
p542
(dp543
g12
g541
sg14
g1
sg15
I1
sg16
S'H'
sg17
I00
sg18
g8
((lp544
g537
atRp545
sg39
I00
sbsg40
g41
sg67
I0
sg16
S'H'
sg17
I00
sg68
(F-45.402123573088708
F20.605440833129837
F1.4105408890118825
tp546
sg70
(lp547
sg14
g1
sg72
g8
((lp548
(imodel.AtomGroup
AtomGroup
p549
(dp550
g76
g77
sg78
g8
((ltRp551
sg18
g8
((lp552
g537
ag405
atRp553
sg40
g41
sg14
g1
sbatRp554
sg94
g8
((lp555
(imodel.Bond
Bond
p556
(dp557
g98
g99
sg14
g1
sg40
g41
sg18
g8
((lp558
g408
ag537
atRp559
sbatRp560
sg39
I00
sbag405
atRp561
sg12
S'C1'
p562
sg32
I00
sg33
Nsg34
(imodel.Atom
Atom
p563
(dp564
g12
g562
sg14
g1
sg15
I4
sg16
S'C'
sg17
I00
sg18
g8
((lp565
g408
atRp566
sg39
I00
sbsg40
g41
sg67
I0
sg16
S'C'
sg17
I00
sg68
(F-61.528638470834196
F-14.63097534787782
F0.088940306629510468
tp567
sg70
(lp568
F3.789580565914104
asg14
g1
sg72
g8
((ltRp569
sg94
g8
((lp570
g532
ag556
a(imodel.Bond
Bond
p571
(dp572
g98
g99
sg14
g1
sg40
g41
sg18
g8
((lp573
g408
ag405
atRp574
sbatRp575
sg39
I00
sbatRp576
sg12
S'H1_1'
p577
sg32
I00
sg33
Nsg34
(imodel.Atom
Atom
p578
(dp579
g12
g577
sg14
g1
sg15
I1
sg16
S'H'
sg17
I00
sg18
g8
((lp580
g405
atRp581
sg39
I00
sbsg40
g41
sg67
I0
sg16
S'H'
sg17
I00
sg68
(F-92.850765175687201
F8.7641266318730651
F0.86853385971279917
tp582
sg70
(lp583
sg14
g1
sg72
g8
((lp584
g549
atRp585
sg94
g8
((lp586
g571
atRp587
sg39
I00
sbag479
ag417
ag537
ag261
ag297
ag231
ag495
ag433
a(imodel.VarAtom
VarAtom
p588
(dp589
g22
g8
((lp590
g20
atRp591
sg12
S'H5_1'
p592
sg32
I00
sg33
Nsg34
(imodel.Atom
Atom
p593
(dp594
g12
g592
sg14
g1
sg15
I1
sg16
S'H'
sg17
I00
sg18
g8
((lp595
g588
atRp596
sg39
I00
sbsg40
g41
sg67
I0
sg16
S'H'
sg17
I00
sg68
(F161.61150875615829
F-1.1827964517104204
F1.802505039941487
tp597
sg70
(lp598
sg14
g1
sg72
g8
((lp599
(imodel.AtomGroup
AtomGroup
p600
(dp601
g76
g77
sg78
g8
((ltRp602
sg18
g8
((lp603
g588
a(imodel.VarAtom
VarAtom
p604
(dp605
g22
g8
((lp606
g20
atRp607
sg12
S'H5_2'
p608
sg32
I00
sg33
Nsg34
(imodel.Atom
Atom
p609
(dp610
g12
g608
sg14
g1
sg15
I1
sg16
S'H'
sg17
I00
sg18
g8
((lp611
g604
atRp612
sg39
I00
sbsg40
g41
sg67
I0
sg16
S'H'
sg17
I00
sg68
(F117.67779035971454
F-0.540006930453797
F0.63489241871802715
tp613
sg70
(lp614
sg14
g1
sg72
g8
((lp615
g600
atRp616
sg94
g8
((lp617
(imodel.Bond
Bond
p618
(dp619
g98
g99
sg14
g1
sg40
g41
sg18
g8
((lp620
g20
ag604
atRp621
sbatRp622
sg39
I00
sbatRp623
sg40
g41
sg14
g1
sbatRp624
sg94
g8
((lp625
(imodel.Bond
Bond
p626
(dp627
g98
g99
sg14
g1
sg40
g41
sg18
g8
((lp628
g20
ag588
atRp629
sbatRp630
sg39
I00
sbag130
ag188
ag604
ag278
atRp631
sS'C'
g8
((lp632
g408
ag411
ag20
ag258
ag414
ag49
ag52
ag212
ag55
ag24
atRp633
ssS'bonds'
p634
g8
((lp635
g532
ag207
ag168
ag474
ag245
ag626
ag470
ag364
ag160
ag571
ag447
ag618
ag311
ag96
ag292
a(imodel.Bond
Bond
p636
(dp637
g98
g99
sg14
g1
sg40
g41
sg18
g8
((lp638
g24
ag27
atRp639
sbag334
ag509
ag121
ag517
ag183
ag400
ag455
ag319
ag556
ag125
ag253
a(imodel.Bond
Bond
p640
(dp641
g98
g99
sg14
g1
sg40
g41
sg18
g8
((lp642
g20
ag24
atRp643
sbag106
ag349
atRp644
sS'compound'
p645
g1
sS'descriptor'
p646
(S'neutral'
p647
S'none'
p648
S'default'
p649
tp650
sS'atomDict'
p651
(dp652
g10
g20
sg35
g27
sg63
g58
sg484
g479
sg266
g261
sg593
g588
sg578
g405
sg86
g81
sg193
g188
sg236
g231
sg371
g46
sg326
g258
sg462
g414
sg175
g52
sg356
g49
sg386
g381
sg151
g146
sg135
g130
sg524
g411
sg422
g417
sg563
g408
sg113
g55
sg302
g297
sg220
g215
sg609
g604
sg542
g537
sg341
g212
sg438
g433
sg500
g495
sg283
g278
s(imodel.Atom
Atom
p653
(dp654
g12
S'C4'
p655
sg14
g1
sg15
I4
sg16
S'C'
sg17
I00
sg18
g8
((lp656
g24
atRp657
sg39
I00
sbg24
ssS'varAtoms'
p658
g8
((lp659
g46
ag81
ag20
ag215
ag130
ag49
ag146
ag604
ag58
ag408
ag24
ag405
ag27
ag258
ag588
ag381
ag417
ag537
ag411
ag261
ag52
ag231
ag495
ag433
ag212
ag297
ag479
ag188
ag414
ag278
ag55
atRp660
sS'atomGroups'
p661
g8
((lp662
g600
ag273
ag549
ag227
ag393
ag200
ag491
ag429
ag142
ag74
atRp663
sS'polyLink'
p664
g648
sbsg67
I0
sg16
S'H'
sg17
I00
sg68
(F107.80770323772124
F-88.208963071202376
F0.23284563532235625
tp665
sg70
(lp666
sg14
g1
sg72
g8
((lp667
g393
atRp668
sg94
g8
((lp669
g636
atRp670
sg39
I00
sbag414
ag20
ag381
atRp671
sg12
g655
sg32
I00
sg33
Nsg34
g653
sg40
g41
sg67
I0
sg16
S'C'
sg17
I00
sg68
(F86.868203118867768
F-55.872191142312786
F1.2393322294307736
tp672
sg70
(lp673
sg14
g1
sg72
g8
((ltRp674
sg94
g8
((lp675
g640
ag470
ag636
ag400
atRp676
sg39
I00
sbag55
ag588
ag604
atRp677
sg12
g13
sg32
I00
sg33
Nsg34
g10
sg40
g41
sg67
I0
sg16
S'C'
sg17
I00
sg68
(F139.17318283761301
F-32.423504874893155
F1.1489813909642193
tp678
sg70
(lp679
sg14
g1
sg72
g8
((ltRp680
sg94
g8
((lp681
g640
ag125
ag626
ag618
atRp682
sg39
I00
sbatRp683
sg39
I00
sbag35
ag63
ag484
ag266
ag593
ag578
ag86
ag193
ag236
ag371
ag326
ag462
ag175
ag356
ag386
ag151
ag135
ag524
ag422
ag563
ag113
ag302
ag220
ag609
ag542
ag341
ag438
ag500
ag283
ag653
atRp684
sS'ccpMolType'
p685
S'other'
p686
sS'details'
p687
V
sg651
(dp688
g150
g151
sg235
g236
sg134
g135
sg219
g220
sg192
g193
sg325
g326
sg31
g35
sg385
g386
sg437
g438
sg421
g422
sg370
g371
sg340
g341
sg355
g356
sg461
g462
sg523
g524
sg562
g563
sg174
g175
sg112
g113
sg13
g10
sg655
g653
sg85
g86
sg301
g302
sg282
g283
sg265
g266
sg499
g500
sg483
g484
sg577
g578
sg541
g542
sg592
g593
sg62
g63
sg608
g609
ssS'keywords'
p689
g8
((ltRp690
sg661
g8
((lp691
g600
ag273
ag549
ag227
ag393
ag200
ag491
ag429
ag142
ag74
atRp692
sS'variants'
p693
g8
((lp694
g41
atRp695
sS'defaultVars'
p696
g8
((ltRp697
sb.