(imodel.Compound
Compound
p1
(dp2
S'name'
p3
VUnnamed
p4
sS'isModified'
p5
I01
sS'ccpCode'
p6
NsS'atoms'
p7
c__builtin__
set
p8
((lp9
(imodel.Atom
Atom
p10
(dp11
S'name'
p12
S'C9'
p13
sS'compound'
p14
g1
sS'baseValences'
p15
I4
sS'element'
p16
S'C'
sS'isVariable'
p17
I00
sS'varAtoms'
p18
g8
((lp19
(imodel.VarAtom
VarAtom
p20
(dp21
g12
g13
sS'isLabile'
p22
I00
sS'chirality'
p23
NsS'atom'
p24
g10
sS'variant'
p25
(imodel.Variant
Variant
p26
(dp27
S'elementDict'
p28
(dp29
S'H'
g8
((lp30
(imodel.VarAtom
VarAtom
p31
(dp32
S'neighbours'
p33
g8
((lp34
(imodel.VarAtom
VarAtom
p35
(dp36
g12
S'C4'
p37
sg22
I00
sg23
Nsg24
(imodel.Atom
Atom
p38
(dp39
g12
g37
sg14
g1
sg15
I4
sg16
S'C'
sg17
I00
sg18
g8
((lp40
g35
atRp41
sS'isDeleted'
p42
I00
sbsg25
g26
sS'neighbours'
p43
g8
((lp44
g31
a(imodel.VarAtom
VarAtom
p45
(dp46
g12
S'C5'
p47
sg22
I00
sg23
Nsg24
(imodel.Atom
Atom
p48
(dp49
g12
g47
sg14
g1
sg15
I4
sg16
S'C'
sg17
I00
sg18
g8
((lp50
g45
atRp51
sg42
I00
sbsg25
g26
sg43
g8
((lp52
g35
a(imodel.VarAtom
VarAtom
p53
(dp54
g33
g8
((lp55
g45
atRp56
sS'name'
p57
S'H5_1'
p58
sS'isLabile'
p59
I00
sS'chirality'
p60
NsS'atom'
p61
(imodel.Atom
Atom
p62
(dp63
g57
g58
sS'compound'
p64
g1
sS'baseValences'
p65
I1
sS'element'
p66
S'H'
sS'isVariable'
p67
I00
sS'varAtoms'
p68
g8
((lp69
g53
atRp70
sS'isDeleted'
p71
I00
sbsS'variant'
p72
g26
sS'charge'
p73
I0
sg66
S'H'
sg67
I00
sS'coords'
p74
(F108.89480513359895
F-48.881633996398484
F0.085534241547076229
tp75
sS'freeValences'
p76
(lp77
sg64
g1
sS'atomGroups'
p78
g8
((lp79
(imodel.AtomGroup
AtomGroup
p80
(dp81
S'groupType'
p82
S'prochiral'
p83
sS'subGroups'
p84
g8
((ltRp85
sg68
g8
((lp86
g53
a(imodel.VarAtom
VarAtom
p87
(dp88
g33
g8
((lp89
g45
atRp90
sg57
S'H5_2'
p91
sg59
I00
sg60
Nsg61
(imodel.Atom
Atom
p92
(dp93
g57
g91
sg64
g1
sg65
I1
sg66
S'H'
sg67
I00
sg68
g8
((lp94
g87
atRp95
sg71
I00
sbsg72
g26
sg73
I0
sg66
S'H'
sg67
I00
sg74
(F64.062785454070266
F-48.010864604989536
F2.3465022482266744
tp96
sg76
(lp97
sg64
g1
sg78
g8
((lp98
g80
atRp99
sS'bonds'
p100
g8
((lp101
(imodel.Bond
Bond
p102
(dp103
S'bondType'
p104
S'single'
p105
sg64
g1
sg72
g26
sg68
g8
((lp106
g45
ag87
atRp107
sbatRp108
sg71
I00
sbatRp109
sg72
g26
sg64
g1
sbatRp110
sg100
g8
((lp111
(imodel.Bond
Bond
p112
(dp113
g104
g105
sg64
g1
sg72
g26
sg68
g8
((lp114
g45
ag53
atRp115
sbatRp116
sg71
I00
sbag87
a(imodel.VarAtom
VarAtom
p117
(dp118
g12
S'C6'
p119
sg22
I00
sg23
Nsg24
(imodel.Atom
Atom
p120
(dp121
g12
g119
sg14
g1
sg15
I4
sg16
S'C'
sg17
I00
sg18
g8
((lp122
g117
atRp123
sg42
I00
sbsg25
g26
sg43
g8
((lp124
(imodel.VarAtom
VarAtom
p125
(dp126
g12
S'C7'
p127
sg22
I00
sg23
Nsg24
(imodel.Atom
Atom
p128
(dp129
g12
g127
sg14
g1
sg15
I4
sg16
S'C'
sg17
I00
sg18
g8
((lp130
g125
atRp131
sg42
I00
sbsg25
g26
sg43
g8
((lp132
g117
a(imodel.VarAtom
VarAtom
p133
(dp134
g33
g8
((lp135
g125
atRp136
sg57
S'H7_1'
p137
sg59
I00
sg60
Nsg61
(imodel.Atom
Atom
p138
(dp139
g57
g137
sg64
g1
sg65
I1
sg66
S'H'
sg67
I00
sg68
g8
((lp140
g133
atRp141
sg71
I00
sbsg72
g26
sg73
I0
sg66
S'H'
sg67
I00
sg74
(F214.29689311453544
F-55.073851701728472
F1.4462146940292084
tp142
sg76
(lp143
sg64
g1
sg78
g8
((lp144
(imodel.AtomGroup
AtomGroup
p145
(dp146
g82
g83
sg84
g8
((ltRp147
sg68
g8
((lp148
g133
a(imodel.VarAtom
VarAtom
p149
(dp150
g33
g8
((lp151
g125
atRp152
sg57
S'H7_2'
p153
sg59
I00
sg60
Nsg61
(imodel.Atom
Atom
p154
(dp155
g57
g153
sg64
g1
sg65
I1
sg66
S'H'
sg67
I00
sg68
g8
((lp156
g149
atRp157
sg71
I00
sbsg72
g26
sg73
I0
sg66
S'H'
sg67
I00
sg74
(F169.75942033190069
F-52.50756672389997
F1.5880628418627136
tp158
sg76
(lp159
sg64
g1
sg78
g8
((lp160
g145
atRp161
sg100
g8
((lp162
(imodel.Bond
Bond
p163
(dp164
g104
g105
sg64
g1
sg72
g26
sg68
g8
((lp165
g125
ag149
atRp166
sbatRp167
sg71
I00
sbatRp168
sg72
g26
sg64
g1
sbatRp169
sg100
g8
((lp170
(imodel.Bond
Bond
p171
(dp172
g104
g105
sg64
g1
sg72
g26
sg68
g8
((lp173
g125
ag133
atRp174
sbatRp175
sg71
I00
sbag149
a(imodel.VarAtom
VarAtom
p176
(dp177
g12
S'C8'
p178
sg22
I00
sg23
Nsg24
(imodel.Atom
Atom
p179
(dp180
g12
g178
sg14
g1
sg15
I4
sg16
S'C'
sg17
I00
sg18
g8
((lp181
g176
atRp182
sg42
I00
sbsg25
g26
sg43
g8
((lp183
g125
ag20
a(imodel.VarAtom
VarAtom
p184
(dp185
g33
g8
((lp186
g176
atRp187
sg57
S'H8_1'
p188
sg59
I00
sg60
Nsg61
(imodel.Atom
Atom
p189
(dp190
g57
g188
sg64
g1
sg65
I1
sg66
S'H'
sg67
I00
sg68
g8
((lp191
g184
atRp192
sg71
I00
sbsg72
g26
sg73
I0
sg66
S'H'
sg67
I00
sg74
(F260.72531960325063
F-146.20242212073919
F1.9222349986205471
tp193
sg76
(lp194
sg64
g1
sg78
g8
((lp195
(imodel.AtomGroup
AtomGroup
p196
(dp197
g82
g83
sg84
g8
((ltRp198
sg68
g8
((lp199
g184
a(imodel.VarAtom
VarAtom
p200
(dp201
g33
g8
((lp202
g176
atRp203
sg57
S'H8_2'
p204
sg59
I00
sg60
Nsg61
(imodel.Atom
Atom
p205
(dp206
g57
g204
sg64
g1
sg65
I1
sg66
S'H'
sg67
I00
sg68
g8
((lp207
g200
atRp208
sg71
I00
sbsg72
g26
sg73
I0
sg66
S'H'
sg67
I00
sg74
(F216.51576273798005
F-143.52414951552933
F1.0676058792134127
tp209
sg76
(lp210
sg64
g1
sg78
g8
((lp211
g196
atRp212
sg100
g8
((lp213
(imodel.Bond
Bond
p214
(dp215
g104
g105
sg64
g1
sg72
g26
sg68
g8
((lp216
g176
ag200
atRp217
sbatRp218
sg71
I00
sbatRp219
sg72
g26
sg64
g1
sbatRp220
sg100
g8
((lp221
(imodel.Bond
Bond
p222
(dp223
g104
g105
sg64
g1
sg72
g26
sg68
g8
((lp224
g176
ag184
atRp225
sbatRp226
sg71
I00
sbag200
atRp227
sg16
S'C'
sS'charge'
p228
I0
sg17
I00
sS'coords'
p229
(F240.52731418453297
F-113.4465459442593
F1.20251217389141
tp230
sS'freeValences'
p231
(lp232
sg14
g1
sS'atomGroups'
p233
g8
((ltRp234
sS'bonds'
p235
g8
((lp236
(imodel.Bond
Bond
p237
(dp238
g104
g105
sg64
g1
sg72
g26
sg68
g8
((lp239
g176
ag20
atRp240
sba(imodel.Bond
Bond
p241
(dp242
g104
g105
sg64
g1
sg72
g26
sg68
g8
((lp243
g176
ag125
atRp244
sbag222
ag214
atRp245
sg42
I00
sbatRp246
sg16
S'C'
sg228
I0
sg17
I00
sg229
(F190.2345748448906
F-85.112792502156282
F1.5448346630762497
tp247
sg231
(lp248
sg14
g1
sg233
g8
((ltRp249
sg235
g8
((lp250
(imodel.Bond
Bond
p251
(dp252
g104
g105
sg64
g1
sg72
g26
sg68
g8
((lp253
g117
ag125
atRp254
sbag241
ag163
ag171
atRp255
sg42
I00
sbag45
a(imodel.VarAtom
VarAtom
p256
(dp257
g33
g8
((lp258
g117
atRp259
sg57
S'H6_1'
p260
sg59
I00
sg60
Nsg61
(imodel.Atom
Atom
p261
(dp262
g57
g260
sg64
g1
sg65
I1
sg66
S'H'
sg67
I00
sg68
g8
((lp263
g256
atRp264
sg71
I00
sbsg72
g26
sg73
I0
sg66
S'H'
sg67
I00
sg74
(F113.72469958103586
F-137.08984621677646
F1.5202312546665107
tp265
sg76
(lp266
sg64
g1
sg78
g8
((lp267
(imodel.AtomGroup
AtomGroup
p268
(dp269
g82
g83
sg84
g8
((ltRp270
sg68
g8
((lp271
g256
a(imodel.VarAtom
VarAtom
p272
(dp273
g33
g8
((lp274
g117
atRp275
sg57
S'H6_2'
p276
sg59
I00
sg60
Nsg61
(imodel.Atom
Atom
p277
(dp278
g57
g276
sg64
g1
sg65
I1
sg66
S'H'
sg67
I00
sg68
g8
((lp279
g272
atRp280
sg71
I00
sbsg72
g26
sg73
I0
sg66
S'H'
sg67
I00
sg74
(F157.73751376959697
F-138.9048092649945
F2.1386954006761374
tp281
sg76
(lp282
sg64
g1
sg78
g8
((lp283
g268
atRp284
sg100
g8
((lp285
(imodel.Bond
Bond
p286
(dp287
g104
g105
sg64
g1
sg72
g26
sg68
g8
((lp288
g117
ag272
atRp289
sbatRp290
sg71
I00
sbatRp291
sg72
g26
sg64
g1
sbatRp292
sg100
g8
((lp293
(imodel.Bond
Bond
p294
(dp295
g104
g105
sg64
g1
sg72
g26
sg68
g8
((lp296
g117
ag256
atRp297
sbatRp298
sg71
I00
sbag272
atRp299
sg16
S'C'
sg228
I0
sg17
I00
sg229
(F137.02321708511604
F-106.49073434245516
F1.0383964847038849
tp300
sg231
(lp301
sg14
g1
sg233
g8
((ltRp302
sg235
g8
((lp303
g251
a(imodel.Bond
Bond
p304
(dp305
g104
g105
sg64
g1
sg72
g26
sg68
g8
((lp306
g117
ag45
atRp307
sbag286
ag294
atRp308
sg42
I00
sbatRp309
sg16
S'C'
sg228
I0
sg17
I00
sg229
(F85.873841501257374
F-79.755587991794968
F0.55472638447950107
tp310
sg231
(lp311
sg14
g1
sg233
g8
((ltRp312
sg235
g8
((lp313
(imodel.Bond
Bond
p314
(dp315
g104
g105
sg64
g1
sg72
g26
sg68
g8
((lp316
g45
ag35
atRp317
sbag304
ag112
ag102
atRp318
sg42
I00
sba(imodel.VarAtom
VarAtom
p319
(dp320
g12
S'C3'
p321
sg22
I00
sg23
Nsg24
(imodel.Atom
Atom
p322
(dp323
g12
g321
sg14
g1
sg15
I4
sg16
S'C'
sg17
I00
sg18
g8
((lp324
g319
atRp325
sg42
I00
sbsg25
g26
sg43
g8
((lp326
g35
a(imodel.VarAtom
VarAtom
p327
(dp328
g12
S'C2'
p329
sg22
I00
sg23
Nsg24
(imodel.Atom
Atom
p330
(dp331
g12
g329
sg14
g1
sg15
I4
sg16
S'C'
sg17
I00
sg18
g8
((lp332
g327
atRp333
sg42
I00
sbsg25
g26
sg43
g8
((lp334
(imodel.VarAtom
VarAtom
p335
(dp336
g12
S'C1'
p337
sg22
I00
sg23
Nsg24
(imodel.Atom
Atom
p338
(dp339
g12
g337
sg14
g1
sg15
I4
sg16
S'C'
sg17
I00
sg18
g8
((lp340
g335
atRp341
sg42
I00
sbsg25
g26
sg43
g8
((lp342
g327
a(imodel.VarAtom
VarAtom
p343
(dp344
g33
g8
((lp345
g335
atRp346
sg57
S'H1_1'
p347
sg59
I00
sg60
Nsg61
(imodel.Atom
Atom
p348
(dp349
g57
g347
sg64
g1
sg65
I1
sg66
S'H'
sg67
I00
sg68
g8
((lp350
g343
atRp351
sg71
I00
sbsg72
g26
sg73
I0
sg66
S'H'
sg67
I00
sg74
(F-152.47217368773806
F-60.161124448370224
F1.3583428813156915
tp352
sg76
(lp353
sg64
g1
sg78
g8
((lp354
(imodel.AtomGroup
AtomGroup
p355
(dp356
g82
g83
sg84
g8
((ltRp357
sg68
g8
((lp358
g343
a(imodel.VarAtom
VarAtom
p359
(dp360
g33
g8
((lp361
g335
atRp362
sg57
S'H1_2'
p363
sg59
I00
sg60
Nsg61
(imodel.Atom
Atom
p364
(dp365
g57
g363
sg64
g1
sg65
I1
sg66
S'H'
sg67
I00
sg68
g8
((lp366
g359
atRp367
sg71
I00
sbsg72
g26
sg73
I0
sg66
S'H'
sg67
I00
sg74
(F-106.88023579433252
F-41.905737624254634
F1.3911437767217962
tp368
sg76
(lp369
sg64
g1
sg78
g8
((lp370
g355
atRp371
sg100
g8
((lp372
(imodel.Bond
Bond
p373
(dp374
g104
g105
sg64
g1
sg72
g26
sg68
g8
((lp375
g335
ag359
atRp376
sbatRp377
sg71
I00
sbatRp378
sg72
g26
sg64
g1
sbatRp379
sg100
g8
((lp380
(imodel.Bond
Bond
p381
(dp382
g104
g105
sg64
g1
sg72
g26
sg68
g8
((lp383
g335
ag343
atRp384
sbatRp385
sg71
I00
sbag359
atRp386
sg16
S'C'
sg228
I0
sg17
I00
sg229
(F-118.17702126919113
F-78.962826763376825
F0.32203674820298323
tp387
sg231
(lp388
F3.6481675652810006
asg14
g1
sg233
g8
((ltRp389
sg235
g8
((lp390
(imodel.Bond
Bond
p391
(dp392
g104
g105
sg64
g1
sg72
g26
sg68
g8
((lp393
g335
ag327
atRp394
sbag381
ag373
atRp395
sg42
I00
sbag319
a(imodel.VarAtom
VarAtom
p396
(dp397
g33
g8
((lp398
g327
atRp399
sg57
S'H2_1'
p400
sg59
I00
sg60
Nsg61
(imodel.Atom
Atom
p401
(dp402
g57
g400
sg64
g1
sg65
I1
sg66
S'H'
sg67
I00
sg68
g8
((lp403
g396
atRp404
sg71
I00
sbsg72
g26
sg73
I0
sg66
S'H'
sg67
I00
sg74
(F-46.97411825453085
F-137.7841219618295
F1.4179597502469237
tp405
sg76
(lp406
sg64
g1
sg78
g8
((lp407
(imodel.AtomGroup
AtomGroup
p408
(dp409
g82
g83
sg84
g8
((ltRp410
sg68
g8
((lp411
g396
a(imodel.VarAtom
VarAtom
p412
(dp413
g33
g8
((lp414
g327
atRp415
sg57
S'H2_2'
p416
sg59
I00
sg60
Nsg61
(imodel.Atom
Atom
p417
(dp418
g57
g416
sg64
g1
sg65
I1
sg66
S'H'
sg67
I00
sg68
g8
((lp419
g412
atRp420
sg71
I00
sbsg72
g26
sg73
I0
sg66
S'H'
sg67
I00
sg74
(F-91.365535286604384
F-138.35899142487145
F1.8498057873545608
tp421
sg76
(lp422
sg64
g1
sg78
g8
((lp423
g408
atRp424
sg100
g8
((lp425
(imodel.Bond
Bond
p426
(dp427
g104
g105
sg64
g1
sg72
g26
sg68
g8
((lp428
g327
ag412
atRp429
sbatRp430
sg71
I00
sbatRp431
sg72
g26
sg64
g1
sbatRp432
sg100
g8
((lp433
(imodel.Bond
Bond
p434
(dp435
g104
g105
sg64
g1
sg72
g26
sg68
g8
((lp436
g327
ag396
atRp437
sbatRp438
sg71
I00
sbag412
atRp439
sg16
S'C'
sg228
I0
sg17
I00
sg229
(F-69.295472319486166
F-106.4120971271302
F1.2219350057609315
tp440
sg231
(lp441
sg14
g1
sg233
g8
((ltRp442
sg235
g8
((lp443
(imodel.Bond
Bond
p444
(dp445
g104
g105
sg64
g1
sg72
g26
sg68
g8
((lp446
g327
ag319
atRp447
sbag391
ag434
ag426
atRp448
sg42
I00
sba(imodel.VarAtom
VarAtom
p449
(dp450
g33
g8
((lp451
g319
atRp452
sg57
S'H3_1'
p453
sg59
I00
sg60
Nsg61
(imodel.Atom
Atom
p454
(dp455
g57
g453
sg64
g1
sg65
I1
sg66
S'H'
sg67
I00
sg68
g8
((lp456
g449
atRp457
sg71
I00
sbsg72
g26
sg73
I0
sg66
S'H'
sg67
I00
sg74
(F-42.755160070252622
F-50.66405414548327
F1.1107778202664362
tp458
sg76
(lp459
sg64
g1
sg78
g8
((lp460
(imodel.AtomGroup
AtomGroup
p461
(dp462
g82
g83
sg84
g8
((ltRp463
sg68
g8
((lp464
g449
a(imodel.VarAtom
VarAtom
p465
(dp466
g33
g8
((lp467
g319
atRp468
sg57
S'H3_2'
p469
sg59
I00
sg60
Nsg61
(imodel.Atom
Atom
p470
(dp471
g57
g469
sg64
g1
sg65
I1
sg66
S'H'
sg67
I00
sg68
g8
((lp472
g465
atRp473
sg71
I00
sbsg72
g26
sg73
I0
sg66
S'H'
sg67
I00
sg74
(F2.2492719514440207
F-47.513646696530152
F2.2556957765161645
tp474
sg76
(lp475
sg64
g1
sg78
g8
((lp476
g461
atRp477
sg100
g8
((lp478
(imodel.Bond
Bond
p479
(dp480
g104
g105
sg64
g1
sg72
g26
sg68
g8
((lp481
g319
ag465
atRp482
sbatRp483
sg71
I00
sbatRp484
sg72
g26
sg64
g1
sbatRp485
sg100
g8
((lp486
(imodel.Bond
Bond
p487
(dp488
g104
g105
sg64
g1
sg72
g26
sg68
g8
((lp489
g319
ag449
atRp490
sbatRp491
sg71
I00
sbag465
atRp492
sg16
S'C'
sg228
I0
sg17
I00
sg229
(F-18.186819985561119
F-80.206819085857234
F0.36300260773719217
tp493
sg231
(lp494
sg14
g1
sg233
g8
((ltRp495
sg235
g8
((lp496
(imodel.Bond
Bond
p497
(dp498
g104
g105
sg64
g1
sg72
g26
sg68
g8
((lp499
g35
ag319
atRp500
sbag444
ag479
ag487
atRp501
sg42
I00
sba(imodel.VarAtom
VarAtom
p502
(dp503
g33
g8
((lp504
g35
atRp505
sg57
S'H4_2'
p506
sg59
I00
sg60
Nsg61
(imodel.Atom
Atom
p507
(dp508
g57
g506
sg64
g1
sg65
I1
sg66
S'H'
sg67
I00
sg68
g8
((lp509
g502
atRp510
sg71
I00
sbsg72
g26
sg73
I0
sg66
S'H'
sg67
I00
sg74
(F55.647997349576002
F-135.30141680321015
F1.8013422056975563
tp511
sg76
(lp512
sg64
g1
sg78
g8
((lp513
(imodel.AtomGroup
AtomGroup
p514
(dp515
g82
g83
sg84
g8
((ltRp516
sg68
g8
((lp517
g31
ag502
atRp518
sg72
g26
sg64
g1
sbatRp519
sg100
g8
((lp520
(imodel.Bond
Bond
p521
(dp522
g104
g105
sg64
g1
sg72
g26
sg68
g8
((lp523
g35
ag502
atRp524
sbatRp525
sg71
I00
sbatRp526
sg16
S'C'
sg228
I0
sg17
I00
sg229
(F33.722427919645519
F-103.70935524757672
F0.17583561981200901
tp527
sg231
(lp528
sg14
g1
sg233
g8
((ltRp529
sg235
g8
((lp530
g497
ag314
a(imodel.Bond
Bond
p531
(dp532
g104
g105
sg64
g1
sg72
g26
sg68
g8
((lp533
g35
ag31
atRp534
sbag521
atRp535
sg42
I00
sbatRp536
sg57
S'H4_1'
p537
sg59
I00
sg60
Nsg61
(imodel.Atom
Atom
p538
(dp539
g57
g537
sg64
g1
sg65
I1
sg66
S'H'
sg67
I00
sg68
g8
((lp540
g31
atRp541
sg71
I00
sbsg72
g26
sg73
I0
sg66
S'H'
sg67
I00
sg74
(F11.658500456885138
F-135.20506313015289
F1.5187140130543311
tp542
sg76
(lp543
sg64
g1
sg78
g8
((lp544
g514
atRp545
sg100
g8
((lp546
g531
atRp547
sg71
I00
sba(imodel.VarAtom
VarAtom
p548
(dp549
g33
g8
((lp550
(imodel.VarAtom
VarAtom
p551
(dp552
g12
S'C10'
p553
sg22
I00
sg23
Nsg24
(imodel.Atom
Atom
p554
(dp555
g12
g553
sg14
g1
sg15
I4
sg16
S'C'
sg17
I00
sg18
g8
((lp556
g551
atRp557
sg42
I00
sbsg25
g26
sg43
g8
((lp558
g548
a(imodel.VarAtom
VarAtom
p559
(dp560
g12
S'C11'
p561
sg22
I00
sg23
Nsg24
(imodel.Atom
Atom
p562
(dp563
g12
g561
sg14
g1
sg15
I4
sg16
S'C'
sg17
I00
sg18
g8
((lp564
g559
atRp565
sg42
I00
sbsg25
g26
sg43
g8
((lp566
(imodel.VarAtom
VarAtom
p567
(dp568
g12
S'C12'
p569
sg22
I00
sg23
Nsg24
(imodel.Atom
Atom
p570
(dp571
g12
g569
sg14
g1
sg15
I4
sg16
S'C'
sg17
I00
sg18
g8
((lp572
g567
atRp573
sg42
I00
sbsg25
g26
sg43
g8
((lp574
(imodel.VarAtom
VarAtom
p575
(dp576
g33
g8
((lp577
g567
atRp578
sg57
S'H12_1'
p579
sg59
I00
sg60
Nsg61
(imodel.Atom
Atom
p580
(dp581
g57
g579
sg64
g1
sg65
I1
sg66
S'H'
sg67
I00
sg68
g8
((lp582
g575
atRp583
sg71
I00
sbsg72
g26
sg73
I0
sg66
S'H'
sg67
I00
sg74
(F427.432596967108
F-168.8910646810503
F0.84491175753142256
tp584
sg76
(lp585
sg64
g1
sg78
g8
((lp586
(imodel.AtomGroup
AtomGroup
p587
(dp588
g82
S'equivalent'
p589
sg84
g8
((ltRp590
sg68
g8
((lp591
g575
a(imodel.VarAtom
VarAtom
p592
(dp593
g33
g8
((lp594
g567
atRp595
sg57
S'H12_2'
p596
sg59
I00
sg60
Nsg61
(imodel.Atom
Atom
p597
(dp598
g57
g596
sg64
g1
sg65
I1
sg66
S'H'
sg67
I00
sg68
g8
((lp599
g592
atRp600
sg71
I00
sbsg72
g26
sg73
I0
sg66
S'H'
sg67
I00
sg74
(F474.75046822651251
F-155.82256159622801
F1.9052965701862414
tp601
sg76
(lp602
sg64
g1
sg78
g8
((lp603
g587
atRp604
sg100
g8
((lp605
(imodel.Bond
Bond
p606
(dp607
g104
g105
sg64
g1
sg72
g26
sg68
g8
((lp608
g567
ag592
atRp609
sbatRp610
sg71
I00
sba(imodel.VarAtom
VarAtom
p611
(dp612
g33
g8
((lp613
g567
atRp614
sg57
S'H12_3'
p615
sg59
I00
sg60
Nsg61
(imodel.Atom
Atom
p616
(dp617
g57
g615
sg64
g1
sg65
I1
sg66
S'H'
sg67
I00
sg68
g8
((lp618
g611
atRp619
sg71
I00
sbsg72
g26
sg73
I0
sg66
S'H'
sg67
I00
sg74
(F470.37480635720192
F-106.10672740290022
F2.0486350848860311
tp620
sg76
(lp621
sg64
g1
sg78
g8
((lp622
g587
atRp623
sg100
g8
((lp624
(imodel.Bond
Bond
p625
(dp626
g104
g105
sg64
g1
sg72
g26
sg68
g8
((lp627
g567
ag611
atRp628
sbatRp629
sg71
I00
sbatRp630
sg72
g26
sg64
g1
sbatRp631
sg100
g8
((lp632
(imodel.Bond
Bond
p633
(dp634
g104
g105
sg64
g1
sg72
g26
sg68
g8
((lp635
g567
ag575
atRp636
sbatRp637
sg71
I00
sbag559
ag592
ag611
atRp638
sg16
S'C'
sg228
I0
sg17
I00
sg229
(F442.76670395533159
F-133.30962099186564
F0.7451796730642043
tp639
sg231
(lp640
sg14
g1
sg233
g8
((ltRp641
sg235
g8
((lp642
(imodel.Bond
Bond
p643
(dp644
g104
g105
sg64
g1
sg72
g26
sg68
g8
((lp645
g567
ag559
atRp646
sbag625
ag633
ag606
atRp647
sg42
I00
sbag551
a(imodel.VarAtom
VarAtom
p648
(dp649
g33
g8
((lp650
g559
atRp651
sg57
S'H11_1'
p652
sg59
I00
sg60
Nsg61
(imodel.Atom
Atom
p653
(dp654
g57
g652
sg64
g1
sg65
I1
sg66
S'H'
sg67
I00
sg68
g8
((lp655
g648
atRp656
sg71
I00
sbsg72
g26
sg73
I0
sg66
S'H'
sg67
I00
sg74
(F378.22482494990209
F-66.849443345228593
F0.73265639858037812
tp657
sg76
(lp658
sg64
g1
sg78
g8
((lp659
(imodel.AtomGroup
AtomGroup
p660
(dp661
g82
g83
sg84
g8
((ltRp662
sg68
g8
((lp663
g648
a(imodel.VarAtom
VarAtom
p664
(dp665
g33
g8
((lp666
g559
atRp667
sg57
S'H11_2'
p668
sg59
I00
sg60
Nsg61
(imodel.Atom
Atom
p669
(dp670
g57
g668
sg64
g1
sg65
I1
sg66
S'H'
sg67
I00
sg68
g8
((lp671
g664
atRp672
sg71
I00
sbsg72
g26
sg73
I0
sg66
S'H'
sg67
I00
sg74
(F422.61493237233469
F-70.971937817585498
F1.0896309816668537
tp673
sg76
(lp674
sg64
g1
sg78
g8
((lp675
g660
atRp676
sg100
g8
((lp677
(imodel.Bond
Bond
p678
(dp679
g104
g105
sg64
g1
sg72
g26
sg68
g8
((lp680
g559
ag664
atRp681
sbatRp682
sg71
I00
sbatRp683
sg72
g26
sg64
g1
sbatRp684
sg100
g8
((lp685
(imodel.Bond
Bond
p686
(dp687
g104
g105
sg64
g1
sg72
g26
sg68
g8
((lp688
g559
ag648
atRp689
sbatRp690
sg71
I00
sbag664
atRp691
sg16
S'C'
sg228
I0
sg17
I00
sg229
(F397.21352650715755
F-100.34921721008213
F0.51359719008592852
tp692
sg231
(lp693
sg14
g1
sg233
g8
((ltRp694
sg235
g8
((lp695
g643
a(imodel.Bond
Bond
p696
(dp697
g104
g105
sg64
g1
sg72
g26
sg68
g8
((lp698
g551
ag559
atRp699
sbag686
ag678
atRp700
sg42
I00
sba(imodel.VarAtom
VarAtom
p701
(dp702
g33
g8
((lp703
g551
atRp704
sg57
S'H10_2'
p705
sg59
I00
sg60
Nsg61
(imodel.Atom
Atom
p706
(dp707
g57
g705
sg64
g1
sg65
I1
sg66
S'H'
sg67
I00
sg68
g8
((lp708
g701
atRp709
sg71
I00
sbsg72
g26
sg73
I0
sg66
S'H'
sg67
I00
sg74
(F320.37867015496522
F-151.70444769066381
F1.0485753496598806
tp710
sg76
(lp711
sg64
g1
sg78
g8
((lp712
(imodel.AtomGroup
AtomGroup
p713
(dp714
g82
g83
sg84
g8
((ltRp715
sg68
g8
((lp716
g548
ag701
atRp717
sg72
g26
sg64
g1
sbatRp718
sg100
g8
((lp719
(imodel.Bond
Bond
p720
(dp721
g104
g105
sg64
g1
sg72
g26
sg68
g8
((lp722
g551
ag701
atRp723
sbatRp724
sg71
I00
sbag20
atRp725
sg16
S'C'
sg228
I0
sg17
I00
sg229
(F343.55316836019745
F-120.92267196130885
F1.6605742461776276
tp726
sg231
(lp727
sg14
g1
sg233
g8
((ltRp728
sg235
g8
((lp729
g696
a(imodel.Bond
Bond
p730
(dp731
g104
g105
sg64
g1
sg72
g26
sg68
g8
((lp732
g551
ag20
atRp733
sba(imodel.Bond
Bond
p734
(dp735
g104
g105
sg64
g1
sg72
g26
sg68
g8
((lp736
g551
ag548
atRp737
sbag720
atRp738
sg42
I00
sbatRp739
sg57
S'H10_1'
p740
sg59
I00
sg60
Nsg61
(imodel.Atom
Atom
p741
(dp742
g57
g740
sg64
g1
sg65
I1
sg66
S'H'
sg67
I00
sg68
g8
((lp743
g548
atRp744
sg71
I00
sbsg72
g26
sg73
I0
sg66
S'H'
sg67
I00
sg74
(F365.07371856166628
F-152.76426148232554
F1.9275172266690284
tp745
sg76
(lp746
sg64
g1
sg78
g8
((lp747
g713
atRp748
sg100
g8
((lp749
g734
atRp750
sg71
I00
sbag272
ag256
ag611
ag184
ag592
a(imodel.VarAtom
VarAtom
p751
(dp752
g33
g8
((lp753
g20
atRp754
sg57
S'H9_2'
p755
sg59
I00
sg60
Nsg61
(imodel.Atom
Atom
p756
(dp757
g57
g755
sg64
g1
sg65
I1
sg66
S'H'
sg67
I00
sg68
g8
((lp758
g751
atRp759
sg71
I00
sbsg72
g26
sg73
I0
sg66
S'H'
sg67
I00
sg74
(F318.39325436742649
F-63.021937862241323
F2.1614394793242289
tp760
sg76
(lp761
sg64
g1
sg78
g8
((lp762
(imodel.AtomGroup
AtomGroup
p763
(dp764
g82
g83
sg84
g8
((ltRp765
sg68
g8
((lp766
(imodel.VarAtom
VarAtom
p767
(dp768
g33
g8
((lp769
g20
atRp770
sg57
S'H9_1'
p771
sg59
I00
sg60
Nsg61
(imodel.Atom
Atom
p772
(dp773
g57
g771
sg64
g1
sg65
I1
sg66
S'H'
sg67
I00
sg68
g8
((lp774
g767
atRp775
sg71
I00
sbsg72
g26
sg73
I0
sg66
S'H'
sg67
I00
sg74
(F274.06819634333493
F-59.751724758120304
F1.7264958872704899
tp776
sg76
(lp777
sg64
g1
sg78
g8
((lp778
g763
atRp779
sg100
g8
((lp780
(imodel.Bond
Bond
p781
(dp782
g104
g105
sg64
g1
sg72
g26
sg68
g8
((lp783
g20
ag767
atRp784
sbatRp785
sg71
I00
sbag751
atRp786
sg72
g26
sg64
g1
sbatRp787
sg100
g8
((lp788
(imodel.Bond
Bond
p789
(dp790
g104
g105
sg64
g1
sg72
g26
sg68
g8
((lp791
g20
ag751
atRp792
sbatRp793
sg71
I00
sbag53
ag502
ag149
ag449
ag575
ag465
ag133
ag359
ag648
ag412
ag396
ag200
ag87
ag343
ag664
ag701
ag767
atRp794
sS'C'
g8
((lp795
g117
ag35
ag45
ag176
ag551
ag335
ag327
ag319
ag567
ag20
ag125
ag559
atRp796
ssS'bonds'
p797
g8
((lp798
g643
ag730
ag222
ag625
ag781
ag171
ag479
ag241
ag373
ag112
ag314
ag531
ag102
ag633
ag214
ag521
ag789
ag391
ag304
ag678
ag381
ag696
ag686
ag286
ag606
ag163
ag251
ag720
ag434
ag426
ag497
ag734
ag294
ag237
ag444
ag487
atRp799
sS'compound'
p800
g1
sS'descriptor'
p801
(S'neutral'
p802
S'none'
p803
S'default'
p804
tp805
sS'atomDict'
p806
(dp807
g10
g20
sg507
g502
sg454
g449
sg580
g575
sg189
g184
sg653
g648
sg277
g272
sg48
g45
sg261
g256
sg597
g592
sg470
g465
sg330
g327
sg38
g35
sg616
g611
sg138
g133
sg338
g335
sg348
g343
sg401
g396
sg322
g319
sg570
g567
sg62
g53
sg417
g412
sg179
g176
sg154
g149
sg706
g701
sg554
g551
sg538
g31
sg128
g125
sg669
g664
sg120
g117
sg741
g548
sg92
g87
sg756
g751
sg364
g359
sg205
g200
sg562
g559
sg772
g767
ssS'varAtoms'
p808
g8
((lp809
g548
ag184
ag133
ag559
ag87
ag396
ag176
ag125
ag751
ag117
ag567
ag575
ag149
ag45
ag20
ag412
ag502
ag31
ag664
ag53
ag359
ag465
ag35
ag319
ag648
ag327
ag592
ag200
ag272
ag449
ag343
ag611
ag335
ag551
ag767
ag701
ag256
atRp810
sS'atomGroups'
p811
g8
((lp812
g268
ag660
ag355
ag408
ag145
ag514
ag713
ag80
ag763
ag587
ag196
ag461
atRp813
sS'polyLink'
p814
g803
sbsg43
g8
((lp815
g767
ag176
ag551
ag751
atRp816
sg16
S'C'
sg228
I0
sg17
I00
sg229
(F293.92640887786024
F-92.72464321008259
F0.9138165718250244
tp817
sg231
(lp818
sg14
g1
sg233
g8
((ltRp819
sg235
g8
((lp820
g237
ag730
ag781
ag789
atRp821
sg42
I00
sbatRp822
sg42
I00
sbag507
ag454
ag580
ag189
ag653
ag277
ag48
ag261
ag597
ag470
ag330
ag38
ag616
ag138
ag338
ag348
ag401
ag322
ag570
ag62
ag417
ag179
ag154
ag706
ag554
ag538
ag128
ag669
ag120
ag741
ag92
ag756
ag364
ag205
ag562
ag772
atRp823
sS'ccpMolType'
p824
S'other'
p825
sS'details'
p826
V
sg806
(dp827
g153
g154
sg771
g772
sg188
g189
sg204
g205
sg755
g756
sg569
g570
sg561
g562
sg553
g554
sg537
g538
sg506
g507
sg469
g470
sg276
g277
sg453
g454
sg13
g10
sg178
g179
sg321
g322
sg329
g330
sg337
g338
sg127
g128
sg119
g120
sg47
g48
sg37
g38
sg137
g138
sg260
g261
sg705
g706
sg740
g741
sg416
g417
sg400
g401
sg347
g348
sg363
g364
sg58
g62
sg668
g669
sg91
g92
sg652
g653
sg579
g580
sg615
g616
sg596
g597
ssS'keywords'
p828
g8
((ltRp829
sg811
g8
((lp830
g268
ag660
ag355
ag408
ag145
ag514
ag713
ag80
ag763
ag587
ag196
ag461
atRp831
sS'variants'
p832
g8
((lp833
g26
atRp834
sS'defaultVars'
p835
g8
((ltRp836
sb.