(imodel.Compound
Compound
p1
(dp2
S'name'
p3
S'Unnamed'
p4
sS'isModified'
p5
I01
sS'ccpCode'
p6
NsS'atoms'
p7
c__builtin__
set
p8
((lp9
(imodel.Atom
Atom
p10
(dp11
g3
S'C3'
p12
sS'compound'
p13
g1
sS'baseValences'
p14
I4
sS'element'
p15
S'C'
sS'isVariable'
p16
I00
sS'varAtoms'
p17
g8
((lp18
(imodel.VarAtom
VarAtom
p19
(dp20
S'neighbours'
p21
g8
((lp22
(imodel.VarAtom
VarAtom
p23
(dp24
g21
g8
((lp25
g19
atRp26
sg3
S'H3_1'
p27
sS'isLabile'
p28
I00
sS'chirality'
p29
NsS'atom'
p30
(imodel.Atom
Atom
p31
(dp32
g3
g27
sg13
g1
sg14
I1
sg15
S'H'
sg16
I00
sg17
g8
((lp33
g23
atRp34
sS'isDeleted'
p35
I00
sbsS'variant'
p36
(imodel.Variant
Variant
p37
(dp38
S'elementDict'
p39
(dp40
S'H'
g8
((lp41
(imodel.VarAtom
VarAtom
p42
(dp43
g21
g8
((lp44
(imodel.VarAtom
VarAtom
p45
(dp46
g21
g8
((lp47
(imodel.VarAtom
VarAtom
p48
(dp49
g21
g8
((lp50
(imodel.VarAtom
VarAtom
p51
(dp52
g21
g8
((lp53
g48
ag19
a(imodel.VarAtom
VarAtom
p54
(dp55
g21
g8
((lp56
g51
atRp57
sg3
S'H4_1'
p58
sg28
I00
sg29
Nsg30
(imodel.Atom
Atom
p59
(dp60
g3
g58
sg13
g1
sg14
I1
sg15
S'H'
sg16
I00
sg17
g8
((lp61
g54
atRp62
sg35
I00
sbsg36
g37
sS'charge'
p63
I0
sg15
S'H'
sg16
I00
sS'coords'
p64
(F25.251373665858797
F-145.40303649842161
F1.2922285584766731
tp65
sS'freeValences'
p66
(lp67
sg13
g1
sS'atomGroups'
p68
g8
((lp69
(imodel.AtomGroup
AtomGroup
p70
(dp71
S'groupType'
p72
S'prochiral'
p73
sS'subGroups'
p74
g8
((ltRp75
sg17
g8
((lp76
g54
a(imodel.VarAtom
VarAtom
p77
(dp78
g21
g8
((lp79
g51
atRp80
sg3
S'H4_2'
p81
sg28
I00
sg29
Nsg30
(imodel.Atom
Atom
p82
(dp83
g3
g81
sg13
g1
sg14
I1
sg15
S'H'
sg16
I00
sg17
g8
((lp84
g77
atRp85
sg35
I00
sbsg36
g37
sg63
I0
sg15
S'H'
sg16
I00
sg64
(F-18.613794482910492
F-147.54159103038171
F1.1358907065827961
tp86
sg66
(lp87
sg13
g1
sg68
g8
((lp88
g70
atRp89
sS'bonds'
p90
g8
((lp91
(imodel.Bond
Bond
p92
(dp93
S'bondType'
p94
S'single'
p95
sg13
g1
sg36
g37
sg17
g8
((lp96
g51
ag77
atRp97
sbatRp98
sg35
I00
sbatRp99
sg36
g37
sg13
g1
sbatRp100
sg90
g8
((lp101
(imodel.Bond
Bond
p102
(dp103
g94
g95
sg13
g1
sg36
g37
sg17
g8
((lp104
g51
ag54
atRp105
sbatRp106
sg35
I00
sbag77
atRp107
sg3
S'C4'
p108
sg28
I00
sg29
Nsg30
(imodel.Atom
Atom
p109
(dp110
g3
g108
sg13
g1
sg14
I4
sg15
S'C'
sg16
I00
sg17
g8
((lp111
g51
atRp112
sg35
I00
sbsg36
g37
sg63
I0
sg15
S'C'
sg16
I00
sg64
(F1.7772309729519729
F-114.9499262467487
F1.4536507436342418
tp113
sg66
(lp114
sg13
g1
sg68
g8
((ltRp115
sg90
g8
((lp116
(imodel.Bond
Bond
p117
(dp118
g94
g95
sg13
g1
sg36
g37
sg17
g8
((lp119
g51
ag19
atRp120
sba(imodel.Bond
Bond
p121
(dp122
g94
g95
sg13
g1
sg36
g37
sg17
g8
((lp123
g48
ag51
atRp124
sbag92
ag102
atRp125
sg35
I00
sbag45
a(imodel.VarAtom
VarAtom
p126
(dp127
g21
g8
((lp128
g48
atRp129
sg3
S'H5_1'
p130
sg28
I00
sg29
Nsg30
(imodel.Atom
Atom
p131
(dp132
g3
g130
sg13
g1
sg14
I1
sg15
S'H'
sg16
I00
sg17
g8
((lp133
g126
atRp134
sg35
I00
sbsg36
g37
sg63
I0
sg15
S'H'
sg16
I00
sg64
(F29.45345964350085
F-57.797115795604356
F2.0124057629301859
tp135
sg66
(lp136
sg13
g1
sg68
g8
((lp137
(imodel.AtomGroup
AtomGroup
p138
(dp139
g72
g73
sg74
g8
((ltRp140
sg17
g8
((lp141
g126
a(imodel.VarAtom
VarAtom
p142
(dp143
g21
g8
((lp144
g48
atRp145
sg3
S'H5_2'
p146
sg28
I00
sg29
Nsg30
(imodel.Atom
Atom
p147
(dp148
g3
g146
sg13
g1
sg14
I1
sg15
S'H'
sg16
I00
sg17
g8
((lp149
g142
atRp150
sg35
I00
sbsg36
g37
sg63
I0
sg15
S'H'
sg16
I00
sg64
(F74.46891344075344
F-56.599401164681311
F1.8468918074613132
tp151
sg66
(lp152
sg13
g1
sg68
g8
((lp153
g138
atRp154
sg90
g8
((lp155
(imodel.Bond
Bond
p156
(dp157
g94
g95
sg13
g1
sg36
g37
sg17
g8
((lp158
g48
ag142
atRp159
sbatRp160
sg35
I00
sbatRp161
sg36
g37
sg13
g1
sbatRp162
sg90
g8
((lp163
(imodel.Bond
Bond
p164
(dp165
g94
g95
sg13
g1
sg36
g37
sg17
g8
((lp166
g48
ag126
atRp167
sbatRp168
sg35
I00
sbag142
atRp169
sg3
S'C5'
p170
sg28
I00
sg29
Nsg30
(imodel.Atom
Atom
p171
(dp172
g3
g170
sg13
g1
sg14
I4
sg15
S'C'
sg16
I00
sg17
g8
((lp173
g48
atRp174
sg35
I00
sbsg36
g37
sg63
I0
sg15
S'C'
sg16
I00
sg64
(F52.794024936970807
F-88.439832310407638
F0.34671112588767705
tp175
sg66
(lp176
sg13
g1
sg68
g8
((ltRp177
sg90
g8
((lp178
(imodel.Bond
Bond
p179
(dp180
g94
g95
sg13
g1
sg36
g37
sg17
g8
((lp181
g48
ag45
atRp182
sbag121
ag156
ag164
atRp183
sg35
I00
sba(imodel.VarAtom
VarAtom
p184
(dp185
g21
g8
((lp186
(imodel.VarAtom
VarAtom
p187
(dp188
g21
g8
((lp189
g184
a(imodel.VarAtom
VarAtom
p190
(dp191
g21
g8
((lp192
g187
atRp193
sg3
S'H8_1'
p194
sg28
I00
sg29
Nsg30
(imodel.Atom
Atom
p195
(dp196
g3
g194
sg13
g1
sg14
I1
sg15
S'H'
sg16
I00
sg17
g8
((lp197
g190
atRp198
sg35
I00
sbsg36
g37
sg63
I0
sg15
S'H'
sg16
I00
sg64
(F230.06259459622888
F-148.94102012630142
F1.5621535554336687
tp199
sg66
(lp200
sg13
g1
sg68
g8
((lp201
(imodel.AtomGroup
AtomGroup
p202
(dp203
g72
g73
sg74
g8
((ltRp204
sg17
g8
((lp205
g190
a(imodel.VarAtom
VarAtom
p206
(dp207
g21
g8
((lp208
g187
atRp209
sg3
S'H8_2'
p210
sg28
I00
sg29
Nsg30
(imodel.Atom
Atom
p211
(dp212
g3
g210
sg13
g1
sg14
I1
sg15
S'H'
sg16
I00
sg17
g8
((lp213
g206
atRp214
sg35
I00
sbsg36
g37
sg63
I0
sg15
S'H'
sg16
I00
sg64
(F185.84959674322781
F-147.26180942614323
F1.3312551062245683
tp215
sg66
(lp216
sg13
g1
sg68
g8
((lp217
g202
atRp218
sg90
g8
((lp219
(imodel.Bond
Bond
p220
(dp221
g94
g95
sg13
g1
sg36
g37
sg17
g8
((lp222
g187
ag206
atRp223
sbatRp224
sg35
I00
sbatRp225
sg36
g37
sg13
g1
sbatRp226
sg90
g8
((lp227
(imodel.Bond
Bond
p228
(dp229
g94
g95
sg13
g1
sg36
g37
sg17
g8
((lp230
g187
ag190
atRp231
sbatRp232
sg35
I00
sbag206
a(imodel.VarAtom
VarAtom
p233
(dp234
g21
g8
((lp235
(imodel.VarAtom
VarAtom
p236
(dp237
g21
g8
((lp238
g233
atRp239
sg3
S'H9_1'
p240
sg28
I00
sg29
Nsg30
(imodel.Atom
Atom
p241
(dp242
g3
g240
sg13
g1
sg14
I1
sg15
S'H'
sg16
I00
sg17
g8
((lp243
g236
atRp244
sg35
I00
sbsg36
g37
sg63
I0
sg15
S'H'
sg16
I00
sg64
(F286.19925083302149
F-64.581640516888797
F2.2459325456025021
tp245
sg66
(lp246
sg13
g1
sg68
g8
((lp247
(imodel.AtomGroup
AtomGroup
p248
(dp249
g72
g73
sg74
g8
((ltRp250
sg17
g8
((lp251
g236
a(imodel.VarAtom
VarAtom
p252
(dp253
g21
g8
((lp254
g233
atRp255
sg3
S'H9_2'
p256
sg28
I00
sg29
Nsg30
(imodel.Atom
Atom
p257
(dp258
g3
g256
sg13
g1
sg14
I1
sg15
S'H'
sg16
I00
sg17
g8
((lp259
g252
atRp260
sg35
I00
sbsg36
g37
sg63
I0
sg15
S'H'
sg16
I00
sg64
(F241.65490595152809
F-62.436109086239782
F1.3185740406273356
tp261
sg66
(lp262
sg13
g1
sg68
g8
((lp263
g248
atRp264
sg90
g8
((lp265
(imodel.Bond
Bond
p266
(dp267
g94
g95
sg13
g1
sg36
g37
sg17
g8
((lp268
g233
ag252
atRp269
sbatRp270
sg35
I00
sbatRp271
sg36
g37
sg13
g1
sbatRp272
sg90
g8
((lp273
(imodel.Bond
Bond
p274
(dp275
g94
g95
sg13
g1
sg36
g37
sg17
g8
((lp276
g233
ag236
atRp277
sbatRp278
sg35
I00
sbag187
a(imodel.VarAtom
VarAtom
p279
(dp280
g21
g8
((lp281
g233
a(imodel.VarAtom
VarAtom
p282
(dp283
g21
g8
((lp284
g279
atRp285
sg3
S'H10_1'
p286
sg28
I00
sg29
Nsg30
(imodel.Atom
Atom
p287
(dp288
g3
g286
sg13
g1
sg14
I1
sg15
S'H'
sg16
I00
sg17
g8
((lp289
g282
atRp290
sg35
I00
sbsg36
g37
sg63
I0
sg15
S'H'
sg16
I00
sg64
(F333.90814171910949
F-154.7403794723935
F0.6801617990381349
tp291
sg66
(lp292
sg13
g1
sg68
g8
((lp293
(imodel.AtomGroup
AtomGroup
p294
(dp295
g72
g73
sg74
g8
((ltRp296
sg17
g8
((lp297
g282
a(imodel.VarAtom
VarAtom
p298
(dp299
g21
g8
((lp300
g279
atRp301
sg3
S'H10_2'
p302
sg28
I00
sg29
Nsg30
(imodel.Atom
Atom
p303
(dp304
g3
g302
sg13
g1
sg14
I1
sg15
S'H'
sg16
I00
sg17
g8
((lp305
g298
atRp306
sg35
I00
sbsg36
g37
sg63
I0
sg15
S'H'
sg16
I00
sg64
(F289.55185652391617
F-152.63927380468769
F1.2448908522148106
tp307
sg66
(lp308
sg13
g1
sg68
g8
((lp309
g294
atRp310
sg90
g8
((lp311
(imodel.Bond
Bond
p312
(dp313
g94
g95
sg13
g1
sg36
g37
sg17
g8
((lp314
g279
ag298
atRp315
sbatRp316
sg35
I00
sbatRp317
sg36
g37
sg13
g1
sbatRp318
sg90
g8
((lp319
(imodel.Bond
Bond
p320
(dp321
g94
g95
sg13
g1
sg36
g37
sg17
g8
((lp322
g279
ag282
atRp323
sbatRp324
sg35
I00
sba(imodel.VarAtom
VarAtom
p325
(dp326
g21
g8
((lp327
(imodel.VarAtom
VarAtom
p328
(dp329
g21
g8
((lp330
g325
a(imodel.VarAtom
VarAtom
p331
(dp332
g21
g8
((lp333
g328
atRp334
sg3
S'H12_1'
p335
sg28
I00
sg29
Nsg30
(imodel.Atom
Atom
p336
(dp337
g3
g335
sg13
g1
sg14
I1
sg15
S'H'
sg16
I00
sg17
g8
((lp338
g331
atRp339
sg35
I00
sbsg36
g37
sg63
I0
sg15
S'H'
sg16
I00
sg64
(F438.50194948191319
F-159.61313921076956
F2.0202776387505823
tp340
sg66
(lp341
sg13
g1
sg68
g8
((lp342
(imodel.AtomGroup
AtomGroup
p343
(dp344
g72
g73
sg74
g8
((ltRp345
sg17
g8
((lp346
g331
a(imodel.VarAtom
VarAtom
p347
(dp348
g21
g8
((lp349
g328
atRp350
sg3
S'H12_2'
p351
sg28
I00
sg29
Nsg30
(imodel.Atom
Atom
p352
(dp353
g3
g351
sg13
g1
sg14
I1
sg15
S'H'
sg16
I00
sg17
g8
((lp354
g347
atRp355
sg35
I00
sbsg36
g37
sg63
I0
sg15
S'H'
sg16
I00
sg64
(F393.7764622665361
F-159.11780444191578
F1.0298810247209338
tp356
sg66
(lp357
sg13
g1
sg68
g8
((lp358
g343
atRp359
sg90
g8
((lp360
(imodel.Bond
Bond
p361
(dp362
g94
g95
sg13
g1
sg36
g37
sg17
g8
((lp363
g328
ag347
atRp364
sbatRp365
sg35
I00
sbatRp366
sg36
g37
sg13
g1
sbatRp367
sg90
g8
((lp368
(imodel.Bond
Bond
p369
(dp370
g94
g95
sg13
g1
sg36
g37
sg17
g8
((lp371
g328
ag331
atRp372
sbatRp373
sg35
I00
sbag347
a(imodel.VarAtom
VarAtom
p374
(dp375
g21
g8
((lp376
g328
a(imodel.VarAtom
VarAtom
p377
(dp378
g21
g8
((lp379
g374
atRp380
sg3
S'H13_1'
p381
sg28
I00
sg29
Nsg30
(imodel.Atom
Atom
p382
(dp383
g3
g381
sg13
g1
sg14
I1
sg15
S'H'
sg16
I00
sg17
g8
((lp384
g377
atRp385
sg35
I00
sbsg36
g37
sg63
I0
sg15
S'H'
sg16
I00
sg64
(F495.32015874910496
F-77.325987974464056
F1.423600999063277
tp386
sg66
(lp387
sg13
g1
sg68
g8
((lp388
(imodel.AtomGroup
AtomGroup
p389
(dp390
g72
g73
sg74
g8
((ltRp391
sg17
g8
((lp392
g377
a(imodel.VarAtom
VarAtom
p393
(dp394
g21
g8
((lp395
g374
atRp396
sg3
S'H13_2'
p397
sg28
I00
sg29
Nsg30
(imodel.Atom
Atom
p398
(dp399
g3
g397
sg13
g1
sg14
I1
sg15
S'H'
sg16
I00
sg17
g8
((lp400
g393
atRp401
sg35
I00
sbsg36
g37
sg63
I0
sg15
S'H'
sg16
I00
sg64
(F450.80754342960688
F-73.633623555326807
F1.5817162983673301
tp402
sg66
(lp403
sg13
g1
sg68
g8
((lp404
g389
atRp405
sg90
g8
((lp406
(imodel.Bond
Bond
p407
(dp408
g94
g95
sg13
g1
sg36
g37
sg17
g8
((lp409
g374
ag393
atRp410
sbatRp411
sg35
I00
sbatRp412
sg36
g37
sg13
g1
sbatRp413
sg90
g8
((lp414
(imodel.Bond
Bond
p415
(dp416
g94
g95
sg13
g1
sg36
g37
sg17
g8
((lp417
g374
ag377
atRp418
sbatRp419
sg35
I00
sba(imodel.VarAtom
VarAtom
p420
(dp421
g21
g8
((lp422
(imodel.VarAtom
VarAtom
p423
(dp424
g21
g8
((lp425
g420
atRp426
sg3
S'H14_1'
p427
sg28
I00
sg29
Nsg30
(imodel.Atom
Atom
p428
(dp429
g3
g427
sg13
g1
sg14
I1
sg15
S'H'
sg16
I00
sg17
g8
((lp430
g423
atRp431
sg35
I00
sbsg36
g37
sg63
I0
sg15
S'H'
sg16
I00
sg64
(F543.33586854880605
F-112.28504496013463
F0.61787564523034033
tp432
sg66
(lp433
sg13
g1
sg68
g8
((lp434
(imodel.AtomGroup
AtomGroup
p435
(dp436
g72
S'equivalent'
p437
sg74
g8
((ltRp438
sg17
g8
((lp439
g423
a(imodel.VarAtom
VarAtom
p440
(dp441
g21
g8
((lp442
g420
atRp443
sg3
S'H14_2'
p444
sg28
I00
sg29
Nsg30
(imodel.Atom
Atom
p445
(dp446
g3
g444
sg13
g1
sg14
I1
sg15
S'H'
sg16
I00
sg17
g8
((lp447
g440
atRp448
sg35
I00
sbsg36
g37
sg63
I0
sg15
S'H'
sg16
I00
sg64
(F548.01926830270168
F-161.96990099841329
F2.2112708247722801
tp449
sg66
(lp450
sg13
g1
sg68
g8
((lp451
g435
atRp452
sg90
g8
((lp453
(imodel.Bond
Bond
p454
(dp455
g94
g95
sg13
g1
sg36
g37
sg17
g8
((lp456
g420
ag440
atRp457
sbatRp458
sg35
I00
sba(imodel.VarAtom
VarAtom
p459
(dp460
g21
g8
((lp461
g420
atRp462
sg3
S'H14_3'
p463
sg28
I00
sg29
Nsg30
(imodel.Atom
Atom
p464
(dp465
g3
g463
sg13
g1
sg14
I1
sg15
S'H'
sg16
I00
sg17
g8
((lp466
g459
atRp467
sg35
I00
sbsg36
g37
sg63
I0
sg15
S'H'
sg16
I00
sg64
(F500.8270771846968
F-175.35135736881159
F1.8992938681574931
tp468
sg66
(lp469
sg13
g1
sg68
g8
((lp470
g435
atRp471
sg90
g8
((lp472
(imodel.Bond
Bond
p473
(dp474
g94
g95
sg13
g1
sg36
g37
sg17
g8
((lp475
g420
ag459
atRp476
sbatRp477
sg35
I00
sbatRp478
sg36
g37
sg13
g1
sbatRp479
sg90
g8
((lp480
(imodel.Bond
Bond
p481
(dp482
g94
g95
sg13
g1
sg36
g37
sg17
g8
((lp483
g420
ag423
atRp484
sbatRp485
sg35
I00
sbag374
ag440
ag459
atRp486
sg3
S'C14'
p487
sg28
I00
sg29
Nsg30
(imodel.Atom
Atom
p488
(dp489
g3
g487
sg13
g1
sg14
I4
sg15
S'C'
sg16
I00
sg17
g8
((lp490
g420
atRp491
sg35
I00
sbsg36
g37
sg63
I0
sg15
S'C'
sg16
I00
sg64
(F515.89794272987751
F-139.6555900863186
F0.89021905371535526
tp492
sg66
(lp493
sg13
g1
sg68
g8
((ltRp494
sg90
g8
((lp495
(imodel.Bond
Bond
p496
(dp497
g94
g95
sg13
g1
sg36
g37
sg17
g8
((lp498
g420
ag374
atRp499
sbag481
ag473
ag454
atRp500
sg35
I00
sbag393
atRp501
sg3
S'C13'
p502
sg28
I00
sg29
Nsg30
(imodel.Atom
Atom
p503
(dp504
g3
g502
sg13
g1
sg14
I4
sg15
S'C'
sg16
I00
sg17
g8
((lp505
g374
atRp506
sg35
I00
sbsg36
g37
sg63
I0
sg15
S'C'
sg16
I00
sg64
(F470.14564161372618
F-106.9328559734697
F1.1401094092977924
tp507
sg66
(lp508
sg13
g1
sg68
g8
((ltRp509
sg90
g8
((lp510
g496
a(imodel.Bond
Bond
p511
(dp512
g94
g95
sg13
g1
sg36
g37
sg17
g8
((lp513
g328
ag374
atRp514
sbag407
ag415
atRp515
sg35
I00
sbatRp516
sg3
S'C12'
p517
sg28
I00
sg29
Nsg30
(imodel.Atom
Atom
p518
(dp519
g3
g517
sg13
g1
sg14
I4
sg15
S'C'
sg16
I00
sg17
g8
((lp520
g328
atRp521
sg35
I00
sbsg36
g37
sg63
I0
sg15
S'C'
sg16
I00
sg64
(F416.58242958943327
F-128.06341095727453
F0.6182959504550527
tp522
sg66
(lp523
sg13
g1
sg68
g8
((ltRp524
sg90
g8
((lp525
(imodel.Bond
Bond
p526
(dp527
g94
g95
sg13
g1
sg36
g37
sg17
g8
((lp528
g328
ag325
atRp529
sbag511
ag361
ag369
atRp530
sg35
I00
sbag279
a(imodel.VarAtom
VarAtom
p531
(dp532
g21
g8
((lp533
g325
atRp534
sg3
S'H11_1'
p535
sg28
I00
sg29
Nsg30
(imodel.Atom
Atom
p536
(dp537
g3
g535
sg13
g1
sg14
I1
sg15
S'H'
sg16
I00
sg17
g8
((lp538
g531
atRp539
sg35
I00
sbsg36
g37
sg63
I0
sg15
S'H'
sg16
I00
sg64
(F390.5973012815785
F-70.673177923038423
F1.7367211624018495
tp540
sg66
(lp541
sg13
g1
sg68
g8
((lp542
(imodel.AtomGroup
AtomGroup
p543
(dp544
g72
g73
sg74
g8
((ltRp545
sg17
g8
((lp546
g531
a(imodel.VarAtom
VarAtom
p547
(dp548
g21
g8
((lp549
g325
atRp550
sg3
S'H11_2'
p551
sg28
I00
sg29
Nsg30
(imodel.Atom
Atom
p552
(dp553
g3
g551
sg13
g1
sg14
I1
sg15
S'H'
sg16
I00
sg17
g8
((lp554
g547
atRp555
sg35
I00
sbsg36
g37
sg63
I0
sg15
S'H'
sg16
I00
sg64
(F346.17504952395564
F-67.955507786343176
F1.2304510692518136
tp556
sg66
(lp557
sg13
g1
sg68
g8
((lp558
g543
atRp559
sg90
g8
((lp560
(imodel.Bond
Bond
p561
(dp562
g94
g95
sg13
g1
sg36
g37
sg17
g8
((lp563
g325
ag547
atRp564
sbatRp565
sg35
I00
sbatRp566
sg36
g37
sg13
g1
sbatRp567
sg90
g8
((lp568
(imodel.Bond
Bond
p569
(dp570
g94
g95
sg13
g1
sg36
g37
sg17
g8
((lp571
g325
ag531
atRp572
sbatRp573
sg35
I00
sbag547
atRp574
sg3
S'C11'
p575
sg28
I00
sg29
Nsg30
(imodel.Atom
Atom
p576
(dp577
g3
g575
sg13
g1
sg14
I4
sg15
S'C'
sg16
I00
sg17
g8
((lp578
g325
atRp579
sg35
I00
sbsg36
g37
sg63
I0
sg15
S'C'
sg16
I00
sg64
(F366.47443298352636
F-100.66024667968117
F1.0237662073138327
tp580
sg66
(lp581
sg13
g1
sg68
g8
((ltRp582
sg90
g8
((lp583
g526
a(imodel.Bond
Bond
p584
(dp585
g94
g95
sg13
g1
sg36
g37
sg17
g8
((lp586
g279
ag325
atRp587
sbag569
ag561
atRp588
sg35
I00
sbag298
atRp589
sg3
S'C10'
p590
sg28
I00
sg29
Nsg30
(imodel.Atom
Atom
p591
(dp592
g3
g590
sg13
g1
sg14
I4
sg15
S'C'
sg16
I00
sg17
g8
((lp593
g279
atRp594
sg35
I00
sbsg36
g37
sg63
I0
sg15
S'C'
sg16
I00
sg64
(F313.22735396953163
F-122.29182096469908
F1.134248794262873
tp595
sg66
(lp596
sg13
g1
sg68
g8
((ltRp597
sg90
g8
((lp598
(imodel.Bond
Bond
p599
(dp600
g94
g95
sg13
g1
sg36
g37
sg17
g8
((lp601
g279
ag233
atRp602
sbag584
ag320
ag312
atRp603
sg35
I00
sbag252
atRp604
sg3
S'C9'
p605
sg28
I00
sg29
Nsg30
(imodel.Atom
Atom
p606
(dp607
g3
g605
sg13
g1
sg14
I4
sg15
S'C'
sg16
I00
sg17
g8
((lp608
g233
atRp609
sg35
I00
sbsg36
g37
sg63
I0
sg15
S'C'
sg16
I00
sg64
(F262.42237628711217
F-94.839511873242401
F0.51437703999153883
tp610
sg66
(lp611
sg13
g1
sg68
g8
((ltRp612
sg90
g8
((lp613
g599
a(imodel.Bond
Bond
p614
(dp615
g94
g95
sg13
g1
sg36
g37
sg17
g8
((lp616
g187
ag233
atRp617
sbag274
ag266
atRp618
sg35
I00
sbatRp619
sg3
S'C8'
p620
sg28
I00
sg29
Nsg30
(imodel.Atom
Atom
p621
(dp622
g3
g620
sg13
g1
sg14
I4
sg15
S'C'
sg16
I00
sg17
g8
((lp623
g187
atRp624
sg35
I00
sbsg36
g37
sg63
I0
sg15
S'C'
sg16
I00
sg64
(F209.14890690471199
F-116.64284738802382
F0.81502457012608365
tp625
sg66
(lp626
sg13
g1
sg68
g8
((ltRp627
sg90
g8
((lp628
(imodel.Bond
Bond
p629
(dp630
g94
g95
sg13
g1
sg36
g37
sg17
g8
((lp631
g184
ag187
atRp632
sbag614
ag228
ag220
atRp633
sg35
I00
sba(imodel.VarAtom
VarAtom
p634
(dp635
g21
g8
((lp636
g184
atRp637
sg3
S'H7_1'
p638
sg28
I00
sg29
Nsg30
(imodel.Atom
Atom
p639
(dp640
g3
g638
sg13
g1
sg14
I1
sg15
S'H'
sg16
I00
sg17
g8
((lp641
g634
atRp642
sg35
I00
sbsg36
g37
sg63
I0
sg15
S'H'
sg16
I00
sg64
(F136.24627429510187
F-57.848565527416156
F0.8864531969088677
tp643
sg66
(lp644
sg13
g1
sg68
g8
((lp645
(imodel.AtomGroup
AtomGroup
p646
(dp647
g72
g73
sg74
g8
((ltRp648
sg17
g8
((lp649
g634
a(imodel.VarAtom
VarAtom
p650
(dp651
g21
g8
((lp652
g184
atRp653
sg3
S'H7_2'
p654
sg28
I00
sg29
Nsg30
(imodel.Atom
Atom
p655
(dp656
g3
g654
sg13
g1
sg14
I1
sg15
S'H'
sg16
I00
sg17
g8
((lp657
g650
atRp658
sg35
I00
sbsg36
g37
sg63
I0
sg15
S'H'
sg16
I00
sg64
(F181.06143503617218
F-59.026424187556749
F1.5441049166665566
tp659
sg66
(lp660
sg13
g1
sg68
g8
((lp661
g646
atRp662
sg90
g8
((lp663
(imodel.Bond
Bond
p664
(dp665
g94
g95
sg13
g1
sg36
g37
sg17
g8
((lp666
g184
ag650
atRp667
sbatRp668
sg35
I00
sbatRp669
sg36
g37
sg13
g1
sbatRp670
sg90
g8
((lp671
(imodel.Bond
Bond
p672
(dp673
g94
g95
sg13
g1
sg36
g37
sg17
g8
((lp674
g184
ag634
atRp675
sbatRp676
sg35
I00
sbag45
ag650
atRp677
sg3
S'C7'
p678
sg28
I00
sg29
Nsg30
(imodel.Atom
Atom
p679
(dp680
g3
g678
sg13
g1
sg14
I4
sg15
S'C'
sg16
I00
sg17
g8
((lp681
g184
atRp682
sg35
I00
sbsg36
g37
sg63
I0
sg15
S'C'
sg16
I00
sg64
(F157.84360159823822
F-89.728882099976076
F1.2628227544692696
tp683
sg66
(lp684
sg13
g1
sg68
g8
((ltRp685
sg90
g8
((lp686
g629
a(imodel.Bond
Bond
p687
(dp688
g94
g95
sg13
g1
sg36
g37
sg17
g8
((lp689
g184
ag45
atRp690
sbag664
ag672
atRp691
sg35
I00
sbag42
a(imodel.VarAtom
VarAtom
p692
(dp693
g21
g8
((lp694
g45
atRp695
sg3
S'H6_2'
p696
sg28
I00
sg29
Nsg30
(imodel.Atom
Atom
p697
(dp698
g3
g696
sg13
g1
sg14
I1
sg15
S'H'
sg16
I00
sg17
g8
((lp699
g692
atRp700
sg35
I00
sbsg36
g37
sg63
I0
sg15
S'H'
sg16
I00
sg64
(F127.123698111854
F-144.48953731345901
F1.0587505491902127
tp701
sg66
(lp702
sg13
g1
sg68
g8
((lp703
(imodel.AtomGroup
AtomGroup
p704
(dp705
g72
g73
sg74
g8
((ltRp706
sg17
g8
((lp707
g42
ag692
atRp708
sg36
g37
sg13
g1
sbatRp709
sg90
g8
((lp710
(imodel.Bond
Bond
p711
(dp712
g94
g95
sg13
g1
sg36
g37
sg17
g8
((lp713
g45
ag692
atRp714
sbatRp715
sg35
I00
sbatRp716
sg3
S'C6'
p717
sg28
I00
sg29
Nsg30
(imodel.Atom
Atom
p718
(dp719
g3
g717
sg13
g1
sg14
I4
sg15
S'C'
sg16
I00
sg17
g8
((lp720
g45
atRp721
sg35
I00
sbsg36
g37
sg63
I0
sg15
S'C'
sg16
I00
sg64
(F105.20486436089224
F-112.88945063446859
F1.3446487924901509
tp722
sg66
(lp723
sg13
g1
sg68
g8
((ltRp724
sg90
g8
((lp725
g179
ag687
a(imodel.Bond
Bond
p726
(dp727
g94
g95
sg13
g1
sg36
g37
sg17
g8
((lp728
g45
ag42
atRp729
sbag711
atRp730
sg35
I00
sbatRp731
sg3
S'H6_1'
p732
sg28
I00
sg29
Nsg30
(imodel.Atom
Atom
p733
(dp734
g3
g732
sg13
g1
sg14
I1
sg15
S'H'
sg16
I00
sg17
g8
((lp735
g42
atRp736
sg35
I00
sbsg36
g37
sg63
I0
sg15
S'H'
sg16
I00
sg64
(F83.125665645332319
F-144.36653762585019
F1.1199283722623932
tp737
sg66
(lp738
sg13
g1
sg68
g8
((lp739
g704
atRp740
sg90
g8
((lp741
g726
atRp742
sg35
I00
sbag54
ag423
ag77
ag377
ag23
a(imodel.VarAtom
VarAtom
p743
(dp744
g21
g8
((lp745
(imodel.VarAtom
VarAtom
p746
(dp747
g21
g8
((lp748
(imodel.VarAtom
VarAtom
p749
(dp750
g21
g8
((lp751
g746
a(imodel.VarAtom
VarAtom
p752
(dp753
g21
g8
((lp754
g749
atRp755
sg3
S'H1_1'
p756
sg28
I00
sg29
Nsg30
(imodel.Atom
Atom
p757
(dp758
g3
g756
sg13
g1
sg14
I1
sg15
S'H'
sg16
I00
sg17
g8
((lp759
g752
atRp760
sg35
I00
sbsg36
g37
sg63
I0
sg15
S'H'
sg16
I00
sg64
(F-186.71963295991435
F-82.802035651571956
F2.0315005342157204
tp761
sg66
(lp762
sg13
g1
sg68
g8
((lp763
(imodel.AtomGroup
AtomGroup
p764
(dp765
g72
g73
sg74
g8
((ltRp766
sg17
g8
((lp767
g752
a(imodel.VarAtom
VarAtom
p768
(dp769
g21
g8
((lp770
g749
atRp771
sg3
S'H1_2'
p772
sg28
I00
sg29
Nsg30
(imodel.Atom
Atom
p773
(dp774
g3
g772
sg13
g1
sg14
I1
sg15
S'H'
sg16
I00
sg17
g8
((lp775
g768
atRp776
sg35
I00
sbsg36
g37
sg63
I0
sg15
S'H'
sg16
I00
sg64
(F-142.37442963415313
F-61.730728099541572
F1.2072807201850944
tp777
sg66
(lp778
sg13
g1
sg68
g8
((lp779
g764
atRp780
sg90
g8
((lp781
(imodel.Bond
Bond
p782
(dp783
g94
g95
sg13
g1
sg36
g37
sg17
g8
((lp784
g749
ag768
atRp785
sbatRp786
sg35
I00
sbatRp787
sg36
g37
sg13
g1
sbatRp788
sg90
g8
((lp789
(imodel.Bond
Bond
p790
(dp791
g94
g95
sg13
g1
sg36
g37
sg17
g8
((lp792
g749
ag752
atRp793
sbatRp794
sg35
I00
sbag768
atRp795
sg3
S'C1'
p796
sg28
I00
sg29
Nsg30
(imodel.Atom
Atom
p797
(dp798
g3
g796
sg13
g1
sg14
I4
sg15
S'C'
sg16
I00
sg17
g8
((lp799
g749
atRp800
sg35
I00
sbsg36
g37
sg63
I0
sg15
S'C'
sg16
I00
sg64
(F-151.31301369799689
F-99.429475331844472
F1.8780509229292286
tp801
sg66
(lp802
F3.5862408594037811
asg13
g1
sg68
g8
((ltRp803
sg90
g8
((lp804
(imodel.Bond
Bond
p805
(dp806
g94
g95
sg13
g1
sg36
g37
sg17
g8
((lp807
g746
ag749
atRp808
sbag790
ag782
atRp809
sg35
I00
sbag19
ag743
a(imodel.VarAtom
VarAtom
p810
(dp811
g21
g8
((lp812
g746
atRp813
sg3
S'H2_2'
p814
sg28
I00
sg29
Nsg30
(imodel.Atom
Atom
p815
(dp816
g3
g814
sg13
g1
sg14
I1
sg15
S'H'
sg16
I00
sg17
g8
((lp817
g810
atRp818
sg35
I00
sbsg36
g37
sg63
I0
sg15
S'H'
sg16
I00
sg64
(F-76.720804651698387
F-153.82431819464952
F1.5384384383878758
tp819
sg66
(lp820
sg13
g1
sg68
g8
((lp821
(imodel.AtomGroup
AtomGroup
p822
(dp823
g72
g73
sg74
g8
((ltRp824
sg17
g8
((lp825
g743
ag810
atRp826
sg36
g37
sg13
g1
sbatRp827
sg90
g8
((lp828
(imodel.Bond
Bond
p829
(dp830
g94
g95
sg13
g1
sg36
g37
sg17
g8
((lp831
g746
ag810
atRp832
sbatRp833
sg35
I00
sbatRp834
sg3
S'C2'
p835
sg28
I00
sg29
Nsg30
(imodel.Atom
Atom
p836
(dp837
g3
g835
sg13
g1
sg14
I4
sg15
S'C'
sg16
I00
sg17
g8
((lp838
g746
atRp839
sg35
I00
sbsg36
g37
sg63
I0
sg15
S'C'
sg16
I00
sg64
(F-100.85409330444128
F-123.81958673996427
F0.89874366085289359
tp840
sg66
(lp841
sg13
g1
sg68
g8
((ltRp842
sg90
g8
((lp843
(imodel.Bond
Bond
p844
(dp845
g94
g95
sg13
g1
sg36
g37
sg17
g8
((lp846
g746
ag19
atRp847
sbag805
ag829
a(imodel.Bond
Bond
p848
(dp849
g94
g95
sg13
g1
sg36
g37
sg17
g8
((lp850
g746
ag743
atRp851
sbatRp852
sg35
I00
sbatRp853
sg3
S'H2_1'
p854
sg28
I00
sg29
Nsg30
(imodel.Atom
Atom
p855
(dp856
g3
g854
sg13
g1
sg14
I1
sg15
S'H'
sg16
I00
sg17
g8
((lp857
g743
atRp858
sg35
I00
sbsg36
g37
sg63
I0
sg15
S'H'
sg16
I00
sg64
(F-120.9701793038634
F-157.03181618005803
F1.9446747918372518
tp859
sg66
(lp860
sg13
g1
sg68
g8
((lp861
g822
atRp862
sg90
g8
((lp863
g848
atRp864
sg35
I00
sbag206
ag298
ag810
ag547
ag634
a(imodel.VarAtom
VarAtom
p865
(dp866
g21
g8
((lp867
g19
atRp868
sg3
S'H3_2'
p869
sg28
I00
sg29
Nsg30
(imodel.Atom
Atom
p870
(dp871
g3
g869
sg13
g1
sg14
I1
sg15
S'H'
sg16
I00
sg17
g8
((lp872
g865
atRp873
sg35
I00
sbsg36
g37
sg63
I0
sg15
S'H'
sg16
I00
sg64
(F-77.731160580889721
F-66.474776237225612
F1.8450458347366525
tp874
sg66
(lp875
sg13
g1
sg68
g8
((lp876
(imodel.AtomGroup
AtomGroup
p877
(dp878
g72
g73
sg74
g8
((ltRp879
sg17
g8
((lp880
g23
ag865
atRp881
sg36
g37
sg13
g1
sbatRp882
sg90
g8
((lp883
(imodel.Bond
Bond
p884
(dp885
g94
g95
sg13
g1
sg36
g37
sg17
g8
((lp886
g19
ag865
atRp887
sbatRp888
sg35
I00
sbag252
ag692
ag393
ag347
ag331
ag126
ag236
ag190
ag752
ag650
ag282
ag440
ag768
ag531
ag142
ag459
atRp889
sS'C'
g8
((lp890
g48
ag184
ag420
ag19
ag374
ag328
ag279
ag749
ag51
ag746
ag325
ag187
ag233
ag45
atRp891
ssg90
g8
((lp892
g369
ag790
ag415
ag629
ag228
ag782
ag220
ag121
ag496
a(imodel.Bond
Bond
p893
(dp894
g94
g95
sg13
g1
sg36
g37
sg17
g8
((lp895
g19
ag23
atRp896
sbag884
ag92
ag164
ag117
ag361
ag320
ag102
ag312
ag829
ag561
ag511
ag179
ag266
ag481
ag711
ag454
ag614
ag805
ag672
ag526
ag156
ag473
ag848
ag687
ag569
ag664
ag599
ag274
ag584
ag844
ag407
ag726
atRp897
sg13
g1
sS'atomDict'
p898
(dp899
g10
g19
sg621
g187
sg855
g743
sg639
g634
sg82
g77
sg518
g328
sg870
g865
sg536
g531
sg488
g420
sg241
g236
sg303
g298
sg591
g279
sg336
g331
sg733
g42
sg773
g768
sg31
g23
sg382
g377
sg147
g142
sg428
g423
sg109
g51
sg757
g752
sg576
g325
sg131
g126
sg718
g45
sg836
g746
sg697
g692
sg797
g749
sg503
g374
sg815
g810
sg352
g347
sg552
g547
sg655
g650
sg195
g190
sg445
g440
sg171
g48
sg679
g184
sg257
g252
sg398
g393
sg606
g233
sg211
g206
sg59
g54
sg464
g459
sg287
g282
ssS'descriptor'
p900
(S'neutral'
p901
S'none'
p902
S'default'
p903
tp904
sg17
g8
((lp905
g48
ag184
ag743
ag531
ag206
ag236
ag749
ag45
ag810
ag42
ag19
ag23
ag187
ag768
ag377
ag347
ag420
ag298
ag77
ag547
ag331
ag279
ag252
ag692
ag459
ag325
ag865
ag634
ag393
ag328
ag51
ag282
ag190
ag752
ag650
ag126
ag440
ag746
ag233
ag374
ag142
ag423
ag54
atRp906
sg68
g8
((lp907
g646
ag343
ag877
ag294
ag764
ag822
ag543
ag138
ag435
ag202
ag389
ag70
ag248
ag704
atRp908
sS'polyLink'
p909
g902
sbsg63
I0
sg15
S'H'
sg16
I00
sg64
(F-32.893950189665183
F-60.681812690714096
F1.4048302689182379
tp910
sg66
(lp911
sg13
g1
sg68
g8
((lp912
g877
atRp913
sg90
g8
((lp914
g893
atRp915
sg35
I00
sbag865
ag746
ag51
atRp916
sg3
g12
sg28
I00
sg29
Nsg30
g10
sg36
g37
sg63
I0
sg15
S'C'
sg16
I00
sg64
(F-51.440639045029336
F-94.491344072076984
F1.0063248518784065
tp917
sg66
(lp918
sg13
g1
sg68
g8
((ltRp919
sg90
g8
((lp920
g844
ag117
ag893
ag884
atRp921
sg35
I00
sbatRp922
sg35
I00
sbag621
ag855
ag639
ag82
ag518
ag870
ag536
ag488
ag241
ag303
ag591
ag336
ag733
ag773
ag31
ag382
ag147
ag428
ag109
ag757
ag576
ag131
ag718
ag836
ag697
ag797
ag503
ag815
ag352
ag552
ag655
ag195
ag445
ag171
ag679
ag257
ag398
ag606
ag211
ag59
ag464
ag287
atRp923
sS'ccpMolType'
p924
S'other'
p925
sS'details'
p926
V
sg898
(dp927
g240
g241
sg256
g257
sg194
g195
sg210
g211
sg638
g639
sg502
g503
sg517
g518
sg575
g576
sg590
g591
sg487
g488
sg58
g59
sg81
g82
sg869
g870
sg27
g31
sg605
g606
sg620
g621
sg696
g697
sg12
g10
sg835
g836
sg796
g797
sg678
g679
sg732
g733
sg146
g147
sg108
g109
sg654
g655
sg444
g445
sg397
g398
sg286
g287
sg814
g815
sg854
g855
sg756
g757
sg772
g773
sg463
g464
sg381
g382
sg427
g428
sg717
g718
sg130
g131
sg551
g552
sg170
g171
sg535
g536
sg335
g336
sg302
g303
sg351
g352
ssS'keywords'
p928
g8
((ltRp929
sg68
g8
((lp930
g646
ag343
ag877
ag294
ag764
ag822
ag543
ag138
ag435
ag202
ag389
ag70
ag248
ag704
atRp931
sS'variants'
p932
g8
((lp933
g37
atRp934
sS'defaultVars'
p935
g8
((ltRp936
sb.