(imodel.Compound
Compound
p1
(dp2
S'name'
p3
S'Unnamed'
p4
sS'isModified'
p5
I00
sS'ccpCode'
p6
NsS'atoms'
p7
c__builtin__
set
p8
((lp9
(imodel.Atom
Atom
p10
(dp11
g3
S'C1'
p12
sS'compound'
p13
g1
sS'baseValences'
p14
I4
sS'element'
p15
S'C'
sS'isVariable'
p16
I00
sS'varAtoms'
p17
g8
((lp18
(imodel.VarAtom
VarAtom
p19
(dp20
S'neighbours'
p21
g8
((lp22
(imodel.VarAtom
VarAtom
p23
(dp24
g21
g8
((lp25
(imodel.VarAtom
VarAtom
p26
(dp27
g21
g8
((lp28
g23
atRp29
sg3
S'H2_1'
p30
sS'isLabile'
p31
I00
sS'chirality'
p32
NsS'atom'
p33
(imodel.Atom
Atom
p34
(dp35
g3
g30
sg13
g1
sg14
I1
sg15
S'H'
sg16
I00
sg17
g8
((lp36
g26
atRp37
sS'isDeleted'
p38
I00
sbsS'variant'
p39
(imodel.Variant
Variant
p40
(dp41
S'elementDict'
p42
(dp43
S'H'
g8
((lp44
(imodel.VarAtom
VarAtom
p45
(dp46
g21
g8
((lp47
(imodel.VarAtom
VarAtom
p48
(dp49
g21
g8
((lp50
(imodel.VarAtom
VarAtom
p51
(dp52
g21
g8
((lp53
(imodel.VarAtom
VarAtom
p54
(dp55
g21
g8
((lp56
g51
atRp57
sg3
S'H16_1'
p58
sg31
I00
sg32
Nsg33
(imodel.Atom
Atom
p59
(dp60
g3
g58
sg13
g1
sg14
I1
sg15
S'H'
sg16
I00
sg17
g8
((lp61
g54
atRp62
sg38
I00
sbsg39
g40
sS'charge'
p63
I0
sg15
S'H'
sg16
I00
sS'coords'
p64
(F529.1447407428775
F-153.76215055524386
F0.94327802910379521
tp65
sS'freeValences'
p66
(lp67
sg13
g1
sS'atomGroups'
p68
g8
((lp69
(imodel.AtomGroup
AtomGroup
p70
(dp71
S'groupType'
p72
S'equivalent'
p73
sS'subGroups'
p74
g8
((ltRp75
sg17
g8
((lp76
g54
a(imodel.VarAtom
VarAtom
p77
(dp78
g21
g8
((lp79
g51
atRp80
sg3
S'H16_2'
p81
sg31
I00
sg32
Nsg33
(imodel.Atom
Atom
p82
(dp83
g3
g81
sg13
g1
sg14
I1
sg15
S'H'
sg16
I00
sg17
g8
((lp84
g77
atRp85
sg38
I00
sbsg39
g40
sg63
I0
sg15
S'H'
sg16
I00
sg64
(F516.54245643795355
F-207.88872285816313
F1.46826435353052
tp86
sg66
(lp87
sg13
g1
sg68
g8
((lp88
g70
atRp89
sS'bonds'
p90
g8
((lp91
(imodel.Bond
Bond
p92
(dp93
S'bondType'
p94
S'single'
p95
sg13
g1
sg39
g40
sg17
g8
((lp96
g51
ag77
atRp97
sbatRp98
sg38
I00
sba(imodel.VarAtom
VarAtom
p99
(dp100
g21
g8
((lp101
g51
atRp102
sg3
S'H16_3'
p103
sg31
I00
sg32
Nsg33
(imodel.Atom
Atom
p104
(dp105
g3
g103
sg13
g1
sg14
I1
sg15
S'H'
sg16
I00
sg17
g8
((lp106
g99
atRp107
sg38
I00
sbsg39
g40
sg63
I0
sg15
S'H'
sg16
I00
sg64
(F472.2026185569128
F-204.57417548187217
F1.9501639370908781
tp108
sg66
(lp109
sg13
g1
sg68
g8
((lp110
g70
atRp111
sg90
g8
((lp112
(imodel.Bond
Bond
p113
(dp114
g94
g95
sg13
g1
sg39
g40
sg17
g8
((lp115
g51
ag99
atRp116
sbatRp117
sg38
I00
sbatRp118
sg39
g40
sg13
g1
sbatRp119
sg90
g8
((lp120
(imodel.Bond
Bond
p121
(dp122
g94
g95
sg13
g1
sg39
g40
sg17
g8
((lp123
g51
ag54
atRp124
sbatRp125
sg38
I00
sbag77
ag48
ag99
atRp126
sg3
S'C16'
p127
sg31
I00
sg32
Nsg33
(imodel.Atom
Atom
p128
(dp129
g3
g127
sg13
g1
sg14
I4
sg15
S'C'
sg16
I00
sg17
g8
((lp130
g51
atRp131
sg38
I00
sbsg39
g40
sg63
I0
sg15
S'C'
sg16
I00
sg64
(F496.72101428040634
F-174.86366818600129
F1.4132082819573868
tp132
sg66
(lp133
sg13
g1
sg68
g8
((ltRp134
sg90
g8
((lp135
(imodel.Bond
Bond
p136
(dp137
g94
g95
sg13
g1
sg39
g40
sg17
g8
((lp138
g51
ag48
atRp139
sbag121
ag113
ag92
atRp140
sg38
I00
sba(imodel.VarAtom
VarAtom
p141
(dp142
g21
g8
((lp143
(imodel.VarAtom
VarAtom
p144
(dp145
g21
g8
((lp146
g141
atRp147
sg3
S'H14_1'
p148
sg31
I00
sg32
Nsg33
(imodel.Atom
Atom
p149
(dp150
g3
g148
sg13
g1
sg14
I1
sg15
S'H'
sg16
I00
sg17
g8
((lp151
g144
atRp152
sg38
I00
sbsg39
g40
sg63
I0
sg15
S'H'
sg16
I00
sg64
(F369.02613270981396
F-192.9761349944153
F0.73192899318357696
tp153
sg66
(lp154
sg13
g1
sg68
g8
((lp155
(imodel.AtomGroup
AtomGroup
p156
(dp157
g72
S'prochiral'
p158
sg74
g8
((ltRp159
sg17
g8
((lp160
g144
a(imodel.VarAtom
VarAtom
p161
(dp162
g21
g8
((lp163
g141
atRp164
sg3
S'H14_2'
p165
sg31
I00
sg32
Nsg33
(imodel.Atom
Atom
p166
(dp167
g3
g165
sg13
g1
sg14
I1
sg15
S'H'
sg16
I00
sg17
g8
((lp168
g161
atRp169
sg38
I00
sbsg39
g40
sg63
I0
sg15
S'H'
sg16
I00
sg64
(F412.91065925135189
F-198.02029874870519
F0.82857150003579871
tp170
sg66
(lp171
sg13
g1
sg68
g8
((lp172
g156
atRp173
sg90
g8
((lp174
(imodel.Bond
Bond
p175
(dp176
g94
g95
sg13
g1
sg39
g40
sg17
g8
((lp177
g141
ag161
atRp178
sbatRp179
sg38
I00
sbatRp180
sg39
g40
sg13
g1
sbatRp181
sg90
g8
((lp182
(imodel.Bond
Bond
p183
(dp184
g94
g95
sg13
g1
sg39
g40
sg17
g8
((lp185
g141
ag144
atRp186
sbatRp187
sg38
I00
sbag161
a(imodel.VarAtom
VarAtom
p188
(dp189
g21
g8
((lp190
g141
a(imodel.VarAtom
VarAtom
p191
(dp192
g21
g8
((lp193
(imodel.VarAtom
VarAtom
p194
(dp195
g21
g8
((lp196
g191
atRp197
sg3
S'H12_1'
p198
sg31
I00
sg32
Nsg33
(imodel.Atom
Atom
p199
(dp200
g3
g198
sg13
g1
sg14
I1
sg15
S'H'
sg16
I00
sg17
g8
((lp201
g194
atRp202
sg38
I00
sbsg39
g40
sg63
I0
sg15
S'H'
sg16
I00
sg64
(F311.35572316861385
F-184.0177081675991
F1.5586173316734646
tp203
sg66
(lp204
sg13
g1
sg68
g8
((lp205
(imodel.AtomGroup
AtomGroup
p206
(dp207
g72
g158
sg74
g8
((ltRp208
sg17
g8
((lp209
g194
a(imodel.VarAtom
VarAtom
p210
(dp211
g21
g8
((lp212
g191
atRp213
sg3
S'H12_2'
p214
sg31
I00
sg32
Nsg33
(imodel.Atom
Atom
p215
(dp216
g3
g214
sg13
g1
sg14
I1
sg15
S'H'
sg16
I00
sg17
g8
((lp217
g210
atRp218
sg38
I00
sbsg39
g40
sg63
I0
sg15
S'H'
sg16
I00
sg64
(F267.86927112054912
F-178.69297416344588
F1.4577780931828883
tp219
sg66
(lp220
sg13
g1
sg68
g8
((lp221
g206
atRp222
sg90
g8
((lp223
(imodel.Bond
Bond
p224
(dp225
g94
g95
sg13
g1
sg39
g40
sg17
g8
((lp226
g191
ag210
atRp227
sbatRp228
sg38
I00
sbatRp229
sg39
g40
sg13
g1
sbatRp230
sg90
g8
((lp231
(imodel.Bond
Bond
p232
(dp233
g94
g95
sg13
g1
sg39
g40
sg17
g8
((lp234
g191
ag194
atRp235
sbatRp236
sg38
I00
sbag210
a(imodel.VarAtom
VarAtom
p237
(dp238
g21
g8
((lp239
(imodel.VarAtom
VarAtom
p240
(dp241
g21
g8
((lp242
g237
atRp243
sg3
S'H11_1'
p244
sg31
I00
sg32
Nsg33
(imodel.Atom
Atom
p245
(dp246
g3
g244
sg13
g1
sg14
I1
sg15
S'H'
sg16
I00
sg17
g8
((lp247
g240
atRp248
sg38
I00
sbsg39
g40
sg63
I0
sg15
S'H'
sg16
I00
sg64
(F271.76497679038255
F-89.342496750599295
F1.7087030328349109
tp249
sg66
(lp250
sg13
g1
sg68
g8
((lp251
(imodel.AtomGroup
AtomGroup
p252
(dp253
g72
g158
sg74
g8
((ltRp254
sg17
g8
((lp255
g240
a(imodel.VarAtom
VarAtom
p256
(dp257
g21
g8
((lp258
g237
atRp259
sg3
S'H11_2'
p260
sg31
I00
sg32
Nsg33
(imodel.Atom
Atom
p261
(dp262
g3
g260
sg13
g1
sg14
I1
sg15
S'H'
sg16
I00
sg17
g8
((lp263
g256
atRp264
sg38
I00
sbsg39
g40
sg63
I0
sg15
S'H'
sg16
I00
sg64
(F227.96937883361295
F-84.194158051472101
F1.1693019000046512
tp265
sg66
(lp266
sg13
g1
sg68
g8
((lp267
g252
atRp268
sg90
g8
((lp269
(imodel.Bond
Bond
p270
(dp271
g94
g95
sg13
g1
sg39
g40
sg17
g8
((lp272
g237
ag256
atRp273
sbatRp274
sg38
I00
sbatRp275
sg39
g40
sg13
g1
sbatRp276
sg90
g8
((lp277
(imodel.Bond
Bond
p278
(dp279
g94
g95
sg13
g1
sg39
g40
sg17
g8
((lp280
g237
ag240
atRp281
sbatRp282
sg38
I00
sbag191
a(imodel.VarAtom
VarAtom
p283
(dp284
g21
g8
((lp285
(imodel.VarAtom
VarAtom
p286
(dp287
g21
g8
((lp288
g283
atRp289
sg3
S'H10_1'
p290
sg31
I00
sg32
Nsg33
(imodel.Atom
Atom
p291
(dp292
g3
g290
sg13
g1
sg14
I1
sg15
S'H'
sg16
I00
sg17
g8
((lp293
g286
atRp294
sg38
I00
sbsg39
g40
sg63
I0
sg15
S'H'
sg16
I00
sg64
(F167.94849750656107
F-165.87122578559774
F2.4219045169163955
tp295
sg66
(lp296
sg13
g1
sg68
g8
((lp297
(imodel.AtomGroup
AtomGroup
p298
(dp299
g72
g158
sg74
g8
((ltRp300
sg17
g8
((lp301
g286
a(imodel.VarAtom
VarAtom
p302
(dp303
g21
g8
((lp304
g283
atRp305
sg3
S'H10_2'
p306
sg31
I00
sg32
Nsg33
(imodel.Atom
Atom
p307
(dp308
g3
g306
sg13
g1
sg14
I1
sg15
S'H'
sg16
I00
sg17
g8
((lp309
g302
atRp310
sg38
I00
sbsg39
g40
sg63
I0
sg15
S'H'
sg16
I00
sg64
(F211.28922420973137
F-170.12002360957536
F2.166782791572337
tp311
sg66
(lp312
sg13
g1
sg68
g8
((lp313
g298
atRp314
sg90
g8
((lp315
(imodel.Bond
Bond
p316
(dp317
g94
g95
sg13
g1
sg39
g40
sg17
g8
((lp318
g283
ag302
atRp319
sbatRp320
sg38
I00
sbatRp321
sg39
g40
sg13
g1
sbatRp322
sg90
g8
((lp323
(imodel.Bond
Bond
p324
(dp325
g94
g95
sg13
g1
sg39
g40
sg17
g8
((lp326
g283
ag286
atRp327
sbatRp328
sg38
I00
sba(imodel.VarAtom
VarAtom
p329
(dp330
g21
g8
((lp331
(imodel.VarAtom
VarAtom
p332
(dp333
g21
g8
((lp334
g329
atRp335
sg3
S'H9_1'
p336
sg31
I00
sg32
Nsg33
(imodel.Atom
Atom
p337
(dp338
g3
g336
sg13
g1
sg14
I1
sg15
S'H'
sg16
I00
sg17
g8
((lp339
g332
atRp340
sg38
I00
sbsg39
g40
sg63
I0
sg15
S'H'
sg16
I00
sg64
(F169.12718216120462
F-76.83143083308795
F2.5955317564929032
tp341
sg66
(lp342
sg13
g1
sg68
g8
((lp343
(imodel.AtomGroup
AtomGroup
p344
(dp345
g72
g158
sg74
g8
((ltRp346
sg17
g8
((lp347
g332
a(imodel.VarAtom
VarAtom
p348
(dp349
g21
g8
((lp350
g329
atRp351
sg3
S'H9_2'
p352
sg31
I00
sg32
Nsg33
(imodel.Atom
Atom
p353
(dp354
g3
g352
sg13
g1
sg14
I1
sg15
S'H'
sg16
I00
sg17
g8
((lp355
g348
atRp356
sg38
I00
sbsg39
g40
sg63
I0
sg15
S'H'
sg16
I00
sg64
(F124.86929757586931
F-73.134746842055037
F2.2404484822764901
tp357
sg66
(lp358
sg13
g1
sg68
g8
((lp359
g344
atRp360
sg90
g8
((lp361
(imodel.Bond
Bond
p362
(dp363
g94
g95
sg13
g1
sg39
g40
sg17
g8
((lp364
g329
ag348
atRp365
sbatRp366
sg38
I00
sbatRp367
sg39
g40
sg13
g1
sbatRp368
sg90
g8
((lp369
(imodel.Bond
Bond
p370
(dp371
g94
g95
sg13
g1
sg39
g40
sg17
g8
((lp372
g329
ag332
atRp373
sbatRp374
sg38
I00
sbag283
ag348
a(imodel.VarAtom
VarAtom
p375
(dp376
g21
g8
((lp377
(imodel.VarAtom
VarAtom
p378
(dp379
g21
g8
((lp380
g375
a(imodel.VarAtom
VarAtom
p381
(dp382
g21
g8
((lp383
g378
atRp384
sg3
S'H7_1'
p385
sg31
I00
sg32
Nsg33
(imodel.Atom
Atom
p386
(dp387
g3
g385
sg13
g1
sg14
I1
sg15
S'H'
sg16
I00
sg17
g8
((lp388
g381
atRp389
sg38
I00
sbsg39
g40
sg63
I0
sg15
S'H'
sg16
I00
sg64
(F64.74751320217176
F-69.186393337176796
F1.3045750284788351
tp390
sg66
(lp391
sg13
g1
sg68
g8
((lp392
(imodel.AtomGroup
AtomGroup
p393
(dp394
g72
g158
sg74
g8
((ltRp395
sg17
g8
((lp396
g381
a(imodel.VarAtom
VarAtom
p397
(dp398
g21
g8
((lp399
g378
atRp400
sg3
S'H7_2'
p401
sg31
I00
sg32
Nsg33
(imodel.Atom
Atom
p402
(dp403
g3
g401
sg13
g1
sg14
I1
sg15
S'H'
sg16
I00
sg17
g8
((lp404
g397
atRp405
sg38
I00
sbsg39
g40
sg63
I0
sg15
S'H'
sg16
I00
sg64
(F20.117610998311839
F-67.885593991284722
F0.54915664098672035
tp406
sg66
(lp407
sg13
g1
sg68
g8
((lp408
g393
atRp409
sg90
g8
((lp410
(imodel.Bond
Bond
p411
(dp412
g94
g95
sg13
g1
sg39
g40
sg17
g8
((lp413
g378
ag397
atRp414
sbatRp415
sg38
I00
sbatRp416
sg39
g40
sg13
g1
sbatRp417
sg90
g8
((lp418
(imodel.Bond
Bond
p419
(dp420
g94
g95
sg13
g1
sg39
g40
sg17
g8
((lp421
g378
ag381
atRp422
sbatRp423
sg38
I00
sba(imodel.VarAtom
VarAtom
p424
(dp425
g21
g8
((lp426
g378
a(imodel.VarAtom
VarAtom
p427
(dp428
g21
g8
((lp429
g424
a(imodel.VarAtom
VarAtom
p430
(dp431
g21
g8
((lp432
g427
atRp433
sg3
S'H5_1'
p434
sg31
I00
sg32
Nsg33
(imodel.Atom
Atom
p435
(dp436
g3
g434
sg13
g1
sg14
I1
sg15
S'H'
sg16
I00
sg17
g8
((lp437
g430
atRp438
sg38
I00
sbsg39
g40
sg63
I0
sg15
S'H'
sg16
I00
sg64
(F-40.841681800699973
F-68.284003757379566
F1.4405649957310889
tp439
sg66
(lp440
sg13
g1
sg68
g8
((lp441
(imodel.AtomGroup
AtomGroup
p442
(dp443
g72
g158
sg74
g8
((ltRp444
sg17
g8
((lp445
g430
a(imodel.VarAtom
VarAtom
p446
(dp447
g21
g8
((lp448
g427
atRp449
sg3
S'H5_2'
p450
sg31
I00
sg32
Nsg33
(imodel.Atom
Atom
p451
(dp452
g3
g450
sg13
g1
sg14
I1
sg15
S'H'
sg16
I00
sg17
g8
((lp453
g446
atRp454
sg38
I00
sbsg39
g40
sg63
I0
sg15
S'H'
sg16
I00
sg64
(F-85.588074081215609
F-69.985558088083025
F1.4549871965517038
tp455
sg66
(lp456
sg13
g1
sg68
g8
((lp457
g442
atRp458
sg90
g8
((lp459
(imodel.Bond
Bond
p460
(dp461
g94
g95
sg13
g1
sg39
g40
sg17
g8
((lp462
g427
ag446
atRp463
sbatRp464
sg38
I00
sbatRp465
sg39
g40
sg13
g1
sbatRp466
sg90
g8
((lp467
(imodel.Bond
Bond
p468
(dp469
g94
g95
sg13
g1
sg39
g40
sg17
g8
((lp470
g427
ag430
atRp471
sbatRp472
sg38
I00
sbag446
a(imodel.VarAtom
VarAtom
p473
(dp474
g21
g8
((lp475
(imodel.VarAtom
VarAtom
p476
(dp477
g21
g8
((lp478
g473
ag23
a(imodel.VarAtom
VarAtom
p479
(dp480
g21
g8
((lp481
g476
atRp482
sg3
S'H3_1'
p483
sg31
I00
sg32
Nsg33
(imodel.Atom
Atom
p484
(dp485
g3
g483
sg13
g1
sg14
I1
sg15
S'H'
sg16
I00
sg17
g8
((lp486
g479
atRp487
sg38
I00
sbsg39
g40
sg63
I0
sg15
S'H'
sg16
I00
sg64
(F-146.728448545888
F-74.343561858521568
F2.476297450388369
tp488
sg66
(lp489
sg13
g1
sg68
g8
((lp490
(imodel.AtomGroup
AtomGroup
p491
(dp492
g72
g158
sg74
g8
((ltRp493
sg17
g8
((lp494
g479
a(imodel.VarAtom
VarAtom
p495
(dp496
g21
g8
((lp497
g476
atRp498
sg3
S'H3_2'
p499
sg31
I00
sg32
Nsg33
(imodel.Atom
Atom
p500
(dp501
g3
g499
sg13
g1
sg14
I1
sg15
S'H'
sg16
I00
sg17
g8
((lp502
g495
atRp503
sg38
I00
sbsg39
g40
sg63
I0
sg15
S'H'
sg16
I00
sg64
(F-191.34072719625769
F-80.504693193717017
F0.9931611104049195
tp504
sg66
(lp505
sg13
g1
sg68
g8
((lp506
g491
atRp507
sg90
g8
((lp508
(imodel.Bond
Bond
p509
(dp510
g94
g95
sg13
g1
sg39
g40
sg17
g8
((lp511
g476
ag495
atRp512
sbatRp513
sg38
I00
sbatRp514
sg39
g40
sg13
g1
sbatRp515
sg90
g8
((lp516
(imodel.Bond
Bond
p517
(dp518
g94
g95
sg13
g1
sg39
g40
sg17
g8
((lp519
g476
ag479
atRp520
sbatRp521
sg38
I00
sbag495
atRp522
sg3
S'C3'
p523
sg31
I00
sg32
Nsg33
(imodel.Atom
Atom
p524
(dp525
g3
g523
sg13
g1
sg14
I4
sg15
S'C'
sg16
I00
sg17
g8
((lp526
g476
atRp527
sg38
I00
sbsg39
g40
sg63
I0
sg15
S'C'
sg16
I00
sg64
(F-164.86470058958437
F-108.35550349644116
F0.86954125744445254
tp528
sg66
(lp529
sg13
g1
sg68
g8
((ltRp530
sg90
g8
((lp531
(imodel.Bond
Bond
p532
(dp533
g94
g95
sg13
g1
sg39
g40
sg17
g8
((lp534
g476
ag473
atRp535
sba(imodel.Bond
Bond
p536
(dp537
g94
g95
sg13
g1
sg39
g40
sg17
g8
((lp538
g476
ag23
atRp539
sbag509
ag517
atRp540
sg38
I00
sbag427
a(imodel.VarAtom
VarAtom
p541
(dp542
g21
g8
((lp543
g473
atRp544
sg3
S'H4_1'
p545
sg31
I00
sg32
Nsg33
(imodel.Atom
Atom
p546
(dp547
g3
g545
sg13
g1
sg14
I1
sg15
S'H'
sg16
I00
sg17
g8
((lp548
g541
atRp549
sg38
I00
sbsg39
g40
sg63
I0
sg15
S'H'
sg16
I00
sg64
(F-131.97401723041341
F-161.08578947320908
F1.9492184020570176
tp550
sg66
(lp551
sg13
g1
sg68
g8
((lp552
(imodel.AtomGroup
AtomGroup
p553
(dp554
g72
g158
sg74
g8
((ltRp555
sg17
g8
((lp556
g541
a(imodel.VarAtom
VarAtom
p557
(dp558
g21
g8
((lp559
g473
atRp560
sg3
S'H4_2'
p561
sg31
I00
sg32
Nsg33
(imodel.Atom
Atom
p562
(dp563
g3
g561
sg13
g1
sg14
I1
sg15
S'H'
sg16
I00
sg17
g8
((lp564
g557
atRp565
sg38
I00
sbsg39
g40
sg63
I0
sg15
S'H'
sg16
I00
sg64
(F-88.365018041906737
F-158.55681180516618
F1.7341345735567817
tp566
sg66
(lp567
sg13
g1
sg68
g8
((lp568
g553
atRp569
sg90
g8
((lp570
(imodel.Bond
Bond
p571
(dp572
g94
g95
sg13
g1
sg39
g40
sg17
g8
((lp573
g473
ag557
atRp574
sbatRp575
sg38
I00
sbatRp576
sg39
g40
sg13
g1
sbatRp577
sg90
g8
((lp578
(imodel.Bond
Bond
p579
(dp580
g94
g95
sg13
g1
sg39
g40
sg17
g8
((lp581
g473
ag541
atRp582
sbatRp583
sg38
I00
sbag557
atRp584
sg3
S'C4'
p585
sg31
I00
sg32
Nsg33
(imodel.Atom
Atom
p586
(dp587
g3
g585
sg13
g1
sg14
I4
sg15
S'C'
sg16
I00
sg17
g8
((lp588
g473
atRp589
sg38
I00
sbsg39
g40
sg63
I0
sg15
S'C'
sg16
I00
sg64
(F-112.00332901559636
F-128.21497111531698
F0.66326270898860129
tp590
sg66
(lp591
sg13
g1
sg68
g8
((ltRp592
sg90
g8
((lp593
g532
a(imodel.Bond
Bond
p594
(dp595
g94
g95
sg13
g1
sg39
g40
sg17
g8
((lp596
g427
ag473
atRp597
sbag579
ag571
atRp598
sg38
I00
sbatRp599
sg3
S'C5'
p600
sg31
I00
sg32
Nsg33
(imodel.Atom
Atom
p601
(dp602
g3
g600
sg13
g1
sg14
I4
sg15
S'C'
sg16
I00
sg17
g8
((lp603
g427
atRp604
sg38
I00
sbsg39
g40
sg63
I0
sg15
S'C'
sg16
I00
sg64
(F-62.029374255484854
F-100.461053906342
F1.8128133504033053
tp605
sg66
(lp606
sg13
g1
sg68
g8
((ltRp607
sg90
g8
((lp608
(imodel.Bond
Bond
p609
(dp610
g94
g95
sg13
g1
sg39
g40
sg17
g8
((lp611
g427
ag424
atRp612
sbag594
ag468
ag460
atRp613
sg38
I00
sba(imodel.VarAtom
VarAtom
p614
(dp615
g21
g8
((lp616
g424
atRp617
sg3
S'H6_1'
p618
sg31
I00
sg32
Nsg33
(imodel.Atom
Atom
p619
(dp620
g3
g618
sg13
g1
sg14
I1
sg15
S'H'
sg16
I00
sg17
g8
((lp621
g614
atRp622
sg38
I00
sbsg39
g40
sg63
I0
sg15
S'H'
sg16
I00
sg64
(F-31.76407890335474
F-155.71164171062125
F1.4477349794019896
tp623
sg66
(lp624
sg13
g1
sg68
g8
((lp625
(imodel.AtomGroup
AtomGroup
p626
(dp627
g72
g158
sg74
g8
((ltRp628
sg17
g8
((lp629
g614
a(imodel.VarAtom
VarAtom
p630
(dp631
g21
g8
((lp632
g424
atRp633
sg3
S'H6_2'
p634
sg31
I00
sg32
Nsg33
(imodel.Atom
Atom
p635
(dp636
g3
g634
sg13
g1
sg14
I1
sg15
S'H'
sg16
I00
sg17
g8
((lp637
g630
atRp638
sg38
I00
sbsg39
g40
sg63
I0
sg15
S'H'
sg16
I00
sg64
(F11.691289763693661
F-155.63390183022983
F2.1976812291939027
tp639
sg66
(lp640
sg13
g1
sg68
g8
((lp641
g626
atRp642
sg90
g8
((lp643
(imodel.Bond
Bond
p644
(dp645
g94
g95
sg13
g1
sg39
g40
sg17
g8
((lp646
g424
ag630
atRp647
sbatRp648
sg38
I00
sbatRp649
sg39
g40
sg13
g1
sbatRp650
sg90
g8
((lp651
(imodel.Bond
Bond
p652
(dp653
g94
g95
sg13
g1
sg39
g40
sg17
g8
((lp654
g424
ag614
atRp655
sbatRp656
sg38
I00
sbag630
atRp657
sg3
S'C6'
p658
sg31
I00
sg32
Nsg33
(imodel.Atom
Atom
p659
(dp660
g3
g658
sg13
g1
sg14
I4
sg15
S'C'
sg16
I00
sg17
g8
((lp661
g424
atRp662
sg38
I00
sbsg39
g40
sg63
I0
sg15
S'C'
sg16
I00
sg64
(F-10.101117451602015
F-123.95245715417089
F0.30467735782584848
tp663
sg66
(lp664
sg13
g1
sg68
g8
((ltRp665
sg90
g8
((lp666
g609
a(imodel.Bond
Bond
p667
(dp668
g94
g95
sg13
g1
sg39
g40
sg17
g8
((lp669
g424
ag378
atRp670
sbag644
ag652
atRp671
sg38
I00
sbag397
atRp672
sg3
S'C7'
p673
sg31
I00
sg32
Nsg33
(imodel.Atom
Atom
p674
(dp675
g3
g673
sg13
g1
sg14
I4
sg15
S'C'
sg16
I00
sg17
g8
((lp676
g378
atRp677
sg38
I00
sbsg39
g40
sg63
I0
sg15
S'C'
sg16
I00
sg64
(F41.523583846042506
F-99.917094920229971
F1.0819632202468064
tp678
sg66
(lp679
sg13
g1
sg68
g8
((ltRp680
sg90
g8
((lp681
(imodel.Bond
Bond
p682
(dp683
g94
g95
sg13
g1
sg39
g40
sg17
g8
((lp684
g375
ag378
atRp685
sbag667
ag411
ag419
atRp686
sg38
I00
sba(imodel.VarAtom
VarAtom
p687
(dp688
g21
g8
((lp689
g375
atRp690
sg3
S'H8_1'
p691
sg31
I00
sg32
Nsg33
(imodel.Atom
Atom
p692
(dp693
g3
g691
sg13
g1
sg14
I1
sg15
S'H'
sg16
I00
sg17
g8
((lp694
g687
atRp695
sg38
I00
sbsg39
g40
sg63
I0
sg15
S'H'
sg16
I00
sg64
(F111.60584056534171
F-159.93597038846625
F1.9237135091775839
tp696
sg66
(lp697
sg13
g1
sg68
g8
((lp698
(imodel.AtomGroup
AtomGroup
p699
(dp700
g72
g158
sg74
g8
((ltRp701
sg17
g8
((lp702
g687
a(imodel.VarAtom
VarAtom
p703
(dp704
g21
g8
((lp705
g375
atRp706
sg3
S'H8_2'
p707
sg31
I00
sg32
Nsg33
(imodel.Atom
Atom
p708
(dp709
g3
g707
sg13
g1
sg14
I1
sg15
S'H'
sg16
I00
sg17
g8
((lp710
g703
atRp711
sg38
I00
sbsg39
g40
sg63
I0
sg15
S'H'
sg16
I00
sg64
(F68.219866735694296
F-157.63554890293298
F1.0951597144723537
tp712
sg66
(lp713
sg13
g1
sg68
g8
((lp714
g699
atRp715
sg90
g8
((lp716
(imodel.Bond
Bond
p717
(dp718
g94
g95
sg13
g1
sg39
g40
sg17
g8
((lp719
g375
ag703
atRp720
sbatRp721
sg38
I00
sbatRp722
sg39
g40
sg13
g1
sbatRp723
sg90
g8
((lp724
(imodel.Bond
Bond
p725
(dp726
g94
g95
sg13
g1
sg39
g40
sg17
g8
((lp727
g375
ag687
atRp728
sbatRp729
sg38
I00
sbag703
ag329
atRp730
sg3
S'C8'
p731
sg31
I00
sg32
Nsg33
(imodel.Atom
Atom
p732
(dp733
g3
g731
sg13
g1
sg14
I4
sg15
S'C'
sg16
I00
sg17
g8
((lp734
g375
atRp735
sg38
I00
sbsg39
g40
sg63
I0
sg15
S'C'
sg16
I00
sg64
(F91.603200837118266
F-127.09680203110911
F0.9457705002408453
tp736
sg66
(lp737
sg13
g1
sg68
g8
((ltRp738
sg90
g8
((lp739
g682
a(imodel.Bond
Bond
p740
(dp741
g94
g95
sg13
g1
sg39
g40
sg17
g8
((lp742
g375
ag329
atRp743
sbag725
ag717
atRp744
sg38
I00
sbatRp745
sg3
S'C9'
p746
sg31
I00
sg32
Nsg33
(imodel.Atom
Atom
p747
(dp748
g3
g746
sg13
g1
sg14
I4
sg15
S'C'
sg16
I00
sg17
g8
((lp749
g329
atRp750
sg38
I00
sbsg39
g40
sg63
I0
sg15
S'C'
sg16
I00
sg64
(F144.38295969596911
F-106.34660360722278
F0.95680155449087823
tp751
sg66
(lp752
sg13
g1
sg68
g8
((ltRp753
sg90
g8
((lp754
(imodel.Bond
Bond
p755
(dp756
g94
g95
sg13
g1
sg39
g40
sg17
g8
((lp757
g283
ag329
atRp758
sbag740
ag370
ag362
atRp759
sg38
I00
sbag302
ag237
atRp760
sg3
S'C10'
p761
sg31
I00
sg32
Nsg33
(imodel.Atom
Atom
p762
(dp763
g3
g761
sg13
g1
sg14
I4
sg15
S'C'
sg16
I00
sg17
g8
((lp764
g283
atRp765
sg38
I00
sbsg39
g40
sg63
I0
sg15
S'C'
sg16
I00
sg64
(F192.72774343554622
F-136.43353052094696
F0.72588832242030199
tp766
sg66
(lp767
sg13
g1
sg68
g8
((ltRp768
sg90
g8
((lp769
g755
a(imodel.Bond
Bond
p770
(dp771
g94
g95
sg13
g1
sg39
g40
sg17
g8
((lp772
g237
ag283
atRp773
sbag324
ag316
atRp774
sg38
I00
sbag256
atRp775
sg3
S'C11'
p776
sg31
I00
sg32
Nsg33
(imodel.Atom
Atom
p777
(dp778
g3
g776
sg13
g1
sg14
I4
sg15
S'C'
sg16
I00
sg17
g8
((lp779
g237
atRp780
sg38
I00
sbsg39
g40
sg63
I0
sg15
S'C'
sg16
I00
sg64
(F246.18291838536013
F-118.12270669588189
F1.888763504409684
tp781
sg66
(lp782
sg13
g1
sg68
g8
((ltRp783
sg90
g8
((lp784
(imodel.Bond
Bond
p785
(dp786
g94
g95
sg13
g1
sg39
g40
sg17
g8
((lp787
g237
ag191
atRp788
sbag770
ag278
ag270
atRp789
sg38
I00
sbag188
atRp790
sg3
S'C12'
p791
sg31
I00
sg32
Nsg33
(imodel.Atom
Atom
p792
(dp793
g3
g791
sg13
g1
sg14
I4
sg15
S'C'
sg16
I00
sg17
g8
((lp794
g191
atRp795
sg38
I00
sbsg39
g40
sg63
I0
sg15
S'C'
sg16
I00
sg64
(F293.46283018317951
F-149.94174177495319
F0.59912799276427819
tp796
sg66
(lp797
sg13
g1
sg68
g8
((ltRp798
sg90
g8
((lp799
g785
a(imodel.Bond
Bond
p800
(dp801
g94
g95
sg13
g1
sg39
g40
sg17
g8
((lp802
g191
ag188
atRp803
sbag232
ag224
atRp804
sg38
I00
sba(imodel.VarAtom
VarAtom
p805
(dp806
g21
g8
((lp807
g188
atRp808
sg3
S'H13_1'
p809
sg31
I00
sg32
Nsg33
(imodel.Atom
Atom
p810
(dp811
g3
g809
sg13
g1
sg14
I1
sg15
S'H'
sg16
I00
sg17
g8
((lp812
g805
atRp813
sg38
I00
sbsg39
g40
sg63
I0
sg15
S'H'
sg16
I00
sg64
(F329.20351921480017
F-98.462246338197417
F1.0731560365519179
tp814
sg66
(lp815
sg13
g1
sg68
g8
((lp816
(imodel.AtomGroup
AtomGroup
p817
(dp818
g72
g158
sg74
g8
((ltRp819
sg17
g8
((lp820
g805
a(imodel.VarAtom
VarAtom
p821
(dp822
g21
g8
((lp823
g188
atRp824
sg3
S'H13_2'
p825
sg31
I00
sg32
Nsg33
(imodel.Atom
Atom
p826
(dp827
g3
g825
sg13
g1
sg14
I1
sg15
S'H'
sg16
I00
sg17
g8
((lp828
g821
atRp829
sg38
I00
sbsg39
g40
sg63
I0
sg15
S'H'
sg16
I00
sg64
(F372.66174353421701
F-103.7101561669155
F0.68808282782456232
tp830
sg66
(lp831
sg13
g1
sg68
g8
((lp832
g817
atRp833
sg90
g8
((lp834
(imodel.Bond
Bond
p835
(dp836
g94
g95
sg13
g1
sg39
g40
sg17
g8
((lp837
g188
ag821
atRp838
sbatRp839
sg38
I00
sbatRp840
sg39
g40
sg13
g1
sbatRp841
sg90
g8
((lp842
(imodel.Bond
Bond
p843
(dp844
g94
g95
sg13
g1
sg39
g40
sg17
g8
((lp845
g188
ag805
atRp846
sbatRp847
sg38
I00
sbag821
atRp848
sg3
S'C13'
p849
sg31
I00
sg32
Nsg33
(imodel.Atom
Atom
p850
(dp851
g3
g849
sg13
g1
sg14
I4
sg15
S'C'
sg16
I00
sg17
g8
((lp852
g188
atRp853
sg38
I00
sbsg39
g40
sg63
I0
sg15
S'C'
sg16
I00
sg64
(F347.13310149665722
F-132.51353387184446
F1.7407301889209359
tp854
sg66
(lp855
sg13
g1
sg68
g8
((ltRp856
sg90
g8
((lp857
(imodel.Bond
Bond
p858
(dp859
g94
g95
sg13
g1
sg39
g40
sg17
g8
((lp860
g188
ag141
atRp861
sbag800
ag835
ag843
atRp862
sg38
I00
sbag48
atRp863
sg3
S'C14'
p864
sg31
I00
sg32
Nsg33
(imodel.Atom
Atom
p865
(dp866
g3
g864
sg13
g1
sg14
I4
sg15
S'C'
sg16
I00
sg17
g8
((lp867
g141
atRp868
sg38
I00
sbsg39
g40
sg63
I0
sg15
S'C'
sg16
I00
sg64
(F394.56342189038162
F-164.15503341658879
F1.4096441252694352
tp869
sg66
(lp870
sg13
g1
sg68
g8
((ltRp871
sg90
g8
((lp872
g858
a(imodel.Bond
Bond
p873
(dp874
g94
g95
sg13
g1
sg39
g40
sg17
g8
((lp875
g48
ag141
atRp876
sbag175
ag183
atRp877
sg38
I00
sba(imodel.VarAtom
VarAtom
p878
(dp879
g21
g8
((lp880
g48
atRp881
sg3
S'H15_1'
p882
sg31
I00
sg32
Nsg33
(imodel.Atom
Atom
p883
(dp884
g3
g882
sg13
g1
sg14
I1
sg15
S'H'
sg16
I00
sg17
g8
((lp885
g878
atRp886
sg38
I00
sbsg39
g40
sg63
I0
sg15
S'H'
sg16
I00
sg64
(F429.24937801315627
F-111.88418481130219
F1.136601937907787
tp887
sg66
(lp888
sg13
g1
sg68
g8
((lp889
(imodel.AtomGroup
AtomGroup
p890
(dp891
g72
g158
sg74
g8
((ltRp892
sg17
g8
((lp893
g878
ag45
atRp894
sg39
g40
sg13
g1
sbatRp895
sg90
g8
((lp896
(imodel.Bond
Bond
p897
(dp898
g94
g95
sg13
g1
sg39
g40
sg17
g8
((lp899
g48
ag878
atRp900
sbatRp901
sg38
I00
sbag45
atRp902
sg3
S'C15'
p903
sg31
I00
sg32
Nsg33
(imodel.Atom
Atom
p904
(dp905
g3
g903
sg13
g1
sg14
I4
sg15
S'C'
sg16
I00
sg17
g8
((lp906
g48
atRp907
sg38
I00
sbsg39
g40
sg63
I0
sg15
S'C'
sg16
I00
sg64
(F447.98404366344431
F-145.46979426390993
F1.404879210437312
tp908
sg66
(lp909
sg13
g1
sg68
g8
((ltRp910
sg90
g8
((lp911
g136
ag873
ag897
a(imodel.Bond
Bond
p912
(dp913
g94
g95
sg13
g1
sg39
g40
sg17
g8
((lp914
g48
ag45
atRp915
sbatRp916
sg38
I00
sbatRp917
sg3
S'H15_2'
p918
sg31
I00
sg32
Nsg33
(imodel.Atom
Atom
p919
(dp920
g3
g918
sg13
g1
sg14
I1
sg15
S'H'
sg16
I00
sg17
g8
((lp921
g45
atRp922
sg38
I00
sbsg39
g40
sg63
I0
sg15
S'H'
sg16
I00
sg64
(F472.65955819004142
F-115.95992208556957
F0.95188125949346414
tp923
sg66
(lp924
sg13
g1
sg68
g8
((lp925
g890
atRp926
sg90
g8
((lp927
g912
atRp928
sg38
I00
sbag26
ag54
ag805
ag332
a(imodel.VarAtom
VarAtom
p929
(dp930
g21
g8
((lp931
g19
atRp932
sg3
S'H1_1'
p933
sg31
I00
sg32
Nsg33
(imodel.Atom
Atom
p934
(dp935
g3
g933
sg13
g1
sg14
I1
sg15
S'H'
sg16
I00
sg17
g8
((lp936
g929
atRp937
sg38
I00
sbsg39
g40
sg63
I0
sg15
S'H'
sg16
I00
sg64
(F-300.09057112413848
F-97.340424369539264
F1.7569858392866269
tp938
sg66
(lp939
sg13
g1
sg68
g8
((lp940
(imodel.AtomGroup
AtomGroup
p941
(dp942
g72
g158
sg74
g8
((ltRp943
sg17
g8
((lp944
g929
a(imodel.VarAtom
VarAtom
p945
(dp946
g21
g8
((lp947
g19
atRp948
sg3
S'H1_2'
p949
sg31
I00
sg32
Nsg33
(imodel.Atom
Atom
p950
(dp951
g3
g949
sg13
g1
sg14
I1
sg15
S'H'
sg16
I00
sg17
g8
((lp952
g945
atRp953
sg38
I00
sbsg39
g40
sg63
I0
sg15
S'H'
sg16
I00
sg64
(F-255.68405657272419
F-76.323904592656149
F1.3403396979829885
tp954
sg66
(lp955
sg13
g1
sg68
g8
((lp956
g941
atRp957
sg90
g8
((lp958
(imodel.Bond
Bond
p959
(dp960
g94
g95
sg13
g1
sg39
g40
sg17
g8
((lp961
g19
ag945
atRp962
sbatRp963
sg38
I00
sbatRp964
sg39
g40
sg13
g1
sbatRp965
sg90
g8
((lp966
(imodel.Bond
Bond
p967
(dp968
g94
g95
sg13
g1
sg39
g40
sg17
g8
((lp969
g19
ag929
atRp970
sbatRp971
sg38
I00
sbag210
ag703
a(imodel.VarAtom
VarAtom
p972
(dp973
g21
g8
((lp974
g23
atRp975
sg3
S'H2_2'
p976
sg31
I00
sg32
Nsg33
(imodel.Atom
Atom
p977
(dp978
g3
g976
sg13
g1
sg14
I1
sg15
S'H'
sg16
I00
sg17
g8
((lp979
g972
atRp980
sg38
I00
sbsg39
g40
sg63
I0
sg15
S'H'
sg16
I00
sg64
(F-189.83195097420449
F-167.96162892967885
F1.9048920915973713
tp981
sg66
(lp982
sg13
g1
sg68
g8
((lp983
(imodel.AtomGroup
AtomGroup
p984
(dp985
g72
g158
sg74
g8
((ltRp986
sg17
g8
((lp987
g26
ag972
atRp988
sg39
g40
sg13
g1
sbatRp989
sg90
g8
((lp990
(imodel.Bond
Bond
p991
(dp992
g94
g95
sg13
g1
sg39
g40
sg17
g8
((lp993
g23
ag972
atRp994
sbatRp995
sg38
I00
sbag614
ag446
ag557
ag161
ag256
ag286
ag240
ag77
ag302
ag144
ag381
ag99
ag945
ag821
ag479
ag878
ag541
ag495
ag630
ag687
ag348
ag430
ag397
ag194
atRp996
sS'C'
g8
((lp997
g51
ag424
ag19
ag476
ag23
ag191
ag188
ag237
ag375
ag48
ag473
ag427
ag283
ag378
ag329
ag141
atRp998
ssg90
g8
((lp999
g858
ag740
ag835
ag324
ag224
ag278
ag959
ag370
ag270
ag644
ag517
ag755
a(imodel.Bond
Bond
p1000
(dp1001
g94
g95
sg13
g1
sg39
g40
sg17
g8
((lp1002
g19
ag23
atRp1003
sbag232
a(imodel.Bond
Bond
p1004
(dp1005
g94
g95
sg13
g1
sg39
g40
sg17
g8
((lp1006
g23
ag26
atRp1007
sbag411
ag316
ag967
ag800
ag175
ag460
ag652
ag183
ag725
ag362
ag785
ag667
ag897
ag468
ag717
ag912
ag136
ag92
ag536
ag113
ag873
ag121
ag594
ag609
ag532
ag770
ag991
ag682
ag419
ag843
ag571
ag579
ag509
atRp1008
sg13
g1
sS'atomDict'
p1009
(dp1010
g10
g19
sg850
g188
sg402
g397
sg619
g614
sg692
g687
sg792
g191
sg708
g703
s(imodel.Atom
Atom
p1011
(dp1012
g3
S'C2'
p1013
sg13
g1
sg14
I4
sg15
S'C'
sg16
I00
sg17
g8
((lp1014
g23
atRp1015
sg38
I00
sbg23
sg747
g329
sg601
g427
sg883
g878
sg777
g237
sg128
g51
sg435
g430
sg484
g479
sg353
g348
sg337
g332
sg810
g805
sg865
g141
sg524
g476
sg307
g302
sg451
g446
sg904
g48
sg149
g144
sg199
g194
sg659
g424
sg245
g240
sg34
g26
sg826
g821
sg59
g54
sg386
g381
sg546
g541
sg261
g256
sg586
g473
sg166
g161
sg977
g972
sg291
g286
sg732
g375
sg500
g495
sg635
g630
sg919
g45
sg82
g77
sg215
g210
sg104
g99
sg762
g283
sg934
g929
sg562
g557
sg674
g378
sg950
g945
ssS'descriptor'
p1016
(S'neutral'
p1017
S'none'
p1018
S'default'
p1019
tp1020
sg17
g8
((lp1021
g51
ag26
ag54
ag161
ag188
ag424
ag283
ag430
ag19
ag805
ag210
ag630
ag332
ag476
ag77
ag557
ag329
ag99
ag687
ag256
ag48
ag240
ag703
ag427
ag45
ag302
ag375
ag381
ag141
ag473
ag237
ag144
ag286
ag821
ag378
ag479
ag446
ag878
ag945
ag495
ag23
ag191
ag929
ag348
ag614
ag397
ag972
ag541
ag194
atRp1022
sg68
g8
((lp1023
g442
ag393
ag344
ag491
ag206
ag156
ag890
ag553
ag252
ag699
ag70
ag298
ag817
ag626
ag941
ag984
atRp1024
sS'polyLink'
p1025
g1018
sbsg63
I0
sg15
S'H'
sg16
I00
sg64
(F-234.01103050587449
F-171.39590894972531
F1.9665733715510059
tp1026
sg66
(lp1027
sg13
g1
sg68
g8
((lp1028
g984
atRp1029
sg90
g8
((lp1030
g1004
atRp1031
sg38
I00
sbag19
ag972
ag476
atRp1032
sg3
g1013
sg31
I00
sg32
Nsg33
g1011
sg39
g40
sg63
I0
sg15
S'C'
sg16
I00
sg64
(F-214.09909809141308
F-138.06167839114724
F0.49890305950752822
tp1033
sg66
(lp1034
sg13
g1
sg68
g8
((ltRp1035
sg90
g8
((lp1036
g1000
ag536
ag1004
ag991
atRp1037
sg38
I00
sbag929
ag945
atRp1038
sg3
g12
sg31
I00
sg32
Nsg33
g10
sg39
g40
sg63
I0
sg15
S'C'
sg16
I00
sg64
(F-264.70674287706987
F-113.9930523015278
F1.2646790501332976
tp1039
sg66
(lp1040
F3.5834962153930148
asg13
g1
sg68
g8
((ltRp1041
sg90
g8
((lp1042
g1000
ag967
ag959
atRp1043
sg38
I00
sbatRp1044
sg38
I00
sbag850
ag402
ag619
ag692
ag792
ag708
ag1011
ag747
ag601
ag883
ag777
ag128
ag435
ag484
ag353
ag337
ag810
ag865
ag524
ag307
ag451
ag904
ag149
ag199
ag659
ag245
ag34
ag826
ag59
ag386
ag546
ag261
ag586
ag166
ag977
ag291
ag732
ag500
ag635
ag919
ag82
ag215
ag104
ag762
ag934
ag562
ag674
ag950
atRp1045
sS'ccpMolType'
p1046
S'other'
p1047
sS'details'
p1048
V
sg1009
(dp1049
g352
g353
sg336
g337
sg499
g500
sg483
g484
sg746
g747
sg731
g732
sg561
g562
sg523
g524
sg1013
g1011
sg12
g10
sg673
g674
sg658
g659
sg600
g601
sg585
g586
sg165
g166
sg634
g635
sg618
g619
sg825
g826
sg976
g977
sg30
g34
sg918
g919
sg882
g883
sg434
g435
sg707
g708
sg450
g451
sg198
g199
sg691
g692
sg849
g850
sg791
g792
sg776
g777
sg761
g762
sg127
g128
sg903
g904
sg864
g865
sg545
g546
sg401
g402
sg385
g386
sg306
g307
sg290
g291
sg933
g934
sg949
g950
sg58
g59
sg103
g104
sg81
g82
sg809
g810
sg148
g149
sg214
g215
sg260
g261
sg244
g245
ssS'keywords'
p1050
g8
((ltRp1051
sg68
g8
((lp1052
g442
ag393
ag344
ag491
ag206
ag156
ag890
ag553
ag252
ag699
ag70
ag298
ag817
ag626
ag941
ag984
atRp1053
sS'variants'
p1054
g8
((lp1055
g40
atRp1056
sS'defaultVars'
p1057
g8
((ltRp1058
sb.