(imodel.Compound
Compound
p1
(dp2
S'name'
p3
S'Unnamed'
p4
sS'isModified'
p5
I01
sS'ccpCode'
p6
NsS'atoms'
p7
c__builtin__
set
p8
((lp9
(imodel.Atom
Atom
p10
(dp11
g3
S'C1'
p12
sS'compound'
p13
g1
sS'baseValences'
p14
I4
sS'element'
p15
S'C'
sS'isVariable'
p16
I00
sS'varAtoms'
p17
g8
((lp18
(imodel.VarAtom
VarAtom
p19
(dp20
S'neighbours'
p21
g8
((lp22
(imodel.VarAtom
VarAtom
p23
(dp24
g21
g8
((lp25
(imodel.VarAtom
VarAtom
p26
(dp27
g21
g8
((lp28
g23
atRp29
sg3
S'H2_1'
p30
sS'isLabile'
p31
I00
sS'chirality'
p32
NsS'atom'
p33
(imodel.Atom
Atom
p34
(dp35
g3
g30
sg13
g1
sg14
I1
sg15
S'H'
sg16
I00
sg17
g8
((lp36
g26
atRp37
sS'isDeleted'
p38
I00
sbsS'variant'
p39
(imodel.Variant
Variant
p40
(dp41
S'elementDict'
p42
(dp43
S'H'
g8
((lp44
(imodel.VarAtom
VarAtom
p45
(dp46
g21
g8
((lp47
(imodel.VarAtom
VarAtom
p48
(dp49
g21
g8
((lp50
(imodel.VarAtom
VarAtom
p51
(dp52
g21
g8
((lp53
(imodel.VarAtom
VarAtom
p54
(dp55
g21
g8
((lp56
g51
atRp57
sg3
S'H16_1'
p58
sg31
I00
sg32
Nsg33
(imodel.Atom
Atom
p59
(dp60
g3
g58
sg13
g1
sg14
I1
sg15
S'H'
sg16
I00
sg17
g8
((lp61
g54
atRp62
sg38
I00
sbsg39
g40
sS'charge'
p63
I0
sg15
S'H'
sg16
I00
sS'coords'
p64
(F472.2026185569128
F-204.57417548187217
F1.9501639370908781
tp65
sS'freeValences'
p66
(lp67
sg13
g1
sS'atomGroups'
p68
g8
((lp69
(imodel.AtomGroup
AtomGroup
p70
(dp71
S'groupType'
p72
S'prochiral'
p73
sS'subGroups'
p74
g8
((ltRp75
sg17
g8
((lp76
g54
a(imodel.VarAtom
VarAtom
p77
(dp78
g21
g8
((lp79
g51
atRp80
sg3
S'H16_2'
p81
sg31
I00
sg32
Nsg33
(imodel.Atom
Atom
p82
(dp83
g3
g81
sg13
g1
sg14
I1
sg15
S'H'
sg16
I00
sg17
g8
((lp84
g77
atRp85
sg38
I00
sbsg39
g40
sg63
I0
sg15
S'H'
sg16
I00
sg64
(F516.54245643795355
F-207.88872285816313
F1.46826435353052
tp86
sg66
(lp87
sg13
g1
sg68
g8
((lp88
g70
atRp89
sS'bonds'
p90
g8
((lp91
(imodel.Bond
Bond
p92
(dp93
S'bondType'
p94
S'single'
p95
sg13
g1
sg39
g40
sg17
g8
((lp96
g51
ag77
atRp97
sbatRp98
sg38
I00
sbatRp99
sg39
g40
sg13
g1
sbatRp100
sg90
g8
((lp101
(imodel.Bond
Bond
p102
(dp103
g94
g95
sg13
g1
sg39
g40
sg17
g8
((lp104
g51
ag54
atRp105
sbatRp106
sg38
I00
sbag77
ag48
a(imodel.VarAtom
VarAtom
p107
(dp108
g21
g8
((lp109
g51
a(imodel.VarAtom
VarAtom
p110
(dp111
g21
g8
((lp112
(imodel.VarAtom
VarAtom
p113
(dp114
g21
g8
((lp115
g110
atRp116
sg3
S'H18_1'
p117
sg31
I00
sg32
Nsg33
(imodel.Atom
Atom
p118
(dp119
g3
g117
sg13
g1
sg14
I1
sg15
S'H'
sg16
I00
sg17
g8
((lp120
g113
atRp121
sg38
I00
sbsg39
g40
sg63
I0
sg15
S'H'
sg16
I00
sg64
(F621.81810524387447
F-210.96142561320008
F1.3449524706676312
tp122
sg66
(lp123
sg13
g1
sg68
g8
((lp124
(imodel.AtomGroup
AtomGroup
p125
(dp126
g72
S'equivalent'
p127
sg74
g8
((ltRp128
sg17
g8
((lp129
g113
a(imodel.VarAtom
VarAtom
p130
(dp131
g21
g8
((lp132
g110
atRp133
sg3
S'H18_2'
p134
sg31
I00
sg32
Nsg33
(imodel.Atom
Atom
p135
(dp136
g3
g134
sg13
g1
sg14
I1
sg15
S'H'
sg16
I00
sg17
g8
((lp137
g130
atRp138
sg38
I00
sbsg39
g40
sg63
I0
sg15
S'H'
sg16
I00
sg64
(F576.93081749376609
F-211.54837896177727
F1.5575456170879116
tp139
sg66
(lp140
sg13
g1
sg68
g8
((lp141
g125
atRp142
sg90
g8
((lp143
(imodel.Bond
Bond
p144
(dp145
g94
g95
sg13
g1
sg39
g40
sg17
g8
((lp146
g110
ag130
atRp147
sbatRp148
sg38
I00
sba(imodel.VarAtom
VarAtom
p149
(dp150
g21
g8
((lp151
g110
atRp152
sg3
S'H18_3'
p153
sg31
I00
sg32
Nsg33
(imodel.Atom
Atom
p154
(dp155
g3
g153
sg13
g1
sg14
I1
sg15
S'H'
sg16
I00
sg17
g8
((lp156
g149
atRp157
sg38
I00
sbsg39
g40
sg63
I0
sg15
S'H'
sg16
I00
sg64
(F627.23276541091479
F-153.5229082146291
F0.66869225061068394
tp158
sg66
(lp159
sg13
g1
sg68
g8
((lp160
g125
atRp161
sg90
g8
((lp162
(imodel.Bond
Bond
p163
(dp164
g94
g95
sg13
g1
sg39
g40
sg17
g8
((lp165
g110
ag149
atRp166
sbatRp167
sg38
I00
sbatRp168
sg39
g40
sg13
g1
sbatRp169
sg90
g8
((lp170
(imodel.Bond
Bond
p171
(dp172
g94
g95
sg13
g1
sg39
g40
sg17
g8
((lp173
g110
ag113
atRp174
sbatRp175
sg38
I00
sbag107
ag130
ag149
atRp176
sg3
S'C18'
p177
sg31
I00
sg32
Nsg33
(imodel.Atom
Atom
p178
(dp179
g3
g177
sg13
g1
sg14
I4
sg15
S'C'
sg16
I00
sg17
g8
((lp180
g110
atRp181
sg38
I00
sbsg39
g40
sg63
I0
sg15
S'C'
sg16
I00
sg64
(F599.07185367851127
F-179.99449052924797
F0.47689582406345787
tp182
sg66
(lp183
sg13
g1
sg68
g8
((ltRp184
sg90
g8
((lp185
(imodel.Bond
Bond
p186
(dp187
g94
g95
sg13
g1
sg39
g40
sg17
g8
((lp188
g110
ag107
atRp189
sbag163
ag171
ag144
atRp190
sg38
I00
sba(imodel.VarAtom
VarAtom
p191
(dp192
g21
g8
((lp193
g107
atRp194
sg3
S'H17_1'
p195
sg31
I00
sg32
Nsg33
(imodel.Atom
Atom
p196
(dp197
g3
g195
sg13
g1
sg14
I1
sg15
S'H'
sg16
I00
sg17
g8
((lp198
g191
atRp199
sg38
I00
sbsg39
g40
sg63
I0
sg15
S'H'
sg16
I00
sg64
(F573.18211039113407
F-123.17525831681397
F1.719730298463938
tp200
sg66
(lp201
sg13
g1
sg68
g8
((lp202
(imodel.AtomGroup
AtomGroup
p203
(dp204
g72
g73
sg74
g8
((ltRp205
sg17
g8
((lp206
g191
a(imodel.VarAtom
VarAtom
p207
(dp208
g21
g8
((lp209
g107
atRp210
sg3
S'H17_2'
p211
sg31
I00
sg32
Nsg33
(imodel.Atom
Atom
p212
(dp213
g3
g211
sg13
g1
sg14
I1
sg15
S'H'
sg16
I00
sg17
g8
((lp214
g207
atRp215
sg38
I00
sbsg39
g40
sg63
I0
sg15
S'H'
sg16
I00
sg64
(F529.49519592135186
F-120.5081632720813
F1.4302692458294102
tp216
sg66
(lp217
sg13
g1
sg68
g8
((lp218
g203
atRp219
sg90
g8
((lp220
(imodel.Bond
Bond
p221
(dp222
g94
g95
sg13
g1
sg39
g40
sg17
g8
((lp223
g107
ag207
atRp224
sbatRp225
sg38
I00
sbatRp226
sg39
g40
sg13
g1
sbatRp227
sg90
g8
((lp228
(imodel.Bond
Bond
p229
(dp230
g94
g95
sg13
g1
sg39
g40
sg17
g8
((lp231
g107
ag191
atRp232
sbatRp233
sg38
I00
sbag207
atRp234
sg3
S'C17'
p235
sg31
I00
sg32
Nsg33
(imodel.Atom
Atom
p236
(dp237
g3
g235
sg13
g1
sg14
I4
sg15
S'C'
sg16
I00
sg17
g8
((lp238
g107
atRp239
sg38
I00
sbsg39
g40
sg63
I0
sg15
S'C'
sg16
I00
sg64
(F549.40167409920514
F-153.42068692238178
F1.6884971104927566
tp240
sg66
(lp241
sg13
g1
sg68
g8
((ltRp242
sg90
g8
((lp243
(imodel.Bond
Bond
p244
(dp245
g94
g95
sg13
g1
sg39
g40
sg17
g8
((lp246
g51
ag107
atRp247
sbag186
ag229
ag221
atRp248
sg38
I00
sbatRp249
sg3
S'C16'
p250
sg31
I00
sg32
Nsg33
(imodel.Atom
Atom
p251
(dp252
g3
g250
sg13
g1
sg14
I4
sg15
S'C'
sg16
I00
sg17
g8
((lp253
g51
atRp254
sg38
I00
sbsg39
g40
sg63
I0
sg15
S'C'
sg16
I00
sg64
(F496.72101428040634
F-174.86366818600129
F1.4132082819573868
tp255
sg66
(lp256
sg13
g1
sg68
g8
((ltRp257
sg90
g8
((lp258
(imodel.Bond
Bond
p259
(dp260
g94
g95
sg13
g1
sg39
g40
sg17
g8
((lp261
g51
ag48
atRp262
sbag244
ag102
ag92
atRp263
sg38
I00
sba(imodel.VarAtom
VarAtom
p264
(dp265
g21
g8
((lp266
(imodel.VarAtom
VarAtom
p267
(dp268
g21
g8
((lp269
g264
atRp270
sg3
S'H14_1'
p271
sg31
I00
sg32
Nsg33
(imodel.Atom
Atom
p272
(dp273
g3
g271
sg13
g1
sg14
I1
sg15
S'H'
sg16
I00
sg17
g8
((lp274
g267
atRp275
sg38
I00
sbsg39
g40
sg63
I0
sg15
S'H'
sg16
I00
sg64
(F369.02613270981396
F-192.9761349944153
F0.73192899318357696
tp276
sg66
(lp277
sg13
g1
sg68
g8
((lp278
(imodel.AtomGroup
AtomGroup
p279
(dp280
g72
g73
sg74
g8
((ltRp281
sg17
g8
((lp282
g267
a(imodel.VarAtom
VarAtom
p283
(dp284
g21
g8
((lp285
g264
atRp286
sg3
S'H14_2'
p287
sg31
I00
sg32
Nsg33
(imodel.Atom
Atom
p288
(dp289
g3
g287
sg13
g1
sg14
I1
sg15
S'H'
sg16
I00
sg17
g8
((lp290
g283
atRp291
sg38
I00
sbsg39
g40
sg63
I0
sg15
S'H'
sg16
I00
sg64
(F412.91065925135189
F-198.02029874870519
F0.82857150003579871
tp292
sg66
(lp293
sg13
g1
sg68
g8
((lp294
g279
atRp295
sg90
g8
((lp296
(imodel.Bond
Bond
p297
(dp298
g94
g95
sg13
g1
sg39
g40
sg17
g8
((lp299
g264
ag283
atRp300
sbatRp301
sg38
I00
sbatRp302
sg39
g40
sg13
g1
sbatRp303
sg90
g8
((lp304
(imodel.Bond
Bond
p305
(dp306
g94
g95
sg13
g1
sg39
g40
sg17
g8
((lp307
g264
ag267
atRp308
sbatRp309
sg38
I00
sbag283
a(imodel.VarAtom
VarAtom
p310
(dp311
g21
g8
((lp312
g264
a(imodel.VarAtom
VarAtom
p313
(dp314
g21
g8
((lp315
(imodel.VarAtom
VarAtom
p316
(dp317
g21
g8
((lp318
g313
atRp319
sg3
S'H12_1'
p320
sg31
I00
sg32
Nsg33
(imodel.Atom
Atom
p321
(dp322
g3
g320
sg13
g1
sg14
I1
sg15
S'H'
sg16
I00
sg17
g8
((lp323
g316
atRp324
sg38
I00
sbsg39
g40
sg63
I0
sg15
S'H'
sg16
I00
sg64
(F311.35572316861385
F-184.0177081675991
F1.5586173316734646
tp325
sg66
(lp326
sg13
g1
sg68
g8
((lp327
(imodel.AtomGroup
AtomGroup
p328
(dp329
g72
g73
sg74
g8
((ltRp330
sg17
g8
((lp331
g316
a(imodel.VarAtom
VarAtom
p332
(dp333
g21
g8
((lp334
g313
atRp335
sg3
S'H12_2'
p336
sg31
I00
sg32
Nsg33
(imodel.Atom
Atom
p337
(dp338
g3
g336
sg13
g1
sg14
I1
sg15
S'H'
sg16
I00
sg17
g8
((lp339
g332
atRp340
sg38
I00
sbsg39
g40
sg63
I0
sg15
S'H'
sg16
I00
sg64
(F267.86927112054912
F-178.69297416344588
F1.4577780931828883
tp341
sg66
(lp342
sg13
g1
sg68
g8
((lp343
g328
atRp344
sg90
g8
((lp345
(imodel.Bond
Bond
p346
(dp347
g94
g95
sg13
g1
sg39
g40
sg17
g8
((lp348
g313
ag332
atRp349
sbatRp350
sg38
I00
sbatRp351
sg39
g40
sg13
g1
sbatRp352
sg90
g8
((lp353
(imodel.Bond
Bond
p354
(dp355
g94
g95
sg13
g1
sg39
g40
sg17
g8
((lp356
g313
ag316
atRp357
sbatRp358
sg38
I00
sbag332
a(imodel.VarAtom
VarAtom
p359
(dp360
g21
g8
((lp361
(imodel.VarAtom
VarAtom
p362
(dp363
g21
g8
((lp364
g359
atRp365
sg3
S'H11_1'
p366
sg31
I00
sg32
Nsg33
(imodel.Atom
Atom
p367
(dp368
g3
g366
sg13
g1
sg14
I1
sg15
S'H'
sg16
I00
sg17
g8
((lp369
g362
atRp370
sg38
I00
sbsg39
g40
sg63
I0
sg15
S'H'
sg16
I00
sg64
(F271.76497679038255
F-89.342496750599295
F1.7087030328349109
tp371
sg66
(lp372
sg13
g1
sg68
g8
((lp373
(imodel.AtomGroup
AtomGroup
p374
(dp375
g72
g73
sg74
g8
((ltRp376
sg17
g8
((lp377
g362
a(imodel.VarAtom
VarAtom
p378
(dp379
g21
g8
((lp380
g359
atRp381
sg3
S'H11_2'
p382
sg31
I00
sg32
Nsg33
(imodel.Atom
Atom
p383
(dp384
g3
g382
sg13
g1
sg14
I1
sg15
S'H'
sg16
I00
sg17
g8
((lp385
g378
atRp386
sg38
I00
sbsg39
g40
sg63
I0
sg15
S'H'
sg16
I00
sg64
(F227.96937883361295
F-84.194158051472101
F1.1693019000046512
tp387
sg66
(lp388
sg13
g1
sg68
g8
((lp389
g374
atRp390
sg90
g8
((lp391
(imodel.Bond
Bond
p392
(dp393
g94
g95
sg13
g1
sg39
g40
sg17
g8
((lp394
g359
ag378
atRp395
sbatRp396
sg38
I00
sbatRp397
sg39
g40
sg13
g1
sbatRp398
sg90
g8
((lp399
(imodel.Bond
Bond
p400
(dp401
g94
g95
sg13
g1
sg39
g40
sg17
g8
((lp402
g359
ag362
atRp403
sbatRp404
sg38
I00
sbag313
a(imodel.VarAtom
VarAtom
p405
(dp406
g21
g8
((lp407
(imodel.VarAtom
VarAtom
p408
(dp409
g21
g8
((lp410
g405
atRp411
sg3
S'H10_1'
p412
sg31
I00
sg32
Nsg33
(imodel.Atom
Atom
p413
(dp414
g3
g412
sg13
g1
sg14
I1
sg15
S'H'
sg16
I00
sg17
g8
((lp415
g408
atRp416
sg38
I00
sbsg39
g40
sg63
I0
sg15
S'H'
sg16
I00
sg64
(F167.94849750656107
F-165.87122578559774
F2.4219045169163955
tp417
sg66
(lp418
sg13
g1
sg68
g8
((lp419
(imodel.AtomGroup
AtomGroup
p420
(dp421
g72
g73
sg74
g8
((ltRp422
sg17
g8
((lp423
g408
a(imodel.VarAtom
VarAtom
p424
(dp425
g21
g8
((lp426
g405
atRp427
sg3
S'H10_2'
p428
sg31
I00
sg32
Nsg33
(imodel.Atom
Atom
p429
(dp430
g3
g428
sg13
g1
sg14
I1
sg15
S'H'
sg16
I00
sg17
g8
((lp431
g424
atRp432
sg38
I00
sbsg39
g40
sg63
I0
sg15
S'H'
sg16
I00
sg64
(F211.28922420973137
F-170.12002360957536
F2.166782791572337
tp433
sg66
(lp434
sg13
g1
sg68
g8
((lp435
g420
atRp436
sg90
g8
((lp437
(imodel.Bond
Bond
p438
(dp439
g94
g95
sg13
g1
sg39
g40
sg17
g8
((lp440
g405
ag424
atRp441
sbatRp442
sg38
I00
sbatRp443
sg39
g40
sg13
g1
sbatRp444
sg90
g8
((lp445
(imodel.Bond
Bond
p446
(dp447
g94
g95
sg13
g1
sg39
g40
sg17
g8
((lp448
g405
ag408
atRp449
sbatRp450
sg38
I00
sba(imodel.VarAtom
VarAtom
p451
(dp452
g21
g8
((lp453
(imodel.VarAtom
VarAtom
p454
(dp455
g21
g8
((lp456
g451
atRp457
sg3
S'H9_1'
p458
sg31
I00
sg32
Nsg33
(imodel.Atom
Atom
p459
(dp460
g3
g458
sg13
g1
sg14
I1
sg15
S'H'
sg16
I00
sg17
g8
((lp461
g454
atRp462
sg38
I00
sbsg39
g40
sg63
I0
sg15
S'H'
sg16
I00
sg64
(F169.12718216120462
F-76.83143083308795
F2.5955317564929032
tp463
sg66
(lp464
sg13
g1
sg68
g8
((lp465
(imodel.AtomGroup
AtomGroup
p466
(dp467
g72
g73
sg74
g8
((ltRp468
sg17
g8
((lp469
g454
a(imodel.VarAtom
VarAtom
p470
(dp471
g21
g8
((lp472
g451
atRp473
sg3
S'H9_2'
p474
sg31
I00
sg32
Nsg33
(imodel.Atom
Atom
p475
(dp476
g3
g474
sg13
g1
sg14
I1
sg15
S'H'
sg16
I00
sg17
g8
((lp477
g470
atRp478
sg38
I00
sbsg39
g40
sg63
I0
sg15
S'H'
sg16
I00
sg64
(F124.86929757586931
F-73.134746842055037
F2.2404484822764901
tp479
sg66
(lp480
sg13
g1
sg68
g8
((lp481
g466
atRp482
sg90
g8
((lp483
(imodel.Bond
Bond
p484
(dp485
g94
g95
sg13
g1
sg39
g40
sg17
g8
((lp486
g451
ag470
atRp487
sbatRp488
sg38
I00
sbatRp489
sg39
g40
sg13
g1
sbatRp490
sg90
g8
((lp491
(imodel.Bond
Bond
p492
(dp493
g94
g95
sg13
g1
sg39
g40
sg17
g8
((lp494
g451
ag454
atRp495
sbatRp496
sg38
I00
sbag405
ag470
a(imodel.VarAtom
VarAtom
p497
(dp498
g21
g8
((lp499
(imodel.VarAtom
VarAtom
p500
(dp501
g21
g8
((lp502
g497
a(imodel.VarAtom
VarAtom
p503
(dp504
g21
g8
((lp505
g500
atRp506
sg3
S'H7_1'
p507
sg31
I00
sg32
Nsg33
(imodel.Atom
Atom
p508
(dp509
g3
g507
sg13
g1
sg14
I1
sg15
S'H'
sg16
I00
sg17
g8
((lp510
g503
atRp511
sg38
I00
sbsg39
g40
sg63
I0
sg15
S'H'
sg16
I00
sg64
(F64.74751320217176
F-69.186393337176796
F1.3045750284788351
tp512
sg66
(lp513
sg13
g1
sg68
g8
((lp514
(imodel.AtomGroup
AtomGroup
p515
(dp516
g72
g73
sg74
g8
((ltRp517
sg17
g8
((lp518
g503
a(imodel.VarAtom
VarAtom
p519
(dp520
g21
g8
((lp521
g500
atRp522
sg3
S'H7_2'
p523
sg31
I00
sg32
Nsg33
(imodel.Atom
Atom
p524
(dp525
g3
g523
sg13
g1
sg14
I1
sg15
S'H'
sg16
I00
sg17
g8
((lp526
g519
atRp527
sg38
I00
sbsg39
g40
sg63
I0
sg15
S'H'
sg16
I00
sg64
(F20.117610998311839
F-67.885593991284722
F0.54915664098672035
tp528
sg66
(lp529
sg13
g1
sg68
g8
((lp530
g515
atRp531
sg90
g8
((lp532
(imodel.Bond
Bond
p533
(dp534
g94
g95
sg13
g1
sg39
g40
sg17
g8
((lp535
g500
ag519
atRp536
sbatRp537
sg38
I00
sbatRp538
sg39
g40
sg13
g1
sbatRp539
sg90
g8
((lp540
(imodel.Bond
Bond
p541
(dp542
g94
g95
sg13
g1
sg39
g40
sg17
g8
((lp543
g500
ag503
atRp544
sbatRp545
sg38
I00
sba(imodel.VarAtom
VarAtom
p546
(dp547
g21
g8
((lp548
g500
a(imodel.VarAtom
VarAtom
p549
(dp550
g21
g8
((lp551
g546
a(imodel.VarAtom
VarAtom
p552
(dp553
g21
g8
((lp554
g549
atRp555
sg3
S'H5_1'
p556
sg31
I00
sg32
Nsg33
(imodel.Atom
Atom
p557
(dp558
g3
g556
sg13
g1
sg14
I1
sg15
S'H'
sg16
I00
sg17
g8
((lp559
g552
atRp560
sg38
I00
sbsg39
g40
sg63
I0
sg15
S'H'
sg16
I00
sg64
(F-40.841681800699973
F-68.284003757379566
F1.4405649957310889
tp561
sg66
(lp562
sg13
g1
sg68
g8
((lp563
(imodel.AtomGroup
AtomGroup
p564
(dp565
g72
g73
sg74
g8
((ltRp566
sg17
g8
((lp567
g552
a(imodel.VarAtom
VarAtom
p568
(dp569
g21
g8
((lp570
g549
atRp571
sg3
S'H5_2'
p572
sg31
I00
sg32
Nsg33
(imodel.Atom
Atom
p573
(dp574
g3
g572
sg13
g1
sg14
I1
sg15
S'H'
sg16
I00
sg17
g8
((lp575
g568
atRp576
sg38
I00
sbsg39
g40
sg63
I0
sg15
S'H'
sg16
I00
sg64
(F-85.588074081215609
F-69.985558088083025
F1.4549871965517038
tp577
sg66
(lp578
sg13
g1
sg68
g8
((lp579
g564
atRp580
sg90
g8
((lp581
(imodel.Bond
Bond
p582
(dp583
g94
g95
sg13
g1
sg39
g40
sg17
g8
((lp584
g549
ag568
atRp585
sbatRp586
sg38
I00
sbatRp587
sg39
g40
sg13
g1
sbatRp588
sg90
g8
((lp589
(imodel.Bond
Bond
p590
(dp591
g94
g95
sg13
g1
sg39
g40
sg17
g8
((lp592
g549
ag552
atRp593
sbatRp594
sg38
I00
sbag568
a(imodel.VarAtom
VarAtom
p595
(dp596
g21
g8
((lp597
(imodel.VarAtom
VarAtom
p598
(dp599
g21
g8
((lp600
g595
ag23
a(imodel.VarAtom
VarAtom
p601
(dp602
g21
g8
((lp603
g598
atRp604
sg3
S'H3_1'
p605
sg31
I00
sg32
Nsg33
(imodel.Atom
Atom
p606
(dp607
g3
g605
sg13
g1
sg14
I1
sg15
S'H'
sg16
I00
sg17
g8
((lp608
g601
atRp609
sg38
I00
sbsg39
g40
sg63
I0
sg15
S'H'
sg16
I00
sg64
(F-146.728448545888
F-74.343561858521568
F2.476297450388369
tp610
sg66
(lp611
sg13
g1
sg68
g8
((lp612
(imodel.AtomGroup
AtomGroup
p613
(dp614
g72
g73
sg74
g8
((ltRp615
sg17
g8
((lp616
g601
a(imodel.VarAtom
VarAtom
p617
(dp618
g21
g8
((lp619
g598
atRp620
sg3
S'H3_2'
p621
sg31
I00
sg32
Nsg33
(imodel.Atom
Atom
p622
(dp623
g3
g621
sg13
g1
sg14
I1
sg15
S'H'
sg16
I00
sg17
g8
((lp624
g617
atRp625
sg38
I00
sbsg39
g40
sg63
I0
sg15
S'H'
sg16
I00
sg64
(F-191.34072719625769
F-80.504693193717017
F0.9931611104049195
tp626
sg66
(lp627
sg13
g1
sg68
g8
((lp628
g613
atRp629
sg90
g8
((lp630
(imodel.Bond
Bond
p631
(dp632
g94
g95
sg13
g1
sg39
g40
sg17
g8
((lp633
g598
ag617
atRp634
sbatRp635
sg38
I00
sbatRp636
sg39
g40
sg13
g1
sbatRp637
sg90
g8
((lp638
(imodel.Bond
Bond
p639
(dp640
g94
g95
sg13
g1
sg39
g40
sg17
g8
((lp641
g598
ag601
atRp642
sbatRp643
sg38
I00
sbag617
atRp644
sg3
S'C3'
p645
sg31
I00
sg32
Nsg33
(imodel.Atom
Atom
p646
(dp647
g3
g645
sg13
g1
sg14
I4
sg15
S'C'
sg16
I00
sg17
g8
((lp648
g598
atRp649
sg38
I00
sbsg39
g40
sg63
I0
sg15
S'C'
sg16
I00
sg64
(F-164.86470058958437
F-108.35550349644116
F0.86954125744445254
tp650
sg66
(lp651
sg13
g1
sg68
g8
((ltRp652
sg90
g8
((lp653
(imodel.Bond
Bond
p654
(dp655
g94
g95
sg13
g1
sg39
g40
sg17
g8
((lp656
g598
ag595
atRp657
sba(imodel.Bond
Bond
p658
(dp659
g94
g95
sg13
g1
sg39
g40
sg17
g8
((lp660
g598
ag23
atRp661
sbag631
ag639
atRp662
sg38
I00
sbag549
a(imodel.VarAtom
VarAtom
p663
(dp664
g21
g8
((lp665
g595
atRp666
sg3
S'H4_1'
p667
sg31
I00
sg32
Nsg33
(imodel.Atom
Atom
p668
(dp669
g3
g667
sg13
g1
sg14
I1
sg15
S'H'
sg16
I00
sg17
g8
((lp670
g663
atRp671
sg38
I00
sbsg39
g40
sg63
I0
sg15
S'H'
sg16
I00
sg64
(F-131.97401723041341
F-161.08578947320908
F1.9492184020570176
tp672
sg66
(lp673
sg13
g1
sg68
g8
((lp674
(imodel.AtomGroup
AtomGroup
p675
(dp676
g72
g73
sg74
g8
((ltRp677
sg17
g8
((lp678
g663
a(imodel.VarAtom
VarAtom
p679
(dp680
g21
g8
((lp681
g595
atRp682
sg3
S'H4_2'
p683
sg31
I00
sg32
Nsg33
(imodel.Atom
Atom
p684
(dp685
g3
g683
sg13
g1
sg14
I1
sg15
S'H'
sg16
I00
sg17
g8
((lp686
g679
atRp687
sg38
I00
sbsg39
g40
sg63
I0
sg15
S'H'
sg16
I00
sg64
(F-88.365018041906737
F-158.55681180516618
F1.7341345735567817
tp688
sg66
(lp689
sg13
g1
sg68
g8
((lp690
g675
atRp691
sg90
g8
((lp692
(imodel.Bond
Bond
p693
(dp694
g94
g95
sg13
g1
sg39
g40
sg17
g8
((lp695
g595
ag679
atRp696
sbatRp697
sg38
I00
sbatRp698
sg39
g40
sg13
g1
sbatRp699
sg90
g8
((lp700
(imodel.Bond
Bond
p701
(dp702
g94
g95
sg13
g1
sg39
g40
sg17
g8
((lp703
g595
ag663
atRp704
sbatRp705
sg38
I00
sbag679
atRp706
sg3
S'C4'
p707
sg31
I00
sg32
Nsg33
(imodel.Atom
Atom
p708
(dp709
g3
g707
sg13
g1
sg14
I4
sg15
S'C'
sg16
I00
sg17
g8
((lp710
g595
atRp711
sg38
I00
sbsg39
g40
sg63
I0
sg15
S'C'
sg16
I00
sg64
(F-112.00332901559636
F-128.21497111531698
F0.66326270898860129
tp712
sg66
(lp713
sg13
g1
sg68
g8
((ltRp714
sg90
g8
((lp715
g654
a(imodel.Bond
Bond
p716
(dp717
g94
g95
sg13
g1
sg39
g40
sg17
g8
((lp718
g549
ag595
atRp719
sbag701
ag693
atRp720
sg38
I00
sbatRp721
sg3
S'C5'
p722
sg31
I00
sg32
Nsg33
(imodel.Atom
Atom
p723
(dp724
g3
g722
sg13
g1
sg14
I4
sg15
S'C'
sg16
I00
sg17
g8
((lp725
g549
atRp726
sg38
I00
sbsg39
g40
sg63
I0
sg15
S'C'
sg16
I00
sg64
(F-62.029374255484854
F-100.461053906342
F1.8128133504033053
tp727
sg66
(lp728
sg13
g1
sg68
g8
((ltRp729
sg90
g8
((lp730
(imodel.Bond
Bond
p731
(dp732
g94
g95
sg13
g1
sg39
g40
sg17
g8
((lp733
g549
ag546
atRp734
sbag716
ag590
ag582
atRp735
sg38
I00
sba(imodel.VarAtom
VarAtom
p736
(dp737
g21
g8
((lp738
g546
atRp739
sg3
S'H6_1'
p740
sg31
I00
sg32
Nsg33
(imodel.Atom
Atom
p741
(dp742
g3
g740
sg13
g1
sg14
I1
sg15
S'H'
sg16
I00
sg17
g8
((lp743
g736
atRp744
sg38
I00
sbsg39
g40
sg63
I0
sg15
S'H'
sg16
I00
sg64
(F-31.76407890335474
F-155.71164171062125
F1.4477349794019896
tp745
sg66
(lp746
sg13
g1
sg68
g8
((lp747
(imodel.AtomGroup
AtomGroup
p748
(dp749
g72
g73
sg74
g8
((ltRp750
sg17
g8
((lp751
g736
a(imodel.VarAtom
VarAtom
p752
(dp753
g21
g8
((lp754
g546
atRp755
sg3
S'H6_2'
p756
sg31
I00
sg32
Nsg33
(imodel.Atom
Atom
p757
(dp758
g3
g756
sg13
g1
sg14
I1
sg15
S'H'
sg16
I00
sg17
g8
((lp759
g752
atRp760
sg38
I00
sbsg39
g40
sg63
I0
sg15
S'H'
sg16
I00
sg64
(F11.691289763693661
F-155.63390183022983
F2.1976812291939027
tp761
sg66
(lp762
sg13
g1
sg68
g8
((lp763
g748
atRp764
sg90
g8
((lp765
(imodel.Bond
Bond
p766
(dp767
g94
g95
sg13
g1
sg39
g40
sg17
g8
((lp768
g546
ag752
atRp769
sbatRp770
sg38
I00
sbatRp771
sg39
g40
sg13
g1
sbatRp772
sg90
g8
((lp773
(imodel.Bond
Bond
p774
(dp775
g94
g95
sg13
g1
sg39
g40
sg17
g8
((lp776
g546
ag736
atRp777
sbatRp778
sg38
I00
sbag752
atRp779
sg3
S'C6'
p780
sg31
I00
sg32
Nsg33
(imodel.Atom
Atom
p781
(dp782
g3
g780
sg13
g1
sg14
I4
sg15
S'C'
sg16
I00
sg17
g8
((lp783
g546
atRp784
sg38
I00
sbsg39
g40
sg63
I0
sg15
S'C'
sg16
I00
sg64
(F-10.101117451602015
F-123.95245715417089
F0.30467735782584848
tp785
sg66
(lp786
sg13
g1
sg68
g8
((ltRp787
sg90
g8
((lp788
g731
a(imodel.Bond
Bond
p789
(dp790
g94
g95
sg13
g1
sg39
g40
sg17
g8
((lp791
g546
ag500
atRp792
sbag766
ag774
atRp793
sg38
I00
sbag519
atRp794
sg3
S'C7'
p795
sg31
I00
sg32
Nsg33
(imodel.Atom
Atom
p796
(dp797
g3
g795
sg13
g1
sg14
I4
sg15
S'C'
sg16
I00
sg17
g8
((lp798
g500
atRp799
sg38
I00
sbsg39
g40
sg63
I0
sg15
S'C'
sg16
I00
sg64
(F41.523583846042506
F-99.917094920229971
F1.0819632202468064
tp800
sg66
(lp801
sg13
g1
sg68
g8
((ltRp802
sg90
g8
((lp803
(imodel.Bond
Bond
p804
(dp805
g94
g95
sg13
g1
sg39
g40
sg17
g8
((lp806
g497
ag500
atRp807
sbag789
ag533
ag541
atRp808
sg38
I00
sba(imodel.VarAtom
VarAtom
p809
(dp810
g21
g8
((lp811
g497
atRp812
sg3
S'H8_1'
p813
sg31
I00
sg32
Nsg33
(imodel.Atom
Atom
p814
(dp815
g3
g813
sg13
g1
sg14
I1
sg15
S'H'
sg16
I00
sg17
g8
((lp816
g809
atRp817
sg38
I00
sbsg39
g40
sg63
I0
sg15
S'H'
sg16
I00
sg64
(F111.60584056534171
F-159.93597038846625
F1.9237135091775839
tp818
sg66
(lp819
sg13
g1
sg68
g8
((lp820
(imodel.AtomGroup
AtomGroup
p821
(dp822
g72
g73
sg74
g8
((ltRp823
sg17
g8
((lp824
g809
a(imodel.VarAtom
VarAtom
p825
(dp826
g21
g8
((lp827
g497
atRp828
sg3
S'H8_2'
p829
sg31
I00
sg32
Nsg33
(imodel.Atom
Atom
p830
(dp831
g3
g829
sg13
g1
sg14
I1
sg15
S'H'
sg16
I00
sg17
g8
((lp832
g825
atRp833
sg38
I00
sbsg39
g40
sg63
I0
sg15
S'H'
sg16
I00
sg64
(F68.219866735694296
F-157.63554890293298
F1.0951597144723537
tp834
sg66
(lp835
sg13
g1
sg68
g8
((lp836
g821
atRp837
sg90
g8
((lp838
(imodel.Bond
Bond
p839
(dp840
g94
g95
sg13
g1
sg39
g40
sg17
g8
((lp841
g497
ag825
atRp842
sbatRp843
sg38
I00
sbatRp844
sg39
g40
sg13
g1
sbatRp845
sg90
g8
((lp846
(imodel.Bond
Bond
p847
(dp848
g94
g95
sg13
g1
sg39
g40
sg17
g8
((lp849
g497
ag809
atRp850
sbatRp851
sg38
I00
sbag825
ag451
atRp852
sg3
S'C8'
p853
sg31
I00
sg32
Nsg33
(imodel.Atom
Atom
p854
(dp855
g3
g853
sg13
g1
sg14
I4
sg15
S'C'
sg16
I00
sg17
g8
((lp856
g497
atRp857
sg38
I00
sbsg39
g40
sg63
I0
sg15
S'C'
sg16
I00
sg64
(F91.603200837118266
F-127.09680203110911
F0.9457705002408453
tp858
sg66
(lp859
sg13
g1
sg68
g8
((ltRp860
sg90
g8
((lp861
g804
a(imodel.Bond
Bond
p862
(dp863
g94
g95
sg13
g1
sg39
g40
sg17
g8
((lp864
g497
ag451
atRp865
sbag847
ag839
atRp866
sg38
I00
sbatRp867
sg3
S'C9'
p868
sg31
I00
sg32
Nsg33
(imodel.Atom
Atom
p869
(dp870
g3
g868
sg13
g1
sg14
I4
sg15
S'C'
sg16
I00
sg17
g8
((lp871
g451
atRp872
sg38
I00
sbsg39
g40
sg63
I0
sg15
S'C'
sg16
I00
sg64
(F144.38295969596911
F-106.34660360722278
F0.95680155449087823
tp873
sg66
(lp874
sg13
g1
sg68
g8
((ltRp875
sg90
g8
((lp876
(imodel.Bond
Bond
p877
(dp878
g94
g95
sg13
g1
sg39
g40
sg17
g8
((lp879
g405
ag451
atRp880
sbag862
ag492
ag484
atRp881
sg38
I00
sbag424
ag359
atRp882
sg3
S'C10'
p883
sg31
I00
sg32
Nsg33
(imodel.Atom
Atom
p884
(dp885
g3
g883
sg13
g1
sg14
I4
sg15
S'C'
sg16
I00
sg17
g8
((lp886
g405
atRp887
sg38
I00
sbsg39
g40
sg63
I0
sg15
S'C'
sg16
I00
sg64
(F192.72774343554622
F-136.43353052094696
F0.72588832242030199
tp888
sg66
(lp889
sg13
g1
sg68
g8
((ltRp890
sg90
g8
((lp891
g877
a(imodel.Bond
Bond
p892
(dp893
g94
g95
sg13
g1
sg39
g40
sg17
g8
((lp894
g359
ag405
atRp895
sbag446
ag438
atRp896
sg38
I00
sbag378
atRp897
sg3
S'C11'
p898
sg31
I00
sg32
Nsg33
(imodel.Atom
Atom
p899
(dp900
g3
g898
sg13
g1
sg14
I4
sg15
S'C'
sg16
I00
sg17
g8
((lp901
g359
atRp902
sg38
I00
sbsg39
g40
sg63
I0
sg15
S'C'
sg16
I00
sg64
(F246.18291838536013
F-118.12270669588189
F1.888763504409684
tp903
sg66
(lp904
sg13
g1
sg68
g8
((ltRp905
sg90
g8
((lp906
(imodel.Bond
Bond
p907
(dp908
g94
g95
sg13
g1
sg39
g40
sg17
g8
((lp909
g359
ag313
atRp910
sbag892
ag400
ag392
atRp911
sg38
I00
sbag310
atRp912
sg3
S'C12'
p913
sg31
I00
sg32
Nsg33
(imodel.Atom
Atom
p914
(dp915
g3
g913
sg13
g1
sg14
I4
sg15
S'C'
sg16
I00
sg17
g8
((lp916
g313
atRp917
sg38
I00
sbsg39
g40
sg63
I0
sg15
S'C'
sg16
I00
sg64
(F293.46283018317951
F-149.94174177495319
F0.59912799276427819
tp918
sg66
(lp919
sg13
g1
sg68
g8
((ltRp920
sg90
g8
((lp921
g907
a(imodel.Bond
Bond
p922
(dp923
g94
g95
sg13
g1
sg39
g40
sg17
g8
((lp924
g313
ag310
atRp925
sbag354
ag346
atRp926
sg38
I00
sba(imodel.VarAtom
VarAtom
p927
(dp928
g21
g8
((lp929
g310
atRp930
sg3
S'H13_1'
p931
sg31
I00
sg32
Nsg33
(imodel.Atom
Atom
p932
(dp933
g3
g931
sg13
g1
sg14
I1
sg15
S'H'
sg16
I00
sg17
g8
((lp934
g927
atRp935
sg38
I00
sbsg39
g40
sg63
I0
sg15
S'H'
sg16
I00
sg64
(F329.20351921480017
F-98.462246338197417
F1.0731560365519179
tp936
sg66
(lp937
sg13
g1
sg68
g8
((lp938
(imodel.AtomGroup
AtomGroup
p939
(dp940
g72
g73
sg74
g8
((ltRp941
sg17
g8
((lp942
g927
a(imodel.VarAtom
VarAtom
p943
(dp944
g21
g8
((lp945
g310
atRp946
sg3
S'H13_2'
p947
sg31
I00
sg32
Nsg33
(imodel.Atom
Atom
p948
(dp949
g3
g947
sg13
g1
sg14
I1
sg15
S'H'
sg16
I00
sg17
g8
((lp950
g943
atRp951
sg38
I00
sbsg39
g40
sg63
I0
sg15
S'H'
sg16
I00
sg64
(F372.66174353421701
F-103.7101561669155
F0.68808282782456232
tp952
sg66
(lp953
sg13
g1
sg68
g8
((lp954
g939
atRp955
sg90
g8
((lp956
(imodel.Bond
Bond
p957
(dp958
g94
g95
sg13
g1
sg39
g40
sg17
g8
((lp959
g310
ag943
atRp960
sbatRp961
sg38
I00
sbatRp962
sg39
g40
sg13
g1
sbatRp963
sg90
g8
((lp964
(imodel.Bond
Bond
p965
(dp966
g94
g95
sg13
g1
sg39
g40
sg17
g8
((lp967
g310
ag927
atRp968
sbatRp969
sg38
I00
sbag943
atRp970
sg3
S'C13'
p971
sg31
I00
sg32
Nsg33
(imodel.Atom
Atom
p972
(dp973
g3
g971
sg13
g1
sg14
I4
sg15
S'C'
sg16
I00
sg17
g8
((lp974
g310
atRp975
sg38
I00
sbsg39
g40
sg63
I0
sg15
S'C'
sg16
I00
sg64
(F347.13310149665722
F-132.51353387184446
F1.7407301889209359
tp976
sg66
(lp977
sg13
g1
sg68
g8
((ltRp978
sg90
g8
((lp979
(imodel.Bond
Bond
p980
(dp981
g94
g95
sg13
g1
sg39
g40
sg17
g8
((lp982
g310
ag264
atRp983
sbag922
ag957
ag965
atRp984
sg38
I00
sbag48
atRp985
sg3
S'C14'
p986
sg31
I00
sg32
Nsg33
(imodel.Atom
Atom
p987
(dp988
g3
g986
sg13
g1
sg14
I4
sg15
S'C'
sg16
I00
sg17
g8
((lp989
g264
atRp990
sg38
I00
sbsg39
g40
sg63
I0
sg15
S'C'
sg16
I00
sg64
(F394.56342189038162
F-164.15503341658879
F1.4096441252694352
tp991
sg66
(lp992
sg13
g1
sg68
g8
((ltRp993
sg90
g8
((lp994
g980
a(imodel.Bond
Bond
p995
(dp996
g94
g95
sg13
g1
sg39
g40
sg17
g8
((lp997
g48
ag264
atRp998
sbag297
ag305
atRp999
sg38
I00
sba(imodel.VarAtom
VarAtom
p1000
(dp1001
g21
g8
((lp1002
g48
atRp1003
sg3
S'H15_1'
p1004
sg31
I00
sg32
Nsg33
(imodel.Atom
Atom
p1005
(dp1006
g3
g1004
sg13
g1
sg14
I1
sg15
S'H'
sg16
I00
sg17
g8
((lp1007
g1000
atRp1008
sg38
I00
sbsg39
g40
sg63
I0
sg15
S'H'
sg16
I00
sg64
(F429.24937801315627
F-111.88418481130219
F1.136601937907787
tp1009
sg66
(lp1010
sg13
g1
sg68
g8
((lp1011
(imodel.AtomGroup
AtomGroup
p1012
(dp1013
g72
g73
sg74
g8
((ltRp1014
sg17
g8
((lp1015
g1000
ag45
atRp1016
sg39
g40
sg13
g1
sbatRp1017
sg90
g8
((lp1018
(imodel.Bond
Bond
p1019
(dp1020
g94
g95
sg13
g1
sg39
g40
sg17
g8
((lp1021
g48
ag1000
atRp1022
sbatRp1023
sg38
I00
sbag45
atRp1024
sg3
S'C15'
p1025
sg31
I00
sg32
Nsg33
(imodel.Atom
Atom
p1026
(dp1027
g3
g1025
sg13
g1
sg14
I4
sg15
S'C'
sg16
I00
sg17
g8
((lp1028
g48
atRp1029
sg38
I00
sbsg39
g40
sg63
I0
sg15
S'C'
sg16
I00
sg64
(F447.98404366344431
F-145.46979426390993
F1.404879210437312
tp1030
sg66
(lp1031
sg13
g1
sg68
g8
((ltRp1032
sg90
g8
((lp1033
g259
ag995
ag1019
a(imodel.Bond
Bond
p1034
(dp1035
g94
g95
sg13
g1
sg39
g40
sg17
g8
((lp1036
g48
ag45
atRp1037
sbatRp1038
sg38
I00
sbatRp1039
sg3
S'H15_2'
p1040
sg31
I00
sg32
Nsg33
(imodel.Atom
Atom
p1041
(dp1042
g3
g1040
sg13
g1
sg14
I1
sg15
S'H'
sg16
I00
sg17
g8
((lp1043
g45
atRp1044
sg38
I00
sbsg39
g40
sg63
I0
sg15
S'H'
sg16
I00
sg64
(F472.65955819004142
F-115.95992208556957
F0.95188125949346414
tp1045
sg66
(lp1046
sg13
g1
sg68
g8
((lp1047
g1012
atRp1048
sg90
g8
((lp1049
g1034
atRp1050
sg38
I00
sbag26
ag130
ag927
ag113
ag454
a(imodel.VarAtom
VarAtom
p1051
(dp1052
g21
g8
((lp1053
g19
atRp1054
sg3
S'H1_1'
p1055
sg31
I00
sg32
Nsg33
(imodel.Atom
Atom
p1056
(dp1057
g3
g1055
sg13
g1
sg14
I1
sg15
S'H'
sg16
I00
sg17
g8
((lp1058
g1051
atRp1059
sg38
I00
sbsg39
g40
sg63
I0
sg15
S'H'
sg16
I00
sg64
(F-300.09057112413848
F-97.340424369539264
F1.7569858392866269
tp1060
sg66
(lp1061
sg13
g1
sg68
g8
((lp1062
(imodel.AtomGroup
AtomGroup
p1063
(dp1064
g72
g73
sg74
g8
((ltRp1065
sg17
g8
((lp1066
g1051
a(imodel.VarAtom
VarAtom
p1067
(dp1068
g21
g8
((lp1069
g19
atRp1070
sg3
S'H1_2'
p1071
sg31
I00
sg32
Nsg33
(imodel.Atom
Atom
p1072
(dp1073
g3
g1071
sg13
g1
sg14
I1
sg15
S'H'
sg16
I00
sg17
g8
((lp1074
g1067
atRp1075
sg38
I00
sbsg39
g40
sg63
I0
sg15
S'H'
sg16
I00
sg64
(F-255.68405657272419
F-76.323904592656149
F1.3403396979829885
tp1076
sg66
(lp1077
sg13
g1
sg68
g8
((lp1078
g1063
atRp1079
sg90
g8
((lp1080
(imodel.Bond
Bond
p1081
(dp1082
g94
g95
sg13
g1
sg39
g40
sg17
g8
((lp1083
g19
ag1067
atRp1084
sbatRp1085
sg38
I00
sbatRp1086
sg39
g40
sg13
g1
sbatRp1087
sg90
g8
((lp1088
(imodel.Bond
Bond
p1089
(dp1090
g94
g95
sg13
g1
sg39
g40
sg17
g8
((lp1091
g19
ag1051
atRp1092
sbatRp1093
sg38
I00
sbag332
ag825
a(imodel.VarAtom
VarAtom
p1094
(dp1095
g21
g8
((lp1096
g23
atRp1097
sg3
S'H2_2'
p1098
sg31
I00
sg32
Nsg33
(imodel.Atom
Atom
p1099
(dp1100
g3
g1098
sg13
g1
sg14
I1
sg15
S'H'
sg16
I00
sg17
g8
((lp1101
g1094
atRp1102
sg38
I00
sbsg39
g40
sg63
I0
sg15
S'H'
sg16
I00
sg64
(F-189.83195097420449
F-167.96162892967885
F1.9048920915973713
tp1103
sg66
(lp1104
sg13
g1
sg68
g8
((lp1105
(imodel.AtomGroup
AtomGroup
p1106
(dp1107
g72
g73
sg74
g8
((ltRp1108
sg17
g8
((lp1109
g26
ag1094
atRp1110
sg39
g40
sg13
g1
sbatRp1111
sg90
g8
((lp1112
(imodel.Bond
Bond
p1113
(dp1114
g94
g95
sg13
g1
sg39
g40
sg17
g8
((lp1115
g23
ag1094
atRp1116
sbatRp1117
sg38
I00
sbag736
ag568
ag679
ag283
ag378
ag408
ag362
ag77
ag149
ag424
ag267
ag503
ag191
ag54
ag207
ag1067
ag943
ag601
ag1000
ag663
ag617
ag752
ag809
ag470
ag552
ag519
ag316
atRp1118
sS'C'
g8
((lp1119
g51
ag107
ag546
ag19
ag598
ag23
ag313
ag310
ag359
ag110
ag497
ag48
ag595
ag549
ag405
ag500
ag451
ag264
atRp1120
ssg90
g8
((lp1121
g980
ag862
ag957
ag446
ag346
ag400
ag244
ag1081
ag492
ag392
ag766
ag639
ag221
ag877
a(imodel.Bond
Bond
p1122
(dp1123
g94
g95
sg13
g1
sg39
g40
sg17
g8
((lp1124
g19
ag23
atRp1125
sbag354
a(imodel.Bond
Bond
p1126
(dp1127
g94
g95
sg13
g1
sg39
g40
sg17
g8
((lp1128
g23
ag26
atRp1129
sbag533
ag438
ag1089
ag922
ag297
ag144
ag582
ag774
ag186
ag305
ag847
ag484
ag907
ag789
ag1019
ag590
ag839
ag163
ag171
ag1034
ag259
ag92
ag658
ag102
ag995
ag716
ag731
ag654
ag229
ag892
ag1113
ag804
ag541
ag965
ag693
ag701
ag631
atRp1130
sg13
g1
sS'atomDict'
p1131
(dp1132
g10
g19
sg972
g310
sg524
g519
sg741
g736
sg814
g809
sg914
g313
sg830
g825
s(imodel.Atom
Atom
p1133
(dp1134
g3
S'C2'
p1135
sg13
g1
sg14
I4
sg15
S'C'
sg16
I00
sg17
g8
((lp1136
g23
atRp1137
sg38
I00
sbg23
sg869
g451
sg723
g549
sg1005
g1000
sg135
g130
sg899
g359
sg251
g51
sg178
g110
sg557
g552
sg606
g601
sg475
g470
sg459
g454
sg932
g927
sg987
g264
sg646
g598
sg429
g424
sg573
g568
sg236
g107
sg1026
g48
sg272
g267
sg321
g316
sg781
g546
sg367
g362
sg154
g149
sg34
g26
sg948
g943
sg508
g503
sg668
g663
sg383
g378
sg708
g595
sg288
g283
sg1099
g1094
sg118
g113
sg413
g408
sg854
g497
sg622
g617
sg757
g752
sg1041
g45
sg82
g77
sg337
g332
sg59
g54
sg884
g405
sg1056
g1051
sg684
g679
sg796
g500
sg1072
g1067
sg212
g207
sg196
g191
ssS'descriptor'
p1138
(S'neutral'
p1139
S'none'
p1140
S'default'
p1141
tp1142
sg17
g8
((lp1143
g51
ag26
ag130
ag283
ag310
ag113
ag546
ag405
ag552
ag149
ag19
ag927
ag332
ag752
ag454
ag598
ag77
ag679
ag451
ag54
ag809
ag378
ag48
ag362
ag825
ag549
ag45
ag110
ag107
ag424
ag497
ag503
ag191
ag264
ag207
ag595
ag359
ag267
ag408
ag943
ag500
ag601
ag568
ag1000
ag1067
ag617
ag23
ag313
ag1051
ag470
ag736
ag519
ag1094
ag663
ag316
atRp1144
sg68
g8
((lp1145
g564
ag203
ag515
ag466
ag613
ag125
ag328
ag279
ag1012
ag675
ag374
ag821
ag420
ag939
ag748
ag70
ag1063
ag1106
atRp1146
sS'polyLink'
p1147
g1140
sbsg63
I0
sg15
S'H'
sg16
I00
sg64
(F-234.01103050587449
F-171.39590894972531
F1.9665733715510059
tp1148
sg66
(lp1149
sg13
g1
sg68
g8
((lp1150
g1106
atRp1151
sg90
g8
((lp1152
g1126
atRp1153
sg38
I00
sbag19
ag1094
ag598
atRp1154
sg3
g1135
sg31
I00
sg32
Nsg33
g1133
sg39
g40
sg63
I0
sg15
S'C'
sg16
I00
sg64
(F-214.09909809141308
F-138.06167839114724
F0.49890305950752822
tp1155
sg66
(lp1156
sg13
g1
sg68
g8
((ltRp1157
sg90
g8
((lp1158
g1122
ag658
ag1126
ag1113
atRp1159
sg38
I00
sbag1051
ag1067
atRp1160
sg3
g12
sg31
I00
sg32
Nsg33
g10
sg39
g40
sg63
I0
sg15
S'C'
sg16
I00
sg64
(F-264.70674287706987
F-113.9930523015278
F1.2646790501332976
tp1161
sg66
(lp1162
F3.5834962153930148
asg13
g1
sg68
g8
((ltRp1163
sg90
g8
((lp1164
g1122
ag1089
ag1081
atRp1165
sg38
I00
sbatRp1166
sg38
I00
sbag972
ag524
ag741
ag814
ag914
ag830
ag1133
ag869
ag723
ag1005
ag135
ag899
ag251
ag178
ag557
ag606
ag475
ag459
ag932
ag987
ag646
ag429
ag573
ag236
ag1026
ag272
ag321
ag781
ag367
ag154
ag34
ag948
ag508
ag668
ag383
ag708
ag288
ag1099
ag118
ag413
ag854
ag622
ag757
ag1041
ag82
ag337
ag59
ag884
ag1056
ag684
ag796
ag1072
ag212
ag196
atRp1167
sS'ccpMolType'
p1168
S'other'
p1169
sS'details'
p1170
V
sg1131
(dp1171
g474
g475
sg458
g459
sg621
g622
sg605
g606
sg868
g869
sg853
g854
sg683
g684
sg645
g646
sg1135
g1133
sg12
g10
sg795
g796
sg780
g781
sg722
g723
sg707
g708
sg195
g196
sg211
g212
sg287
g288
sg756
g757
sg740
g741
sg947
g948
sg1098
g1099
sg30
g34
sg1040
g1041
sg1004
g1005
sg556
g557
sg829
g830
sg572
g573
sg320
g321
sg813
g814
sg177
g178
sg971
g972
sg913
g914
sg898
g899
sg883
g884
sg235
g236
sg250
g251
sg1025
g1026
sg986
g987
sg667
g668
sg153
g154
sg134
g135
sg117
g118
sg523
g524
sg507
g508
sg428
g429
sg412
g413
sg1055
g1056
sg1071
g1072
sg58
g59
sg81
g82
sg931
g932
sg271
g272
sg336
g337
sg382
g383
sg366
g367
ssS'keywords'
p1172
g8
((ltRp1173
sg68
g8
((lp1174
g564
ag203
ag515
ag466
ag613
ag125
ag328
ag279
ag1012
ag675
ag374
ag821
ag420
ag939
ag748
ag70
ag1063
ag1106
atRp1175
sS'variants'
p1176
g8
((lp1177
g40
atRp1178
sS'defaultVars'
p1179
g8
((ltRp1180
sb.