(imodel.Compound
Compound
p1
(dp2
S'name'
p3
S'Unnamed'
p4
sS'isModified'
p5
I01
sS'ccpCode'
p6
NsS'atoms'
p7
c__builtin__
set
p8
((lp9
(imodel.Atom
Atom
p10
(dp11
g3
S'C1'
p12
sS'compound'
p13
g1
sS'baseValences'
p14
I4
sS'element'
p15
S'C'
sS'isVariable'
p16
I00
sS'varAtoms'
p17
g8
((lp18
(imodel.VarAtom
VarAtom
p19
(dp20
S'neighbours'
p21
g8
((lp22
(imodel.VarAtom
VarAtom
p23
(dp24
g21
g8
((lp25
(imodel.VarAtom
VarAtom
p26
(dp27
g21
g8
((lp28
g23
atRp29
sg3
S'H2_1'
p30
sS'isLabile'
p31
I00
sS'chirality'
p32
NsS'atom'
p33
(imodel.Atom
Atom
p34
(dp35
g3
g30
sg13
g1
sg14
I1
sg15
S'H'
sg16
I00
sg17
g8
((lp36
g26
atRp37
sS'isDeleted'
p38
I00
sbsS'variant'
p39
(imodel.Variant
Variant
p40
(dp41
S'elementDict'
p42
(dp43
S'H'
g8
((lp44
(imodel.VarAtom
VarAtom
p45
(dp46
g21
g8
((lp47
(imodel.VarAtom
VarAtom
p48
(dp49
g21
g8
((lp50
(imodel.VarAtom
VarAtom
p51
(dp52
g21
g8
((lp53
(imodel.VarAtom
VarAtom
p54
(dp55
g21
g8
((lp56
g51
atRp57
sg3
S'H16_1'
p58
sg31
I00
sg32
Nsg33
(imodel.Atom
Atom
p59
(dp60
g3
g58
sg13
g1
sg14
I1
sg15
S'H'
sg16
I00
sg17
g8
((lp61
g54
atRp62
sg38
I00
sbsg39
g40
sS'charge'
p63
I0
sg15
S'H'
sg16
I00
sS'coords'
p64
(F472.2026185569128
F-204.57417548187217
F1.9501639370908781
tp65
sS'freeValences'
p66
(lp67
sg13
g1
sS'atomGroups'
p68
g8
((lp69
(imodel.AtomGroup
AtomGroup
p70
(dp71
S'groupType'
p72
S'prochiral'
p73
sS'subGroups'
p74
g8
((ltRp75
sg17
g8
((lp76
g54
a(imodel.VarAtom
VarAtom
p77
(dp78
g21
g8
((lp79
g51
atRp80
sg3
S'H16_2'
p81
sg31
I00
sg32
Nsg33
(imodel.Atom
Atom
p82
(dp83
g3
g81
sg13
g1
sg14
I1
sg15
S'H'
sg16
I00
sg17
g8
((lp84
g77
atRp85
sg38
I00
sbsg39
g40
sg63
I0
sg15
S'H'
sg16
I00
sg64
(F516.54245643795355
F-207.88872285816313
F1.46826435353052
tp86
sg66
(lp87
sg13
g1
sg68
g8
((lp88
g70
atRp89
sS'bonds'
p90
g8
((lp91
(imodel.Bond
Bond
p92
(dp93
S'bondType'
p94
S'single'
p95
sg13
g1
sg39
g40
sg17
g8
((lp96
g51
ag77
atRp97
sbatRp98
sg38
I00
sbatRp99
sg39
g40
sg13
g1
sbatRp100
sg90
g8
((lp101
(imodel.Bond
Bond
p102
(dp103
g94
g95
sg13
g1
sg39
g40
sg17
g8
((lp104
g51
ag54
atRp105
sbatRp106
sg38
I00
sbag77
ag48
a(imodel.VarAtom
VarAtom
p107
(dp108
g21
g8
((lp109
g51
a(imodel.VarAtom
VarAtom
p110
(dp111
g21
g8
((lp112
(imodel.VarAtom
VarAtom
p113
(dp114
g21
g8
((lp115
g110
a(imodel.VarAtom
VarAtom
p116
(dp117
g21
g8
((lp118
g113
atRp119
sg3
S'H19_1'
p120
sg31
I00
sg32
Nsg33
(imodel.Atom
Atom
p121
(dp122
g3
g120
sg13
g1
sg14
I1
sg15
S'H'
sg16
I00
sg17
g8
((lp123
g116
atRp124
sg38
I00
sbsg39
g40
sg63
I0
sg15
S'H'
sg16
I00
sg64
(F675.91528447450332
F-126.7443028295648
F1.0172394388864316
tp125
sg66
(lp126
sg13
g1
sg68
g8
((lp127
(imodel.AtomGroup
AtomGroup
p128
(dp129
g72
g73
sg74
g8
((ltRp130
sg17
g8
((lp131
g116
a(imodel.VarAtom
VarAtom
p132
(dp133
g21
g8
((lp134
g113
atRp135
sg3
S'H19_2'
p136
sg31
I00
sg32
Nsg33
(imodel.Atom
Atom
p137
(dp138
g3
g136
sg13
g1
sg14
I1
sg15
S'H'
sg16
I00
sg17
g8
((lp139
g132
atRp140
sg38
I00
sbsg39
g40
sg63
I0
sg15
S'H'
sg16
I00
sg64
(F631.65247819498904
F-124.31862219580556
F2.0264207042063647
tp141
sg66
(lp142
sg13
g1
sg68
g8
((lp143
g128
atRp144
sg90
g8
((lp145
(imodel.Bond
Bond
p146
(dp147
g94
g95
sg13
g1
sg39
g40
sg17
g8
((lp148
g113
ag132
atRp149
sbatRp150
sg38
I00
sbatRp151
sg39
g40
sg13
g1
sbatRp152
sg90
g8
((lp153
(imodel.Bond
Bond
p154
(dp155
g94
g95
sg13
g1
sg39
g40
sg17
g8
((lp156
g113
ag116
atRp157
sbatRp158
sg38
I00
sba(imodel.VarAtom
VarAtom
p159
(dp160
g21
g8
((lp161
g113
a(imodel.VarAtom
VarAtom
p162
(dp163
g21
g8
((lp164
g159
atRp165
sg3
S'H20_1'
p166
sg31
I00
sg32
Nsg33
(imodel.Atom
Atom
p167
(dp168
g3
g166
sg13
g1
sg14
I1
sg15
S'H'
sg16
I00
sg17
g8
((lp169
g162
atRp170
sg38
I00
sbsg39
g40
sg63
I0
sg15
S'H'
sg16
I00
sg64
(F684.79791572401007
F-223.97465520443689
F1.2585160111711753
tp171
sg66
(lp172
sg13
g1
sg68
g8
((lp173
(imodel.AtomGroup
AtomGroup
p174
(dp175
g72
S'equivalent'
p176
sg74
g8
((ltRp177
sg17
g8
((lp178
g162
a(imodel.VarAtom
VarAtom
p179
(dp180
g21
g8
((lp181
g159
atRp182
sg3
S'H20_2'
p183
sg31
I00
sg32
Nsg33
(imodel.Atom
Atom
p184
(dp185
g3
g183
sg13
g1
sg14
I1
sg15
S'H'
sg16
I00
sg17
g8
((lp186
g179
atRp187
sg38
I00
sbsg39
g40
sg63
I0
sg15
S'H'
sg16
I00
sg64
(F731.60915939748259
F-209.05288733705186
F1.7423532473654362
tp188
sg66
(lp189
sg13
g1
sg68
g8
((lp190
g174
atRp191
sg90
g8
((lp192
(imodel.Bond
Bond
p193
(dp194
g94
g95
sg13
g1
sg39
g40
sg17
g8
((lp195
g159
ag179
atRp196
sbatRp197
sg38
I00
sba(imodel.VarAtom
VarAtom
p198
(dp199
g21
g8
((lp200
g159
atRp201
sg3
S'H20_3'
p202
sg31
I00
sg32
Nsg33
(imodel.Atom
Atom
p203
(dp204
g3
g202
sg13
g1
sg14
I1
sg15
S'H'
sg16
I00
sg17
g8
((lp205
g198
atRp206
sg38
I00
sbsg39
g40
sg63
I0
sg15
S'H'
sg16
I00
sg64
(F725.25565035967827
F-159.53994795718953
F1.142818173664172
tp207
sg66
(lp208
sg13
g1
sg68
g8
((lp209
g174
atRp210
sg90
g8
((lp211
(imodel.Bond
Bond
p212
(dp213
g94
g95
sg13
g1
sg39
g40
sg17
g8
((lp214
g159
ag198
atRp215
sbatRp216
sg38
I00
sbatRp217
sg39
g40
sg13
g1
sbatRp218
sg90
g8
((lp219
(imodel.Bond
Bond
p220
(dp221
g94
g95
sg13
g1
sg39
g40
sg17
g8
((lp222
g159
ag162
atRp223
sbatRp224
sg38
I00
sbag179
ag198
atRp225
sg3
S'C20'
p226
sg31
I00
sg32
Nsg33
(imodel.Atom
Atom
p227
(dp228
g3
g226
sg13
g1
sg14
I4
sg15
S'C'
sg16
I00
sg17
g8
((lp229
g159
atRp230
sg38
I00
sbsg39
g40
sg63
I0
sg15
S'C'
sg16
I00
sg64
(F698.75613961036265
F-187.83976528048817
F1.2542259725125526
tp231
sg66
(lp232
sg13
g1
sg68
g8
((ltRp233
sg90
g8
((lp234
(imodel.Bond
Bond
p235
(dp236
g94
g95
sg13
g1
sg39
g40
sg17
g8
((lp237
g159
ag113
atRp238
sbag212
ag220
ag193
atRp239
sg38
I00
sbag132
atRp240
sg3
S'C19'
p241
sg31
I00
sg32
Nsg33
(imodel.Atom
Atom
p242
(dp243
g3
g241
sg13
g1
sg14
I4
sg15
S'C'
sg16
I00
sg17
g8
((lp244
g113
atRp245
sg38
I00
sbsg39
g40
sg63
I0
sg15
S'C'
sg16
I00
sg64
(F651.77051980121007
F-157.1512073246584
F0.76096832754209631
tp246
sg66
(lp247
sg13
g1
sg68
g8
((ltRp248
sg90
g8
((lp249
g235
a(imodel.Bond
Bond
p250
(dp251
g94
g95
sg13
g1
sg39
g40
sg17
g8
((lp252
g113
ag110
atRp253
sbag146
ag154
atRp254
sg38
I00
sbag107
a(imodel.VarAtom
VarAtom
p255
(dp256
g21
g8
((lp257
g110
atRp258
sg3
S'H18_1'
p259
sg31
I00
sg32
Nsg33
(imodel.Atom
Atom
p260
(dp261
g3
g259
sg13
g1
sg14
I1
sg15
S'H'
sg16
I00
sg17
g8
((lp262
g255
atRp263
sg38
I00
sbsg39
g40
sg63
I0
sg15
S'H'
sg16
I00
sg64
(F576.93081749376609
F-211.54837896177727
F1.5575456170879116
tp264
sg66
(lp265
sg13
g1
sg68
g8
((lp266
(imodel.AtomGroup
AtomGroup
p267
(dp268
g72
g73
sg74
g8
((ltRp269
sg17
g8
((lp270
g255
a(imodel.VarAtom
VarAtom
p271
(dp272
g21
g8
((lp273
g110
atRp274
sg3
S'H18_2'
p275
sg31
I00
sg32
Nsg33
(imodel.Atom
Atom
p276
(dp277
g3
g275
sg13
g1
sg14
I1
sg15
S'H'
sg16
I00
sg17
g8
((lp278
g271
atRp279
sg38
I00
sbsg39
g40
sg63
I0
sg15
S'H'
sg16
I00
sg64
(F621.81810524387447
F-210.96142561320008
F1.3449524706676312
tp280
sg66
(lp281
sg13
g1
sg68
g8
((lp282
g267
atRp283
sg90
g8
((lp284
(imodel.Bond
Bond
p285
(dp286
g94
g95
sg13
g1
sg39
g40
sg17
g8
((lp287
g110
ag271
atRp288
sbatRp289
sg38
I00
sbatRp290
sg39
g40
sg13
g1
sbatRp291
sg90
g8
((lp292
(imodel.Bond
Bond
p293
(dp294
g94
g95
sg13
g1
sg39
g40
sg17
g8
((lp295
g110
ag255
atRp296
sbatRp297
sg38
I00
sbag271
atRp298
sg3
S'C18'
p299
sg31
I00
sg32
Nsg33
(imodel.Atom
Atom
p300
(dp301
g3
g299
sg13
g1
sg14
I4
sg15
S'C'
sg16
I00
sg17
g8
((lp302
g110
atRp303
sg38
I00
sbsg39
g40
sg63
I0
sg15
S'C'
sg16
I00
sg64
(F599.07185367851127
F-179.99449052924797
F0.47689582406345787
tp304
sg66
(lp305
sg13
g1
sg68
g8
((ltRp306
sg90
g8
((lp307
(imodel.Bond
Bond
p308
(dp309
g94
g95
sg13
g1
sg39
g40
sg17
g8
((lp310
g110
ag107
atRp311
sbag250
ag285
ag293
atRp312
sg38
I00
sba(imodel.VarAtom
VarAtom
p313
(dp314
g21
g8
((lp315
g107
atRp316
sg3
S'H17_1'
p317
sg31
I00
sg32
Nsg33
(imodel.Atom
Atom
p318
(dp319
g3
g317
sg13
g1
sg14
I1
sg15
S'H'
sg16
I00
sg17
g8
((lp320
g313
atRp321
sg38
I00
sbsg39
g40
sg63
I0
sg15
S'H'
sg16
I00
sg64
(F573.18211039113407
F-123.17525831681397
F1.719730298463938
tp322
sg66
(lp323
sg13
g1
sg68
g8
((lp324
(imodel.AtomGroup
AtomGroup
p325
(dp326
g72
g73
sg74
g8
((ltRp327
sg17
g8
((lp328
g313
a(imodel.VarAtom
VarAtom
p329
(dp330
g21
g8
((lp331
g107
atRp332
sg3
S'H17_2'
p333
sg31
I00
sg32
Nsg33
(imodel.Atom
Atom
p334
(dp335
g3
g333
sg13
g1
sg14
I1
sg15
S'H'
sg16
I00
sg17
g8
((lp336
g329
atRp337
sg38
I00
sbsg39
g40
sg63
I0
sg15
S'H'
sg16
I00
sg64
(F529.49519592135186
F-120.5081632720813
F1.4302692458294102
tp338
sg66
(lp339
sg13
g1
sg68
g8
((lp340
g325
atRp341
sg90
g8
((lp342
(imodel.Bond
Bond
p343
(dp344
g94
g95
sg13
g1
sg39
g40
sg17
g8
((lp345
g107
ag329
atRp346
sbatRp347
sg38
I00
sbatRp348
sg39
g40
sg13
g1
sbatRp349
sg90
g8
((lp350
(imodel.Bond
Bond
p351
(dp352
g94
g95
sg13
g1
sg39
g40
sg17
g8
((lp353
g107
ag313
atRp354
sbatRp355
sg38
I00
sbag329
atRp356
sg3
S'C17'
p357
sg31
I00
sg32
Nsg33
(imodel.Atom
Atom
p358
(dp359
g3
g357
sg13
g1
sg14
I4
sg15
S'C'
sg16
I00
sg17
g8
((lp360
g107
atRp361
sg38
I00
sbsg39
g40
sg63
I0
sg15
S'C'
sg16
I00
sg64
(F549.40167409920514
F-153.42068692238178
F1.6884971104927566
tp362
sg66
(lp363
sg13
g1
sg68
g8
((ltRp364
sg90
g8
((lp365
(imodel.Bond
Bond
p366
(dp367
g94
g95
sg13
g1
sg39
g40
sg17
g8
((lp368
g51
ag107
atRp369
sbag308
ag351
ag343
atRp370
sg38
I00
sbatRp371
sg3
S'C16'
p372
sg31
I00
sg32
Nsg33
(imodel.Atom
Atom
p373
(dp374
g3
g372
sg13
g1
sg14
I4
sg15
S'C'
sg16
I00
sg17
g8
((lp375
g51
atRp376
sg38
I00
sbsg39
g40
sg63
I0
sg15
S'C'
sg16
I00
sg64
(F496.72101428040634
F-174.86366818600129
F1.4132082819573868
tp377
sg66
(lp378
sg13
g1
sg68
g8
((ltRp379
sg90
g8
((lp380
(imodel.Bond
Bond
p381
(dp382
g94
g95
sg13
g1
sg39
g40
sg17
g8
((lp383
g51
ag48
atRp384
sbag366
ag102
ag92
atRp385
sg38
I00
sba(imodel.VarAtom
VarAtom
p386
(dp387
g21
g8
((lp388
(imodel.VarAtom
VarAtom
p389
(dp390
g21
g8
((lp391
g386
atRp392
sg3
S'H14_1'
p393
sg31
I00
sg32
Nsg33
(imodel.Atom
Atom
p394
(dp395
g3
g393
sg13
g1
sg14
I1
sg15
S'H'
sg16
I00
sg17
g8
((lp396
g389
atRp397
sg38
I00
sbsg39
g40
sg63
I0
sg15
S'H'
sg16
I00
sg64
(F369.02613270981396
F-192.9761349944153
F0.73192899318357696
tp398
sg66
(lp399
sg13
g1
sg68
g8
((lp400
(imodel.AtomGroup
AtomGroup
p401
(dp402
g72
g73
sg74
g8
((ltRp403
sg17
g8
((lp404
g389
a(imodel.VarAtom
VarAtom
p405
(dp406
g21
g8
((lp407
g386
atRp408
sg3
S'H14_2'
p409
sg31
I00
sg32
Nsg33
(imodel.Atom
Atom
p410
(dp411
g3
g409
sg13
g1
sg14
I1
sg15
S'H'
sg16
I00
sg17
g8
((lp412
g405
atRp413
sg38
I00
sbsg39
g40
sg63
I0
sg15
S'H'
sg16
I00
sg64
(F412.91065925135189
F-198.02029874870519
F0.82857150003579871
tp414
sg66
(lp415
sg13
g1
sg68
g8
((lp416
g401
atRp417
sg90
g8
((lp418
(imodel.Bond
Bond
p419
(dp420
g94
g95
sg13
g1
sg39
g40
sg17
g8
((lp421
g386
ag405
atRp422
sbatRp423
sg38
I00
sbatRp424
sg39
g40
sg13
g1
sbatRp425
sg90
g8
((lp426
(imodel.Bond
Bond
p427
(dp428
g94
g95
sg13
g1
sg39
g40
sg17
g8
((lp429
g386
ag389
atRp430
sbatRp431
sg38
I00
sbag405
a(imodel.VarAtom
VarAtom
p432
(dp433
g21
g8
((lp434
g386
a(imodel.VarAtom
VarAtom
p435
(dp436
g21
g8
((lp437
(imodel.VarAtom
VarAtom
p438
(dp439
g21
g8
((lp440
g435
atRp441
sg3
S'H12_1'
p442
sg31
I00
sg32
Nsg33
(imodel.Atom
Atom
p443
(dp444
g3
g442
sg13
g1
sg14
I1
sg15
S'H'
sg16
I00
sg17
g8
((lp445
g438
atRp446
sg38
I00
sbsg39
g40
sg63
I0
sg15
S'H'
sg16
I00
sg64
(F311.35572316861385
F-184.0177081675991
F1.5586173316734646
tp447
sg66
(lp448
sg13
g1
sg68
g8
((lp449
(imodel.AtomGroup
AtomGroup
p450
(dp451
g72
g73
sg74
g8
((ltRp452
sg17
g8
((lp453
g438
a(imodel.VarAtom
VarAtom
p454
(dp455
g21
g8
((lp456
g435
atRp457
sg3
S'H12_2'
p458
sg31
I00
sg32
Nsg33
(imodel.Atom
Atom
p459
(dp460
g3
g458
sg13
g1
sg14
I1
sg15
S'H'
sg16
I00
sg17
g8
((lp461
g454
atRp462
sg38
I00
sbsg39
g40
sg63
I0
sg15
S'H'
sg16
I00
sg64
(F267.86927112054912
F-178.69297416344588
F1.4577780931828883
tp463
sg66
(lp464
sg13
g1
sg68
g8
((lp465
g450
atRp466
sg90
g8
((lp467
(imodel.Bond
Bond
p468
(dp469
g94
g95
sg13
g1
sg39
g40
sg17
g8
((lp470
g435
ag454
atRp471
sbatRp472
sg38
I00
sbatRp473
sg39
g40
sg13
g1
sbatRp474
sg90
g8
((lp475
(imodel.Bond
Bond
p476
(dp477
g94
g95
sg13
g1
sg39
g40
sg17
g8
((lp478
g435
ag438
atRp479
sbatRp480
sg38
I00
sbag454
a(imodel.VarAtom
VarAtom
p481
(dp482
g21
g8
((lp483
(imodel.VarAtom
VarAtom
p484
(dp485
g21
g8
((lp486
g481
atRp487
sg3
S'H11_1'
p488
sg31
I00
sg32
Nsg33
(imodel.Atom
Atom
p489
(dp490
g3
g488
sg13
g1
sg14
I1
sg15
S'H'
sg16
I00
sg17
g8
((lp491
g484
atRp492
sg38
I00
sbsg39
g40
sg63
I0
sg15
S'H'
sg16
I00
sg64
(F271.76497679038255
F-89.342496750599295
F1.7087030328349109
tp493
sg66
(lp494
sg13
g1
sg68
g8
((lp495
(imodel.AtomGroup
AtomGroup
p496
(dp497
g72
g73
sg74
g8
((ltRp498
sg17
g8
((lp499
g484
a(imodel.VarAtom
VarAtom
p500
(dp501
g21
g8
((lp502
g481
atRp503
sg3
S'H11_2'
p504
sg31
I00
sg32
Nsg33
(imodel.Atom
Atom
p505
(dp506
g3
g504
sg13
g1
sg14
I1
sg15
S'H'
sg16
I00
sg17
g8
((lp507
g500
atRp508
sg38
I00
sbsg39
g40
sg63
I0
sg15
S'H'
sg16
I00
sg64
(F227.96937883361295
F-84.194158051472101
F1.1693019000046512
tp509
sg66
(lp510
sg13
g1
sg68
g8
((lp511
g496
atRp512
sg90
g8
((lp513
(imodel.Bond
Bond
p514
(dp515
g94
g95
sg13
g1
sg39
g40
sg17
g8
((lp516
g481
ag500
atRp517
sbatRp518
sg38
I00
sbatRp519
sg39
g40
sg13
g1
sbatRp520
sg90
g8
((lp521
(imodel.Bond
Bond
p522
(dp523
g94
g95
sg13
g1
sg39
g40
sg17
g8
((lp524
g481
ag484
atRp525
sbatRp526
sg38
I00
sbag435
a(imodel.VarAtom
VarAtom
p527
(dp528
g21
g8
((lp529
(imodel.VarAtom
VarAtom
p530
(dp531
g21
g8
((lp532
g527
atRp533
sg3
S'H10_1'
p534
sg31
I00
sg32
Nsg33
(imodel.Atom
Atom
p535
(dp536
g3
g534
sg13
g1
sg14
I1
sg15
S'H'
sg16
I00
sg17
g8
((lp537
g530
atRp538
sg38
I00
sbsg39
g40
sg63
I0
sg15
S'H'
sg16
I00
sg64
(F167.94849750656107
F-165.87122578559774
F2.4219045169163955
tp539
sg66
(lp540
sg13
g1
sg68
g8
((lp541
(imodel.AtomGroup
AtomGroup
p542
(dp543
g72
g73
sg74
g8
((ltRp544
sg17
g8
((lp545
g530
a(imodel.VarAtom
VarAtom
p546
(dp547
g21
g8
((lp548
g527
atRp549
sg3
S'H10_2'
p550
sg31
I00
sg32
Nsg33
(imodel.Atom
Atom
p551
(dp552
g3
g550
sg13
g1
sg14
I1
sg15
S'H'
sg16
I00
sg17
g8
((lp553
g546
atRp554
sg38
I00
sbsg39
g40
sg63
I0
sg15
S'H'
sg16
I00
sg64
(F211.28922420973137
F-170.12002360957536
F2.166782791572337
tp555
sg66
(lp556
sg13
g1
sg68
g8
((lp557
g542
atRp558
sg90
g8
((lp559
(imodel.Bond
Bond
p560
(dp561
g94
g95
sg13
g1
sg39
g40
sg17
g8
((lp562
g527
ag546
atRp563
sbatRp564
sg38
I00
sbatRp565
sg39
g40
sg13
g1
sbatRp566
sg90
g8
((lp567
(imodel.Bond
Bond
p568
(dp569
g94
g95
sg13
g1
sg39
g40
sg17
g8
((lp570
g527
ag530
atRp571
sbatRp572
sg38
I00
sba(imodel.VarAtom
VarAtom
p573
(dp574
g21
g8
((lp575
(imodel.VarAtom
VarAtom
p576
(dp577
g21
g8
((lp578
g573
atRp579
sg3
S'H9_1'
p580
sg31
I00
sg32
Nsg33
(imodel.Atom
Atom
p581
(dp582
g3
g580
sg13
g1
sg14
I1
sg15
S'H'
sg16
I00
sg17
g8
((lp583
g576
atRp584
sg38
I00
sbsg39
g40
sg63
I0
sg15
S'H'
sg16
I00
sg64
(F169.12718216120462
F-76.83143083308795
F2.5955317564929032
tp585
sg66
(lp586
sg13
g1
sg68
g8
((lp587
(imodel.AtomGroup
AtomGroup
p588
(dp589
g72
g73
sg74
g8
((ltRp590
sg17
g8
((lp591
g576
a(imodel.VarAtom
VarAtom
p592
(dp593
g21
g8
((lp594
g573
atRp595
sg3
S'H9_2'
p596
sg31
I00
sg32
Nsg33
(imodel.Atom
Atom
p597
(dp598
g3
g596
sg13
g1
sg14
I1
sg15
S'H'
sg16
I00
sg17
g8
((lp599
g592
atRp600
sg38
I00
sbsg39
g40
sg63
I0
sg15
S'H'
sg16
I00
sg64
(F124.86929757586931
F-73.134746842055037
F2.2404484822764901
tp601
sg66
(lp602
sg13
g1
sg68
g8
((lp603
g588
atRp604
sg90
g8
((lp605
(imodel.Bond
Bond
p606
(dp607
g94
g95
sg13
g1
sg39
g40
sg17
g8
((lp608
g573
ag592
atRp609
sbatRp610
sg38
I00
sbatRp611
sg39
g40
sg13
g1
sbatRp612
sg90
g8
((lp613
(imodel.Bond
Bond
p614
(dp615
g94
g95
sg13
g1
sg39
g40
sg17
g8
((lp616
g573
ag576
atRp617
sbatRp618
sg38
I00
sbag527
ag592
a(imodel.VarAtom
VarAtom
p619
(dp620
g21
g8
((lp621
(imodel.VarAtom
VarAtom
p622
(dp623
g21
g8
((lp624
g619
a(imodel.VarAtom
VarAtom
p625
(dp626
g21
g8
((lp627
g622
atRp628
sg3
S'H7_1'
p629
sg31
I00
sg32
Nsg33
(imodel.Atom
Atom
p630
(dp631
g3
g629
sg13
g1
sg14
I1
sg15
S'H'
sg16
I00
sg17
g8
((lp632
g625
atRp633
sg38
I00
sbsg39
g40
sg63
I0
sg15
S'H'
sg16
I00
sg64
(F64.74751320217176
F-69.186393337176796
F1.3045750284788351
tp634
sg66
(lp635
sg13
g1
sg68
g8
((lp636
(imodel.AtomGroup
AtomGroup
p637
(dp638
g72
g73
sg74
g8
((ltRp639
sg17
g8
((lp640
g625
a(imodel.VarAtom
VarAtom
p641
(dp642
g21
g8
((lp643
g622
atRp644
sg3
S'H7_2'
p645
sg31
I00
sg32
Nsg33
(imodel.Atom
Atom
p646
(dp647
g3
g645
sg13
g1
sg14
I1
sg15
S'H'
sg16
I00
sg17
g8
((lp648
g641
atRp649
sg38
I00
sbsg39
g40
sg63
I0
sg15
S'H'
sg16
I00
sg64
(F20.117610998311839
F-67.885593991284722
F0.54915664098672035
tp650
sg66
(lp651
sg13
g1
sg68
g8
((lp652
g637
atRp653
sg90
g8
((lp654
(imodel.Bond
Bond
p655
(dp656
g94
g95
sg13
g1
sg39
g40
sg17
g8
((lp657
g622
ag641
atRp658
sbatRp659
sg38
I00
sbatRp660
sg39
g40
sg13
g1
sbatRp661
sg90
g8
((lp662
(imodel.Bond
Bond
p663
(dp664
g94
g95
sg13
g1
sg39
g40
sg17
g8
((lp665
g622
ag625
atRp666
sbatRp667
sg38
I00
sba(imodel.VarAtom
VarAtom
p668
(dp669
g21
g8
((lp670
g622
a(imodel.VarAtom
VarAtom
p671
(dp672
g21
g8
((lp673
g668
a(imodel.VarAtom
VarAtom
p674
(dp675
g21
g8
((lp676
g671
atRp677
sg3
S'H5_1'
p678
sg31
I00
sg32
Nsg33
(imodel.Atom
Atom
p679
(dp680
g3
g678
sg13
g1
sg14
I1
sg15
S'H'
sg16
I00
sg17
g8
((lp681
g674
atRp682
sg38
I00
sbsg39
g40
sg63
I0
sg15
S'H'
sg16
I00
sg64
(F-40.841681800699973
F-68.284003757379566
F1.4405649957310889
tp683
sg66
(lp684
sg13
g1
sg68
g8
((lp685
(imodel.AtomGroup
AtomGroup
p686
(dp687
g72
g73
sg74
g8
((ltRp688
sg17
g8
((lp689
g674
a(imodel.VarAtom
VarAtom
p690
(dp691
g21
g8
((lp692
g671
atRp693
sg3
S'H5_2'
p694
sg31
I00
sg32
Nsg33
(imodel.Atom
Atom
p695
(dp696
g3
g694
sg13
g1
sg14
I1
sg15
S'H'
sg16
I00
sg17
g8
((lp697
g690
atRp698
sg38
I00
sbsg39
g40
sg63
I0
sg15
S'H'
sg16
I00
sg64
(F-85.588074081215609
F-69.985558088083025
F1.4549871965517038
tp699
sg66
(lp700
sg13
g1
sg68
g8
((lp701
g686
atRp702
sg90
g8
((lp703
(imodel.Bond
Bond
p704
(dp705
g94
g95
sg13
g1
sg39
g40
sg17
g8
((lp706
g671
ag690
atRp707
sbatRp708
sg38
I00
sbatRp709
sg39
g40
sg13
g1
sbatRp710
sg90
g8
((lp711
(imodel.Bond
Bond
p712
(dp713
g94
g95
sg13
g1
sg39
g40
sg17
g8
((lp714
g671
ag674
atRp715
sbatRp716
sg38
I00
sbag690
a(imodel.VarAtom
VarAtom
p717
(dp718
g21
g8
((lp719
(imodel.VarAtom
VarAtom
p720
(dp721
g21
g8
((lp722
g717
ag23
a(imodel.VarAtom
VarAtom
p723
(dp724
g21
g8
((lp725
g720
atRp726
sg3
S'H3_1'
p727
sg31
I00
sg32
Nsg33
(imodel.Atom
Atom
p728
(dp729
g3
g727
sg13
g1
sg14
I1
sg15
S'H'
sg16
I00
sg17
g8
((lp730
g723
atRp731
sg38
I00
sbsg39
g40
sg63
I0
sg15
S'H'
sg16
I00
sg64
(F-146.728448545888
F-74.343561858521568
F2.476297450388369
tp732
sg66
(lp733
sg13
g1
sg68
g8
((lp734
(imodel.AtomGroup
AtomGroup
p735
(dp736
g72
g73
sg74
g8
((ltRp737
sg17
g8
((lp738
g723
a(imodel.VarAtom
VarAtom
p739
(dp740
g21
g8
((lp741
g720
atRp742
sg3
S'H3_2'
p743
sg31
I00
sg32
Nsg33
(imodel.Atom
Atom
p744
(dp745
g3
g743
sg13
g1
sg14
I1
sg15
S'H'
sg16
I00
sg17
g8
((lp746
g739
atRp747
sg38
I00
sbsg39
g40
sg63
I0
sg15
S'H'
sg16
I00
sg64
(F-191.34072719625769
F-80.504693193717017
F0.9931611104049195
tp748
sg66
(lp749
sg13
g1
sg68
g8
((lp750
g735
atRp751
sg90
g8
((lp752
(imodel.Bond
Bond
p753
(dp754
g94
g95
sg13
g1
sg39
g40
sg17
g8
((lp755
g720
ag739
atRp756
sbatRp757
sg38
I00
sbatRp758
sg39
g40
sg13
g1
sbatRp759
sg90
g8
((lp760
(imodel.Bond
Bond
p761
(dp762
g94
g95
sg13
g1
sg39
g40
sg17
g8
((lp763
g720
ag723
atRp764
sbatRp765
sg38
I00
sbag739
atRp766
sg3
S'C3'
p767
sg31
I00
sg32
Nsg33
(imodel.Atom
Atom
p768
(dp769
g3
g767
sg13
g1
sg14
I4
sg15
S'C'
sg16
I00
sg17
g8
((lp770
g720
atRp771
sg38
I00
sbsg39
g40
sg63
I0
sg15
S'C'
sg16
I00
sg64
(F-164.86470058958437
F-108.35550349644116
F0.86954125744445254
tp772
sg66
(lp773
sg13
g1
sg68
g8
((ltRp774
sg90
g8
((lp775
(imodel.Bond
Bond
p776
(dp777
g94
g95
sg13
g1
sg39
g40
sg17
g8
((lp778
g720
ag717
atRp779
sba(imodel.Bond
Bond
p780
(dp781
g94
g95
sg13
g1
sg39
g40
sg17
g8
((lp782
g720
ag23
atRp783
sbag753
ag761
atRp784
sg38
I00
sbag671
a(imodel.VarAtom
VarAtom
p785
(dp786
g21
g8
((lp787
g717
atRp788
sg3
S'H4_1'
p789
sg31
I00
sg32
Nsg33
(imodel.Atom
Atom
p790
(dp791
g3
g789
sg13
g1
sg14
I1
sg15
S'H'
sg16
I00
sg17
g8
((lp792
g785
atRp793
sg38
I00
sbsg39
g40
sg63
I0
sg15
S'H'
sg16
I00
sg64
(F-131.97401723041341
F-161.08578947320908
F1.9492184020570176
tp794
sg66
(lp795
sg13
g1
sg68
g8
((lp796
(imodel.AtomGroup
AtomGroup
p797
(dp798
g72
g73
sg74
g8
((ltRp799
sg17
g8
((lp800
g785
a(imodel.VarAtom
VarAtom
p801
(dp802
g21
g8
((lp803
g717
atRp804
sg3
S'H4_2'
p805
sg31
I00
sg32
Nsg33
(imodel.Atom
Atom
p806
(dp807
g3
g805
sg13
g1
sg14
I1
sg15
S'H'
sg16
I00
sg17
g8
((lp808
g801
atRp809
sg38
I00
sbsg39
g40
sg63
I0
sg15
S'H'
sg16
I00
sg64
(F-88.365018041906737
F-158.55681180516618
F1.7341345735567817
tp810
sg66
(lp811
sg13
g1
sg68
g8
((lp812
g797
atRp813
sg90
g8
((lp814
(imodel.Bond
Bond
p815
(dp816
g94
g95
sg13
g1
sg39
g40
sg17
g8
((lp817
g717
ag801
atRp818
sbatRp819
sg38
I00
sbatRp820
sg39
g40
sg13
g1
sbatRp821
sg90
g8
((lp822
(imodel.Bond
Bond
p823
(dp824
g94
g95
sg13
g1
sg39
g40
sg17
g8
((lp825
g717
ag785
atRp826
sbatRp827
sg38
I00
sbag801
atRp828
sg3
S'C4'
p829
sg31
I00
sg32
Nsg33
(imodel.Atom
Atom
p830
(dp831
g3
g829
sg13
g1
sg14
I4
sg15
S'C'
sg16
I00
sg17
g8
((lp832
g717
atRp833
sg38
I00
sbsg39
g40
sg63
I0
sg15
S'C'
sg16
I00
sg64
(F-112.00332901559636
F-128.21497111531698
F0.66326270898860129
tp834
sg66
(lp835
sg13
g1
sg68
g8
((ltRp836
sg90
g8
((lp837
g776
a(imodel.Bond
Bond
p838
(dp839
g94
g95
sg13
g1
sg39
g40
sg17
g8
((lp840
g671
ag717
atRp841
sbag823
ag815
atRp842
sg38
I00
sbatRp843
sg3
S'C5'
p844
sg31
I00
sg32
Nsg33
(imodel.Atom
Atom
p845
(dp846
g3
g844
sg13
g1
sg14
I4
sg15
S'C'
sg16
I00
sg17
g8
((lp847
g671
atRp848
sg38
I00
sbsg39
g40
sg63
I0
sg15
S'C'
sg16
I00
sg64
(F-62.029374255484854
F-100.461053906342
F1.8128133504033053
tp849
sg66
(lp850
sg13
g1
sg68
g8
((ltRp851
sg90
g8
((lp852
(imodel.Bond
Bond
p853
(dp854
g94
g95
sg13
g1
sg39
g40
sg17
g8
((lp855
g671
ag668
atRp856
sbag838
ag712
ag704
atRp857
sg38
I00
sba(imodel.VarAtom
VarAtom
p858
(dp859
g21
g8
((lp860
g668
atRp861
sg3
S'H6_1'
p862
sg31
I00
sg32
Nsg33
(imodel.Atom
Atom
p863
(dp864
g3
g862
sg13
g1
sg14
I1
sg15
S'H'
sg16
I00
sg17
g8
((lp865
g858
atRp866
sg38
I00
sbsg39
g40
sg63
I0
sg15
S'H'
sg16
I00
sg64
(F-31.76407890335474
F-155.71164171062125
F1.4477349794019896
tp867
sg66
(lp868
sg13
g1
sg68
g8
((lp869
(imodel.AtomGroup
AtomGroup
p870
(dp871
g72
g73
sg74
g8
((ltRp872
sg17
g8
((lp873
g858
a(imodel.VarAtom
VarAtom
p874
(dp875
g21
g8
((lp876
g668
atRp877
sg3
S'H6_2'
p878
sg31
I00
sg32
Nsg33
(imodel.Atom
Atom
p879
(dp880
g3
g878
sg13
g1
sg14
I1
sg15
S'H'
sg16
I00
sg17
g8
((lp881
g874
atRp882
sg38
I00
sbsg39
g40
sg63
I0
sg15
S'H'
sg16
I00
sg64
(F11.691289763693661
F-155.63390183022983
F2.1976812291939027
tp883
sg66
(lp884
sg13
g1
sg68
g8
((lp885
g870
atRp886
sg90
g8
((lp887
(imodel.Bond
Bond
p888
(dp889
g94
g95
sg13
g1
sg39
g40
sg17
g8
((lp890
g668
ag874
atRp891
sbatRp892
sg38
I00
sbatRp893
sg39
g40
sg13
g1
sbatRp894
sg90
g8
((lp895
(imodel.Bond
Bond
p896
(dp897
g94
g95
sg13
g1
sg39
g40
sg17
g8
((lp898
g668
ag858
atRp899
sbatRp900
sg38
I00
sbag874
atRp901
sg3
S'C6'
p902
sg31
I00
sg32
Nsg33
(imodel.Atom
Atom
p903
(dp904
g3
g902
sg13
g1
sg14
I4
sg15
S'C'
sg16
I00
sg17
g8
((lp905
g668
atRp906
sg38
I00
sbsg39
g40
sg63
I0
sg15
S'C'
sg16
I00
sg64
(F-10.101117451602015
F-123.95245715417089
F0.30467735782584848
tp907
sg66
(lp908
sg13
g1
sg68
g8
((ltRp909
sg90
g8
((lp910
g853
a(imodel.Bond
Bond
p911
(dp912
g94
g95
sg13
g1
sg39
g40
sg17
g8
((lp913
g668
ag622
atRp914
sbag888
ag896
atRp915
sg38
I00
sbag641
atRp916
sg3
S'C7'
p917
sg31
I00
sg32
Nsg33
(imodel.Atom
Atom
p918
(dp919
g3
g917
sg13
g1
sg14
I4
sg15
S'C'
sg16
I00
sg17
g8
((lp920
g622
atRp921
sg38
I00
sbsg39
g40
sg63
I0
sg15
S'C'
sg16
I00
sg64
(F41.523583846042506
F-99.917094920229971
F1.0819632202468064
tp922
sg66
(lp923
sg13
g1
sg68
g8
((ltRp924
sg90
g8
((lp925
(imodel.Bond
Bond
p926
(dp927
g94
g95
sg13
g1
sg39
g40
sg17
g8
((lp928
g619
ag622
atRp929
sbag911
ag655
ag663
atRp930
sg38
I00
sba(imodel.VarAtom
VarAtom
p931
(dp932
g21
g8
((lp933
g619
atRp934
sg3
S'H8_1'
p935
sg31
I00
sg32
Nsg33
(imodel.Atom
Atom
p936
(dp937
g3
g935
sg13
g1
sg14
I1
sg15
S'H'
sg16
I00
sg17
g8
((lp938
g931
atRp939
sg38
I00
sbsg39
g40
sg63
I0
sg15
S'H'
sg16
I00
sg64
(F111.60584056534171
F-159.93597038846625
F1.9237135091775839
tp940
sg66
(lp941
sg13
g1
sg68
g8
((lp942
(imodel.AtomGroup
AtomGroup
p943
(dp944
g72
g73
sg74
g8
((ltRp945
sg17
g8
((lp946
g931
a(imodel.VarAtom
VarAtom
p947
(dp948
g21
g8
((lp949
g619
atRp950
sg3
S'H8_2'
p951
sg31
I00
sg32
Nsg33
(imodel.Atom
Atom
p952
(dp953
g3
g951
sg13
g1
sg14
I1
sg15
S'H'
sg16
I00
sg17
g8
((lp954
g947
atRp955
sg38
I00
sbsg39
g40
sg63
I0
sg15
S'H'
sg16
I00
sg64
(F68.219866735694296
F-157.63554890293298
F1.0951597144723537
tp956
sg66
(lp957
sg13
g1
sg68
g8
((lp958
g943
atRp959
sg90
g8
((lp960
(imodel.Bond
Bond
p961
(dp962
g94
g95
sg13
g1
sg39
g40
sg17
g8
((lp963
g619
ag947
atRp964
sbatRp965
sg38
I00
sbatRp966
sg39
g40
sg13
g1
sbatRp967
sg90
g8
((lp968
(imodel.Bond
Bond
p969
(dp970
g94
g95
sg13
g1
sg39
g40
sg17
g8
((lp971
g619
ag931
atRp972
sbatRp973
sg38
I00
sbag947
ag573
atRp974
sg3
S'C8'
p975
sg31
I00
sg32
Nsg33
(imodel.Atom
Atom
p976
(dp977
g3
g975
sg13
g1
sg14
I4
sg15
S'C'
sg16
I00
sg17
g8
((lp978
g619
atRp979
sg38
I00
sbsg39
g40
sg63
I0
sg15
S'C'
sg16
I00
sg64
(F91.603200837118266
F-127.09680203110911
F0.9457705002408453
tp980
sg66
(lp981
sg13
g1
sg68
g8
((ltRp982
sg90
g8
((lp983
g926
a(imodel.Bond
Bond
p984
(dp985
g94
g95
sg13
g1
sg39
g40
sg17
g8
((lp986
g619
ag573
atRp987
sbag969
ag961
atRp988
sg38
I00
sbatRp989
sg3
S'C9'
p990
sg31
I00
sg32
Nsg33
(imodel.Atom
Atom
p991
(dp992
g3
g990
sg13
g1
sg14
I4
sg15
S'C'
sg16
I00
sg17
g8
((lp993
g573
atRp994
sg38
I00
sbsg39
g40
sg63
I0
sg15
S'C'
sg16
I00
sg64
(F144.38295969596911
F-106.34660360722278
F0.95680155449087823
tp995
sg66
(lp996
sg13
g1
sg68
g8
((ltRp997
sg90
g8
((lp998
(imodel.Bond
Bond
p999
(dp1000
g94
g95
sg13
g1
sg39
g40
sg17
g8
((lp1001
g527
ag573
atRp1002
sbag984
ag614
ag606
atRp1003
sg38
I00
sbag546
ag481
atRp1004
sg3
S'C10'
p1005
sg31
I00
sg32
Nsg33
(imodel.Atom
Atom
p1006
(dp1007
g3
g1005
sg13
g1
sg14
I4
sg15
S'C'
sg16
I00
sg17
g8
((lp1008
g527
atRp1009
sg38
I00
sbsg39
g40
sg63
I0
sg15
S'C'
sg16
I00
sg64
(F192.72774343554622
F-136.43353052094696
F0.72588832242030199
tp1010
sg66
(lp1011
sg13
g1
sg68
g8
((ltRp1012
sg90
g8
((lp1013
g999
a(imodel.Bond
Bond
p1014
(dp1015
g94
g95
sg13
g1
sg39
g40
sg17
g8
((lp1016
g481
ag527
atRp1017
sbag568
ag560
atRp1018
sg38
I00
sbag500
atRp1019
sg3
S'C11'
p1020
sg31
I00
sg32
Nsg33
(imodel.Atom
Atom
p1021
(dp1022
g3
g1020
sg13
g1
sg14
I4
sg15
S'C'
sg16
I00
sg17
g8
((lp1023
g481
atRp1024
sg38
I00
sbsg39
g40
sg63
I0
sg15
S'C'
sg16
I00
sg64
(F246.18291838536013
F-118.12270669588189
F1.888763504409684
tp1025
sg66
(lp1026
sg13
g1
sg68
g8
((ltRp1027
sg90
g8
((lp1028
(imodel.Bond
Bond
p1029
(dp1030
g94
g95
sg13
g1
sg39
g40
sg17
g8
((lp1031
g481
ag435
atRp1032
sbag1014
ag522
ag514
atRp1033
sg38
I00
sbag432
atRp1034
sg3
S'C12'
p1035
sg31
I00
sg32
Nsg33
(imodel.Atom
Atom
p1036
(dp1037
g3
g1035
sg13
g1
sg14
I4
sg15
S'C'
sg16
I00
sg17
g8
((lp1038
g435
atRp1039
sg38
I00
sbsg39
g40
sg63
I0
sg15
S'C'
sg16
I00
sg64
(F293.46283018317951
F-149.94174177495319
F0.59912799276427819
tp1040
sg66
(lp1041
sg13
g1
sg68
g8
((ltRp1042
sg90
g8
((lp1043
g1029
a(imodel.Bond
Bond
p1044
(dp1045
g94
g95
sg13
g1
sg39
g40
sg17
g8
((lp1046
g435
ag432
atRp1047
sbag476
ag468
atRp1048
sg38
I00
sba(imodel.VarAtom
VarAtom
p1049
(dp1050
g21
g8
((lp1051
g432
atRp1052
sg3
S'H13_1'
p1053
sg31
I00
sg32
Nsg33
(imodel.Atom
Atom
p1054
(dp1055
g3
g1053
sg13
g1
sg14
I1
sg15
S'H'
sg16
I00
sg17
g8
((lp1056
g1049
atRp1057
sg38
I00
sbsg39
g40
sg63
I0
sg15
S'H'
sg16
I00
sg64
(F329.20351921480017
F-98.462246338197417
F1.0731560365519179
tp1058
sg66
(lp1059
sg13
g1
sg68
g8
((lp1060
(imodel.AtomGroup
AtomGroup
p1061
(dp1062
g72
g73
sg74
g8
((ltRp1063
sg17
g8
((lp1064
g1049
a(imodel.VarAtom
VarAtom
p1065
(dp1066
g21
g8
((lp1067
g432
atRp1068
sg3
S'H13_2'
p1069
sg31
I00
sg32
Nsg33
(imodel.Atom
Atom
p1070
(dp1071
g3
g1069
sg13
g1
sg14
I1
sg15
S'H'
sg16
I00
sg17
g8
((lp1072
g1065
atRp1073
sg38
I00
sbsg39
g40
sg63
I0
sg15
S'H'
sg16
I00
sg64
(F372.66174353421701
F-103.7101561669155
F0.68808282782456232
tp1074
sg66
(lp1075
sg13
g1
sg68
g8
((lp1076
g1061
atRp1077
sg90
g8
((lp1078
(imodel.Bond
Bond
p1079
(dp1080
g94
g95
sg13
g1
sg39
g40
sg17
g8
((lp1081
g432
ag1065
atRp1082
sbatRp1083
sg38
I00
sbatRp1084
sg39
g40
sg13
g1
sbatRp1085
sg90
g8
((lp1086
(imodel.Bond
Bond
p1087
(dp1088
g94
g95
sg13
g1
sg39
g40
sg17
g8
((lp1089
g432
ag1049
atRp1090
sbatRp1091
sg38
I00
sbag1065
atRp1092
sg3
S'C13'
p1093
sg31
I00
sg32
Nsg33
(imodel.Atom
Atom
p1094
(dp1095
g3
g1093
sg13
g1
sg14
I4
sg15
S'C'
sg16
I00
sg17
g8
((lp1096
g432
atRp1097
sg38
I00
sbsg39
g40
sg63
I0
sg15
S'C'
sg16
I00
sg64
(F347.13310149665722
F-132.51353387184446
F1.7407301889209359
tp1098
sg66
(lp1099
sg13
g1
sg68
g8
((ltRp1100
sg90
g8
((lp1101
(imodel.Bond
Bond
p1102
(dp1103
g94
g95
sg13
g1
sg39
g40
sg17
g8
((lp1104
g432
ag386
atRp1105
sbag1044
ag1079
ag1087
atRp1106
sg38
I00
sbag48
atRp1107
sg3
S'C14'
p1108
sg31
I00
sg32
Nsg33
(imodel.Atom
Atom
p1109
(dp1110
g3
g1108
sg13
g1
sg14
I4
sg15
S'C'
sg16
I00
sg17
g8
((lp1111
g386
atRp1112
sg38
I00
sbsg39
g40
sg63
I0
sg15
S'C'
sg16
I00
sg64
(F394.56342189038162
F-164.15503341658879
F1.4096441252694352
tp1113
sg66
(lp1114
sg13
g1
sg68
g8
((ltRp1115
sg90
g8
((lp1116
g1102
a(imodel.Bond
Bond
p1117
(dp1118
g94
g95
sg13
g1
sg39
g40
sg17
g8
((lp1119
g48
ag386
atRp1120
sbag419
ag427
atRp1121
sg38
I00
sba(imodel.VarAtom
VarAtom
p1122
(dp1123
g21
g8
((lp1124
g48
atRp1125
sg3
S'H15_1'
p1126
sg31
I00
sg32
Nsg33
(imodel.Atom
Atom
p1127
(dp1128
g3
g1126
sg13
g1
sg14
I1
sg15
S'H'
sg16
I00
sg17
g8
((lp1129
g1122
atRp1130
sg38
I00
sbsg39
g40
sg63
I0
sg15
S'H'
sg16
I00
sg64
(F429.24937801315627
F-111.88418481130219
F1.136601937907787
tp1131
sg66
(lp1132
sg13
g1
sg68
g8
((lp1133
(imodel.AtomGroup
AtomGroup
p1134
(dp1135
g72
g73
sg74
g8
((ltRp1136
sg17
g8
((lp1137
g1122
ag45
atRp1138
sg39
g40
sg13
g1
sbatRp1139
sg90
g8
((lp1140
(imodel.Bond
Bond
p1141
(dp1142
g94
g95
sg13
g1
sg39
g40
sg17
g8
((lp1143
g48
ag1122
atRp1144
sbatRp1145
sg38
I00
sbag45
atRp1146
sg3
S'C15'
p1147
sg31
I00
sg32
Nsg33
(imodel.Atom
Atom
p1148
(dp1149
g3
g1147
sg13
g1
sg14
I4
sg15
S'C'
sg16
I00
sg17
g8
((lp1150
g48
atRp1151
sg38
I00
sbsg39
g40
sg63
I0
sg15
S'C'
sg16
I00
sg64
(F447.98404366344431
F-145.46979426390993
F1.404879210437312
tp1152
sg66
(lp1153
sg13
g1
sg68
g8
((ltRp1154
sg90
g8
((lp1155
g381
ag1117
ag1141
a(imodel.Bond
Bond
p1156
(dp1157
g94
g95
sg13
g1
sg39
g40
sg17
g8
((lp1158
g48
ag45
atRp1159
sbatRp1160
sg38
I00
sbatRp1161
sg3
S'H15_2'
p1162
sg31
I00
sg32
Nsg33
(imodel.Atom
Atom
p1163
(dp1164
g3
g1162
sg13
g1
sg14
I1
sg15
S'H'
sg16
I00
sg17
g8
((lp1165
g45
atRp1166
sg38
I00
sbsg39
g40
sg63
I0
sg15
S'H'
sg16
I00
sg64
(F472.65955819004142
F-115.95992208556957
F0.95188125949346414
tp1167
sg66
(lp1168
sg13
g1
sg68
g8
((lp1169
g1134
atRp1170
sg90
g8
((lp1171
g1156
atRp1172
sg38
I00
sbag132
ag26
ag255
ag1049
ag271
ag576
a(imodel.VarAtom
VarAtom
p1173
(dp1174
g21
g8
((lp1175
g19
atRp1176
sg3
S'H1_1'
p1177
sg31
I00
sg32
Nsg33
(imodel.Atom
Atom
p1178
(dp1179
g3
g1177
sg13
g1
sg14
I1
sg15
S'H'
sg16
I00
sg17
g8
((lp1180
g1173
atRp1181
sg38
I00
sbsg39
g40
sg63
I0
sg15
S'H'
sg16
I00
sg64
(F-300.09057112413848
F-97.340424369539264
F1.7569858392866269
tp1182
sg66
(lp1183
sg13
g1
sg68
g8
((lp1184
(imodel.AtomGroup
AtomGroup
p1185
(dp1186
g72
g73
sg74
g8
((ltRp1187
sg17
g8
((lp1188
g1173
a(imodel.VarAtom
VarAtom
p1189
(dp1190
g21
g8
((lp1191
g19
atRp1192
sg3
S'H1_2'
p1193
sg31
I00
sg32
Nsg33
(imodel.Atom
Atom
p1194
(dp1195
g3
g1193
sg13
g1
sg14
I1
sg15
S'H'
sg16
I00
sg17
g8
((lp1196
g1189
atRp1197
sg38
I00
sbsg39
g40
sg63
I0
sg15
S'H'
sg16
I00
sg64
(F-255.68405657272419
F-76.323904592656149
F1.3403396979829885
tp1198
sg66
(lp1199
sg13
g1
sg68
g8
((lp1200
g1185
atRp1201
sg90
g8
((lp1202
(imodel.Bond
Bond
p1203
(dp1204
g94
g95
sg13
g1
sg39
g40
sg17
g8
((lp1205
g19
ag1189
atRp1206
sbatRp1207
sg38
I00
sbatRp1208
sg39
g40
sg13
g1
sbatRp1209
sg90
g8
((lp1210
(imodel.Bond
Bond
p1211
(dp1212
g94
g95
sg13
g1
sg39
g40
sg17
g8
((lp1213
g19
ag1173
atRp1214
sbatRp1215
sg38
I00
sbag454
ag947
a(imodel.VarAtom
VarAtom
p1216
(dp1217
g21
g8
((lp1218
g23
atRp1219
sg3
S'H2_2'
p1220
sg31
I00
sg32
Nsg33
(imodel.Atom
Atom
p1221
(dp1222
g3
g1220
sg13
g1
sg14
I1
sg15
S'H'
sg16
I00
sg17
g8
((lp1223
g1216
atRp1224
sg38
I00
sbsg39
g40
sg63
I0
sg15
S'H'
sg16
I00
sg64
(F-189.83195097420449
F-167.96162892967885
F1.9048920915973713
tp1225
sg66
(lp1226
sg13
g1
sg68
g8
((lp1227
(imodel.AtomGroup
AtomGroup
p1228
(dp1229
g72
g73
sg74
g8
((ltRp1230
sg17
g8
((lp1231
g26
ag1216
atRp1232
sg39
g40
sg13
g1
sbatRp1233
sg90
g8
((lp1234
(imodel.Bond
Bond
p1235
(dp1236
g94
g95
sg13
g1
sg39
g40
sg17
g8
((lp1237
g23
ag1216
atRp1238
sbatRp1239
sg38
I00
sbag858
ag690
ag801
ag405
ag500
ag530
ag484
ag77
ag546
ag389
ag625
ag313
ag54
ag329
ag116
ag1189
ag162
ag1065
ag179
ag198
ag723
ag1122
ag785
ag739
ag874
ag931
ag592
ag674
ag641
ag438
atRp1240
sS'C'
g8
((lp1241
g51
ag107
ag668
ag19
ag159
ag720
ag23
ag435
ag432
ag481
ag110
ag619
ag48
ag717
ag671
ag527
ag622
ag113
ag573
ag386
atRp1242
ssg90
g8
((lp1243
g1102
ag984
ag1079
ag193
ag568
ag468
ag146
ag522
ag366
ag1203
ag614
ag514
ag888
ag220
ag154
ag761
ag343
ag999
a(imodel.Bond
Bond
p1244
(dp1245
g94
g95
sg13
g1
sg39
g40
sg17
g8
((lp1246
g19
ag23
atRp1247
sbag476
a(imodel.Bond
Bond
p1248
(dp1249
g94
g95
sg13
g1
sg39
g40
sg17
g8
((lp1250
g23
ag26
atRp1251
sbag655
ag560
ag250
ag1211
ag1044
ag419
ag293
ag704
ag896
ag308
ag427
ag969
ag606
ag1029
ag911
ag1141
ag712
ag961
ag212
ag285
ag1156
ag381
ag92
ag780
ag102
ag1117
ag838
ag853
ag776
ag351
ag1014
ag1235
ag926
ag235
ag663
ag1087
ag815
ag823
ag753
atRp1252
sg13
g1
sS'atomDict'
p1253
(dp1254
g10
g19
sg1094
g432
sg646
g641
sg863
g858
sg936
g931
sg1036
g435
sg952
g947
s(imodel.Atom
Atom
p1255
(dp1256
g3
S'C2'
p1257
sg13
g1
sg14
I4
sg15
S'C'
sg16
I00
sg17
g8
((lp1258
g23
atRp1259
sg38
I00
sbg23
sg991
g573
sg845
g671
sg1127
g1122
sg260
g255
sg1021
g481
sg373
g51
sg300
g110
sg679
g674
sg728
g723
sg184
g179
sg597
g592
sg581
g576
sg167
g162
sg1054
g1049
sg1109
g386
sg203
g198
sg768
g720
sg551
g546
sg695
g690
sg358
g107
sg1148
g48
sg394
g389
sg443
g438
sg137
g132
sg903
g668
sg489
g484
sg34
g26
sg1070
g1065
sg227
g159
sg630
g625
sg790
g785
sg505
g500
sg830
g717
sg410
g405
sg1221
g1216
sg276
g271
sg535
g530
sg121
g116
sg242
g113
sg976
g619
sg744
g739
sg879
g874
sg1163
g45
sg82
g77
sg459
g454
sg59
g54
sg1006
g527
sg1178
g1173
sg806
g801
sg918
g622
sg1194
g1189
sg334
g329
sg318
g313
ssS'descriptor'
p1260
(S'neutral'
p1261
S'none'
p1262
S'default'
p1263
tp1264
sg17
g8
((lp1265
g51
ag132
ag26
ag255
ag405
ag432
ag271
ag668
ag527
ag674
ag19
ag1049
ag454
ag874
ag576
ag720
ag113
ag159
ag77
ag801
ag573
ag54
ag931
ag500
ag198
ag48
ag484
ag947
ag671
ag45
ag110
ag107
ag546
ag619
ag625
ag313
ag386
ag329
ag717
ag481
ag389
ag116
ag162
ag530
ag1065
ag179
ag622
ag723
ag690
ag1122
ag1189
ag739
ag23
ag435
ag1173
ag592
ag858
ag641
ag1216
ag785
ag438
atRp1266
sg68
g8
((lp1267
g686
ag128
ag325
ag637
ag588
ag735
ag267
ag450
ag401
ag1134
ag174
ag797
ag496
ag943
ag542
ag1061
ag870
ag70
ag1185
ag1228
atRp1268
sS'polyLink'
p1269
g1262
sbsg63
I0
sg15
S'H'
sg16
I00
sg64
(F-234.01103050587449
F-171.39590894972531
F1.9665733715510059
tp1270
sg66
(lp1271
sg13
g1
sg68
g8
((lp1272
g1228
atRp1273
sg90
g8
((lp1274
g1248
atRp1275
sg38
I00
sbag19
ag1216
ag720
atRp1276
sg3
g1257
sg31
I00
sg32
Nsg33
g1255
sg39
g40
sg63
I0
sg15
S'C'
sg16
I00
sg64
(F-214.09909809141308
F-138.06167839114724
F0.49890305950752822
tp1277
sg66
(lp1278
sg13
g1
sg68
g8
((ltRp1279
sg90
g8
((lp1280
g1244
ag780
ag1248
ag1235
atRp1281
sg38
I00
sbag1173
ag1189
atRp1282
sg3
g12
sg31
I00
sg32
Nsg33
g10
sg39
g40
sg63
I0
sg15
S'C'
sg16
I00
sg64
(F-264.70674287706987
F-113.9930523015278
F1.2646790501332976
tp1283
sg66
(lp1284
F3.5834962153930148
asg13
g1
sg68
g8
((ltRp1285
sg90
g8
((lp1286
g1244
ag1211
ag1203
atRp1287
sg38
I00
sbatRp1288
sg38
I00
sbag1094
ag646
ag863
ag936
ag1036
ag952
ag1255
ag991
ag845
ag1127
ag260
ag1021
ag373
ag300
ag679
ag728
ag184
ag597
ag581
ag167
ag1054
ag1109
ag203
ag768
ag551
ag695
ag358
ag1148
ag394
ag443
ag137
ag903
ag489
ag34
ag1070
ag227
ag630
ag790
ag505
ag830
ag410
ag1221
ag276
ag535
ag121
ag242
ag976
ag744
ag879
ag1163
ag82
ag459
ag59
ag1006
ag1178
ag806
ag918
ag1194
ag334
ag318
atRp1289
sS'ccpMolType'
p1290
S'other'
p1291
sS'details'
p1292
V
sg1253
(dp1293
g596
g597
sg580
g581
sg202
g203
sg166
g167
sg743
g744
sg727
g728
sg990
g991
sg975
g976
sg805
g806
sg767
g768
sg1257
g1255
sg12
g10
sg917
g918
sg902
g903
sg844
g845
sg829
g830
sg226
g227
sg317
g318
sg333
g334
sg409
g410
sg878
g879
sg862
g863
sg1069
g1070
sg1220
g1221
sg30
g34
sg1162
g1163
sg136
g137
sg1126
g1127
sg678
g679
sg951
g952
sg694
g695
sg442
g443
sg120
g121
sg935
g936
sg241
g242
sg299
g300
sg1093
g1094
sg1035
g1036
sg1020
g1021
sg1005
g1006
sg357
g358
sg372
g373
sg1147
g1148
sg1108
g1109
sg789
g790
sg275
g276
sg259
g260
sg645
g646
sg629
g630
sg550
g551
sg534
g535
sg1177
g1178
sg1193
g1194
sg58
g59
sg81
g82
sg1053
g1054
sg393
g394
sg458
g459
sg183
g184
sg504
g505
sg488
g489
ssS'keywords'
p1294
g8
((ltRp1295
sg68
g8
((lp1296
g686
ag128
ag325
ag637
ag588
ag735
ag267
ag450
ag401
ag1134
ag174
ag797
ag496
ag943
ag542
ag1061
ag870
ag70
ag1185
ag1228
atRp1297
sS'variants'
p1298
g8
((lp1299
g40
atRp1300
sS'defaultVars'
p1301
g8
((ltRp1302
sb.