(imodel.Compound
Compound
p1
(dp2
S'name'
p3
S'Unnamed'
p4
sS'isModified'
p5
I01
sS'ccpCode'
p6
NsS'atoms'
p7
c__builtin__
set
p8
((lp9
(imodel.Atom
Atom
p10
(dp11
g3
S'H5_1'
p12
sS'compound'
p13
g1
sS'baseValences'
p14
I1
sS'element'
p15
S'H'
sS'isVariable'
p16
I00
sS'varAtoms'
p17
g8
((lp18
(imodel.VarAtom
VarAtom
p19
(dp20
g3
g12
sS'isLabile'
p21
I00
sS'chirality'
p22
NsS'atom'
p23
g10
sS'variant'
p24
(imodel.Variant
Variant
p25
(dp26
S'elementDict'
p27
(dp28
S'H'
g8
((lp29
(imodel.VarAtom
VarAtom
p30
(dp31
g3
S'H2_2'
p32
sg21
I00
sg22
Nsg23
(imodel.Atom
Atom
p33
(dp34
g3
g32
sg13
g1
sg14
I1
sg15
S'H'
sg16
I00
sg17
g8
((lp35
g30
atRp36
sS'isDeleted'
p37
I00
sbsg24
g25
sS'neighbours'
p38
g8
((lp39
(imodel.VarAtom
VarAtom
p40
(dp41
g3
S'C2'
p42
sg21
I00
sg22
Nsg23
(imodel.Atom
Atom
p43
(dp44
g3
g42
sg13
g1
sg14
I4
sg15
S'C'
sg16
I00
sg17
g8
((lp45
g40
atRp46
sg37
I00
sbsg24
g25
sg38
g8
((lp47
(imodel.VarAtom
VarAtom
p48
(dp49
g3
S'H2_1'
p50
sg21
I00
sg22
Nsg23
(imodel.Atom
Atom
p51
(dp52
g3
g50
sg13
g1
sg14
I1
sg15
S'H'
sg16
I00
sg17
g8
((lp53
g48
atRp54
sg37
I00
sbsg24
g25
sg38
g8
((lp55
g40
atRp56
sg15
S'H'
sS'charge'
p57
I0
sg16
I00
sS'coords'
p58
(F114.78690948060189
F81.927366348565357
F1.0477826284330396
tp59
sS'freeValences'
p60
(lp61
sg13
g1
sS'atomGroups'
p62
g8
((lp63
(imodel.AtomGroup
AtomGroup
p64
(dp65
S'groupType'
p66
S'prochiral'
p67
sS'subGroups'
p68
g8
((ltRp69
sg17
g8
((lp70
g48
ag30
atRp71
sg24
g25
sg13
g1
sbatRp72
sS'bonds'
p73
g8
((lp74
(imodel.Bond
Bond
p75
(dp76
g13
g1
sS'bondType'
p77
S'single'
p78
sg24
g25
sg17
g8
((lp79
g40
ag48
atRp80
sbatRp81
sg37
I00
sba(imodel.VarAtom
VarAtom
p82
(dp83
g3
S'C3'
p84
sg21
I00
sg22
Nsg23
(imodel.Atom
Atom
p85
(dp86
g3
g84
sg13
g1
sg14
I4
sg15
S'C'
sg16
I00
sg17
g8
((lp87
g82
atRp88
sg37
I00
sbsg24
g25
sg38
g8
((lp89
(imodel.VarAtom
VarAtom
p90
(dp91
g3
S'C4'
p92
sg21
I00
sg22
Nsg23
(imodel.Atom
Atom
p93
(dp94
g3
g92
sg13
g1
sg14
I4
sg15
S'C'
sg16
I00
sg17
g8
((lp95
g90
atRp96
sg37
I00
sbsg24
g25
sg38
g8
((lp97
(imodel.VarAtom
VarAtom
p98
(dp99
g3
S'C5'
p100
sg21
I00
sg22
Nsg23
(imodel.Atom
Atom
p101
(dp102
g3
g100
sg13
g1
sg14
I4
sg15
S'C'
sg16
I00
sg17
g8
((lp103
g98
atRp104
sg37
I00
sbsg24
g25
sg38
g8
((lp105
(imodel.VarAtom
VarAtom
p106
(dp107
g3
S'C6'
p108
sg21
I00
sg22
Nsg23
(imodel.Atom
Atom
p109
(dp110
g3
g108
sg13
g1
sg14
I4
sg15
S'C'
sg16
I00
sg17
g8
((lp111
g106
atRp112
sg37
I00
sbsg24
g25
sg38
g8
((lp113
(imodel.VarAtom
VarAtom
p114
(dp115
g3
S'H6_1'
p116
sg21
I00
sg22
Nsg23
(imodel.Atom
Atom
p117
(dp118
g3
g116
sg13
g1
sg14
I1
sg15
S'H'
sg16
I00
sg17
g8
((lp119
g114
atRp120
sg37
I00
sbsg24
g25
sg38
g8
((lp121
g106
atRp122
sg15
S'H'
sg57
I0
sg16
I00
sg58
(F365.64267461512782
F141.28210549951794
F1.1963500627245778
tp123
sg60
(lp124
sg13
g1
sg62
g8
((lp125
(imodel.AtomGroup
AtomGroup
p126
(dp127
g66
S'equivalent'
p128
sg68
g8
((ltRp129
sg17
g8
((lp130
g114
a(imodel.VarAtom
VarAtom
p131
(dp132
g3
S'H6_2'
p133
sg21
I00
sg22
Nsg23
(imodel.Atom
Atom
p134
(dp135
g3
g133
sg13
g1
sg14
I1
sg15
S'H'
sg16
I00
sg17
g8
((lp136
g131
atRp137
sg37
I00
sbsg24
g25
sg38
g8
((lp138
g106
atRp139
sg15
S'H'
sg57
I0
sg16
I00
sg58
(F328.88194435572387
F74.683270985214719
F0.98870248618010503
tp140
sg60
(lp141
sg13
g1
sg62
g8
((lp142
g126
atRp143
sg73
g8
((lp144
(imodel.Bond
Bond
p145
(dp146
g13
g1
sg77
g78
sg24
g25
sg17
g8
((lp147
g106
ag131
atRp148
sbatRp149
sg37
I00
sba(imodel.VarAtom
VarAtom
p150
(dp151
g3
S'H6_3'
p152
sg21
I00
sg22
Nsg23
(imodel.Atom
Atom
p153
(dp154
g3
g152
sg13
g1
sg14
I1
sg15
S'H'
sg16
I00
sg17
g8
((lp155
g150
atRp156
sg37
I00
sbsg24
g25
sg38
g8
((lp157
g106
atRp158
sg15
S'H'
sg57
I0
sg16
I00
sg58
(F374.75824194027933
F92.21322158599412
F1.3524622156756632
tp159
sg60
(lp160
sg13
g1
sg62
g8
((lp161
g126
atRp162
sg73
g8
((lp163
(imodel.Bond
Bond
p164
(dp165
g13
g1
sg77
g78
sg24
g25
sg17
g8
((lp166
g106
ag150
atRp167
sbatRp168
sg37
I00
sbatRp169
sg24
g25
sg13
g1
sbatRp170
sg73
g8
((lp171
(imodel.Bond
Bond
p172
(dp173
g13
g1
sg77
g78
sg24
g25
sg17
g8
((lp174
g106
ag114
atRp175
sbatRp176
sg37
I00
sbag98
ag131
ag150
atRp177
sg15
S'C'
sg57
I0
sg16
I00
sg58
(F340.76441839164841
F111.56123302728798
F1.1645292210190914
tp178
sg60
(lp179
sg13
g1
sg62
g8
((ltRp180
sg73
g8
((lp181
(imodel.Bond
Bond
p182
(dp183
g13
g1
sg77
g78
sg24
g25
sg17
g8
((lp184
g106
ag98
atRp185
sbag172
ag164
ag145
atRp186
sg37
I00
sbag90
a(imodel.VarAtom
VarAtom
p187
(dp188
g3
S'H5_2'
p189
sg21
I00
sg22
Nsg23
(imodel.Atom
Atom
p190
(dp191
g3
g189
sg13
g1
sg14
I1
sg15
S'H'
sg16
I00
sg17
g8
((lp192
g187
atRp193
sg37
I00
sbsg24
g25
sg38
g8
((lp194
g98
atRp195
sg15
S'H'
sg57
I0
sg16
I00
sg58
(F270.20721177930943
F171.56452270845989
F1.3110629474291087
tp196
sg60
(lp197
sg13
g1
sg62
g8
((lp198
(imodel.AtomGroup
AtomGroup
p199
(dp200
g66
g67
sg68
g8
((ltRp201
sg17
g8
((lp202
g19
ag187
atRp203
sg24
g25
sg13
g1
sbatRp204
sg73
g8
((lp205
(imodel.Bond
Bond
p206
(dp207
g13
g1
sg77
g78
sg24
g25
sg17
g8
((lp208
g98
ag187
atRp209
sbatRp210
sg37
I00
sbag19
atRp211
sg15
S'C'
sg57
I0
sg16
I00
sg58
(F292.28957479590628
F140.0254241447648
F0.16052925390912254
tp212
sg60
(lp213
sg13
g1
sg62
g8
((ltRp214
sg73
g8
((lp215
g182
a(imodel.Bond
Bond
p216
(dp217
g13
g1
sg77
g78
sg24
g25
sg17
g8
((lp218
g98
ag90
atRp219
sba(imodel.Bond
Bond
p220
(dp221
g13
g1
sg77
g78
sg24
g25
sg17
g8
((lp222
g98
ag19
atRp223
sbag206
atRp224
sg37
I00
sbag82
a(imodel.VarAtom
VarAtom
p225
(dp226
g3
S'H4_1'
p227
sg21
I00
sg22
Nsg23
(imodel.Atom
Atom
p228
(dp229
g3
g227
sg13
g1
sg14
I1
sg15
S'H'
sg16
I00
sg17
g8
((lp230
g225
atRp231
sg37
I00
sbsg24
g25
sg38
g8
((lp232
g90
atRp233
sg15
S'H'
sg57
I0
sg16
I00
sg58
(F220.38680027252715
F81.920956470656648
F1.8198959711529477
tp234
sg60
(lp235
sg13
g1
sg62
g8
((lp236
(imodel.AtomGroup
AtomGroup
p237
(dp238
g66
g67
sg68
g8
((ltRp239
sg17
g8
((lp240
g225
a(imodel.VarAtom
VarAtom
p241
(dp242
g3
S'H4_2'
p243
sg21
I00
sg22
Nsg23
(imodel.Atom
Atom
p244
(dp245
g3
g243
sg13
g1
sg14
I1
sg15
S'H'
sg16
I00
sg17
g8
((lp246
g241
atRp247
sg37
I00
sbsg24
g25
sg38
g8
((lp248
g90
atRp249
sg15
S'H'
sg57
I0
sg16
I00
sg58
(F265.17775248111604
F84.85815215056607
F0.34513915343752166
tp250
sg60
(lp251
sg13
g1
sg62
g8
((lp252
g237
atRp253
sg73
g8
((lp254
(imodel.Bond
Bond
p255
(dp256
g13
g1
sg77
g78
sg24
g25
sg17
g8
((lp257
g90
ag241
atRp258
sbatRp259
sg37
I00
sbatRp260
sg24
g25
sg13
g1
sbatRp261
sg73
g8
((lp262
(imodel.Bond
Bond
p263
(dp264
g13
g1
sg77
g78
sg24
g25
sg17
g8
((lp265
g90
ag225
atRp266
sbatRp267
sg37
I00
sbag241
atRp268
sg15
S'C'
sg57
I0
sg16
I00
sg58
(F240.82334613329269
F114.58853774453755
F0.57054192772073853
tp269
sg60
(lp270
sg13
g1
sg62
g8
((ltRp271
sg73
g8
((lp272
(imodel.Bond
Bond
p273
(dp274
g13
g1
sg77
g78
sg24
g25
sg17
g8
((lp275
g90
ag82
atRp276
sbag216
ag255
ag263
atRp277
sg37
I00
sbag40
a(imodel.VarAtom
VarAtom
p278
(dp279
g3
S'H3_2'
p280
sg21
I00
sg22
Nsg23
(imodel.Atom
Atom
p281
(dp282
g3
g280
sg13
g1
sg14
I1
sg15
S'H'
sg16
I00
sg17
g8
((lp283
g278
atRp284
sg37
I00
sbsg24
g25
sg38
g8
((lp285
g82
atRp286
sg15
S'H'
sg57
I0
sg16
I00
sg58
(F210.2112168482096
F170.5278848614974
F1.1218420037977674
tp287
sg60
(lp288
sg13
g1
sg62
g8
((lp289
(imodel.AtomGroup
AtomGroup
p290
(dp291
g66
g67
sg68
g8
((ltRp292
sg17
g8
((lp293
(imodel.VarAtom
VarAtom
p294
(dp295
g3
S'H3_1'
p296
sg21
I00
sg22
Nsg23
(imodel.Atom
Atom
p297
(dp298
g3
g296
sg13
g1
sg14
I1
sg15
S'H'
sg16
I00
sg17
g8
((lp299
g294
atRp300
sg37
I00
sbsg24
g25
sg38
g8
((lp301
g82
atRp302
sg15
S'H'
sg57
I0
sg16
I00
sg58
(F165.63144954779449
F168.03898385241104
F1.1285456483441478
tp303
sg60
(lp304
sg13
g1
sg62
g8
((lp305
g290
atRp306
sg73
g8
((lp307
(imodel.Bond
Bond
p308
(dp309
g13
g1
sg77
g78
sg24
g25
sg17
g8
((lp310
g82
ag294
atRp311
sbatRp312
sg37
I00
sbag278
atRp313
sg24
g25
sg13
g1
sbatRp314
sg73
g8
((lp315
(imodel.Bond
Bond
p316
(dp317
g13
g1
sg77
g78
sg24
g25
sg17
g8
((lp318
g82
ag278
atRp319
sbatRp320
sg37
I00
sbag294
atRp321
sg15
S'C'
sg57
I0
sg16
I00
sg58
(F189.59796590704877
F137.99229688441613
F0.47895547132584659
tp322
sg60
(lp323
sg13
g1
sg62
g8
((ltRp324
sg73
g8
((lp325
g273
a(imodel.Bond
Bond
p326
(dp327
g13
g1
sg77
g78
sg24
g25
sg17
g8
((lp328
g82
ag40
atRp329
sbag316
ag308
atRp330
sg37
I00
sbag30
a(imodel.VarAtom
VarAtom
p331
(dp332
g3
S'C1'
p333
sg21
I00
sg22
Nsg23
(imodel.Atom
Atom
p334
(dp335
g3
g333
sg13
g1
sg14
I4
sg15
S'C'
sg16
I00
sg17
g8
((lp336
g331
atRp337
sg37
I00
sbsg24
g25
sg38
g8
((lp338
g40
a(imodel.VarAtom
VarAtom
p339
(dp340
g3
S'H1_1'
p341
sg21
I00
sg22
Nsg23
(imodel.Atom
Atom
p342
(dp343
g3
g341
sg13
g1
sg14
I1
sg15
S'H'
sg16
I00
sg17
g8
((lp344
g339
atRp345
sg37
I00
sbsg24
g25
sg38
g8
((lp346
g331
atRp347
sg15
S'H'
sg57
I0
sg16
I00
sg58
(F102.50566050346042
F179.31796365982879
F0.87224799596180957
tp348
sg60
(lp349
sg13
g1
sg62
g8
((lp350
(imodel.AtomGroup
AtomGroup
p351
(dp352
g66
g67
sg68
g8
((ltRp353
sg17
g8
((lp354
g339
a(imodel.VarAtom
VarAtom
p355
(dp356
g3
VH1_2
p357
sg21
I00
sg22
Nsg23
(imodel.Atom
Atom
p358
(dp359
g3
g357
sg13
g1
sg14
I1
sg15
S'H'
sg16
I00
sg17
g8
((lp360
g355
atRp361
sg37
I00
sbsg24
g25
sg38
g8
((lp362
g331
atRp363
sg15
S'H'
sg57
I0
sg16
I00
sg58
(F64.308124945046501
F113.53469086749176
F0.28386693883922776
tp364
sg60
(lp365
sg13
g1
sg62
g8
((lp366
g351
atRp367
sg73
g8
((lp368
(imodel.Bond
Bond
p369
(dp370
g13
g1
sg77
g78
sg24
g25
sg17
g8
((lp371
g331
ag355
atRp372
sbatRp373
sg37
I00
sbatRp374
sg24
g25
sg13
g1
sbatRp375
sg73
g8
((lp376
(imodel.Bond
Bond
p377
(dp378
g13
g1
sg77
g78
sg24
g25
sg17
g8
((lp379
g331
ag339
atRp380
sbatRp381
sg37
I00
sbag355
atRp382
sg15
S'C'
sg57
I0
sg16
I00
sg58
(F89.814905707806133
F142.7124087683739
F0.53281245322718851
tp383
sg60
(lp384
F5.2384348464363253
asg13
g1
sg62
g8
((ltRp385
sg73
g8
((lp386
(imodel.Bond
Bond
p387
(dp388
g13
g1
sg77
g78
sg24
g25
sg17
g8
((lp389
g331
ag40
atRp390
sbag369
ag377
atRp391
sg37
I00
sbatRp392
sg15
S'C'
sg57
I0
sg16
I00
sg58
(F137.81054197555252
F113.20297059558902
F0.95072211081046298
tp393
sg60
(lp394
sg13
g1
sg62
g8
((ltRp395
sg73
g8
((lp396
g387
ag326
a(imodel.Bond
Bond
p397
(dp398
g13
g1
sg77
g78
sg24
g25
sg17
g8
((lp399
g40
ag30
atRp400
sbag75
atRp401
sg37
I00
sbatRp402
sg15
S'H'
sg57
I0
sg16
I00
sg58
(F159.51996748161523
F81.391894501129997
F0.46031975579929196
tp403
sg60
(lp404
sg13
g1
sg62
g8
((lp405
g64
atRp406
sg73
g8
((lp407
g397
atRp408
sg37
I00
sbag225
ag114
ag150
ag355
ag278
ag131
ag19
ag48
ag339
ag241
ag294
ag187
atRp409
sS'C'
g8
((lp410
g82
ag331
ag106
ag90
ag40
ag98
atRp411
ssg73
g8
((lp412
g75
ag387
ag377
ag369
ag308
ag216
ag326
ag164
ag145
ag172
ag273
ag220
ag206
ag316
ag182
ag255
ag397
ag263
atRp413
sg13
g1
sS'descriptor'
p414
(S'neutral'
S'none'
p415
S'default'
tp416
sS'atomDict'
p417
(dp418
g10
g19
sg334
g331
sg134
g131
sg297
g294
sg85
g82
sg190
g187
sg101
g98
sg153
g150
sg43
g40
sg117
g114
sg93
g90
sg228
g225
sg51
g48
sg358
g355
sg33
g30
sg244
g241
sg281
g278
sg109
g106
sg342
g339
ssg17
g8
((lp419
g30
ag241
ag82
ag40
ag294
ag150
ag225
ag331
ag355
ag106
ag90
ag278
ag48
ag19
ag114
ag98
ag131
ag339
ag187
atRp420
sg62
g8
((lp421
g199
ag64
ag237
ag351
ag126
ag290
atRp422
sS'polyLink'
p423
g415
sbsg38
g8
((lp424
g98
atRp425
sg15
S'H'
sg57
I0
sg16
I00
sg58
(F314.77292742582983
F171.6895799766493
F1.5050189553274311
tp426
sg60
(lp427
sg13
g1
sg62
g8
((lp428
g199
atRp429
sg73
g8
((lp430
g220
atRp431
sg37
I00
sbatRp432
sg37
I00
sbag334
ag134
ag297
ag85
ag190
ag101
ag153
ag43
ag117
ag93
ag228
ag51
ag358
ag33
ag244
ag281
ag109
ag342
atRp433
sS'ccpMolType'
p434
S'other'
p435
sS'details'
p436
V
sg417
(dp437
g227
g228
sg108
g109
sg243
g244
sg152
g153
sg133
g134
sg116
g117
sg280
g281
sg296
g297
sg357
g358
sg100
g101
sg32
g33
sg50
g51
sg341
g342
sg84
g85
sg42
g43
sg333
g334
sg12
g10
sg189
g190
sg92
g93
ssS'keywords'
p438
g8
((ltRp439
sg62
g8
((lp440
g199
ag64
ag237
ag351
ag126
ag290
atRp441
sS'variants'
p442
g8
((lp443
g25
atRp444
sS'defaultVars'
p445
g8
((ltRp446
sb.