(imodel.Compound
Compound
p1
(dp2
S'name'
p3
S'Unnamed'
p4
sS'isModified'
p5
I01
sS'ccpCode'
p6
NsS'atoms'
p7
c__builtin__
set
p8
((lp9
(imodel.Atom
Atom
p10
(dp11
S'name'
p12
S'H3_1'
p13
sS'compound'
p14
g1
sS'baseValences'
p15
I1
sS'element'
p16
S'H'
sS'isVariable'
p17
I00
sS'varAtoms'
p18
g8
((lp19
(imodel.VarAtom
VarAtom
p20
(dp21
S'neighbours'
p22
g8
((lp23
(imodel.VarAtom
VarAtom
p24
(dp25
g22
g8
((lp26
(imodel.VarAtom
VarAtom
p27
(dp28
g22
g8
((lp29
(imodel.VarAtom
VarAtom
p30
(dp31
g22
g8
((lp32
(imodel.VarAtom
VarAtom
p33
(dp34
g22
g8
((lp35
g30
a(imodel.VarAtom
VarAtom
p36
(dp37
g22
g8
((lp38
g33
atRp39
sg12
S'H6_1'
p40
sS'isLabile'
p41
I00
sS'chirality'
p42
NsS'atom'
p43
(imodel.Atom
Atom
p44
(dp45
g12
g40
sg14
g1
sg15
I1
sg16
S'H'
sg17
I00
sg18
g8
((lp46
g36
atRp47
sS'isDeleted'
p48
I00
sbsS'variant'
p49
(imodel.Variant
Variant
p50
(dp51
S'elementDict'
p52
(dp53
S'H'
g8
((lp54
g36
a(imodel.VarAtom
VarAtom
p55
(dp56
g22
g8
((lp57
(imodel.VarAtom
VarAtom
p58
(dp59
g22
g8
((lp60
g33
a(imodel.VarAtom
VarAtom
p61
(dp62
g22
g8
((lp63
g58
a(imodel.VarAtom
VarAtom
p64
(dp65
g22
g8
((lp66
g61
atRp67
sg12
S'H8_1'
p68
sg41
I00
sg42
Nsg43
(imodel.Atom
Atom
p69
(dp70
g12
g68
sg14
g1
sg15
I1
sg16
S'H'
sg17
I00
sg18
g8
((lp71
g64
atRp72
sg48
I00
sbsg49
g50
sS'charge'
p73
I0
sg16
S'H'
sg17
I00
sS'coords'
p74
(F392.61941920159541
F123.53679925628529
F1.3916210129970461
tp75
sS'freeValences'
p76
(lp77
sg14
g1
sS'atomGroups'
p78
g8
((lp79
(imodel.AtomGroup
AtomGroup
p80
(dp81
S'groupType'
p82
S'equivalent'
p83
sS'subGroups'
p84
g8
((ltRp85
sg18
g8
((lp86
g64
a(imodel.VarAtom
VarAtom
p87
(dp88
g22
g8
((lp89
g61
atRp90
sg12
S'H8_2'
p91
sg41
I00
sg42
Nsg43
(imodel.Atom
Atom
p92
(dp93
g12
g91
sg14
g1
sg15
I1
sg16
S'H'
sg17
I00
sg18
g8
((lp94
g87
atRp95
sg48
I00
sbsg49
g50
sg73
I0
sg16
S'H'
sg17
I00
sg74
(F430.20899816507716
F189.66341351766366
F0.24619063411619557
tp96
sg76
(lp97
sg14
g1
sg78
g8
((lp98
g80
atRp99
sS'bonds'
p100
g8
((lp101
(imodel.Bond
Bond
p102
(dp103
S'bondType'
p104
S'single'
p105
sg14
g1
sg49
g50
sg18
g8
((lp106
g61
ag87
atRp107
sbatRp108
sg48
I00
sba(imodel.VarAtom
VarAtom
p109
(dp110
g22
g8
((lp111
g61
atRp112
sg12
S'H8_3'
p113
sg41
I00
sg42
Nsg43
(imodel.Atom
Atom
p114
(dp115
g12
g113
sg14
g1
sg15
I1
sg16
S'H'
sg17
I00
sg18
g8
((lp116
g109
atRp117
sg48
I00
sbsg49
g50
sg73
I0
sg16
S'H'
sg17
I00
sg74
(F438.69396022868705
F140.52791137317425
F1.6580421499440972
tp118
sg76
(lp119
sg14
g1
sg78
g8
((lp120
g80
atRp121
sg100
g8
((lp122
(imodel.Bond
Bond
p123
(dp124
g104
g105
sg14
g1
sg49
g50
sg18
g8
((lp125
g61
ag109
atRp126
sbatRp127
sg48
I00
sbatRp128
sg49
g50
sg14
g1
sbatRp129
sg100
g8
((lp130
(imodel.Bond
Bond
p131
(dp132
g104
g105
sg14
g1
sg49
g50
sg18
g8
((lp133
g61
ag64
atRp134
sbatRp135
sg48
I00
sbag87
ag109
atRp136
sg12
S'C8'
p137
sg41
I00
sg42
Nsg43
(imodel.Atom
Atom
p138
(dp139
g12
g137
sg14
g1
sg15
I4
sg16
S'C'
sg17
I00
sg18
g8
((lp140
g61
atRp141
sg48
I00
sbsg49
g50
sg73
I0
sg16
S'C'
sg17
I00
sg74
(F404.93428383709954
F160.27190837203312
F0.51053165285596469
tp142
sg76
(lp143
sg14
g1
sg78
g8
((ltRp144
sg100
g8
((lp145
(imodel.Bond
Bond
p146
(dp147
g104
g105
sg14
g1
sg49
g50
sg18
g8
((lp148
g58
ag61
atRp149
sbag102
ag131
ag123
atRp150
sg48
I00
sbag55
a(imodel.VarAtom
VarAtom
p151
(dp152
g22
g8
((lp153
g58
atRp154
sg12
S'H7_2'
p155
sg41
I00
sg42
Nsg43
(imodel.Atom
Atom
p156
(dp157
g12
g155
sg14
g1
sg15
I1
sg16
S'H'
sg17
I00
sg18
g8
((lp158
g151
atRp159
sg48
I00
sbsg49
g50
sg73
I0
sg16
S'H'
sg17
I00
sg74
(F335.26902838104706
F221.12939333069181
F1.2798655457443657
tp160
sg76
(lp161
sg14
g1
sg78
g8
((lp162
(imodel.AtomGroup
AtomGroup
p163
(dp164
g82
S'prochiral'
p165
sg84
g8
((ltRp166
sg18
g8
((lp167
g55
ag151
atRp168
sg49
g50
sg14
g1
sbatRp169
sg100
g8
((lp170
(imodel.Bond
Bond
p171
(dp172
g104
g105
sg14
g1
sg49
g50
sg18
g8
((lp173
g58
ag151
atRp174
sbatRp175
sg48
I00
sbatRp176
sg12
S'C7'
p177
sg41
I00
sg42
Nsg43
(imodel.Atom
Atom
p178
(dp179
g12
g177
sg14
g1
sg15
I4
sg16
S'C'
sg17
I00
sg18
g8
((lp180
g58
atRp181
sg48
I00
sbsg49
g50
sg73
I0
sg16
S'C'
sg17
I00
sg74
(F356.77466341144162
F189.18500724036736
F0.93311657942750403
tp182
sg76
(lp183
sg14
g1
sg78
g8
((ltRp184
sg100
g8
((lp185
(imodel.Bond
Bond
p186
(dp187
g104
g105
sg14
g1
sg49
g50
sg18
g8
((lp188
g33
ag58
atRp189
sbag146
a(imodel.Bond
Bond
p190
(dp191
g104
g105
sg14
g1
sg49
g50
sg18
g8
((lp192
g58
ag55
atRp193
sbag171
atRp194
sg48
I00
sbatRp195
sg12
S'H7_1'
p196
sg41
I00
sg42
Nsg43
(imodel.Atom
Atom
p197
(dp198
g12
g196
sg14
g1
sg15
I1
sg16
S'H'
sg17
I00
sg18
g8
((lp199
g55
atRp200
sg48
I00
sbsg49
g50
sg73
I0
sg16
S'H'
sg17
I00
sg74
(F379.70452262963647
F220.51894215148155
F2.0038266158887303
tp201
sg76
(lp202
sg14
g1
sg78
g8
((lp203
g163
atRp204
sg100
g8
((lp205
g190
atRp206
sg48
I00
sba(imodel.VarAtom
VarAtom
p207
(dp208
g22
g8
((lp209
g24
atRp210
sg12
S'H3_2'
p211
sg41
I00
sg42
Nsg43
(imodel.Atom
Atom
p212
(dp213
g12
g211
sg14
g1
sg15
I1
sg16
S'H'
sg17
I00
sg18
g8
((lp214
g207
atRp215
sg48
I00
sbsg49
g50
sg73
I0
sg16
S'H'
sg17
I00
sg74
(F129.17077210650859
F223.01366468820515
F1.6118906137572382
tp216
sg76
(lp217
sg14
g1
sg78
g8
((lp218
(imodel.AtomGroup
AtomGroup
p219
(dp220
g82
g165
sg84
g8
((ltRp221
sg18
g8
((lp222
g20
ag207
atRp223
sg49
g50
sg14
g1
sbatRp224
sg100
g8
((lp225
(imodel.Bond
Bond
p226
(dp227
g104
g105
sg14
g1
sg49
g50
sg18
g8
((lp228
g24
ag207
atRp229
sbatRp230
sg48
I00
sbag20
a(imodel.VarAtom
VarAtom
p231
(dp232
g22
g8
((lp233
g30
atRp234
sg12
S'H5_1'
p235
sg41
I00
sg42
Nsg43
(imodel.Atom
Atom
p236
(dp237
g12
g235
sg14
g1
sg15
I1
sg16
S'H'
sg17
I00
sg18
g8
((lp238
g231
atRp239
sg48
I00
sbsg49
g50
sg73
I0
sg16
S'H'
sg17
I00
sg74
(F276.12869261150604
F219.86681808942924
F1.3576189268688283
tp240
sg76
(lp241
sg14
g1
sg78
g8
((lp242
(imodel.AtomGroup
AtomGroup
p243
(dp244
g82
g165
sg84
g8
((ltRp245
sg18
g8
((lp246
g231
a(imodel.VarAtom
VarAtom
p247
(dp248
g22
g8
((lp249
g30
atRp250
sg12
S'H5_2'
p251
sg41
I00
sg42
Nsg43
(imodel.Atom
Atom
p252
(dp253
g12
g251
sg14
g1
sg15
I1
sg16
S'H'
sg17
I00
sg18
g8
((lp254
g247
atRp255
sg48
I00
sbsg49
g50
sg73
I0
sg16
S'H'
sg17
I00
sg74
(F232.02890073572357
F220.39661987346452
F0.86210378051542269
tp256
sg76
(lp257
sg14
g1
sg78
g8
((lp258
g243
atRp259
sg100
g8
((lp260
(imodel.Bond
Bond
p261
(dp262
g104
g105
sg14
g1
sg49
g50
sg18
g8
((lp263
g30
ag247
atRp264
sbatRp265
sg48
I00
sbatRp266
sg49
g50
sg14
g1
sbatRp267
sg100
g8
((lp268
(imodel.Bond
Bond
p269
(dp270
g104
g105
sg14
g1
sg49
g50
sg18
g8
((lp271
g30
ag231
atRp272
sbatRp273
sg48
I00
sba(imodel.VarAtom
VarAtom
p274
(dp275
g22
g8
((lp276
(imodel.VarAtom
VarAtom
p277
(dp278
g22
g8
((lp279
g274
a(imodel.VarAtom
VarAtom
p280
(dp281
g22
g8
((lp282
g277
atRp283
sg12
S'H2_2'
p284
sg41
I00
sg42
Nsg43
(imodel.Atom
Atom
p285
(dp286
g12
g284
sg14
g1
sg15
I1
sg16
S'H'
sg17
I00
sg18
g8
((lp287
g280
atRp288
sg48
I00
sbsg49
g50
sg73
I0
sg16
S'H'
sg17
I00
sg74
(F72.666312298934898
F140.51852220802405
F2.3904333989188959
tp289
sg76
(lp290
sg14
g1
sg78
g8
((lp291
(imodel.AtomGroup
AtomGroup
p292
(dp293
g82
g165
sg84
g8
((ltRp294
sg18
g8
((lp295
g274
ag280
atRp296
sg49
g50
sg14
g1
sbatRp297
sg100
g8
((lp298
(imodel.Bond
Bond
p299
(dp300
g104
g105
sg14
g1
sg49
g50
sg18
g8
((lp301
g277
ag280
atRp302
sbatRp303
sg48
I00
sbag24
a(imodel.VarAtom
VarAtom
p304
(dp305
g22
g8
((lp306
g277
a(imodel.VarAtom
VarAtom
p307
(dp308
g22
g8
((lp309
g304
atRp310
sg12
S'H1_1'
p311
sg41
I00
sg42
Nsg43
(imodel.Atom
Atom
p312
(dp313
g12
g311
sg14
g1
sg15
I1
sg16
S'H'
sg17
I00
sg18
g8
((lp314
g307
atRp315
sg48
I00
sbsg49
g50
sg73
I0
sg16
S'H'
sg17
I00
sg74
(F67.272225023648005
F238.64126189534858
F1.6402934637870521
tp316
sg76
(lp317
sg14
g1
sg78
g8
((lp318
(imodel.AtomGroup
AtomGroup
p319
(dp320
g82
g165
sg84
g8
((ltRp321
sg18
g8
((lp322
g307
a(imodel.VarAtom
VarAtom
p323
(dp324
g22
g8
((lp325
g304
atRp326
sg12
S'H1_2'
p327
sg41
I00
sg42
Nsg43
(imodel.Atom
Atom
p328
(dp329
g12
g327
sg14
g1
sg15
I1
sg16
S'H'
sg17
I00
sg18
g8
((lp330
g323
atRp331
sg48
I00
sbsg49
g50
sg73
I0
sg16
S'H'
sg17
I00
sg74
(F24.534337970508552
F175.73182309584564
F1.3654422269979838
tp332
sg76
(lp333
sg14
g1
sg78
g8
((lp334
g319
atRp335
sg100
g8
((lp336
(imodel.Bond
Bond
p337
(dp338
g104
g105
sg14
g1
sg49
g50
sg18
g8
((lp339
g304
ag323
atRp340
sbatRp341
sg48
I00
sbatRp342
sg49
g50
sg14
g1
sbatRp343
sg100
g8
((lp344
(imodel.Bond
Bond
p345
(dp346
g104
g105
sg14
g1
sg49
g50
sg18
g8
((lp347
g304
ag307
atRp348
sbatRp349
sg48
I00
sbag323
atRp350
sg12
S'C1'
p351
sg41
I00
sg42
Nsg43
(imodel.Atom
Atom
p352
(dp353
g12
g351
sg14
g1
sg15
I4
sg16
S'C'
sg17
I00
sg18
g8
((lp354
g304
atRp355
sg48
I00
sbsg49
g50
sg73
I0
sg16
S'C'
sg17
I00
sg74
(F52.061973458531618
F203.00697358384963
F1.2524716619827516
tp356
sg76
(lp357
F5.3091070081370138
asg14
g1
sg78
g8
((ltRp358
sg100
g8
((lp359
(imodel.Bond
Bond
p360
(dp361
g104
g105
sg14
g1
sg49
g50
sg18
g8
((lp362
g277
ag304
atRp363
sbag337
ag345
atRp364
sg48
I00
sbatRp365
sg12
S'C2'
p366
sg41
I00
sg42
Nsg43
(imodel.Atom
Atom
p367
(dp368
g12
g366
sg14
g1
sg15
I4
sg16
S'C'
sg17
I00
sg18
g8
((lp369
g277
atRp370
sg48
I00
sbsg49
g50
sg73
I0
sg16
S'C'
sg17
I00
sg74
(F97.829498429292244
F170.12397290970773
F1.1234482801965338
tp371
sg76
(lp372
sg14
g1
sg78
g8
((ltRp373
sg100
g8
((lp374
g360
a(imodel.Bond
Bond
p375
(dp376
g104
g105
sg14
g1
sg49
g50
sg18
g8
((lp377
g277
ag24
atRp378
sba(imodel.Bond
Bond
p379
(dp380
g104
g105
sg14
g1
sg49
g50
sg18
g8
((lp381
g277
ag274
atRp382
sbag299
atRp383
sg48
I00
sbatRp384
sg12
S'H2_1'
p385
sg41
I00
sg42
Nsg43
(imodel.Atom
Atom
p386
(dp387
g12
g385
sg14
g1
sg15
I1
sg16
S'H'
sg17
I00
sg18
g8
((lp388
g274
atRp389
sg48
I00
sbsg49
g50
sg73
I0
sg16
S'H'
sg17
I00
sg74
(F117.31645364930637
F136.89435122320754
F1.7792220195063422
tp390
sg76
(lp391
sg14
g1
sg78
g8
((lp392
g292
atRp393
sg100
g8
((lp394
g379
atRp395
sg48
I00
sbag151
a(imodel.VarAtom
VarAtom
p396
(dp397
g22
g8
((lp398
g27
atRp399
sg12
S'H4_1'
p400
sg41
I00
sg42
Nsg43
(imodel.Atom
Atom
p401
(dp402
g12
g400
sg14
g1
sg15
I1
sg16
S'H'
sg17
I00
sg18
g8
((lp403
g396
atRp404
sg48
I00
sbsg49
g50
sg73
I0
sg16
S'H'
sg17
I00
sg74
(F178.32735908418618
F134.25983758601836
F1.5990015545902403
tp405
sg76
(lp406
sg14
g1
sg78
g8
((lp407
(imodel.AtomGroup
AtomGroup
p408
(dp409
g82
g165
sg84
g8
((ltRp410
sg18
g8
((lp411
g396
a(imodel.VarAtom
VarAtom
p412
(dp413
g22
g8
((lp414
g27
atRp415
sg12
S'H4_2'
p416
sg41
I00
sg42
Nsg43
(imodel.Atom
Atom
p417
(dp418
g12
g416
sg14
g1
sg15
I1
sg16
S'H'
sg17
I00
sg18
g8
((lp419
g412
atRp420
sg48
I00
sbsg49
g50
sg73
I0
sg16
S'H'
sg17
I00
sg74
(F223.03464976451642
F132.8990737555356
F2.2622707684855428
tp421
sg76
(lp422
sg14
g1
sg78
g8
((lp423
g408
atRp424
sg100
g8
((lp425
(imodel.Bond
Bond
p426
(dp427
g104
g105
sg14
g1
sg49
g50
sg18
g8
((lp428
g27
ag412
atRp429
sbatRp430
sg48
I00
sbatRp431
sg49
g50
sg14
g1
sbatRp432
sg100
g8
((lp433
(imodel.Bond
Bond
p434
(dp435
g104
g105
sg14
g1
sg49
g50
sg18
g8
((lp436
g27
ag396
atRp437
sbatRp438
sg48
I00
sbag280
ag87
ag109
ag64
ag412
ag323
ag247
a(imodel.VarAtom
VarAtom
p439
(dp440
g22
g8
((lp441
g33
atRp442
sg12
S'H6_2'
p443
sg41
I00
sg42
Nsg43
(imodel.Atom
Atom
p444
(dp445
g12
g443
sg14
g1
sg15
I1
sg16
S'H'
sg17
I00
sg18
g8
((lp446
g439
atRp447
sg48
I00
sbsg49
g50
sg73
I0
sg16
S'H'
sg17
I00
sg74
(F329.03600489176699
F134.28670118891313
F1.7459506409161749
tp448
sg76
(lp449
sg14
g1
sg78
g8
((lp450
(imodel.AtomGroup
AtomGroup
p451
(dp452
g82
g165
sg84
g8
((ltRp453
sg18
g8
((lp454
g36
ag439
atRp455
sg49
g50
sg14
g1
sbatRp456
sg100
g8
((lp457
(imodel.Bond
Bond
p458
(dp459
g104
g105
sg14
g1
sg49
g50
sg18
g8
((lp460
g33
ag439
atRp461
sbatRp462
sg48
I00
sbag307
atRp463
sS'C'
g8
((lp464
g277
ag24
ag30
ag27
ag33
ag304
ag58
ag61
atRp465
ssS'bonds'
p466
g8
((lp467
g360
a(imodel.Bond
Bond
p468
(dp469
g104
g105
sg14
g1
sg49
g50
sg18
g8
((lp470
g30
ag33
atRp471
sbag458
ag146
ag131
ag186
ag375
ag190
ag171
ag261
ag269
a(imodel.Bond
Bond
p472
(dp473
g104
g105
sg14
g1
sg49
g50
sg18
g8
((lp474
g30
ag27
atRp475
sbag337
a(imodel.Bond
Bond
p476
(dp477
g104
g105
sg14
g1
sg49
g50
sg18
g8
((lp478
g33
ag36
atRp479
sbag434
a(imodel.Bond
Bond
p480
(dp481
g104
g105
sg14
g1
sg49
g50
sg18
g8
((lp482
g24
ag20
atRp483
sbag102
ag345
ag226
ag426
ag123
a(imodel.Bond
Bond
p484
(dp485
g104
g105
sg14
g1
sg49
g50
sg18
g8
((lp486
g24
ag27
atRp487
sbag299
ag379
atRp488
sS'compound'
p489
g1
sS'descriptor'
p490
(S'neutral'
p491
S'none'
p492
S'default'
p493
tp494
sS'atomDict'
p495
(dp496
g10
g20
sg212
g207
sg44
g36
sg252
g247
sg312
g307
sg197
g55
sg444
g439
sg236
g231
sg138
g61
s(imodel.Atom
Atom
p497
(dp498
g12
S'C5'
p499
sg14
g1
sg15
I4
sg16
S'C'
sg17
I00
sg18
g8
((lp500
g30
atRp501
sg48
I00
sbg30
sg92
g87
sg285
g280
sg417
g412
sg367
g277
sg386
g274
sg114
g109
sg328
g323
sg178
g58
sg69
g64
s(imodel.Atom
Atom
p502
(dp503
g12
S'C6'
p504
sg14
g1
sg15
I4
sg16
S'C'
sg17
I00
sg18
g8
((lp505
g33
atRp506
sg48
I00
sbg33
s(imodel.Atom
Atom
p507
(dp508
g12
S'C3'
p509
sg14
g1
sg15
I4
sg16
S'C'
sg17
I00
sg18
g8
((lp510
g24
atRp511
sg48
I00
sbg24
s(imodel.Atom
Atom
p512
(dp513
g12
S'C4'
p514
sg14
g1
sg15
I4
sg16
S'C'
sg17
I00
sg18
g8
((lp515
g27
atRp516
sg48
I00
sbg27
sg352
g304
sg401
g396
sg156
g151
ssS'varAtoms'
p517
g8
((lp518
g277
ag24
ag30
ag87
ag207
ag20
ag396
ag247
ag55
ag231
ag58
ag61
ag64
ag33
ag27
ag36
ag323
ag109
ag274
ag439
ag280
ag412
ag151
ag307
ag304
atRp519
sS'atomGroups'
p520
g8
((lp521
g163
ag80
ag292
ag408
ag219
ag243
ag319
ag451
atRp522
sS'polyLink'
p523
g492
sbsg73
I0
sg16
S'H'
sg17
I00
sg74
(F284.13074225810061
F131.88176656275849
F1.333626679837423
tp524
sg76
(lp525
sg14
g1
sg78
g8
((lp526
g451
atRp527
sg100
g8
((lp528
g476
atRp529
sg48
I00
sbag439
ag58
atRp530
sg12
g504
sg41
I00
sg42
Nsg43
g502
sg49
g50
sg73
I0
sg16
S'C'
sg17
I00
sg74
(F305.01255536763244
F164.27405232589933
F1.1289133323400748
tp531
sg76
(lp532
sg14
g1
sg78
g8
((ltRp533
sg100
g8
((lp534
g468
ag186
ag476
ag458
atRp535
sg48
I00
sbag27
ag231
ag247
atRp536
sg12
g499
sg41
I00
sg42
Nsg43
g497
sg49
g50
sg73
I0
sg16
S'C'
sg17
I00
sg74
(F253.69300929347369
F188.61223873697026
F1.3706315195010368
tp537
sg76
(lp538
sg14
g1
sg78
g8
((ltRp539
sg100
g8
((lp540
g468
ag472
ag269
ag261
atRp541
sg48
I00
sbag396
ag24
ag412
atRp542
sg12
g514
sg41
I00
sg42
Nsg43
g512
sg49
g50
sg73
I0
sg16
S'C'
sg17
I00
sg74
(F201.63120665056636
F164.91834550025931
F0.26965067082240557
tp543
sg76
(lp544
sg14
g1
sg78
g8
((ltRp545
sg100
g8
((lp546
g472
ag484
ag426
ag434
atRp547
sg48
I00
sbag20
ag277
ag207
atRp548
sg12
g509
sg41
I00
sg42
Nsg43
g507
sg49
g50
sg73
I0
sg16
S'C'
sg17
I00
sg74
(F151.15912461426703
F191.48614469162388
F1.1836478396737011
tp549
sg76
(lp550
sg14
g1
sg78
g8
((ltRp551
sg100
g8
((lp552
g484
ag375
ag226
ag480
atRp553
sg48
I00
sbatRp554
sg12
g13
sg41
I00
sg42
Nsg43
g10
sg49
g50
sg73
I0
sg16
S'H'
sg17
I00
sg74
(F173.50448240067104
F222.83274732737101
F2.2078008182901843
tp555
sg76
(lp556
sg14
g1
sg78
g8
((lp557
g219
atRp558
sg100
g8
((lp559
g480
atRp560
sg48
I00
sbatRp561
sg48
I00
sbag212
ag44
ag252
ag312
ag197
ag444
ag236
ag138
ag497
ag92
ag285
ag417
ag367
ag386
ag114
ag328
ag178
ag69
ag502
ag507
ag512
ag352
ag401
ag156
atRp562
sS'ccpMolType'
p563
S'other'
p564
sS'details'
p565
V
sg495
(dp566
g68
g69
sg113
g114
sg91
g92
sg235
g236
sg400
g401
sg416
g417
sg211
g212
sg13
g10
sg137
g138
sg443
g444
sg509
g507
sg366
g367
sg351
g352
sg177
g178
sg40
g44
sg499
g497
sg514
g512
sg155
g156
sg196
g197
sg284
g285
sg385
g386
sg311
g312
sg327
g328
sg504
g502
sg251
g252
ssS'keywords'
p567
g8
((ltRp568
sg520
g8
((lp569
g163
ag80
ag292
ag408
ag219
ag243
ag319
ag451
atRp570
sS'variants'
p571
g8
((lp572
g50
atRp573
sS'defaultVars'
p574
g8
((ltRp575
sb.