(iccpnmr.chemBuild.model.Compound
Compound
p1
(dp2
S'name'
p3
S'Unnamed'
p4
sS'isModified'
p5
I01
sS'ccpCode'
p6
NsS'atoms'
p7
c__builtin__
set
p8
((lp9
(iccpnmr.chemBuild.model.Atom
Atom
p10
(dp11
g3
S'H61'
p12
sS'compound'
p13
g1
sS'baseValences'
p14
I1
sS'element'
p15
S'H'
sS'isVariable'
p16
I00
sS'varAtoms'
p17
g8
((lp18
(iccpnmr.chemBuild.model.VarAtom
VarAtom
p19
(dp20
S'stereo'
p21
(lp22
sS'neighbours'
p23
g8
((lp24
(iccpnmr.chemBuild.model.VarAtom
VarAtom
p25
(dp26
g21
(lp27
sg23
g8
((lp28
(iccpnmr.chemBuild.model.VarAtom
VarAtom
p29
(dp30
g21
(lp31
sg23
g8
((lp32
(iccpnmr.chemBuild.model.VarAtom
VarAtom
p33
(dp34
g21
(lp35
sg23
g8
((lp36
(iccpnmr.chemBuild.model.VarAtom
VarAtom
p37
(dp38
g21
(lp39
sg23
g8
((lp40
g33
a(iccpnmr.chemBuild.model.VarAtom
VarAtom
p41
(dp42
g21
(lp43
sg23
g8
((lp44
(iccpnmr.chemBuild.model.VarAtom
VarAtom
p45
(dp46
g21
(lp47
sg23
g8
((lp48
(iccpnmr.chemBuild.model.VarAtom
VarAtom
p49
(dp50
g21
(lp51
sg23
g8
((lp52
g45
ag29
a(iccpnmr.chemBuild.model.VarAtom
VarAtom
p53
(dp54
g21
(lp55
sg23
g8
((lp56
g49
a(iccpnmr.chemBuild.model.VarAtom
VarAtom
p57
(dp58
g21
(lp59
sg23
g8
((lp60
(iccpnmr.chemBuild.model.VarAtom
VarAtom
p61
(dp62
g21
(lp63
sg23
g8
((lp64
g57
atRp65
sg3
S'H8'
p66
sS'isLabile'
p67
I00
sS'chirality'
p68
Nsg13
g1
sS'variant'
p69
(iccpnmr.chemBuild.model.Variant
Variant
p70
(dp71
S'elementDict'
p72
(dp73
S'H'
g8
((lp74
(iccpnmr.chemBuild.model.VarAtom
VarAtom
p75
(dp76
g21
(lp77
sg23
g8
((lp78
g33
atRp79
sg3
S'H1'
p80
sg67
I00
sg68
Nsg13
g1
sg69
g70
sS'charge'
p81
I0
sg15
S'H'
sg16
I01
sS'coords'
p82
(F63.063216458843073
F-409.63194668782984
F305.46204154004892
tp83
sS'freeValences'
p84
(lp85
sS'atom'
p86
(iccpnmr.chemBuild.model.Atom
Atom
p87
(dp88
g3
g80
sg13
g1
sg14
I1
sg15
S'H'
sg16
I01
sg17
g8
((lp89
g75
atRp90
sS'isDeleted'
p91
I00
sbsS'atomGroups'
p92
g8
((ltRp93
sS'bonds'
p94
g8
((lp95
(iccpnmr.chemBuild.model.Bond
Bond
p96
(dp97
S'bondType'
p98
S'single'
p99
sS'direction'
p100
Nsg13
g1
sg69
g70
sg17
g8
((lp101
g33
ag75
atRp102
sbatRp103
sg91
I00
sbag61
a(iccpnmr.chemBuild.model.VarAtom
VarAtom
p104
(dp105
g21
(lp106
sg23
g8
((lp107
(iccpnmr.chemBuild.model.VarAtom
VarAtom
p108
(dp109
g21
(lp110
sg23
g8
((lp111
g45
ag104
ag57
atRp112
sg3
S'N9'
p113
sg67
I00
sg68
Nsg13
g1
sg69
g70
sg81
I0
sg15
S'N'
sg16
I00
sg82
(F-105.66251643434549
F-320.01909359212374
F24.195939019658841
tp114
sg84
(lp115
sg86
(iccpnmr.chemBuild.model.Atom
Atom
p116
(dp117
g3
g113
sg13
g1
sg14
I3
sg15
S'N'
sg16
I00
sg17
g8
((lp118
(iccpnmr.chemBuild.model.VarAtom
VarAtom
p119
(dp120
g21
(lp121
sg23
g8
((lp122
(iccpnmr.chemBuild.model.VarAtom
VarAtom
p123
(dp124
g21
(lp125
sg23
g8
((lp126
(iccpnmr.chemBuild.model.VarAtom
VarAtom
p127
(dp128
g21
(lp129
sg23
g8
((lp130
g123
a(iccpnmr.chemBuild.model.VarAtom
VarAtom
p131
(dp132
g21
(lp133
sg23
g8
((lp134
(iccpnmr.chemBuild.model.VarAtom
VarAtom
p135
(dp136
g21
(lp137
sg23
g8
((lp138
g131
ag119
a(iccpnmr.chemBuild.model.VarAtom
VarAtom
p139
(dp140
g21
(lp141
sg23
g8
((lp142
g135
a(iccpnmr.chemBuild.model.VarAtom
VarAtom
p143
(dp144
g21
(lp145
sg23
g8
((lp146
(iccpnmr.chemBuild.model.VarAtom
VarAtom
p147
(dp148
g21
(lp149
sg23
g8
((lp150
g143
a(iccpnmr.chemBuild.model.VarAtom
VarAtom
p151
(dp152
g21
(lp153
sg23
g8
((lp154
g147
ag131
a(iccpnmr.chemBuild.model.VarAtom
VarAtom
p155
(dp156
g21
(lp157
sg23
g8
((lp158
(iccpnmr.chemBuild.model.VarAtom
VarAtom
p159
(dp160
g21
(lp161
sg23
g8
((lp162
g155
atRp163
sg3
S'H62'
p164
sg67
I00
sg68
Nsg13
g1
sg69
(iccpnmr.chemBuild.model.Variant
Variant
p165
(dp166
g72
(dp167
S'H'
g8
((lp168
g159
a(iccpnmr.chemBuild.model.VarAtom
VarAtom
p169
(dp170
g21
(lp171
sg23
g8
((lp172
g123
atRp173
sg3
g66
sg67
I00
sg68
Nsg13
g1
sg69
g165
sg81
I0
sg15
S'H'
sg16
I00
sg82
(F-173.28724566965394
F-366.80621284235707
F2.6327207791024829
tp174
sg84
(lp175
sg86
(iccpnmr.chemBuild.model.Atom
Atom
p176
(dp177
g3
g66
sg13
g1
sg14
I1
sg15
S'H'
sg16
I00
sg17
g8
((lp178
g169
ag61
atRp179
sg91
I00
sbsg92
g8
((ltRp180
sg94
g8
((lp181
(iccpnmr.chemBuild.model.Bond
Bond
p182
(dp183
g98
g99
sg100
Nsg13
g1
sg69
g165
sg17
g8
((lp184
g123
ag169
atRp185
sbatRp186
sg91
I00
sba(iccpnmr.chemBuild.model.VarAtom
VarAtom
p187
(dp188
g21
(lp189
sg23
g8
((lp190
g155
atRp191
sg3
g12
sg67
I00
sg68
Nsg13
g1
sg69
g165
sg81
I0
sg15
S'H'
sg16
I00
sg82
(F10.141221048610468
F-487.46022207058598
F79.170823442044181
tp192
sg84
(lp193
sg86
g10
sg92
g8
((ltRp194
sg94
g8
((lp195
(iccpnmr.chemBuild.model.Bond
Bond
p196
(dp197
g98
g99
sg100
Nsg13
g1
sg69
g165
sg17
g8
((lp198
g187
ag155
atRp199
sbatRp200
sg91
I00
sba(iccpnmr.chemBuild.model.VarAtom
VarAtom
p201
(dp202
g21
(lp203
sg23
g8
((lp204
g143
atRp205
sg3
S'H2'
p206
sg67
I00
sg68
Nsg13
g1
sg69
g165
sg81
I0
sg15
S'H'
sg16
I00
sg82
(F58.426973768287034
F-319.2530536424203
F81.174215767291599
tp207
sg84
(lp208
sg86
(iccpnmr.chemBuild.model.Atom
Atom
p209
(dp210
g3
g206
sg13
g1
sg14
I1
sg15
S'H'
sg16
I00
sg17
g8
((lp211
(iccpnmr.chemBuild.model.VarAtom
VarAtom
p212
(dp213
g21
(lp214
sg23
g8
((lp215
g37
atRp216
sg3
g206
sg67
I00
sg68
Nsg13
g1
sg69
g70
sg81
I0
sg15
S'H'
sg16
I00
sg82
(F58.426973768287034
F-319.2530536424203
F81.174215767291599
tp217
sg84
(lp218
sg86
g209
sg92
g8
((ltRp219
sg94
g8
((lp220
(iccpnmr.chemBuild.model.Bond
Bond
p221
(dp222
g98
g99
sg100
Nsg13
g1
sg69
g70
sg17
g8
((lp223
g37
ag212
atRp224
sbatRp225
sg91
I00
sbag201
atRp226
sg91
I00
sbsg92
g8
((ltRp227
sg94
g8
((lp228
(iccpnmr.chemBuild.model.Bond
Bond
p229
(dp230
g98
g99
sg100
Nsg13
g1
sg69
g165
sg17
g8
((lp231
g143
ag201
atRp232
sbatRp233
sg91
I00
sba(iccpnmr.chemBuild.model.VarAtom
VarAtom
p234
(dp235
g21
(lp236
sg23
g8
((lp237
g119
atRp238
sg3
S'HN9'
p239
sg67
I00
sg68
Nsg13
g1
sg69
g165
sg81
I0
sg15
S'H'
sg16
I00
sg82
(F-116.02086452720999
F-283.49507704051274
F0.930021925126164
tp240
sg84
(lp241
sg86
(iccpnmr.chemBuild.model.Atom
Atom
p242
(dp243
g3
g239
sg13
g1
sg14
I1
sg15
S'H'
sg16
I00
sg17
g8
((lp244
g104
ag234
atRp245
sg91
I00
sbsg92
g8
((ltRp246
sg94
g8
((lp247
(iccpnmr.chemBuild.model.Bond
Bond
p248
(dp249
g98
S'single'
p250
sg100
Nsg13
g1
sg69
g165
sg17
g8
((lp251
g119
ag234
atRp252
sbatRp253
sg91
I00
sbatRp254
sS'C'
g8
((lp255
g135
ag123
ag131
ag143
ag151
atRp256
sS'N'
g8
((lp257
g127
ag147
ag139
ag119
ag155
atRp258
ssg94
g8
((lp259
(iccpnmr.chemBuild.model.Bond
Bond
p260
(dp261
g98
g99
sg100
Nsg13
g1
sg69
g165
sg17
g8
((lp262
g155
ag151
atRp263
sba(iccpnmr.chemBuild.model.Bond
Bond
p264
(dp265
g98
S'aromatic'
p266
sg100
Nsg13
g1
sg69
g165
sg17
g8
((lp267
g139
ag143
atRp268
sbag196
a(iccpnmr.chemBuild.model.Bond
Bond
p269
(dp270
g98
g266
sg100
Nsg13
g1
sg69
g165
sg17
g8
((lp271
g135
ag119
atRp272
sba(iccpnmr.chemBuild.model.Bond
Bond
p273
(dp274
g98
g266
sg100
Nsg13
g1
sg69
g165
sg17
g8
((lp275
g123
ag127
atRp276
sba(iccpnmr.chemBuild.model.Bond
Bond
p277
(dp278
g98
g266
sg100
Nsg13
g1
sg69
g165
sg17
g8
((lp279
g127
ag131
atRp280
sbag182
a(iccpnmr.chemBuild.model.Bond
Bond
p281
(dp282
g98
g99
sg100
Nsg13
g1
sg69
g165
sg17
g8
((lp283
g159
ag155
atRp284
sbag229
a(iccpnmr.chemBuild.model.Bond
Bond
p285
(dp286
g98
g266
sg100
Nsg13
g1
sg69
g165
sg17
g8
((lp287
g135
ag139
atRp288
sba(iccpnmr.chemBuild.model.Bond
Bond
p289
(dp290
g98
g266
sg100
Nsg13
g1
sg69
g165
sg17
g8
((lp291
g123
ag119
atRp292
sbag248
a(iccpnmr.chemBuild.model.Bond
Bond
p293
(dp294
g98
g266
sg100
Nsg13
g1
sg69
g165
sg17
g8
((lp295
g135
ag131
atRp296
sba(iccpnmr.chemBuild.model.Bond
Bond
p297
(dp298
g98
g266
sg100
Nsg13
g1
sg69
g165
sg17
g8
((lp299
g147
ag151
atRp300
sba(iccpnmr.chemBuild.model.Bond
Bond
p301
(dp302
g98
g266
sg100
Nsg13
g1
sg69
g165
sg17
g8
((lp303
g147
ag143
atRp304
sba(iccpnmr.chemBuild.model.Bond
Bond
p305
(dp306
g98
g266
sg100
Nsg13
g1
sg69
g165
sg17
g8
((lp307
g131
ag151
atRp308
sbatRp309
sg13
g1
sS'atomDict'
p310
(dp311
g10
g187
sg116
g119
s(iccpnmr.chemBuild.model.Atom
Atom
p312
(dp313
g3
g164
sg13
g1
sg14
I1
sg15
S'H'
sg16
I00
sg17
g8
((lp314
g159
a(iccpnmr.chemBuild.model.VarAtom
VarAtom
p315
(dp316
g21
(lp317
sg23
g8
((lp318
g25
atRp319
sg3
g164
sg67
I00
sg68
Nsg13
g1
sg69
g70
sg81
I0
sg15
S'H'
sg16
I00
sg82
(F-51.658800398909484
F-484.36734510027981
F22.324931334970344
tp320
sg84
(lp321
sg86
g312
sg92
g8
((ltRp322
sg94
g8
((lp323
(iccpnmr.chemBuild.model.Bond
Bond
p324
(dp325
g98
g99
sg100
Nsg13
g1
sg69
g70
sg17
g8
((lp326
g315
ag25
atRp327
sbatRp328
sg91
I00
sbatRp329
sg91
I00
sbg159
s(iccpnmr.chemBuild.model.Atom
Atom
p330
(dp331
g3
S'C6'
p332
sg13
g1
sg14
I4
sg15
S'C'
sg16
I00
sg17
g8
((lp333
g29
ag151
atRp334
sg91
I00
sbg151
s(iccpnmr.chemBuild.model.Atom
Atom
p335
(dp336
g3
S'N7'
p337
sg13
g1
sg14
I3
sg15
S'N'
sg16
I00
sg17
g8
((lp338
g127
ag53
atRp339
sg91
I00
sbg127
sg242
g234
s(iccpnmr.chemBuild.model.Atom
Atom
p340
(dp341
g3
S'C4'
p342
sg13
g1
sg14
I4
sg15
S'C'
sg16
I00
sg17
g8
((lp343
g45
ag135
atRp344
sg91
I00
sbg135
sg176
g169
s(iccpnmr.chemBuild.model.Atom
Atom
p345
(dp346
g3
S'C8'
p347
sg13
g1
sg14
I4
sg15
S'C'
sg16
I00
sg17
g8
((lp348
g123
ag57
atRp349
sg91
I00
sbg123
s(iccpnmr.chemBuild.model.Atom
Atom
p350
(dp351
g3
S'C5'
p352
sg13
g1
sg14
I4
sg15
S'C'
sg16
I00
sg17
g8
((lp353
g131
ag49
atRp354
sg91
I00
sbg131
s(iccpnmr.chemBuild.model.Atom
Atom
p355
(dp356
g3
S'N1'
p357
sg13
g1
sg14
I3
sg15
S'N'
sg16
I00
sg17
g8
((lp358
g33
ag147
atRp359
sg91
I00
sbg147
s(iccpnmr.chemBuild.model.Atom
Atom
p360
(dp361
g3
S'C2'
p362
sg13
g1
sg14
I4
sg15
S'C'
sg16
I00
sg17
g8
((lp363
g37
ag143
atRp364
sg91
I00
sbg143
s(iccpnmr.chemBuild.model.Atom
Atom
p365
(dp366
g3
S'N6'
p367
sg13
g1
sg14
I3
sg15
S'N'
sg16
I00
sg17
g8
((lp368
g155
ag25
atRp369
sg91
I00
sbg155
sg209
g201
s(iccpnmr.chemBuild.model.Atom
Atom
p370
(dp371
g3
S'N3'
p372
sg13
g1
sg14
I3
sg15
S'N'
sg16
I00
sg17
g8
((lp373
g41
ag139
atRp374
sg91
I00
sbg139
ssS'descriptor'
p375
(S'-H1'
S'none'
p376
S'default'
p377
tp378
sg17
g8
((lp379
g159
ag131
ag169
ag155
ag151
ag123
ag127
ag139
ag201
ag234
ag119
ag187
ag135
ag147
ag143
atRp380
sg92
g8
((lp381
(iccpnmr.chemBuild.model.AtomGroup
AtomGroup
p382
(dp383
S'groupType'
p384
S'aromatic'
p385
sS'subGroups'
p386
g8
((ltRp387
sg17
g8
((lp388
g123
ag135
ag131
ag119
ag127
atRp389
sg69
g165
sg13
g1
sba(iccpnmr.chemBuild.model.AtomGroup
AtomGroup
p390
(dp391
g384
S'aromatic'
p392
sg386
g8
((ltRp393
sg17
g8
((lp394
g131
ag151
ag135
ag147
ag139
ag143
atRp395
sg69
g165
sg13
g1
sbatRp396
sS'polyLink'
p397
S'free'
p398
sbsg81
I0
sg15
S'H'
sg16
I00
sg82
(F-51.658800398909484
F-484.36734510027981
F22.324931334970344
tp399
sg84
(lp400
sg86
g312
sg92
g8
((ltRp401
sg94
g8
((lp402
g281
atRp403
sg91
I00
sbag187
ag151
atRp404
sg3
g367
sg67
I00
sg68
Nsg13
g1
sg69
g165
sg81
I0
sg15
S'N'
sg16
I00
sg82
(F-19.61397574341283
F-463.50369335024783
F67.272968804035372
tp405
sg84
(lp406
sg86
g365
sg92
g8
((ltRp407
sg94
g8
((lp408
g281
ag260
ag196
atRp409
sg91
I00
sbatRp410
sg3
g332
sg67
I00
sg68
Nsg13
g1
sg69
g165
sg81
I0
sg15
S'C'
sg16
I00
sg82
(F-16.376355116194709
F-412.7101901689461
F62.477597120618647
tp411
sg84
(lp412
sg86
g330
sg92
g8
((lp413
g390
atRp414
sg94
g8
((lp415
g297
ag260
ag305
atRp416
sg91
I00
sbatRp417
sg3
g357
sg67
I00
sg68
Nsg13
g1
sg69
g165
sg81
I0
sg15
S'N'
sg16
I00
sg82
(F27.488767259403112
F-388.47043056900924
F73.986931534742197
tp418
sg84
(lp419
sg86
g355
sg92
g8
((lp420
g390
atRp421
sg94
g8
((lp422
g297
ag301
atRp423
sg91
I00
sbag139
ag201
atRp424
sg3
g362
sg67
I00
sg68
Nsg13
g1
sg69
g165
sg81
I0
sg15
S'C'
sg16
I00
sg82
(F28.356208207426498
F-338.28646140830728
F70.563351441755174
tp425
sg84
(lp426
sg86
g360
sg92
g8
((lp427
g390
atRp428
sg94
g8
((lp429
g264
ag229
ag301
atRp430
sg91
I00
sbatRp431
sg3
g372
sg67
I00
sg68
Nsg13
g1
sg69
g165
sg81
I0
sg15
S'N'
sg16
I00
sg82
(F-14.452456185720457
F-312.64909778215559
F54.014929298392829
tp432
sg84
(lp433
sg86
g370
sg92
g8
((lp434
g390
atRp435
sg94
g8
((lp436
g264
ag285
atRp437
sg91
I00
sbatRp438
sg3
g342
sg67
I00
sg68
Nsg13
g1
sg69
g165
sg81
I0
sg15
S'C'
sg16
I00
sg82
(F-58.270852531001829
F-336.85498694320319
F42.382113574463922
tp439
sg84
(lp440
sg86
g340
sg92
g8
((lp441
g382
ag390
atRp442
sg94
g8
((lp443
g293
ag285
ag269
atRp444
sg91
I00
sbag127
ag151
atRp445
sg3
g352
sg67
I00
sg68
Nsg13
g1
sg69
g165
sg81
I0
sg15
S'C'
sg16
I00
sg82
(F-59.270908649413919
F-386.59829629873758
F44.812238472717681
tp446
sg84
(lp447
sg86
g350
sg92
g8
((lp448
g382
ag390
atRp449
sg94
g8
((lp450
g293
ag277
ag305
atRp451
sg91
I00
sbatRp452
sg3
g337
sg67
I00
sg68
Nsg13
g1
sg69
g165
sg81
I0
sg15
S'N'
sg16
I00
sg82
(F-107.11950974430584
F-401.14850173827557
F30.028945399601628
tp453
sg84
(lp454
sg86
g335
sg92
g8
((lp455
g382
atRp456
sg94
g8
((lp457
g273
ag277
atRp458
sg91
I00
sbag169
ag119
atRp459
sg3
g347
sg67
I00
sg68
Nsg13
g1
sg69
g165
sg81
I0
sg15
S'C'
sg16
I00
sg82
(F-135.82330817483245
F-360.30728238222713
F16.754187878522828
tp460
sg84
(lp461
sg86
g345
sg92
g8
((lp462
g382
atRp463
sg94
g8
((lp464
g289
ag273
ag182
atRp465
sg91
I00
sbag135
ag234
atRp466
sg3
g113
sg67
I00
sg68
Nsg13
g1
sg69
g165
sg81
I0
sg15
S'N'
sg16
I00
sg82
(F-105.66251643434549
F-320.01909359212374
F24.195939019658841
tp467
sg84
(lp468
sg86
g116
sg92
g8
((lp469
g382
atRp470
sg94
g8
((lp471
g289
ag248
ag269
atRp472
sg91
I00
sbag108
atRp473
sg91
I00
sbsg92
g8
((lp474
(iccpnmr.chemBuild.model.AtomGroup
AtomGroup
p475
(dp476
g384
g385
sg386
g8
((ltRp477
sg17
g8
((lp478
g45
ag53
ag49
ag57
ag108
atRp479
sg69
g70
sg13
g1
sbatRp480
sg94
g8
((lp481
(iccpnmr.chemBuild.model.Bond
Bond
p482
(dp483
g98
g266
sg100
Nsg13
g1
sg69
g70
sg17
g8
((lp484
g45
ag108
atRp485
sba(iccpnmr.chemBuild.model.Bond
Bond
p486
(dp487
g98
g250
sg100
Nsg13
g1
sg69
g70
sg17
g8
((lp488
g104
ag108
atRp489
sba(iccpnmr.chemBuild.model.Bond
Bond
p490
(dp491
g98
g266
sg100
Nsg13
g1
sg69
g70
sg17
g8
((lp492
g57
ag108
atRp493
sbatRp494
sg91
I00
sbatRp495
sg3
g239
sg67
I00
sg68
Nsg13
g1
sg69
g70
sg81
I0
sg15
S'H'
sg16
I00
sg82
(F-116.02086452720999
F-283.49507704051274
F0.930021925126164
tp496
sg84
(lp497
sg86
g242
sg92
g8
((ltRp498
sg94
g8
((lp499
g486
atRp500
sg91
I00
sbag315
ag19
ag212
atRp501
sS'C'
g8
((lp502
g45
ag37
ag49
ag57
ag29
atRp503
sS'N'
g8
((lp504
g33
ag41
ag108
ag53
ag25
atRp505
ssg94
g8
((lp506
(iccpnmr.chemBuild.model.Bond
Bond
p507
(dp508
g98
g266
sg100
Nsg13
g1
sg69
g70
sg17
g8
((lp509
g29
ag49
atRp510
sba(iccpnmr.chemBuild.model.Bond
Bond
p511
(dp512
g98
g266
sg100
Nsg13
g1
sg69
g70
sg17
g8
((lp513
g45
ag49
atRp514
sbag324
ag482
a(iccpnmr.chemBuild.model.Bond
Bond
p515
(dp516
g98
g266
sg100
Nsg13
g1
sg69
g70
sg17
g8
((lp517
g53
ag57
atRp518
sba(iccpnmr.chemBuild.model.Bond
Bond
p519
(dp520
g98
g99
sg100
Nsg13
g1
sg69
g70
sg17
g8
((lp521
g29
ag25
atRp522
sbag221
ag486
a(iccpnmr.chemBuild.model.Bond
Bond
p523
(dp524
g98
g99
sg100
Nsg13
g1
sg69
g70
sg17
g8
((lp525
g57
ag61
atRp526
sba(iccpnmr.chemBuild.model.Bond
Bond
p527
(dp528
g98
g266
sg100
Nsg13
g1
sg69
g70
sg17
g8
((lp529
g53
ag49
atRp530
sba(iccpnmr.chemBuild.model.Bond
Bond
p531
(dp532
g98
g266
sg100
Nsg13
g1
sg69
g70
sg17
g8
((lp533
g45
ag41
atRp534
sba(iccpnmr.chemBuild.model.Bond
Bond
p535
(dp536
g98
g266
sg100
Nsg13
g1
sg69
g70
sg17
g8
((lp537
g29
ag33
atRp538
sbag96
ag490
a(iccpnmr.chemBuild.model.Bond
Bond
p539
(dp540
g98
g99
sg100
Nsg13
g1
sg69
g70
sg17
g8
((lp541
g19
ag25
atRp542
sba(iccpnmr.chemBuild.model.Bond
Bond
p543
(dp544
g98
g266
sg100
Nsg13
g1
sg69
g70
sg17
g8
((lp545
g37
ag33
atRp546
sba(iccpnmr.chemBuild.model.Bond
Bond
p547
(dp548
g98
g266
sg100
Nsg13
g1
sg69
g70
sg17
g8
((lp549
g37
ag41
atRp550
sbatRp551
sg13
g1
sg310
(dp552
g10
g19
sg116
g108
sg312
g315
sg330
g29
sg335
g53
sg242
g104
sg340
g45
sg176
g61
sg365
g25
sg87
g75
sg350
g49
sg355
g33
sg360
g37
sg345
g57
sg209
g212
sg370
g41
ssg375
(S'+H1'
g376
g377
tp553
sg17
g8
((lp554
g33
ag19
ag61
ag25
ag45
ag37
ag104
ag49
ag315
ag57
ag41
ag29
ag53
ag75
ag212
ag108
atRp555
sg92
g8
((lp556
g475
a(iccpnmr.chemBuild.model.AtomGroup
AtomGroup
p557
(dp558
g384
g392
sg386
g8
((ltRp559
sg17
g8
((lp560
g33
ag49
ag29
ag45
ag37
ag41
atRp561
sg69
g70
sg13
g1
sbatRp562
sg397
g398
sbsg81
I0
sg15
S'H'
sg16
I00
sg82
(F-173.28724566965394
F-366.80621284235707
F2.6327207791024829
tp563
sg84
(lp564
sg86
g176
sg92
g8
((ltRp565
sg94
g8
((lp566
g523
atRp567
sg91
I00
sbag53
ag108
atRp568
sg3
g347
sg67
I00
sg68
Nsg13
g1
sg69
g70
sg81
I0
sg15
S'C'
sg16
I00
sg82
(F-135.82330817483245
F-360.30728238222713
F16.754187878522828
tp569
sg84
(lp570
sg86
g345
sg92
g8
((lp571
g475
atRp572
sg94
g8
((lp573
g523
ag515
ag490
atRp574
sg91
I00
sbatRp575
sg3
g337
sg67
I00
sg68
Nsg13
g1
sg69
g70
sg81
I0
sg15
S'N'
sg16
I00
sg82
(F-107.11950974430584
F-401.14850173827557
F30.028945399601628
tp576
sg84
(lp577
sg86
g335
sg92
g8
((lp578
g475
atRp579
sg94
g8
((lp580
g527
ag515
atRp581
sg91
I00
sbatRp582
sg3
g352
sg67
I00
sg68
Nsg13
g1
sg69
g70
sg81
I0
sg15
S'C'
sg16
I00
sg82
(F-59.270908649413919
F-386.59829629873758
F44.812238472717681
tp583
sg84
(lp584
sg86
g350
sg92
g8
((lp585
g475
ag557
atRp586
sg94
g8
((lp587
g507
ag527
ag511
atRp588
sg91
I00
sbag41
ag108
atRp589
sg3
g342
sg67
I00
sg68
Nsg13
g1
sg69
g70
sg81
I0
sg15
S'C'
sg16
I00
sg82
(F-58.270852531001829
F-336.85498694320319
F42.382113574463922
tp590
sg84
(lp591
sg86
g340
sg92
g8
((lp592
g475
ag557
atRp593
sg94
g8
((lp594
g482
ag531
ag511
atRp595
sg91
I00
sbag37
atRp596
sg3
g372
sg67
I00
sg68
Nsg13
g1
sg69
g70
sg81
I0
sg15
S'N'
sg16
I00
sg82
(F-14.452456185720457
F-312.64909778215559
F54.014929298392829
tp597
sg84
(lp598
sg86
g370
sg92
g8
((lp599
g557
atRp600
sg94
g8
((lp601
g531
ag547
atRp602
sg91
I00
sbag212
atRp603
sg3
g362
sg67
I00
sg68
Nsg13
g1
sg69
g70
sg81
I0
sg15
S'C'
sg16
I00
sg82
(F28.356208207426498
F-338.28646140830728
F70.563351441755174
tp604
sg84
(lp605
sg86
g360
sg92
g8
((lp606
g557
atRp607
sg94
g8
((lp608
g543
ag221
ag547
atRp609
sg91
I00
sbag75
ag29
atRp610
sg3
g357
sg67
I00
sg68
Nsg13
g1
sg69
g70
sg81
I0
sg15
S'N'
sg16
I00
sg82
(F27.488767259403112
F-388.47043056900924
F73.986931534742197
tp611
sg84
(lp612
sg86
g355
sg92
g8
((lp613
g557
atRp614
sg94
g8
((lp615
g543
ag535
ag96
atRp616
sg91
I00
sbag49
ag25
atRp617
sg3
g332
sg67
I00
sg68
Nsg13
g1
sg69
g70
sg81
I0
sg15
S'C'
sg16
I00
sg82
(F-16.376355116194709
F-412.7101901689461
F62.477597120618647
tp618
sg84
(lp619
sg86
g330
sg92
g8
((lp620
g557
atRp621
sg94
g8
((lp622
g507
ag535
ag519
atRp623
sg91
I00
sbag19
ag315
atRp624
sg3
g367
sg67
I00
sg68
Nsg13
g1
sg69
g70
sg81
I0
sg15
S'N'
sg16
I00
sg82
(F-19.61397574341283
F-463.50369335024783
F67.272968804035372
tp625
sg84
(lp626
sg86
g365
sg92
g8
((ltRp627
sg94
g8
((lp628
g539
ag519
ag324
atRp629
sg91
I00
sbatRp630
sg3
g12
sg67
I00
sg68
Nsg13
g1
sg69
g70
sg81
I0
sg15
S'H'
sg16
I00
sg82
(F10.141221048610468
F-487.46022207058598
F79.170823442044181
tp631
sg84
(lp632
sg86
g10
sg92
g8
((ltRp633
sg94
g8
((lp634
g539
atRp635
sg91
I00
sbag187
atRp636
sg91
I00
sbag116
ag312
ag330
ag335
ag242
ag340
ag176
ag365
ag87
ag350
ag355
ag360
ag345
ag209
ag370
atRp637
sS'ccpMolType'
p638
S'other'
p639
sS'details'
p640
V
sg310
(dp641
g66
g176
sg372
g370
sg113
g116
sg206
g209
sg80
g87
sg337
g335
sg239
g242
sg347
g345
sg367
g365
sg357
g355
sg12
g10
sg362
g360
sg164
g312
sg332
g330
sg352
g350
sg342
g340
ssS'keywords'
p642
g8
((ltRp643
sg92
g8
((lp644
g475
ag382
ag557
ag390
atRp645
sS'variants'
p646
g8
((lp647
g70
ag165
atRp648
sS'defaultVars'
p649
g8
((ltRp650
sb.