(imodel.Compound
Compound
p1
(dp2
S'name'
p3
VCytosine
p4
sS'isModified'
p5
I01
sS'ccpCode'
p6
V
sS'atoms'
p7
c__builtin__
set
p8
((lp9
(imodel.Atom
Atom
p10
(dp11
g3
S'H6'
p12
sS'compound'
p13
g1
sS'baseValences'
p14
I1
sS'element'
p15
S'H'
sS'isVariable'
p16
I00
sS'varAtoms'
p17
g8
((lp18
(imodel.VarAtom
VarAtom
p19
(dp20
g3
g12
sS'isLabile'
p21
I00
sS'chirality'
p22
NsS'atom'
p23
g10
sS'variant'
p24
(imodel.Variant
Variant
p25
(dp26
S'elementDict'
p27
(dp28
S'H'
g8
((lp29
(imodel.VarAtom
VarAtom
p30
(dp31
S'name'
p32
S'H1'
p33
sS'isLabile'
p34
I00
sS'chirality'
p35
NsS'atom'
p36
(imodel.Atom
Atom
p37
(dp38
g32
g33
sS'compound'
p39
g1
sg14
I1
sS'element'
p40
S'H'
sS'isVariable'
p41
I00
sS'varAtoms'
p42
g8
((lp43
g30
atRp44
sS'isDeleted'
p45
I00
sbsS'variant'
p46
g25
sS'neighbours'
p47
g8
((lp48
(imodel.VarAtom
VarAtom
p49
(dp50
g3
S'N1'
p51
sg21
I00
sg22
Nsg23
(imodel.Atom
Atom
p52
(dp53
g3
g51
sg13
g1
sg14
I3
sg15
S'N'
sg16
I00
sg17
g8
((lp54
g49
atRp55
sS'isDeleted'
p56
I00
sbsg24
g25
sS'neighbours'
p57
g8
((lp58
g30
a(imodel.VarAtom
VarAtom
p59
(dp60
g3
S'C6'
p61
sg21
I00
sg22
Nsg23
(imodel.Atom
Atom
p62
(dp63
g3
g61
sg13
g1
sg14
I4
sg15
S'C'
sg16
I00
sg17
g8
((lp64
g59
atRp65
sg56
I00
sbsg24
g25
sg57
g8
((lp66
g19
a(imodel.VarAtom
VarAtom
p67
(dp68
g3
S'C5'
p69
sg21
I00
sg22
Nsg23
(imodel.Atom
Atom
p70
(dp71
g3
g69
sg13
g1
sg14
I4
sg15
S'C'
sg16
I00
sg17
g8
((lp72
g67
atRp73
sg56
I00
sbsg24
g25
sg57
g8
((lp74
(imodel.VarAtom
VarAtom
p75
(dp76
g3
S'C4'
p77
sg21
I00
sg22
Nsg23
(imodel.Atom
Atom
p78
(dp79
g3
g77
sg13
g1
sg14
I4
sg15
S'C'
sg16
I00
sg17
g8
((lp80
g75
atRp81
sg56
I00
sbsg24
g25
sg57
g8
((lp82
g67
a(imodel.VarAtom
VarAtom
p83
(dp84
g3
S'N3'
p85
sg21
I00
sg22
Nsg23
(imodel.Atom
Atom
p86
(dp87
g3
g85
sg13
g1
sg14
I3
sg15
S'N'
sg16
I00
sg17
g8
((lp88
g83
atRp89
sg56
I00
sbsg24
g25
sg57
g8
((lp90
g75
a(imodel.VarAtom
VarAtom
p91
(dp92
g3
S'C2'
p93
sg21
I00
sg22
Nsg23
(imodel.Atom
Atom
p94
(dp95
g3
g93
sg13
g1
sg14
I4
sg15
S'C'
sg16
I00
sg17
g8
((lp96
g91
atRp97
sg56
I00
sbsg24
g25
sg57
g8
((lp98
(imodel.VarAtom
VarAtom
p99
(dp100
g3
S'O2'
p101
sg21
I00
sg22
Nsg23
(imodel.Atom
Atom
p102
(dp103
g3
g101
sg13
g1
sg14
I2
sg15
S'O'
sg16
I00
sg17
g8
((lp104
g99
atRp105
sg56
I00
sbsg24
g25
sg57
g8
((lp106
g91
atRp107
sg15
S'O'
sS'charge'
p108
I0
sg16
I00
sS'coords'
p109
(F199.29873189801413
F311.30670351558865
F52.727038770420336
tp110
sS'freeValences'
p111
(lp112
sg13
g1
sS'atomGroups'
p113
g8
((ltRp114
sS'bonds'
p115
g8
((lp116
(imodel.Bond
Bond
p117
(dp118
g13
g1
sS'bondType'
p119
S'double'
p120
sg24
g25
sg17
g8
((lp121
g91
ag99
atRp122
sbatRp123
sg56
I00
sbag83
ag49
atRp124
sg15
S'C'
sg108
I0
sg16
I00
sg109
(F242.47488154761618
F301.15257237289507
F97.213717854813282
tp125
sg111
(lp126
sg13
g1
sg113
g8
((lp127
(imodel.AtomGroup
AtomGroup
p128
(dp129
S'groupType'
p130
S'aromatic'
p131
sS'subGroups'
p132
g8
((ltRp133
sS'varAtoms'
p134
g8
((lp135
g83
ag91
ag67
ag49
ag75
ag59
atRp136
sS'variant'
p137
g25
sS'compound'
p138
g1
sbatRp139
sg115
g8
((lp140
g117
a(imodel.Bond
Bond
p141
(dp142
g13
g1
sg119
g131
sg24
g25
sg17
g8
((lp143
g83
ag91
atRp144
sba(imodel.Bond
Bond
p145
(dp146
g13
g1
sg119
g131
sg24
g25
sg17
g8
((lp147
g91
ag49
atRp148
sbatRp149
sg56
I00
sbatRp150
sg15
S'N'
sg108
I0
sg16
I00
sg109
(F255.86683262096471
F253.32359088930616
F148.65398833540996
tp151
sg111
(lp152
sg13
g1
sg113
g8
((lp153
g128
atRp154
sg115
g8
((lp155
(imodel.Bond
Bond
p156
(dp157
g13
g1
sg119
g131
sg24
g25
sg17
g8
((lp158
g83
ag75
atRp159
sbag141
atRp160
sg56
I00
sba(imodel.VarAtom
VarAtom
p161
(dp162
g3
S'N4'
p163
sg21
I00
sg22
Nsg23
(imodel.Atom
Atom
p164
(dp165
g3
g163
sg13
g1
sg14
I3
sg15
S'N'
sg16
I00
sg17
g8
((lp166
g161
atRp167
sg56
I00
sbsg24
g25
sg57
g8
((lp168
(imodel.VarAtom
VarAtom
p169
(dp170
g3
S'H42'
p171
sg21
I00
sg22
Nsg23
(imodel.Atom
Atom
p172
(dp173
g3
g171
sg13
g1
sg14
I1
sg15
S'H'
sg16
I00
sg17
g8
((lp174
g169
atRp175
sg56
I00
sbsg24
g25
sg57
g8
((lp176
g161
atRp177
sg15
S'H'
sg108
I0
sg16
I00
sg109
(F335.23010614136695
F167.82245956384975
F285.35596968638532
tp178
sg111
(lp179
sg13
g1
sg113
g8
((ltRp180
sg115
g8
((lp181
(imodel.Bond
Bond
p182
(dp183
g13
g1
sg119
S'single'
p184
sg24
g25
sg17
g8
((lp185
g169
ag161
atRp186
sbatRp187
sg56
I00
sbag75
a(imodel.VarAtom
VarAtom
p188
(dp189
g3
S'H41'
p190
sg21
I00
sg22
Nsg23
(imodel.Atom
Atom
p191
(dp192
g3
g190
sg13
g1
sg14
I1
sg15
S'H'
sg16
I00
sg17
g8
((lp193
g188
atRp194
sg56
I00
sbsg24
g25
sg57
g8
((lp195
g161
atRp196
sg15
S'H'
sg108
I0
sg16
I00
sg109
(F272.99733119614052
F166.49782568971472
F250.31722143598216
tp197
sg111
(lp198
sg13
g1
sg113
g8
((ltRp199
sg115
g8
((lp200
(imodel.Bond
Bond
p201
(dp202
g13
g1
sg119
g184
sg24
g25
sg17
g8
((lp203
g161
ag188
atRp204
sbatRp205
sg56
I00
sbatRp206
sg15
S'N'
sg108
I0
sg16
I00
sg109
(F303.6947221871261
F189.38894686149865
F249.4922903932578
tp207
sg111
(lp208
sg13
g1
sg113
g8
((ltRp209
sg115
g8
((lp210
g182
ag201
a(imodel.Bond
Bond
p211
(dp212
g13
g1
sg119
g184
sg24
g25
sg17
g8
((lp213
g75
ag161
atRp214
sbatRp215
sg56
I00
sbatRp216
sg15
S'C'
sg108
I0
sg16
I00
sg109
(F304.22727726922767
F240.39296035134066
F197.47553541457185
tp217
sg111
(lp218
sg13
g1
sg113
g8
((lp219
g128
atRp220
sg115
g8
((lp221
(imodel.Bond
Bond
p222
(dp223
g13
g1
sg119
g131
sg24
g25
sg17
g8
((lp224
g75
ag67
atRp225
sbag156
ag211
atRp226
sg56
I00
sba(imodel.VarAtom
VarAtom
p227
(dp228
g3
S'H5'
p229
sg21
I00
sg22
Nsg23
(imodel.Atom
Atom
p230
(dp231
g3
g229
sg13
g1
sg14
I1
sg15
S'H'
sg16
I00
sg17
g8
((lp232
g227
atRp233
sg56
I00
sbsg24
g25
sg57
g8
((lp234
g67
atRp235
sg15
S'H'
sg108
I0
sg16
I00
sg109
(F373.82119451904043
F260.67930805635353
F236.27666051892061
tp236
sg111
(lp237
sg13
g1
sg113
g8
((ltRp238
sg115
g8
((lp239
(imodel.Bond
Bond
p240
(dp241
g13
g1
sg119
g184
sg24
g25
sg17
g8
((lp242
g227
ag67
atRp243
sbatRp244
sg56
I00
sbag59
atRp245
sg15
S'C'
sg108
I0
sg16
I00
sg109
(F339.12084764882513
F276.59468595740202
F195.72832569432222
tp246
sg111
(lp247
sg13
g1
sg113
g8
((lp248
g128
atRp249
sg115
g8
((lp250
g222
a(imodel.Bond
Bond
p251
(dp252
g13
g1
sg119
g131
sg24
g25
sg17
g8
((lp253
g67
ag59
atRp254
sbag240
atRp255
sg56
I00
sbag49
atRp256
sg15
S'C'
sg108
I0
sg16
I00
sg109
(F325.71141691407399
F324.61308010788002
F143.55556650153841
tp257
sg111
(lp258
sg13
g1
sg113
g8
((lp259
g128
atRp260
sg115
g8
((lp261
(imodel.Bond
Bond
p262
(dp263
g13
g1
sg119
g184
sg24
g25
sg17
g8
((lp264
g19
ag59
atRp265
sbag251
a(imodel.Bond
Bond
p266
(dp267
g13
g1
sg119
g131
sg24
g25
sg17
g8
((lp268
g49
ag59
atRp269
sbatRp270
sg56
I00
sbag91
atRp271
sg15
S'N'
sg108
I0
sg16
I00
sg109
(F276.87310177828931
F337.5930103102811
F94.699808656106839
tp272
sg111
(lp273
sg13
g1
sg113
g8
((lp274
g128
atRp275
sg115
g8
((lp276
(imodel.Bond
Bond
p277
(dp278
g39
g1
sS'bondType'
p279
S'single'
p280
sg46
g25
sg42
g8
((lp281
g49
ag30
atRp282
sbag145
ag266
atRp283
sg56
I00
sbatRp284
sg40
S'H'
sS'charge'
p285
I0
sg41
I00
sS'coords'
p286
(F266.09142427376401
F374.20748106323776
F0.24387803595178725
tp287
sS'freeValences'
p288
(lp289
sg39
g1
sS'atomGroups'
p290
g8
((ltRp291
sS'bonds'
p292
g8
((lp293
g277
atRp294
sg45
I00
sbag169
ag227
ag188
ag19
atRp295
sS'C'
g8
((lp296
g91
ag67
ag75
ag59
atRp297
sS'P'
g8
((ltRp298
sS'O'
g8
((lp299
g99
atRp300
sS'N'
g8
((lp301
g83
ag161
ag49
atRp302
ssg115
g8
((lp303
g240
ag266
ag251
ag182
ag211
ag201
ag145
ag262
ag222
ag141
ag117
ag156
ag277
atRp304
sg13
g1
sS'descriptor'
p305
(S'neutral'
p306
S'none'
p307
S'default'
p308
tp309
sS'atomDict'
p310
(dp311
g10
g19
sg62
g59
sg37
g30
sg102
g99
sg70
g67
sg230
g227
sg78
g75
sg164
g161
sg52
g49
sg172
g169
sg86
g83
sg94
g91
sg191
g188
ssg17
g8
((lp312
g83
ag188
ag30
ag67
ag19
ag161
ag91
ag59
ag49
ag75
ag169
ag99
ag227
atRp313
sg113
g8
((lp314
g128
atRp315
sS'polyLink'
p316
S'none'
p317
sbsg57
g8
((lp318
g59
atRp319
sg15
S'H'
sg108
I0
sg16
I00
sg109
(F354.53239543491088
F349.52965396509092
F141.54603192706722
tp320
sg111
(lp321
sg13
g1
sg113
g8
((ltRp322
sg115
g8
((lp323
g262
atRp324
sg56
I00
sbatRp325
sg56
I00
sbag62
ag37
ag102
ag70
ag230
ag78
ag164
ag52
ag172
ag86
ag94
ag191
atRp326
sS'ccpMolType'
p327
Vother
p328
sS'details'
p329
V
sg310
(dp330
g33
g37
sg12
g10
sg229
g230
sg101
g102
sg171
g172
sg190
g191
sg93
g94
sg51
g52
sg85
g86
sg163
g164
sg61
g62
sg69
g70
sg77
g78
ssS'keywords'
p331
g8
((ltRp332
sg113
g8
((lp333
g128
atRp334
sS'variants'
p335
g8
((lp336
g25
atRp337
sS'defaultVars'
p338
g8
((ltRp339
sb.