(imodel.Compound
Compound
p1
(dp2
S'name'
p3
VGuanine
p4
sS'isModified'
p5
I01
sS'ccpCode'
p6
V
sS'atoms'
p7
c__builtin__
set
p8
((lp9
(imodel.Atom
Atom
p10
(dp11
g3
S'N2'
p12
sS'compound'
p13
g1
sS'baseValences'
p14
I3
sS'element'
p15
S'N'
sS'isVariable'
p16
I00
sS'varAtoms'
p17
g8
((lp18
(imodel.VarAtom
VarAtom
p19
(dp20
g3
g12
sS'isLabile'
p21
I00
sS'chirality'
p22
NsS'atom'
p23
g10
sS'variant'
p24
(imodel.Variant
Variant
p25
(dp26
S'elementDict'
p27
(dp28
S'H'
g8
((lp29
(imodel.VarAtom
VarAtom
p30
(dp31
S'name'
p32
VH9
p33
sS'isLabile'
p34
I00
sS'chirality'
p35
NsS'atom'
p36
(imodel.Atom
Atom
p37
(dp38
g32
g33
sS'compound'
p39
g1
sg14
I1
sS'element'
p40
S'H'
sS'isVariable'
p41
I00
sS'varAtoms'
p42
g8
((lp43
g30
atRp44
sS'isDeleted'
p45
I00
sbsS'variant'
p46
g25
sS'neighbours'
p47
g8
((lp48
(imodel.VarAtom
VarAtom
p49
(dp50
g3
S'N9'
p51
sg21
I00
sg22
Nsg23
(imodel.Atom
Atom
p52
(dp53
g3
g51
sg13
g1
sg14
I3
sg15
S'N'
sg16
I00
sg17
g8
((lp54
g49
atRp55
sS'isDeleted'
p56
I00
sbsg24
g25
sS'neighbours'
p57
g8
((lp58
(imodel.VarAtom
VarAtom
p59
(dp60
g3
S'C8'
p61
sg21
I00
sg22
Nsg23
(imodel.Atom
Atom
p62
(dp63
g3
g61
sg13
g1
sg14
I4
sg15
S'C'
sg16
I00
sg17
g8
((lp64
g59
atRp65
sg56
I00
sbsg24
g25
sg57
g8
((lp66
g49
a(imodel.VarAtom
VarAtom
p67
(dp68
g3
S'H8'
p69
sg21
I00
sg22
Nsg23
(imodel.Atom
Atom
p70
(dp71
g3
g69
sg13
g1
sg14
I1
sg15
S'H'
sg16
I00
sg17
g8
((lp72
g67
atRp73
sg56
I00
sbsg24
g25
sg57
g8
((lp74
g59
atRp75
sg15
S'H'
sS'charge'
p76
I0
sg16
I00
sS'coords'
p77
(F289.25454600707155
F292.49630931789625
F38.491462294957749
tp78
sS'freeValences'
p79
(lp80
sg13
g1
sS'atomGroups'
p81
g8
((ltRp82
sS'bonds'
p83
g8
((lp84
(imodel.Bond
Bond
p85
(dp86
g13
g1
sS'bondType'
p87
S'single'
p88
sg24
g25
sg17
g8
((lp89
g59
ag67
atRp90
sbatRp91
sg56
I00
sba(imodel.VarAtom
VarAtom
p92
(dp93
g3
S'N7'
p94
sg21
I00
sg22
Nsg23
(imodel.Atom
Atom
p95
(dp96
g3
g94
sg13
g1
sg14
I3
sg15
S'N'
sg16
I00
sg17
g8
((lp97
g92
atRp98
sg56
I00
sbsg24
g25
sg57
g8
((lp99
g59
a(imodel.VarAtom
VarAtom
p100
(dp101
g3
S'C5'
p102
sg21
I00
sg22
Nsg23
(imodel.Atom
Atom
p103
(dp104
g3
g102
sg13
g1
sg14
I4
sg15
S'C'
sg16
I00
sg17
g8
((lp105
g100
atRp106
sg56
I00
sbsg24
g25
sg57
g8
((lp107
(imodel.VarAtom
VarAtom
p108
(dp109
g3
S'C4'
p110
sg21
I00
sg22
Nsg23
(imodel.Atom
Atom
p111
(dp112
g3
g110
sg13
g1
sg14
I4
sg15
S'C'
sg16
I00
sg17
g8
((lp113
g108
atRp114
sg56
I00
sbsg24
g25
sg57
g8
((lp115
g100
a(imodel.VarAtom
VarAtom
p116
(dp117
g3
S'N3'
p118
sg21
I00
sg22
Nsg23
(imodel.Atom
Atom
p119
(dp120
g3
g118
sg13
g1
sg14
I3
sg15
S'N'
sg16
I00
sg17
g8
((lp121
g116
atRp122
sg56
I00
sbsg24
g25
sg57
g8
((lp123
g108
a(imodel.VarAtom
VarAtom
p124
(dp125
g3
S'C2'
p126
sg21
I00
sg22
Nsg23
(imodel.Atom
Atom
p127
(dp128
g3
g126
sg13
g1
sg14
I4
sg15
S'C'
sg16
I00
sg17
g8
((lp129
g124
atRp130
sg56
I00
sbsg24
g25
sg57
g8
((lp131
g19
ag116
a(imodel.VarAtom
VarAtom
p132
(dp133
g3
S'N1'
p134
sg21
I00
sg22
Nsg23
(imodel.Atom
Atom
p135
(dp136
g3
g134
sg13
g1
sg14
I3
sg15
S'N'
sg16
I00
sg17
g8
((lp137
g132
atRp138
sg56
I00
sbsg24
g25
sg57
g8
((lp139
(imodel.VarAtom
VarAtom
p140
(dp141
g3
S'C6'
p142
sg21
I00
sg22
Nsg23
(imodel.Atom
Atom
p143
(dp144
g3
g142
sg13
g1
sg14
I4
sg15
S'C'
sg16
I00
sg17
g8
((lp145
g140
atRp146
sg56
I00
sbsg24
g25
sg57
g8
((lp147
g132
ag100
a(imodel.VarAtom
VarAtom
p148
(dp149
g3
S'O6'
p150
sg21
I00
sg22
Nsg23
(imodel.Atom
Atom
p151
(dp152
g3
g150
sg13
g1
sg14
I2
sg15
S'O'
sg16
I00
sg17
g8
((lp153
g148
atRp154
sg56
I00
sbsg24
g25
sg57
g8
((lp155
g140
atRp156
sg15
S'O'
sg76
I0
sg16
I00
sg77
(F456.09958326464368
F222.657040533133
F66.299296794943402
tp157
sg79
(lp158
sg13
g1
sg81
g8
((ltRp159
sg83
g8
((lp160
(imodel.Bond
Bond
p161
(dp162
g13
g1
sg87
S'double'
p163
sg24
g25
sg17
g8
((lp164
g140
ag148
atRp165
sbatRp166
sg56
I00
sbatRp167
sg15
S'C'
sg76
I0
sg16
I00
sg77
(F454.86633509398553
F266.6123130620183
F67.177478444952854
tp168
sg79
(lp169
sg13
g1
sg81
g8
((lp170
(imodel.AtomGroup
AtomGroup
p171
(dp172
S'groupType'
p173
S'aromatic'
p174
sS'subGroups'
p175
g8
((ltRp176
sS'varAtoms'
p177
g8
((lp178
g100
ag140
ag108
ag132
ag124
ag116
atRp179
sS'variant'
p180
g25
sS'compound'
p181
g1
sbatRp182
sg83
g8
((lp183
(imodel.Bond
Bond
p184
(dp185
g13
g1
sg87
g174
sg24
g25
sg17
g8
((lp186
g140
ag132
atRp187
sbag161
a(imodel.Bond
Bond
p188
(dp189
g13
g1
sg87
g174
sg24
g25
sg17
g8
((lp190
g140
ag100
atRp191
sbatRp192
sg56
I00
sba(imodel.VarAtom
VarAtom
p193
(dp194
g3
S'H1'
p195
sg21
I00
sg22
Nsg23
(imodel.Atom
Atom
p196
(dp197
g3
g195
sg13
g1
sg14
I1
sg15
S'H'
sg16
I01
sg17
g8
((lp198
g193
atRp199
sg56
I00
sbsg24
g25
sg57
g8
((lp200
g132
atRp201
sg15
S'H'
sg76
I0
sg16
I01
sg77
(F528.65610484225476
F280.11417415947858
F81.825484133188141
tp202
sg79
(lp203
sg13
g1
sg81
g8
((ltRp204
sg83
g8
((lp205
(imodel.Bond
Bond
p206
(dp207
g13
g1
sg87
g88
sg24
g25
sg17
g8
((lp208
g193
ag132
atRp209
sbatRp210
sg56
I00
sbag124
atRp211
sg15
S'N'
sg76
I0
sg16
I00
sg77
(F494.56827608291553
F297.28372719080608
F75.715824336054766
tp212
sg79
(lp213
sg13
g1
sg81
g8
((lp214
g171
atRp215
sg83
g8
((lp216
g184
ag206
a(imodel.Bond
Bond
p217
(dp218
g13
g1
sg87
g174
sg24
g25
sg17
g8
((lp219
g132
ag124
atRp220
sbatRp221
sg56
I00
sbatRp222
sg15
S'C'
sg76
I0
sg16
I00
sg77
(F487.48973996117729
F346.98662732185392
F77.134926666984796
tp223
sg79
(lp224
sg13
g1
sg81
g8
((lp225
g171
atRp226
sg83
g8
((lp227
(imodel.Bond
Bond
p228
(dp229
g13
g1
sg87
g88
sg24
g25
sg17
g8
((lp230
g124
ag19
atRp231
sbag217
a(imodel.Bond
Bond
p232
(dp233
g13
g1
sg87
g174
sg24
g25
sg17
g8
((lp234
g116
ag124
atRp235
sbatRp236
sg56
I00
sbatRp237
sg15
S'N'
sg76
I0
sg16
I00
sg77
(F441.2609429053291
F365.68159479686824
F69.058017102004129
tp238
sg79
(lp239
sg13
g1
sg81
g8
((lp240
g171
atRp241
sg83
g8
((lp242
(imodel.Bond
Bond
p243
(dp244
g13
g1
sg87
g174
sg24
g25
sg17
g8
((lp245
g116
ag108
atRp246
sbag232
atRp247
sg56
I00
sbag49
atRp248
sg15
S'C'
sg76
I0
sg16
I00
sg77
(F401.51174168812554
F334.9774430226048
F61.140562214181656
tp249
sg79
(lp250
sg13
g1
sg81
g8
((lp251
(imodel.AtomGroup
AtomGroup
p252
(dp253
g173
g174
sg175
g8
((ltRp254
sg177
g8
((lp255
g100
ag92
ag59
ag49
ag108
atRp256
sg180
g25
sg181
g1
sbag171
atRp257
sg83
g8
((lp258
(imodel.Bond
Bond
p259
(dp260
g13
g1
sg87
g174
sg24
g25
sg17
g8
((lp261
g100
ag108
atRp262
sbag243
a(imodel.Bond
Bond
p263
(dp264
g13
g1
sg87
g174
sg24
g25
sg17
g8
((lp265
g108
ag49
atRp266
sbatRp267
sg56
I00
sbag140
ag92
atRp268
sg15
S'C'
sg76
I0
sg16
I00
sg77
(F408.57876278868014
F285.73190702962927
F58.146655872868081
tp269
sg79
(lp270
sg13
g1
sg81
g8
((lp271
g252
ag171
atRp272
sg83
g8
((lp273
g259
a(imodel.Bond
Bond
p274
(dp275
g13
g1
sg87
g174
sg24
g25
sg17
g8
((lp276
g100
ag92
atRp277
sbag188
atRp278
sg56
I00
sbatRp279
sg15
S'N'
sg76
I0
sg16
I00
sg77
(F363.90961495531519
F263.33147612539733
F48.437627269172978
tp280
sg79
(lp281
sg13
g1
sg81
g8
((lp282
g252
atRp283
sg83
g8
((lp284
(imodel.Bond
Bond
p285
(dp286
g13
g1
sg87
g174
sg24
g25
sg17
g8
((lp287
g59
ag92
atRp288
sbag274
atRp289
sg56
I00
sbatRp290
sg15
S'C'
sg76
I0
sg16
I00
sg77
(F328.84440602754398
F299.01625301637114
F46.104321318067377
tp291
sg79
(lp292
sg13
g1
sg81
g8
((lp293
g252
atRp294
sg83
g8
((lp295
(imodel.Bond
Bond
p296
(dp297
g13
g1
sg87
g174
sg24
g25
sg17
g8
((lp298
g59
ag49
atRp299
sbag285
ag85
atRp300
sg56
I00
sbag108
ag30
atRp301
sg15
S'N'
sg76
I0
sg16
I00
sg77
(F351.61837302707249
F343.61286594643866
F51.579627182029633
tp302
sg79
(lp303
sg13
g1
sg81
g8
((lp304
g252
atRp305
sg83
g8
((lp306
g296
a(imodel.Bond
Bond
p307
(dp308
g39
g1
sS'bondType'
p309
S'single'
p310
sg46
g25
sg42
g8
((lp311
g49
ag30
atRp312
sbag263
atRp313
sg56
I00
sbatRp314
sg40
S'H'
sS'charge'
p315
I0
sg41
I00
sS'coords'
p316
(F338.74834655280995
F379.40661208789658
F0.72934863164326069
tp317
sS'freeValences'
p318
(lp319
sg39
g1
sS'atomGroups'
p320
g8
((ltRp321
sS'bonds'
p322
g8
((lp323
g307
atRp324
sg45
I00
sbag193
a(imodel.VarAtom
VarAtom
p325
(dp326
g3
S'H21'
p327
sg21
I00
sg22
Nsg23
(imodel.Atom
Atom
p328
(dp329
g3
g327
sg13
g1
sg14
I1
sg15
S'H'
sg16
I00
sg17
g8
((lp330
g325
atRp331
sg56
I00
sbsg24
g25
sg57
g8
((lp332
g19
atRp333
sg15
S'H'
sg76
I0
sg16
I00
sg77
(F509.49718382642538
F421.20868687516122
F88.474007603552138
tp334
sg79
(lp335
sg13
g1
sg81
g8
((ltRp336
sg83
g8
((lp337
(imodel.Bond
Bond
p338
(dp339
g13
g1
sg87
g88
sg24
g25
sg17
g8
((lp340
g325
ag19
atRp341
sbatRp342
sg56
I00
sba(imodel.VarAtom
VarAtom
p343
(dp344
g3
S'H22'
p345
sg21
I00
sg22
Nsg23
(imodel.Atom
Atom
p346
(dp347
g3
g345
sg13
g1
sg14
I1
sg15
S'H'
sg16
I00
sg17
g8
((lp348
g343
atRp349
sg56
I00
sbsg24
g25
sg57
g8
((lp350
g19
atRp351
sg15
S'H'
sg76
I0
sg16
I00
sg77
(F558.32043419164802
F375.60665352178091
F52.07310316206982
tp352
sg79
(lp353
sg13
g1
sg81
g8
((ltRp354
sg83
g8
((lp355
(imodel.Bond
Bond
p356
(dp357
g13
g1
sg87
g88
sg24
g25
sg17
g8
((lp358
g343
ag19
atRp359
sbatRp360
sg56
I00
sbag67
atRp361
sS'C'
g8
((lp362
g108
ag140
ag124
ag59
ag100
atRp363
sS'N'
g8
((lp364
g19
ag116
ag92
ag49
ag132
atRp365
sS'O'
g8
((lp366
g148
atRp367
sS'P'
g8
((ltRp368
ssg83
g8
((lp369
g188
ag232
ag228
ag161
ag307
ag338
ag184
ag296
ag274
ag243
ag217
ag285
ag85
ag259
ag356
ag263
ag206
atRp370
sg13
g1
sS'descriptor'
p371
(S'neutral'
p372
S'none'
p373
S'default'
p374
tp375
sS'atomDict'
p376
(dp377
g10
g19
sg95
g92
sg119
g116
sg328
g325
sg151
g148
sg37
g30
sg127
g124
sg135
g132
sg143
g140
sg111
g108
sg70
g67
sg196
g193
sg52
g49
sg346
g343
sg103
g100
sg62
g59
ssg17
g8
((lp378
g343
ag193
ag100
ag140
ag92
ag325
ag59
ag132
ag67
ag108
ag30
ag49
ag148
ag19
ag124
ag116
atRp379
sg81
g8
((lp380
g252
ag171
atRp381
sS'polyLink'
p382
S'none'
p383
sbsg57
g8
((lp384
g124
ag325
ag343
atRp385
sg15
S'N'
sg76
I0
sg16
I00
sg77
(F521.32073359038986
F384.86809218457472
F86.915756101433942
tp386
sg79
(lp387
sg13
g1
sg81
g8
((ltRp388
sg83
g8
((lp389
g228
ag338
ag356
atRp390
sg56
I00
sbatRp391
sg56
I00
sbag37
ag119
ag328
ag151
ag95
ag127
ag135
ag143
ag111
ag70
ag196
ag52
ag346
ag103
ag62
atRp392
sS'ccpMolType'
p393
Vother
p394
sS'details'
p395
V
sg376
(dp396
g94
g95
sg33
g37
sg195
g196
sg327
g328
sg69
g70
sg134
g135
sg345
g346
sg51
g52
sg61
g62
sg126
g127
sg150
g151
sg12
g10
sg118
g119
sg142
g143
sg102
g103
sg110
g111
ssS'keywords'
p397
g8
((ltRp398
sg81
g8
((lp399
g252
ag171
atRp400
sS'variants'
p401
g8
((lp402
g25
atRp403
sS'defaultVars'
p404
g8
((ltRp405
sb.