(imodel.Compound
Compound
p1
(dp2
S'name'
p3
VHypoxanthane
p4
sS'isModified'
p5
I01
sS'ccpCode'
p6
V
sS'atoms'
p7
c__builtin__
set
p8
((lp9
(imodel.Atom
Atom
p10
(dp11
g3
S'H1'
p12
sS'compound'
p13
g1
sS'baseValences'
p14
I1
sS'element'
p15
S'H'
sS'isVariable'
p16
I01
sS'varAtoms'
p17
g8
((lp18
(imodel.VarAtom
VarAtom
p19
(dp20
g3
g12
sS'isLabile'
p21
I00
sS'chirality'
p22
NsS'atom'
p23
g10
sS'variant'
p24
(imodel.Variant
Variant
p25
(dp26
S'elementDict'
p27
(dp28
S'H'
g8
((lp29
(imodel.VarAtom
VarAtom
p30
(dp31
g3
S'H8'
p32
sg21
I00
sg22
Nsg23
(imodel.Atom
Atom
p33
(dp34
g3
g32
sg13
g1
sg14
I1
sg15
S'H'
sg16
I00
sg17
g8
((lp35
g30
atRp36
sS'isDeleted'
p37
I00
sbsg24
g25
sS'neighbours'
p38
g8
((lp39
(imodel.VarAtom
VarAtom
p40
(dp41
g3
S'C8'
p42
sg21
I00
sg22
Nsg23
(imodel.Atom
Atom
p43
(dp44
g3
g42
sg13
g1
sg14
I4
sg15
S'C'
sg16
I00
sg17
g8
((lp45
g40
atRp46
sg37
I00
sbsg24
g25
sg38
g8
((lp47
(imodel.VarAtom
VarAtom
p48
(dp49
g3
S'N7'
p50
sg21
I00
sg22
Nsg23
(imodel.Atom
Atom
p51
(dp52
g3
g50
sg13
g1
sg14
I3
sg15
S'N'
sg16
I00
sg17
g8
((lp53
g48
atRp54
sg37
I00
sbsg24
g25
sg38
g8
((lp55
g40
a(imodel.VarAtom
VarAtom
p56
(dp57
g3
S'C5'
p58
sg21
I00
sg22
Nsg23
(imodel.Atom
Atom
p59
(dp60
g3
g58
sg13
g1
sg14
I4
sg15
S'C'
sg16
I00
sg17
g8
((lp61
g56
atRp62
sg37
I00
sbsg24
g25
sg38
g8
((lp63
(imodel.VarAtom
VarAtom
p64
(dp65
g3
S'C4'
p66
sg21
I00
sg22
Nsg23
(imodel.Atom
Atom
p67
(dp68
g3
g66
sg13
g1
sg14
I4
sg15
S'C'
sg16
I00
sg17
g8
((lp69
g64
atRp70
sg37
I00
sbsg24
g25
sg38
g8
((lp71
g56
a(imodel.VarAtom
VarAtom
p72
(dp73
g3
S'N3'
p74
sg21
I00
sg22
Nsg23
(imodel.Atom
Atom
p75
(dp76
g3
g74
sg13
g1
sg14
I3
sg15
S'N'
sg16
I00
sg17
g8
((lp77
g72
atRp78
sg37
I00
sbsg24
g25
sg38
g8
((lp79
(imodel.VarAtom
VarAtom
p80
(dp81
g3
S'C2'
p82
sg21
I00
sg22
Nsg23
(imodel.Atom
Atom
p83
(dp84
g3
g82
sg13
g1
sg14
I4
sg15
S'C'
sg16
I00
sg17
g8
((lp85
g80
atRp86
sg37
I00
sbsg24
g25
sg38
g8
((lp87
(imodel.VarAtom
VarAtom
p88
(dp89
g3
S'H2'
p90
sg21
I00
sg22
Nsg23
(imodel.Atom
Atom
p91
(dp92
g3
g90
sg13
g1
sg14
I1
sg15
S'H'
sg16
I00
sg17
g8
((lp93
g88
atRp94
sg37
I00
sbsg24
g25
sg38
g8
((lp95
g80
atRp96
sg15
S'H'
sS'charge'
p97
I0
sg16
I00
sS'coords'
p98
(F452.77334700184838
F290.12548845823517
F74.193648647974257
tp99
sS'freeValences'
p100
(lp101
sg13
g1
sS'atomGroups'
p102
g8
((ltRp103
sS'bonds'
p104
g8
((lp105
(imodel.Bond
Bond
p106
(dp107
g13
g1
sS'bondType'
p108
S'single'
p109
sg24
g25
sg17
g8
((lp110
g88
ag80
atRp111
sbatRp112
sg37
I00
sbag72
a(imodel.VarAtom
VarAtom
p113
(dp114
g3
S'N1'
p115
sg21
I00
sg22
Nsg23
(imodel.Atom
Atom
p116
(dp117
g3
g115
sg13
g1
sg14
I3
sg15
S'N'
sg16
I00
sg17
g8
((lp118
g113
atRp119
sg37
I00
sbsg24
g25
sg38
g8
((lp120
g80
ag19
a(imodel.VarAtom
VarAtom
p121
(dp122
g3
S'C6'
p123
sg21
I00
sg22
Nsg23
(imodel.Atom
Atom
p124
(dp125
g3
g123
sg13
g1
sg14
I4
sg15
S'C'
sg16
I00
sg17
g8
((lp126
g121
atRp127
sg37
I00
sbsg24
g25
sg38
g8
((lp128
g56
a(imodel.VarAtom
VarAtom
p129
(dp130
g3
S'O6'
p131
sg21
I00
sg22
Nsg23
(imodel.Atom
Atom
p132
(dp133
g3
g131
sg13
g1
sg14
I2
sg15
S'O'
sg16
I00
sg17
g8
((lp134
g129
atRp135
sg37
I00
sbsg24
g25
sg38
g8
((lp136
g121
atRp137
sg15
S'O'
sg97
I0
sg16
I00
sg98
(F375.97123530762872
F152.25690429451191
F-25.611226528561982
tp138
sg100
(lp139
sg13
g1
sg102
g8
((ltRp140
sg104
g8
((lp141
(imodel.Bond
Bond
p142
(dp143
g13
g1
sg108
S'double'
p144
sg24
g25
sg17
g8
((lp145
g121
ag129
atRp146
sbatRp147
sg37
I00
sbag113
atRp148
sg15
S'C'
sg97
I0
sg16
I00
sg98
(F377.14739141944335
F196.18590242551318
F-2.6645891952762124
tp149
sg100
(lp150
sg13
g1
sg102
g8
((lp151
(imodel.AtomGroup
AtomGroup
p152
(dp153
S'groupType'
p154
S'aromatic'
p155
sS'subGroups'
p156
g8
((ltRp157
sg17
g8
((lp158
g72
ag80
ag64
ag113
ag121
ag56
atRp159
sg24
g25
sg13
g1
sbatRp160
sg104
g8
((lp161
(imodel.Bond
Bond
p162
(dp163
g13
g1
sg108
g155
sg24
g25
sg17
g8
((lp164
g56
ag121
atRp165
sbag142
a(imodel.Bond
Bond
p166
(dp167
g13
g1
sg108
g155
sg24
g25
sg17
g8
((lp168
g121
ag113
atRp169
sbatRp170
sg37
I00
sbatRp171
sg15
S'N'
sg97
I0
sg16
I00
sg98
(F420.27497356266031
F221.79628982287545
F26.561819329615826
tp172
sg100
(lp173
sg13
g1
sg102
g8
((lp174
g152
atRp175
sg104
g8
((lp176
(imodel.Bond
Bond
p177
(dp178
g13
g1
sg108
g155
sg24
g25
sg17
g8
((lp179
g113
ag80
atRp180
sbag166
a(imodel.Bond
Bond
p181
(dp182
g13
g1
sg108
g109
sg24
g25
sg17
g8
((lp183
g19
ag113
atRp184
sbatRp185
sg37
I00
sbatRp186
sg15
S'C'
sg97
I0
sg16
I00
sg98
(F419.23753334229423
F271.99855740115368
F51.842905172594342
tp187
sg100
(lp188
sg13
g1
sg102
g8
((lp189
g152
atRp190
sg104
g8
((lp191
g106
ag177
a(imodel.Bond
Bond
p192
(dp193
g13
g1
sg108
g155
sg24
g25
sg17
g8
((lp194
g72
ag80
atRp195
sbatRp196
sg37
I00
sbag64
atRp197
sg15
S'N'
sg97
I0
sg16
I00
sg98
(F375.62180301549233
F296.1732902487405
F49.402007739418877
tp198
sg100
(lp199
sg13
g1
sg102
g8
((lp200
g152
atRp201
sg104
g8
((lp202
g192
a(imodel.Bond
Bond
p203
(dp204
g13
g1
sg108
g155
sg24
g25
sg17
g8
((lp205
g72
ag64
atRp206
sbatRp207
sg37
I00
sba(imodel.VarAtom
VarAtom
p208
(dp209
g3
S'N9'
p210
sg21
I00
sg22
Nsg23
(imodel.Atom
Atom
p211
(dp212
g3
g210
sg13
g1
sg14
I3
sg15
S'N'
sg16
I00
sg17
g8
((lp213
g208
atRp214
sg37
I00
sbsg24
g25
sg38
g8
((lp215
g64
ag40
a(imodel.VarAtom
VarAtom
p216
(dp217
S'name'
p218
S'HN9'
p219
sS'isLabile'
p220
I00
sS'chirality'
p221
NsS'atom'
p222
(imodel.Atom
Atom
p223
(dp224
g218
g219
sS'compound'
p225
g1
sg14
I1
sS'element'
p226
S'H'
sS'isVariable'
p227
I00
sS'varAtoms'
p228
g8
((lp229
g216
atRp230
sS'isDeleted'
p231
I00
sbsS'variant'
p232
g25
sS'neighbours'
p233
g8
((lp234
g208
atRp235
sg226
S'H'
sS'charge'
p236
I0
sg227
I00
sS'coords'
p237
(F272.51246871342437
F321.16921959773913
F0.92769990594958529
tp238
sS'freeValences'
p239
(lp240
sg225
g1
sS'atomGroups'
p241
g8
((ltRp242
sS'bonds'
p243
g8
((lp244
(imodel.Bond
Bond
p245
(dp246
g225
g1
sS'bondType'
p247
S'single'
p248
sg232
g25
sg228
g8
((lp249
g208
ag216
atRp250
sbatRp251
sg231
I00
sbatRp252
sg15
S'N'
sg97
I0
sg16
I00
sg98
(F283.70236937208279
F284.80729646253553
F13.281017934023877
tp253
sg100
(lp254
sg13
g1
sg102
g8
((lp255
(imodel.AtomGroup
AtomGroup
p256
(dp257
S'groupType'
p258
S'aromatic'
p259
sS'subGroups'
p260
g8
((ltRp261
sS'varAtoms'
p262
g8
((lp263
g48
ag56
ag40
ag208
ag64
atRp264
sS'variant'
p265
g25
sS'compound'
p266
g1
sbatRp267
sg104
g8
((lp268
(imodel.Bond
Bond
p269
(dp270
g13
g1
sg108
g259
sg24
g25
sg17
g8
((lp271
g64
ag208
atRp272
sba(imodel.Bond
Bond
p273
(dp274
g13
g1
sg108
g259
sg24
g25
sg17
g8
((lp275
g40
ag208
atRp276
sbag245
atRp277
sg37
I00
sbatRp278
sg15
S'C'
sg97
I0
sg16
I00
sg98
(F332.37489946041671
F270.49337479762664
F21.702177909636003
tp279
sg100
(lp280
sg13
g1
sg102
g8
((lp281
g152
ag256
atRp282
sg104
g8
((lp283
(imodel.Bond
Bond
p284
(dp285
g13
g1
sg108
g259
sg24
g25
sg17
g8
((lp286
g56
ag64
atRp287
sbag269
ag203
atRp288
sg37
I00
sbag121
ag48
atRp289
sg15
S'C'
sg97
I0
sg16
I00
sg98
(F333.55148302189389
F220.70599497160561
F-5.3572447621627095
tp290
sg100
(lp291
sg13
g1
sg102
g8
((lp292
g152
ag256
atRp293
sg104
g8
((lp294
g284
ag162
a(imodel.Bond
Bond
p295
(dp296
g13
g1
sg108
g259
sg24
g25
sg17
g8
((lp297
g56
ag48
atRp298
sbatRp299
sg37
I00
sbatRp300
sg15
S'N'
sg97
I0
sg16
I00
sg98
(F286.69980161351612
F203.78369766001629
F-29.562447135902055
tp301
sg100
(lp302
sg13
g1
sg102
g8
((lp303
g256
atRp304
sg104
g8
((lp305
(imodel.Bond
Bond
p306
(dp307
g13
g1
sg108
g259
sg24
g25
sg17
g8
((lp308
g48
ag40
atRp309
sbag295
atRp310
sg37
I00
sbag208
ag30
atRp311
sg15
S'C'
sg97
I0
sg16
I00
sg98
(F255.94883451215628
F243.09045036966472
F-18.59947477307497
tp312
sg100
(lp313
sg13
g1
sg102
g8
((lp314
g256
atRp315
sg104
g8
((lp316
g306
ag273
a(imodel.Bond
Bond
p317
(dp318
g13
g1
sg108
g109
sg24
g25
sg17
g8
((lp319
g30
ag40
atRp320
sbatRp321
sg37
I00
sbatRp322
sg15
S'H'
sg97
I0
sg16
I00
sg98
(F216.94872234839454
F242.22589704833035
F-32.7770405428735
tp323
sg100
(lp324
sg13
g1
sg102
g8
((ltRp325
sg104
g8
((lp326
g317
atRp327
sg37
I00
sbag88
ag19
ag216
atRp328
sS'C'
g8
((lp329
g64
ag56
ag40
ag80
ag121
atRp330
sS'N'
g8
((lp331
g113
ag208
ag48
ag72
atRp332
sS'O'
g8
((lp333
g129
atRp334
sS'P'
g8
((ltRp335
ssg104
g8
((lp336
g177
ag142
ag295
ag306
ag317
ag245
ag106
ag284
ag192
ag203
ag273
ag162
ag269
ag181
ag166
atRp337
sg13
g1
sS'descriptor'
p338
(S'neutral'
p339
S'none'
p340
S'default'
p341
tp342
sS'atomDict'
p343
(dp344
g10
g19
sg67
g64
sg59
g56
sg132
g129
sg116
g113
sg43
g40
sg83
g80
sg223
g216
sg75
g72
sg124
g121
sg51
g48
sg33
g30
sg211
g208
sg91
g88
ssg17
g8
((lp345
g72
ag88
ag30
ag40
ag64
ag113
ag208
ag121
ag56
ag129
ag19
ag216
ag48
ag80
atRp346
sg102
g8
((lp347
g152
ag256
atRp348
sS'polyLink'
p349
S'none'
p350
sbsg38
g8
((lp351
g113
atRp352
sg15
S'H'
sg97
I0
sg16
I01
sg98
(F452.96960347738832
F202.02536358856412
F28.854451280975152
tp353
sg100
(lp354
sg13
g1
sg102
g8
((ltRp355
sg104
g8
((lp356
g181
atRp357
sg37
I00
sbatRp358
sg37
I00
sbag43
ag59
ag91
ag124
ag116
ag67
ag223
ag75
ag51
ag33
ag211
ag132
ag83
atRp359
sS'ccpMolType'
p360
Vother
p361
sS'details'
p362
V
sg343
(dp363
g32
g33
sg131
g132
sg90
g91
sg12
g10
sg50
g51
sg210
g211
sg42
g43
sg82
g83
sg219
g223
sg115
g116
sg74
g75
sg123
g124
sg58
g59
sg66
g67
ssS'keywords'
p364
g8
((ltRp365
sg102
g8
((lp366
g152
ag256
atRp367
sS'variants'
p368
g8
((lp369
g25
atRp370
sS'defaultVars'
p371
g8
((ltRp372
sb.