(imodel.Compound
Compound
p1
(dp2
S'name'
p3
VThymine
p4
sS'isModified'
p5
I01
sS'ccpCode'
p6
V
sS'atoms'
p7
c__builtin__
set
p8
((lp9
(imodel.Atom
Atom
p10
(dp11
g3
S'C7'
p12
sS'compound'
p13
g1
sS'element'
p14
S'C'
sS'isVariable'
p15
I00
sS'varAtoms'
p16
g8
((lp17
(imodel.VarAtom
VarAtom
p18
(dp19
g3
g12
sS'isLabile'
p20
I00
sS'chirality'
p21
NsS'atom'
p22
g10
sS'variant'
p23
(imodel.Variant
Variant
p24
(dp25
S'elementDict'
p26
(dp27
S'H'
g8
((lp28
(imodel.VarAtom
VarAtom
p29
(dp30
g3
S'H6'
p31
sg20
I00
sg21
Nsg22
(imodel.Atom
Atom
p32
(dp33
g3
g31
sg13
g1
sg14
S'H'
sg15
I00
sg16
g8
((lp34
g29
atRp35
sS'isDeleted'
p36
I00
sbsg23
g24
sS'neighbours'
p37
g8
((lp38
(imodel.VarAtom
VarAtom
p39
(dp40
g3
S'C6'
p41
sg20
I00
sg21
Nsg22
(imodel.Atom
Atom
p42
(dp43
g3
g41
sg13
g1
sg14
S'C'
sg15
I00
sg16
g8
((lp44
g39
atRp45
sg36
I00
sbsg23
g24
sg37
g8
((lp46
g29
a(imodel.VarAtom
VarAtom
p47
(dp48
g3
S'C5'
p49
sg20
I00
sg21
Nsg22
(imodel.Atom
Atom
p50
(dp51
g3
g49
sg13
g1
sg14
S'C'
sg15
I00
sg16
g8
((lp52
g47
atRp53
sg36
I00
sbsg23
g24
sg37
g8
((lp54
g39
ag18
a(imodel.VarAtom
VarAtom
p55
(dp56
g3
S'C4'
p57
sg20
I00
sg21
Nsg22
(imodel.Atom
Atom
p58
(dp59
g3
g57
sg13
g1
sg14
S'C'
sg15
I00
sg16
g8
((lp60
g55
atRp61
sg36
I00
sbsg23
g24
sg37
g8
((lp62
(imodel.VarAtom
VarAtom
p63
(dp64
g3
S'N3'
p65
sg20
I00
sg21
Nsg22
(imodel.Atom
Atom
p66
(dp67
g3
g65
sg13
g1
sg14
S'N'
sg15
I00
sg16
g8
((lp68
g63
atRp69
sg36
I00
sbsg23
g24
sg37
g8
((lp70
g55
a(imodel.VarAtom
VarAtom
p71
(dp72
g3
S'H3'
p73
sg20
I00
sg21
Nsg22
(imodel.Atom
Atom
p74
(dp75
g3
g73
sg13
g1
sg14
S'H'
sg15
I01
sg16
g8
((lp76
g71
atRp77
sg36
I00
sbsg23
g24
sg37
g8
((lp78
g63
atRp79
sg14
S'H'
sS'charge'
p80
I0
sg15
I01
sS'coords'
p81
(F354.9896225624841
F280.2227605168614
F166.84408627625101
tp82
sS'freeValences'
p83
(lp84
sg13
g1
sS'atomGroups'
p85
g8
((ltRp86
sS'bonds'
p87
g8
((lp88
(imodel.Bond
Bond
p89
(dp90
g13
g1
sS'bondType'
p91
S'single'
p92
sg23
g24
sg16
g8
((lp93
g71
ag63
atRp94
sbatRp95
sg36
I00
sba(imodel.VarAtom
VarAtom
p96
(dp97
g3
S'C2'
p98
sg20
I00
sg21
Nsg22
(imodel.Atom
Atom
p99
(dp100
g3
g98
sg13
g1
sg14
S'C'
sg15
I00
sg16
g8
((lp101
g96
atRp102
sg36
I00
sbsg23
g24
sg37
g8
((lp103
(imodel.VarAtom
VarAtom
p104
(dp105
g3
S'N1'
p106
sg20
I00
sg21
Nsg22
(imodel.Atom
Atom
p107
(dp108
g3
g106
sg13
g1
sg14
S'N'
sg15
I00
sg16
g8
((lp109
g104
atRp110
sg36
I00
sbsg23
g24
sg37
g8
((lp111
g96
ag39
a(imodel.VarAtom
VarAtom
p112
(dp113
S'neighbours'
p114
g8
((lp115
g104
atRp116
sS'name'
p117
VH1
p118
sS'isLabile'
p119
I00
sS'chirality'
p120
NsS'atom'
p121
(imodel.Atom
Atom
p122
(dp123
g117
g118
sS'compound'
p124
g1
sS'element'
p125
S'H'
sS'isVariable'
p126
I00
sS'varAtoms'
p127
g8
((lp128
g112
atRp129
sS'isDeleted'
p130
I00
sbsS'variant'
p131
g24
sS'charge'
p132
I0
sg125
S'H'
sg126
I00
sS'coords'
p133
(F206.24143439600363
F314.10124768065276
F0.058925825087028483
tp134
sS'freeValences'
p135
(lp136
sg124
g1
sS'atomGroups'
p137
g8
((ltRp138
sS'bonds'
p139
g8
((lp140
(imodel.Bond
Bond
p141
(dp142
S'bondType'
p143
S'single'
p144
sg124
g1
sg131
g24
sg127
g8
((lp145
g104
ag112
atRp146
sbatRp147
sg130
I00
sbatRp148
sg14
S'N'
sg80
I0
sg15
I00
sg81
(F233.76809191549876
F287.7041520750854
F132.07626327321637
tp149
sg83
(lp150
sg13
g1
sg85
g8
((ltRp151
sg87
g8
((lp152
(imodel.Bond
Bond
p153
(dp154
g13
g1
sg91
S'single'
p155
sg23
g24
sg16
g8
((lp156
g96
ag104
atRp157
sba(imodel.Bond
Bond
p158
(dp159
g13
g1
sg91
S'aromatic'
p160
sg23
g24
sg16
g8
((lp161
g39
ag104
atRp162
sbag141
atRp163
sg36
I00
sba(imodel.VarAtom
VarAtom
p164
(dp165
g3
S'O2'
p166
sg20
I00
sg21
Nsg22
(imodel.Atom
Atom
p167
(dp168
g3
g166
sg13
g1
sg14
S'O'
sg15
I00
sg16
g8
((lp169
g164
atRp170
sg36
I00
sbsg23
g24
sg37
g8
((lp171
g96
atRp172
sg14
S'O'
sg80
I0
sg15
I00
sg81
(F300.82563379787609
F342.22447631281216
F62.720093813340569
tp173
sg83
(lp174
sg13
g1
sg85
g8
((ltRp175
sg87
g8
((lp176
(imodel.Bond
Bond
p177
(dp178
g13
g1
sg91
S'double'
p179
sg23
g24
sg16
g8
((lp180
g96
ag164
atRp181
sbatRp182
sg36
I00
sbag63
atRp183
sg14
S'C'
sg80
I0
sg15
I00
sg81
(F281.90209479493376
F302.47709446701811
F117.90820214979547
tp184
sg83
(lp185
sg13
g1
sg85
g8
((ltRp186
sg87
g8
((lp187
g153
a(imodel.Bond
Bond
p188
(dp189
g13
g1
sg91
g155
sg23
g24
sg16
g8
((lp190
g96
ag63
atRp191
sbag177
atRp192
sg36
I00
sbatRp193
sg14
S'N'
sg80
I0
sg15
I00
sg81
(F318.5777776801707
F268.67696333431729
F173.89691492848317
tp194
sg83
(lp195
sg13
g1
sg85
g8
((ltRp196
sg87
g8
((lp197
(imodel.Bond
Bond
p198
(dp199
g13
g1
sg91
g160
sg23
g24
sg16
g8
((lp200
g55
ag63
atRp201
sbag188
ag89
atRp202
sg36
I00
sba(imodel.VarAtom
VarAtom
p203
(dp204
g3
S'O4'
p205
sg20
I00
sg21
Nsg22
(imodel.Atom
Atom
p206
(dp207
g3
g205
sg13
g1
sg14
S'O'
sg15
I00
sg16
g8
((lp208
g203
atRp209
sg36
I00
sbsg23
g24
sg37
g8
((lp210
g55
atRp211
sg14
S'O'
sg80
I0
sg15
I00
sg81
(F345.82933303279026
F197.18593651990784
F286.74323849673613
tp212
sg83
(lp213
sg13
g1
sg85
g8
((ltRp214
sg87
g8
((lp215
(imodel.Bond
Bond
p216
(dp217
g13
g1
sg91
S'double'
p218
sg23
g24
sg16
g8
((lp219
g203
ag55
atRp220
sbatRp221
sg36
I00
sbag47
atRp222
sg14
S'C'
sg80
I0
sg15
I00
sg81
(F308.0019760801656
F219.79637800433886
F238.90756919043881
tp223
sg83
(lp224
sg13
g1
sg85
g8
((ltRp225
sg87
g8
((lp226
g198
ag216
a(imodel.Bond
Bond
p227
(dp228
g13
g1
sg91
g160
sg23
g24
sg16
g8
((lp229
g55
ag47
atRp230
sbatRp231
sg36
I00
sbatRp232
sg14
S'C'
sg80
I0
sg15
I00
sg81
(F260.12435784364334
F204.59331155422478
F249.96503662600188
tp233
sg83
(lp234
sg13
g1
sg85
g8
((ltRp235
sg87
g8
((lp236
(imodel.Bond
Bond
p237
(dp238
g13
g1
sg91
S'double'
p239
sg23
g24
sg16
g8
((lp240
g47
ag39
atRp241
sba(imodel.Bond
Bond
p242
(dp243
g13
g1
sg91
g92
sg23
g24
sg16
g8
((lp244
g18
ag47
atRp245
sbag227
atRp246
sg36
I00
sbag104
atRp247
sg14
S'C'
sg80
I0
sg15
I00
sg81
(F223.35589076507722
F238.65621096992572
F196.12087845912899
tp248
sg83
(lp249
sg13
g1
sg85
g8
((ltRp250
sg87
g8
((lp251
(imodel.Bond
Bond
p252
(dp253
g13
g1
sg91
g92
sg23
g24
sg16
g8
((lp254
g39
ag29
atRp255
sbag237
ag158
atRp256
sg36
I00
sbatRp257
sg14
S'H'
sg80
I0
sg15
I00
sg81
(F187.67566779690458
F225.96191478228684
F203.10594394017909
tp258
sg83
(lp259
sg13
g1
sg85
g8
((ltRp260
sg87
g8
((lp261
g252
atRp262
sg36
I00
sbag112
a(imodel.VarAtom
VarAtom
p263
(dp264
g3
S'H73'
p265
sg20
I00
sg21
Nsg22
(imodel.Atom
Atom
p266
(dp267
g3
g265
sg13
g1
sg14
S'H'
sg15
I00
sg16
g8
((lp268
g263
atRp269
sg36
I00
sbsg23
g24
sg37
g8
((lp270
g18
atRp271
sg14
S'H'
sg80
I0
sg15
I00
sg81
(F291.20454083367315
F141.04772463637767
F342.45922619273665
tp272
sg83
(lp273
sg13
g1
sg85
g8
((ltRp274
sg87
g8
((lp275
(imodel.Bond
Bond
p276
(dp277
g13
g1
sg91
g92
sg23
g24
sg16
g8
((lp278
g18
ag263
atRp279
sbatRp280
sg36
I00
sba(imodel.VarAtom
VarAtom
p281
(dp282
g3
S'H72'
p283
sg20
I00
sg21
Nsg22
(imodel.Atom
Atom
p284
(dp285
g3
g283
sg13
g1
sg14
S'H'
sg15
I00
sg16
g8
((lp286
g281
atRp287
sg36
I00
sbsg23
g24
sg37
g8
((lp288
g18
atRp289
sg14
S'H'
sg80
I0
sg15
I00
sg81
(F215.88548725328951
F153.02996916976463
F318.32925404117242
tp290
sg83
(lp291
sg13
g1
sg85
g8
((ltRp292
sg87
g8
((lp293
(imodel.Bond
Bond
p294
(dp295
g13
g1
sg91
g92
sg23
g24
sg16
g8
((lp296
g18
ag281
atRp297
sbatRp298
sg36
I00
sbag71
a(imodel.VarAtom
VarAtom
p299
(dp300
g3
S'H71'
p301
sg20
I00
sg21
Nsg22
(imodel.Atom
Atom
p302
(dp303
g3
g301
sg13
g1
sg14
S'H'
sg15
I00
sg16
g8
((lp304
g299
atRp305
sg36
I00
sbsg23
g24
sg37
g8
((lp306
g18
atRp307
sg14
S'H'
sg80
I0
sg15
I00
sg81
(F248.3836090294011
F114.56275719170878
F349.03230045838495
tp308
sg83
(lp309
sg13
g1
sg85
g8
((ltRp310
sg87
g8
((lp311
(imodel.Bond
Bond
p312
(dp313
g13
g1
sg91
g92
sg23
g24
sg16
g8
((lp314
g18
ag299
atRp315
sbatRp316
sg36
I00
sbatRp317
sS'C'
g8
((lp318
g96
ag47
ag39
ag55
ag18
atRp319
sS'P'
g8
((ltRp320
sS'O'
g8
((lp321
g164
ag203
atRp322
sS'N'
g8
((lp323
g104
ag63
atRp324
ssg87
g8
((lp325
g294
ag177
ag153
ag141
ag242
ag216
ag237
ag89
ag252
ag158
ag276
ag312
ag198
ag227
ag188
atRp326
sg13
g1
sS'descriptor'
p327
(S'neutral'
p328
S'none'
p329
S'default'
p330
tp331
sS'atomDict'
p332
(dp333
g66
g63
sg32
g29
sg107
g104
sg266
g263
sg99
g96
sg50
g47
sg284
g281
sg58
g55
sg10
g18
sg167
g164
sg42
g39
sg302
g299
sg122
g112
sg206
g203
sg74
g71
ssg16
g8
((lp334
g47
ag39
ag55
ag18
ag164
ag263
ag112
ag71
ag203
ag104
ag29
ag96
ag281
ag63
ag299
atRp335
sg85
g8
((ltRp336
sS'polyLink'
p337
g329
sbsg37
g8
((lp338
g299
ag281
ag263
ag47
atRp339
sg14
S'C'
sg80
I0
sg15
I00
sg81
(F254.50654045311603
F153.11899328034542
F-1014.0336822990542
tp340
sg83
(lp341
sg13
g1
sg85
g8
((ltRp342
sg87
g8
((lp343
g294
ag312
ag276
ag242
atRp344
sg36
I00
sbatRp345
sg36
I00
sbag167
ag107
ag266
ag122
ag99
ag50
ag284
ag58
ag66
ag32
ag42
ag302
ag74
ag206
atRp346
sS'ccpMolType'
p347
Vother
p348
sS'details'
p349
V
sg332
(dp350
g205
g206
sg166
g167
sg98
g99
sg12
g10
sg265
g266
sg49
g50
sg57
g58
sg106
g107
sg65
g66
sg283
g284
sg118
g122
sg31
g32
sg41
g42
sg73
g74
sg301
g302
ssS'keywords'
p351
g8
((ltRp352
sg85
g8
((ltRp353
sS'variants'
p354
g8
((lp355
g24
atRp356
sS'defaultVars'
p357
g8
((ltRp358
sb.