(imodel.Compound
Compound
p1
(dp2
S'name'
p3
VUracil
p4
sS'isModified'
p5
I01
sS'ccpCode'
p6
V
sS'atoms'
p7
c__builtin__
set
p8
((lp9
(imodel.Atom
Atom
p10
(dp11
g3
S'C4'
p12
sS'compound'
p13
g1
sS'baseValences'
p14
I4
sS'element'
p15
S'C'
sS'isVariable'
p16
I00
sS'varAtoms'
p17
g8
((lp18
(imodel.VarAtom
VarAtom
p19
(dp20
g3
g12
sS'isLabile'
p21
I00
sS'chirality'
p22
NsS'atom'
p23
g10
sS'variant'
p24
(imodel.Variant
Variant
p25
(dp26
S'elementDict'
p27
(dp28
S'H'
g8
((lp29
(imodel.VarAtom
VarAtom
p30
(dp31
S'name'
p32
VH5
p33
sS'isLabile'
p34
I00
sS'chirality'
p35
NsS'atom'
p36
(imodel.Atom
Atom
p37
(dp38
g32
g33
sS'compound'
p39
g1
sg14
I1
sS'element'
p40
S'H'
sS'isVariable'
p41
I00
sS'varAtoms'
p42
g8
((lp43
g30
atRp44
sS'isDeleted'
p45
I00
sbsS'variant'
p46
g25
sS'neighbours'
p47
g8
((lp48
(imodel.VarAtom
VarAtom
p49
(dp50
g3
S'C5'
p51
sg21
I00
sg22
Nsg23
(imodel.Atom
Atom
p52
(dp53
g3
g51
sg13
g1
sg14
I4
sg15
S'C'
sg16
I00
sg17
g8
((lp54
g49
atRp55
sS'isDeleted'
p56
I00
sbsg24
g25
sS'neighbours'
p57
g8
((lp58
(imodel.VarAtom
VarAtom
p59
(dp60
g3
S'C6'
p61
sg21
I00
sg22
Nsg23
(imodel.Atom
Atom
p62
(dp63
g3
g61
sg13
g1
sg14
I4
sg15
S'C'
sg16
I00
sg17
g8
((lp64
g59
atRp65
sg56
I00
sbsg24
g25
sg57
g8
((lp66
(imodel.VarAtom
VarAtom
p67
(dp68
g3
S'H6'
p69
sg21
I00
sg22
Nsg23
(imodel.Atom
Atom
p70
(dp71
g3
g69
sg13
g1
sg14
I1
sg15
S'H'
sg16
I00
sg17
g8
((lp72
g67
atRp73
sg56
I00
sbsg24
g25
sg57
g8
((lp74
g59
atRp75
sg15
S'H'
sS'charge'
p76
I0
sg16
I00
sS'coords'
p77
(F261.81415738675258
F294.84951873645269
F203.71155811604979
tp78
sS'freeValences'
p79
(lp80
sg13
g1
sS'atomGroups'
p81
g8
((ltRp82
sS'bonds'
p83
g8
((lp84
(imodel.Bond
Bond
p85
(dp86
g13
g1
sS'bondType'
p87
S'single'
p88
sg24
g25
sg17
g8
((lp89
g59
ag67
atRp90
sbatRp91
sg56
I00
sbag49
a(imodel.VarAtom
VarAtom
p92
(dp93
g3
S'N1'
p94
sg21
I00
sg22
Nsg23
(imodel.Atom
Atom
p95
(dp96
g3
g94
sg13
g1
sg14
I3
sg15
S'N'
sg16
I00
sg17
g8
((lp97
g92
atRp98
sg56
I00
sbsg24
g25
sg57
g8
((lp99
(imodel.VarAtom
VarAtom
p100
(dp101
g3
S'C2'
p102
sg21
I00
sg22
Nsg23
(imodel.Atom
Atom
p103
(dp104
g3
g102
sg13
g1
sg14
I4
sg15
S'C'
sg16
I00
sg17
g8
((lp105
g100
atRp106
sg56
I00
sbsg24
g25
sg57
g8
((lp107
g92
a(imodel.VarAtom
VarAtom
p108
(dp109
g3
S'O2'
p110
sg21
I00
sg22
Nsg23
(imodel.Atom
Atom
p111
(dp112
g3
g110
sg13
g1
sg14
I2
sg15
S'O'
sg16
I00
sg17
g8
((lp113
g108
atRp114
sg56
I00
sbsg24
g25
sg57
g8
((lp115
g100
atRp116
sg15
S'O'
sg76
I0
sg16
I00
sg77
(F378.51585515815691
F398.92540259679407
F63.376898831106111
tp117
sg79
(lp118
sg13
g1
sg81
g8
((ltRp119
sg83
g8
((lp120
(imodel.Bond
Bond
p121
(dp122
g13
g1
sg87
S'double'
p123
sg24
g25
sg17
g8
((lp124
g100
ag108
atRp125
sbatRp126
sg56
I00
sba(imodel.VarAtom
VarAtom
p127
(dp128
g3
S'N3'
p129
sg21
I00
sg22
Nsg23
(imodel.Atom
Atom
p130
(dp131
g3
g129
sg13
g1
sg14
I3
sg15
S'N'
sg16
I00
sg17
g8
((lp132
g127
atRp133
sg56
I00
sbsg24
g25
sg57
g8
((lp134
g19
a(imodel.VarAtom
VarAtom
p135
(dp136
g3
S'H3'
p137
sg21
I00
sg22
Nsg23
(imodel.Atom
Atom
p138
(dp139
g3
g137
sg13
g1
sg14
I1
sg15
S'H'
sg16
I01
sg17
g8
((lp140
g135
atRp141
sg56
I00
sbsg24
g25
sg57
g8
((lp142
g127
atRp143
sg15
S'H'
sg76
I0
sg16
I01
sg77
(F435.90981236601613
F323.83302038740766
F166.89352793619662
tp144
sg79
(lp145
sg13
g1
sg81
g8
((ltRp146
sg83
g8
((lp147
(imodel.Bond
Bond
p148
(dp149
g13
g1
sg87
g88
sg24
g25
sg17
g8
((lp150
g135
ag127
atRp151
sbatRp152
sg56
I00
sbag100
atRp153
sg15
S'N'
sg76
I0
sg16
I00
sg77
(F398.21639681660969
F317.890305696018
F174.67364727193655
tp154
sg79
(lp155
sg13
g1
sg81
g8
((lp156
(imodel.AtomGroup
AtomGroup
p157
(dp158
S'groupType'
p159
S'aromatic'
p160
sS'subGroups'
p161
g8
((ltRp162
sS'varAtoms'
p163
g8
((lp164
g19
ag92
ag100
ag59
ag127
ag49
atRp165
sS'variant'
p166
g25
sS'compound'
p167
g1
sbatRp168
sg83
g8
((lp169
(imodel.Bond
Bond
p170
(dp171
g13
g1
sg87
g160
sg24
g25
sg17
g8
((lp172
g19
ag127
atRp173
sba(imodel.Bond
Bond
p174
(dp175
g13
g1
sg87
g160
sg24
g25
sg17
g8
((lp176
g100
ag127
atRp177
sbag148
atRp178
sg56
I00
sbatRp179
sg15
S'C'
sg76
I0
sg16
I00
sg77
(F366.4114784220867
F356.5965200025031
F118.25229205801493
tp180
sg79
(lp181
sg13
g1
sg81
g8
((lp182
g157
atRp183
sg83
g8
((lp184
(imodel.Bond
Bond
p185
(dp186
g13
g1
sg87
g160
sg24
g25
sg17
g8
((lp187
g100
ag92
atRp188
sbag174
ag121
atRp189
sg56
I00
sba(imodel.VarAtom
VarAtom
p190
(dp191
S'name'
p192
VH1
p193
sS'isLabile'
p194
I00
sS'chirality'
p195
NsS'atom'
p196
(imodel.Atom
Atom
p197
(dp198
g192
g193
sS'compound'
p199
g1
sg14
I1
sS'element'
p200
S'H'
sS'isVariable'
p201
I00
sS'varAtoms'
p202
g8
((lp203
g190
atRp204
sS'isDeleted'
p205
I00
sbsS'variant'
p206
g25
sS'neighbours'
p207
g8
((lp208
g92
atRp209
sg200
S'H'
sS'charge'
p210
I0
sg201
I00
sS'coords'
p211
(F290.9458172794661
F376.27252973914517
F1.7771145606995442
tp212
sS'freeValences'
p213
(lp214
sg199
g1
sS'atomGroups'
p215
g8
((ltRp216
sS'bonds'
p217
g8
((lp218
(imodel.Bond
Bond
p219
(dp220
g199
g1
sS'bondType'
p221
S'single'
p222
sg206
g25
sg202
g8
((lp223
g92
ag190
atRp224
sbatRp225
sg205
I00
sbag59
atRp226
sg15
S'N'
sg76
I0
sg16
I00
sg77
(F317.01415183176528
F348.42561698112326
F132.79406679233799
tp227
sg79
(lp228
sg13
g1
sg81
g8
((lp229
g157
atRp230
sg83
g8
((lp231
g185
a(imodel.Bond
Bond
p232
(dp233
g13
g1
sg87
g160
sg24
g25
sg17
g8
((lp234
g59
ag92
atRp235
sbag219
atRp236
sg56
I00
sbatRp237
sg15
S'C'
sg76
I0
sg16
I00
sg77
(F299.36831841973304
F301.54972508539726
F196.75839449739928
tp238
sg79
(lp239
sg13
g1
sg81
g8
((lp240
g157
atRp241
sg83
g8
((lp242
g85
a(imodel.Bond
Bond
p243
(dp244
g13
g1
sg87
g160
sg24
g25
sg17
g8
((lp245
g49
ag59
atRp246
sbag232
atRp247
sg56
I00
sbag19
ag30
atRp248
sg15
S'C'
sg76
I0
sg16
I00
sg77
(F331.16397302488792
F262.84914083642639
F250.48339492959059
tp249
sg79
(lp250
sg13
g1
sg81
g8
((lp251
g157
atRp252
sg83
g8
((lp253
g243
a(imodel.Bond
Bond
p254
(dp255
g39
g1
sS'bondType'
p256
S'single'
p257
sg46
g25
sg42
g8
((lp258
g49
ag30
atRp259
sba(imodel.Bond
Bond
p260
(dp261
g13
g1
sg87
g160
sg24
g25
sg17
g8
((lp262
g19
ag49
atRp263
sbatRp264
sg56
I00
sbatRp265
sg40
S'H'
sS'charge'
p266
I0
sg41
I00
sS'coords'
p267
(F316.27540007000312
F227.73569226579821
F1.2737806692201916
tp268
sS'freeValences'
p269
(lp270
sg39
g1
sS'atomGroups'
p271
g8
((ltRp272
sS'bonds'
p273
g8
((lp274
g254
atRp275
sg45
I00
sbag135
ag67
ag190
atRp276
sS'C'
g8
((lp277
g19
ag100
ag59
ag49
atRp278
sS'P'
g8
((ltRp279
sS'O'
g8
((lp280
(imodel.VarAtom
VarAtom
p281
(dp282
g3
S'O4'
p283
sg21
I00
sg22
Nsg23
(imodel.Atom
Atom
p284
(dp285
g3
g283
sg13
g1
sg14
I2
sg15
S'O'
sg16
I00
sg17
g8
((lp286
g281
atRp287
sg56
I00
sbsg24
g25
sg57
g8
((lp288
g19
atRp289
sg15
S'O'
sg76
I0
sg16
I00
sg77
(F405.60416849573107
F234.80619245146693
F287.62918167783658
tp290
sg79
(lp291
sg13
g1
sg81
g8
((ltRp292
sg83
g8
((lp293
(imodel.Bond
Bond
p294
(dp295
g13
g1
sg87
S'double'
p296
sg24
g25
sg17
g8
((lp297
g281
ag19
atRp298
sbatRp299
sg56
I00
sbag108
atRp300
sS'N'
g8
((lp301
g92
ag127
atRp302
ssg83
g8
((lp303
g254
ag170
ag121
ag260
ag85
ag185
ag232
ag174
ag219
ag294
ag243
ag148
atRp304
sg13
g1
sS'descriptor'
p305
(S'neutral'
p306
S'none'
p307
S'default'
p308
tp309
sS'atomDict'
p310
(dp311
g111
g108
sg70
g67
sg62
g59
sg130
g127
sg95
g92
sg284
g281
sg52
g49
sg197
g190
sg37
g30
sg138
g135
sg103
g100
sg10
g19
ssg17
g8
((lp312
g67
ag281
ag19
ag135
ag100
ag127
ag108
ag59
ag30
ag190
ag92
ag49
atRp313
sg81
g8
((lp314
g157
atRp315
sS'polyLink'
p316
S'none'
p317
sbsg57
g8
((lp318
g127
ag281
ag49
atRp319
sg15
S'C'
sg76
I0
sg16
I00
sg77
(F380.55692329844192
F271.01141315539809
F238.98841431892441
tp320
sg79
(lp321
sg13
g1
sg81
g8
((lp322
g157
atRp323
sg83
g8
((lp324
g170
ag294
ag260
atRp325
sg56
I00
sbatRp326
sg56
I00
sbag111
ag37
ag62
ag95
ag52
ag284
ag130
ag138
ag70
ag103
ag197
atRp327
sS'ccpMolType'
p328
Vother
p329
sS'details'
p330
V
sg310
(dp331
g129
g130
sg137
g138
sg193
g197
sg69
g70
sg61
g62
sg33
g37
sg94
g95
sg102
g103
sg283
g284
sg110
g111
sg51
g52
sg12
g10
ssS'keywords'
p332
g8
((ltRp333
sg81
g8
((lp334
g157
atRp335
sS'variants'
p336
g8
((lp337
g25
atRp338
sS'defaultVars'
p339
g8
((ltRp340
sb.