(imodel.Compound
Compound
p1
(dp2
S'name'
p3
VAmino Acid Template
p4
sS'isModified'
p5
I00
sS'ccpCode'
p6
NsS'atoms'
p7
c__builtin__
set
p8
((lp9
(imodel.Atom
Atom
p10
(dp11
g3
VHB3
p12
sS'compound'
p13
g1
sS'baseValences'
p14
I1
sS'element'
p15
S'H'
sS'isVariable'
p16
I00
sS'varAtoms'
p17
g8
((lp18
(imodel.VarAtom
VarAtom
p19
(dp20
S'neighbours'
p21
g8
((lp22
(imodel.VarAtom
VarAtom
p23
(dp24
g21
g8
((lp25
g19
a(imodel.VarAtom
VarAtom
p26
(dp27
g21
g8
((lp28
(imodel.VarAtom
VarAtom
p29
(dp30
g21
g8
((lp31
g26
a(imodel.VarAtom
VarAtom
p32
(dp33
g21
g8
((lp34
g29
atRp35
sS'name'
p36
S'next'
p37
sS'isLabile'
p38
I00
sS'chirality'
p39
NsS'atom'
p40
(imodel.Atom
Atom
p41
(dp42
g3
g37
sg13
g1
sg14
I1
sg15
S'link'
p43
sg16
I00
sg17
g8
((lp44
(imodel.VarAtom
VarAtom
p45
(dp46
g3
g37
sS'isLabile'
p47
I00
sS'chirality'
p48
NsS'atom'
p49
g41
sS'variant'
p50
(imodel.Variant
Variant
p51
(dp52
S'elementDict'
p53
(dp54
S'H'
g8
((lp55
(imodel.VarAtom
VarAtom
p56
(dp57
g3
VH2
p58
sg47
I01
sg48
Nsg49
(imodel.Atom
Atom
p59
(dp60
g3
g58
sg13
g1
sg14
I1
sg15
S'H'
sg16
I00
sg17
g8
((lp61
g56
a(imodel.VarAtom
VarAtom
p62
(dp63
g21
g8
((lp64
(imodel.VarAtom
VarAtom
p65
(dp66
g21
g8
((lp67
(imodel.VarAtom
VarAtom
p68
(dp69
g21
g8
((lp70
g65
atRp71
sg36
VH1
p72
sg38
I01
sg39
Nsg40
(imodel.Atom
Atom
p73
(dp74
g3
g72
sg13
g1
sg14
I1
sg15
S'H'
sg16
I00
sg17
g8
((lp75
(imodel.VarAtom
VarAtom
p76
(dp77
g21
g8
((lp78
(imodel.VarAtom
VarAtom
p79
(dp80
g21
g8
((lp81
(imodel.VarAtom
VarAtom
p82
(dp83
g21
g8
((lp84
g79
atRp85
sg36
VH3
p86
sg38
I01
sg39
Nsg40
(imodel.Atom
Atom
p87
(dp88
g36
g86
sS'compound'
p89
g1
sS'baseValences'
p90
I1
sS'element'
p91
S'H'
sS'isVariable'
p92
I01
sS'varAtoms'
p93
g8
((lp94
(imodel.VarAtom
VarAtom
p95
(dp96
g21
g8
((lp97
(imodel.VarAtom
VarAtom
p98
(dp99
g3
VN
sg47
I00
sg48
Nsg49
(imodel.Atom
Atom
p100
(dp101
g3
VN
sg13
g1
sg14
I3
sg15
S'N'
sg16
I00
sg17
g8
((lp102
(imodel.VarAtom
VarAtom
p103
(dp104
g3
VN
sg47
I00
sg48
Nsg49
g100
sg50
g51
sS'neighbours'
p105
g8
((lp106
g56
a(imodel.VarAtom
VarAtom
p107
(dp108
g21
g8
((lp109
g103
atRp110
sg36
g86
sg38
I01
sg39
Nsg40
g87
sS'variant'
p111
g51
sS'charge'
p112
I0
sg91
S'H'
sg92
I01
sS'coords'
p113
(F244.81776372194662
F215.43504584335173
F1.7901040319097805
tp114
sS'freeValences'
p115
(lp116
sg89
g1
sS'atomGroups'
p117
g8
((ltRp118
sS'bonds'
p119
g8
((lp120
(imodel.Bond
Bond
p121
(dp122
S'bondType'
p123
S'single'
p124
sg89
g1
sg111
g51
sg93
g8
((lp125
g103
ag107
atRp126
sbatRp127
sS'isDeleted'
p128
I00
sba(imodel.VarAtom
VarAtom
p129
(dp130
g3
g72
sg47
I01
sg48
Nsg49
g73
sg50
g51
sg105
g8
((lp131
g103
atRp132
sg15
S'H'
sS'charge'
p133
I0
sg16
I00
sS'coords'
p134
(F315.91442504537309
F192.63368334468439
F1.7860694615034878
tp135
sS'freeValences'
p136
(lp137
sg13
g1
sS'atomGroups'
p138
g8
((ltRp139
sS'bonds'
p140
g8
((lp141
(imodel.Bond
Bond
p142
(dp143
g13
g1
sS'bondType'
p144
S'single'
p145
sg50
g51
sg17
g8
((lp146
g103
ag129
atRp147
sbatRp148
sS'isDeleted'
p149
I00
sba(imodel.VarAtom
VarAtom
p150
(dp151
g3
VCA
p152
sg47
I00
sg48
Nsg49
(imodel.Atom
Atom
p153
(dp154
g3
g152
sg13
g1
sg14
I4
sg15
S'C'
sg16
I00
sg17
g8
((lp155
(imodel.VarAtom
VarAtom
p156
(dp157
g3
g152
sg47
I00
sg48
Nsg49
g153
sg50
(imodel.Variant
Variant
p158
(dp159
g53
(dp160
S'H'
g8
((lp161
(imodel.VarAtom
VarAtom
p162
(dp163
g3
VHB2
p164
sg47
I00
sg48
Nsg49
(imodel.Atom
Atom
p165
(dp166
g3
g164
sg13
g1
sg14
I1
sg15
S'H'
sg16
I00
sg17
g8
((lp167
g162
a(imodel.VarAtom
VarAtom
p168
(dp169
g21
g8
((lp170
g23
atRp171
sg36
g164
sg38
I00
sg39
Nsg40
g165
sg111
(imodel.Variant
Variant
p172
(dp173
S'elementDict'
p174
(dp175
S'H'
g8
((lp176
g19
ag168
a(imodel.VarAtom
VarAtom
p177
(dp178
g21
g8
((lp179
(imodel.VarAtom
VarAtom
p180
(dp181
g21
g8
((lp182
g26
a(imodel.VarAtom
VarAtom
p183
(dp184
g21
g8
((lp185
g180
atRp186
sg36
g58
sg38
I01
sg39
Nsg40
g59
sg111
g172
sg112
I0
sg91
S'H'
sg92
I00
sg113
(F277.13002808326229
F234.4013602077176
F0.61388162641604782
tp187
sg115
(lp188
sg89
g1
sg117
g8
((ltRp189
sg119
g8
((lp190
(imodel.Bond
Bond
p191
(dp192
g123
g145
sg89
g1
sg111
g172
sg93
g8
((lp193
g180
ag183
atRp194
sbatRp195
sg128
I00
sbag177
atRp196
sg36
VN
sg38
I00
sg39
Nsg40
g100
sg111
g172
sg112
I0
sg91
S'N'
sg92
I00
sg113
(F277.60915772828122
F195.93453099254936
F0.37884450065241659
tp197
sg115
(lp198
sg89
g1
sg117
g8
((ltRp199
sg119
g8
((lp200
(imodel.Bond
Bond
p201
(dp202
g123
g145
sg89
g1
sg111
g172
sg93
g8
((lp203
g180
ag26
atRp204
sba(imodel.Bond
Bond
p205
(dp206
g123
g145
sg89
g1
sg111
g172
sg93
g8
((lp207
g180
ag177
atRp208
sbag191
atRp209
sg128
I00
sbatRp210
sg36
g72
sg38
I01
sg39
Nsg40
g73
sg111
g172
sg112
I0
sg91
S'H'
sg92
I00
sg113
(F315.91442504537309
F192.63368334468439
F1.7860694615034878
tp211
sg115
(lp212
sg89
g1
sg117
g8
((ltRp213
sg119
g8
((lp214
g205
atRp215
sg128
I00
sbag183
a(imodel.VarAtom
VarAtom
p216
(dp217
g21
g8
((lp218
g26
atRp219
sg36
VHA
p220
sg38
I00
sg39
Nsg40
(imodel.Atom
Atom
p221
(dp222
g3
g220
sg13
g1
sg14
I1
sg15
S'H'
sg16
I00
sg17
g8
((lp223
(imodel.VarAtom
VarAtom
p224
(dp225
g21
g8
((lp226
(imodel.VarAtom
VarAtom
p227
(dp228
g21
g8
((lp229
g224
a(imodel.VarAtom
VarAtom
p230
(dp231
g21
g8
((lp232
g227
a(imodel.VarAtom
VarAtom
p233
(dp234
g21
g8
((lp235
g230
atRp236
sg36
VO'
p237
sg38
I00
sg39
Nsg40
(imodel.Atom
Atom
p238
(dp239
g3
g237
sg13
g1
sg14
I2
sg15
S'O'
sg16
I00
sg17
g8
((lp240
(imodel.VarAtom
VarAtom
p241
(dp242
g21
g8
((lp243
g29
atRp244
sg36
g237
sg38
I00
sg39
Nsg40
g238
sg111
g172
sg112
I0
sg91
S'O'
sg92
I00
sg113
(F191.35720243434196
F227.14231775904008
F0.61214002972084591
tp245
sg115
(lp246
sg89
g1
sg117
g8
((ltRp247
sg119
g8
((lp248
(imodel.Bond
Bond
p249
(dp250
g123
S'double'
p251
sg89
g1
sg111
g172
sg93
g8
((lp252
g29
ag241
atRp253
sbatRp254
sg128
I00
sba(imodel.VarAtom
VarAtom
p255
(dp256
g21
g8
((lp257
(imodel.VarAtom
VarAtom
p258
(dp259
g21
g8
((lp260
(imodel.VarAtom
VarAtom
p261
(dp262
g21
g8
((lp263
g258
ag79
a(imodel.VarAtom
VarAtom
p264
(dp265
g21
g8
((lp266
g261
a(imodel.VarAtom
VarAtom
p267
(dp268
g21
g8
((lp269
g264
atRp270
sg36
g164
sg38
I00
sg39
Nsg40
g165
sg111
(imodel.Variant
Variant
p271
(dp272
g174
(dp273
S'H'
g8
((lp274
(imodel.VarAtom
VarAtom
p275
(dp276
g21
g8
((lp277
g79
atRp278
sg36
g58
sg38
I01
sg39
Nsg40
g59
sg111
g271
sg112
I0
sg91
S'H'
sg92
I00
sg113
(F277.13002808326229
F234.4013602077176
F0.61388162641604782
tp279
sg115
(lp280
sg89
g1
sg117
g8
((ltRp281
sg119
g8
((lp282
(imodel.Bond
Bond
p283
(dp284
g123
g145
sg89
g1
sg111
g271
sg93
g8
((lp285
g79
ag275
atRp286
sbatRp287
sg128
I00
sbag76
ag267
ag82
a(imodel.VarAtom
VarAtom
p288
(dp289
g21
g8
((lp290
g261
atRp291
sg36
g220
sg38
I00
sg39
Nsg40
g221
sg111
g271
sg112
I0
sg91
S'H'
sg92
I00
sg113
(F277.69338812783911
F137.13197192648244
F0.32188437965785377
tp292
sg115
(lp293
sg89
g1
sg117
g8
((ltRp294
sg119
g8
((lp295
(imodel.Bond
Bond
p296
(dp297
g123
g145
sg89
g1
sg111
g271
sg93
g8
((lp298
g261
ag288
atRp299
sbatRp300
sg128
I00
sba(imodel.VarAtom
VarAtom
p301
(dp302
g21
g8
((lp303
g264
atRp304
sg36
g12
sg38
I00
sg39
Nsg40
g10
sg111
g271
sg112
I0
sg91
S'H'
sg92
I00
sg113
(F187.40936363176701
F96.371905953071632
F0.96928276402162605
tp305
sg115
(lp306
sg89
g1
sg117
g8
((lp307
(imodel.AtomGroup
AtomGroup
p308
(dp309
S'groupType'
p310
S'prochiral'
p311
sS'subGroups'
p312
g8
((ltRp313
sg93
g8
((lp314
g301
ag267
atRp315
sg111
g271
sg89
g1
sbatRp316
sg119
g8
((lp317
(imodel.Bond
Bond
p318
(dp319
g123
g145
sg89
g1
sg111
g271
sg93
g8
((lp320
g264
ag301
atRp321
sbatRp322
sg128
I00
sbatRp323
sS'C'
g8
((lp324
g258
ag261
ag264
atRp325
sS'O'
g8
((lp326
g255
a(imodel.VarAtom
VarAtom
p327
(dp328
g21
g8
((lp329
g258
atRp330
sg36
VO''
p331
sg38
I00
sg39
Nsg40
(imodel.Atom
Atom
p332
(dp333
g3
g331
sg13
g1
sg14
I2
sg15
S'O'
sg16
I00
sg17
g8
((lp334
(imodel.VarAtom
VarAtom
p335
(dp336
g21
g8
((lp337
(imodel.VarAtom
VarAtom
p338
(dp339
g21
g8
((lp340
g335
a(imodel.VarAtom
VarAtom
p341
(dp342
g21
g8
((lp343
(imodel.VarAtom
VarAtom
p344
(dp345
g21
g8
((lp346
(imodel.VarAtom
VarAtom
p347
(dp348
g21
g8
((lp349
g344
atRp350
sg36
g12
sg38
I00
sg39
Nsg40
g10
sg111
(imodel.Variant
Variant
p351
(dp352
g174
(dp353
S'H'
g8
((lp354
(imodel.VarAtom
VarAtom
p355
(dp356
g21
g8
((lp357
g344
atRp358
sg36
g164
sg38
I00
sg39
Nsg40
g165
sg111
g351
sg112
I0
sg91
S'H'
sg92
I00
sg113
(F241.18607111650977
F75.635713560700367
F0.74561403965733763
tp359
sg115
(lp360
sg89
g1
sg117
g8
((lp361
(imodel.AtomGroup
AtomGroup
p362
(dp363
g310
g311
sg312
g8
((ltRp364
sg93
g8
((lp365
g347
ag355
atRp366
sg111
g351
sg89
g1
sbatRp367
sg119
g8
((lp368
(imodel.Bond
Bond
p369
(dp370
g123
g145
sg89
g1
sg111
g351
sg93
g8
((lp371
g344
ag355
atRp372
sbatRp373
sg128
I00
sbag68
ag62
a(imodel.VarAtom
VarAtom
p374
(dp375
g21
g8
((lp376
g341
atRp377
sg36
g220
sg38
I00
sg39
Nsg40
g221
sg111
g351
sg112
I0
sg91
S'H'
sg92
I00
sg113
(F277.69338812783911
F137.13197192648244
F0.32188437965785377
tp378
sg115
(lp379
sg89
g1
sg117
g8
((ltRp380
sg119
g8
((lp381
(imodel.Bond
Bond
p382
(dp383
g123
g145
sg89
g1
sg111
g351
sg93
g8
((lp384
g341
ag374
atRp385
sbatRp386
sg128
I00
sbag347
atRp387
sS'C'
g8
((lp388
g338
ag341
ag344
atRp389
sS'O'
g8
((lp390
(imodel.VarAtom
VarAtom
p391
(dp392
g21
g8
((lp393
g338
atRp394
sg36
g237
sg38
I00
sg39
Nsg40
g238
sg111
g351
sg112
I0
sg91
S'O'
sg92
I00
sg113
(F191.35720243434196
F227.14231775904008
F0.61214002972084591
tp395
sg115
(lp396
sg89
g1
sg117
g8
((ltRp397
sg119
g8
((lp398
(imodel.Bond
Bond
p399
(dp400
g123
g251
sg89
g1
sg111
g351
sg93
g8
((lp401
g338
ag391
atRp402
sbatRp403
sg128
I00
sbag335
atRp404
sS'N'
g8
((lp405
g65
atRp406
ssg119
g8
((lp407
(imodel.Bond
Bond
p408
(dp409
g123
g145
sg89
g1
sg111
g351
sg93
g8
((lp410
g341
ag338
atRp411
sba(imodel.Bond
Bond
p412
(dp413
g123
g145
sg89
g1
sg111
g351
sg93
g8
((lp414
g65
ag68
atRp415
sba(imodel.Bond
Bond
p416
(dp417
g123
g145
sg89
g1
sg111
g351
sg93
g8
((lp418
g65
ag341
atRp419
sba(imodel.Bond
Bond
p420
(dp421
g123
g145
sg89
g1
sg111
g351
sg93
g8
((lp422
g344
ag347
atRp423
sba(imodel.Bond
Bond
p424
(dp425
g123
g145
sg89
g1
sg111
g351
sg93
g8
((lp426
g65
ag62
atRp427
sbag382
ag399
ag369
a(imodel.Bond
Bond
p428
(dp429
g123
g145
sg89
g1
sg111
g351
sg93
g8
((lp430
g338
ag335
atRp431
sba(imodel.Bond
Bond
p432
(dp433
g123
g145
sg89
g1
sg111
g351
sg93
g8
((lp434
g344
ag341
atRp435
sbatRp436
sg89
g1
sS'atomDict'
p437
(dp438
g10
g347
sg73
g68
sg238
g391
sg332
g335
s(imodel.Atom
Atom
p439
(dp440
g3
VCB
p441
sg13
g1
sg14
I4
sg15
S'C'
sg16
I00
sg17
g8
((lp442
(imodel.VarAtom
VarAtom
p443
(dp444
g21
g8
((lp445
g227
a(imodel.VarAtom
VarAtom
p446
(dp447
g21
g8
((lp448
g443
atRp449
sg36
g12
sg38
I00
sg39
Nsg40
g10
sg111
(imodel.Variant
Variant
p450
(dp451
g174
(dp452
S'H'
g8
((lp453
g224
ag446
a(imodel.VarAtom
VarAtom
p454
(dp455
g21
g8
((lp456
(imodel.VarAtom
VarAtom
p457
(dp458
g21
g8
((lp459
g230
ag454
atRp460
sg36
g331
sg38
I00
sg39
Nsg40
g332
sg111
g450
sg112
I0
sg91
S'O'
sg92
I00
sg113
(F151.50914337461373
F177.05952086812914
F0.020840183205926843
tp461
sg115
(lp462
sg89
g1
sg117
g8
((ltRp463
sg119
g8
((lp464
(imodel.Bond
Bond
p465
(dp466
g123
g145
sg89
g1
sg111
g450
sg93
g8
((lp467
g230
ag457
atRp468
sba(imodel.Bond
Bond
p469
(dp470
g123
g145
sg89
g1
sg111
g450
sg93
g8
((lp471
g457
ag454
atRp472
sbatRp473
sg128
I00
sbatRp474
sg36
VH''
p475
sg38
I01
sg39
Nsg40
(imodel.Atom
Atom
p476
(dp477
g3
g475
sg13
g1
sg14
I1
sg15
S'H'
sg16
I01
sg17
g8
((lp478
(imodel.VarAtom
VarAtom
p479
(dp480
g3
g475
sg47
I01
sg48
Nsg49
g476
sg50
g158
sg105
g8
((lp481
(imodel.VarAtom
VarAtom
p482
(dp483
g3
g331
sg47
I00
sg48
Nsg49
g332
sg50
g158
sg105
g8
((lp484
g479
a(imodel.VarAtom
VarAtom
p485
(dp486
g3
VC
sg47
I00
sg48
Nsg49
(imodel.Atom
Atom
p487
(dp488
g3
VC
sg13
g1
sg14
I4
sg15
S'C'
sg16
I00
sg17
g8
((lp489
g485
a(imodel.VarAtom
VarAtom
p490
(dp491
g3
VC
sg47
I00
sg48
Nsg49
g487
sg50
g51
sg105
g8
((lp492
(imodel.VarAtom
VarAtom
p493
(dp494
g3
g237
sg47
I00
sg48
Nsg49
g238
sg50
g51
sg105
g8
((lp495
g490
atRp496
sg15
S'O'
sg133
I0
sg16
I00
sg134
(F191.35720243434196
F227.14231775904008
F0.61214002972084591
tp497
sg136
(lp498
sg13
g1
sg138
g8
((ltRp499
sg140
g8
((lp500
(imodel.Bond
Bond
p501
(dp502
g13
g1
sg144
g251
sg50
g51
sg17
g8
((lp503
g490
ag493
atRp504
sbatRp505
sg149
I00
sbag150
ag45
atRp506
sg15
S'C'
sg133
I0
sg16
I00
sg134
(F201.44127268133326
F184.29116164701466
F0.94796087918280236
tp507
sg136
(lp508
sg13
g1
sg138
g8
((ltRp509
sg140
g8
((lp510
g501
a(imodel.Bond
Bond
p511
(dp512
g13
g1
sg144
g145
sg50
g51
sg17
g8
((lp513
g150
ag490
atRp514
sba(imodel.Bond
Bond
p515
(dp516
g13
g1
sg144
S'single'
p517
sg50
g51
sg17
g8
((lp518
g45
ag490
atRp519
sbatRp520
sg149
I00
sbag338
a(imodel.VarAtom
VarAtom
p521
(dp522
g21
g8
((lp523
(imodel.VarAtom
VarAtom
p524
(dp525
g21
g8
((lp526
g521
atRp527
sg36
g37
sg38
I00
sg39
Nsg40
g41
sg111
(imodel.Variant
Variant
p528
(dp529
g174
(dp530
S'H'
g8
((lp531
(imodel.VarAtom
VarAtom
p532
(dp533
g21
g8
((lp534
(imodel.VarAtom
VarAtom
p535
(dp536
g21
g8
((lp537
(imodel.VarAtom
VarAtom
p538
(dp539
g21
g8
((lp540
g535
a(imodel.VarAtom
VarAtom
p541
(dp542
g21
g8
((lp543
g538
atRp544
sg36
S'H'
sg38
I00
sg39
Nsg40
(imodel.Atom
Atom
p545
(dp546
g36
S'H'
sg89
g1
sg90
I1
sg91
S'H'
sg92
I00
sg93
g8
((lp547
g541
a(imodel.VarAtom
VarAtom
p548
(dp549
g21
g8
((lp550
(imodel.VarAtom
VarAtom
p551
(dp552
g21
g8
((lp553
(imodel.VarAtom
VarAtom
p554
(dp555
g21
g8
((lp556
(imodel.VarAtom
VarAtom
p557
(dp558
g21
g8
((lp559
g554
a(imodel.VarAtom
VarAtom
p560
(dp561
g21
g8
((lp562
g557
atRp563
sg36
g237
sg38
I00
sg39
Nsg40
g238
sg111
(imodel.Variant
Variant
p564
(dp565
g174
(dp566
S'H'
g8
((lp567
(imodel.VarAtom
VarAtom
p568
(dp569
g21
g8
((lp570
g554
atRp571
sg36
g220
sg38
I00
sg39
Nsg40
g221
sg111
g564
sg112
I0
sg91
S'H'
sg92
I00
sg113
(F277.69338812783911
F137.13197192648244
F0.32188437965785377
tp572
sg115
(lp573
sg89
g1
sg117
g8
((ltRp574
sg119
g8
((lp575
(imodel.Bond
Bond
p576
(dp577
g123
g145
sg89
g1
sg111
g564
sg93
g8
((lp578
g554
ag568
atRp579
sbatRp580
sg128
I00
sba(imodel.VarAtom
VarAtom
p581
(dp582
g21
g8
((lp583
(imodel.VarAtom
VarAtom
p584
(dp585
g21
g8
((lp586
g581
a(imodel.VarAtom
VarAtom
p587
(dp588
g21
g8
((lp589
g584
atRp590
sg36
g12
sg38
I00
sg39
Nsg40
g10
sg111
g564
sg112
I0
sg91
S'H'
sg92
I00
sg113
(F187.40936363176701
F96.371905953071632
F0.96928276402162605
tp591
sg115
(lp592
sg89
g1
sg117
g8
((lp593
(imodel.AtomGroup
AtomGroup
p594
(dp595
g310
g311
sg312
g8
((ltRp596
sg93
g8
((lp597
g587
ag581
atRp598
sg111
g564
sg89
g1
sbatRp599
sg119
g8
((lp600
(imodel.Bond
Bond
p601
(dp602
g123
g145
sg89
g1
sg111
g564
sg93
g8
((lp603
g584
ag587
atRp604
sbatRp605
sg128
I00
sbag554
atRp606
sg36
g441
sg38
I00
sg39
Nsg40
g439
sg111
g564
sg112
I0
sg91
S'C'
sg92
I00
sg113
(F223.44929762746716
F109.70887160429839
F0.88936000459209741
tp607
sg115
(lp608
F5.6315028053089264
asg89
g1
sg117
g8
((ltRp609
sg119
g8
((lp610
(imodel.Bond
Bond
p611
(dp612
g123
g145
sg89
g1
sg111
g564
sg93
g8
((lp613
g584
ag581
atRp614
sbag601
a(imodel.Bond
Bond
p615
(dp616
g123
g145
sg89
g1
sg111
g564
sg93
g8
((lp617
g584
ag554
atRp618
sbatRp619
sg128
I00
sbatRp620
sg36
g164
sg38
I00
sg39
Nsg40
g165
sg111
g564
sg112
I0
sg91
S'H'
sg92
I00
sg113
(F241.18607111650977
F75.635713560700367
F0.74561403965733763
tp621
sg115
(lp622
sg89
g1
sg117
g8
((lp623
g594
atRp624
sg119
g8
((lp625
g611
atRp626
sg128
I00
sbag587
ag548
atRp627
sS'C'
g8
((lp628
g557
ag554
ag584
atRp629
sS'link'
p630
g8
((lp631
(imodel.VarAtom
VarAtom
p632
(dp633
g21
g8
((lp634
g551
atRp635
sg36
S'prev'
p636
sg38
I00
sg39
Nsg40
(imodel.Atom
Atom
p637
(dp638
g36
g636
sg89
g1
sg90
I1
sg91
g630
sg92
I00
sg93
g8
((lp639
(imodel.VarAtom
VarAtom
p640
(dp641
g21
g8
((lp642
g538
atRp643
sg36
g636
sg38
I00
sg39
Nsg40
g637
sg111
g528
sg112
I0
sg91
g630
sg92
I00
sg113
(F328.15622117502551
F197.1734346114296
F0.70928131305431763
tp644
sg115
(lp645
sg89
g1
sg117
g8
((ltRp646
sg119
g8
((lp647
(imodel.Bond
Bond
p648
(dp649
g123
g124
sg89
g1
sg111
g528
sg93
g8
((lp650
g640
ag538
atRp651
sbatRp652
sg128
I00
sbag632
a(imodel.VarAtom
VarAtom
p653
(dp654
g21
g8
((lp655
(imodel.VarAtom
VarAtom
p656
(dp657
g21
g8
((lp658
(imodel.VarAtom
VarAtom
p659
(dp660
g21
g8
((lp661
(imodel.VarAtom
VarAtom
p662
(dp663
g21
g8
((lp664
(imodel.VarAtom
VarAtom
p665
(dp666
g21
g8
((lp667
g662
atRp668
sg36
g12
sg38
I00
sg39
Nsg40
g10
sg111
(imodel.Variant
Variant
p669
(dp670
g174
(dp671
S'H'
g8
((lp672
(imodel.VarAtom
VarAtom
p673
(dp674
g21
g8
((lp675
(imodel.VarAtom
VarAtom
p676
(dp677
g21
g8
((lp678
(imodel.VarAtom
VarAtom
p679
(dp680
g21
g8
((lp681
g676
a(imodel.VarAtom
VarAtom
p682
(dp683
g21
g8
((lp684
g679
atRp685
sg36
g237
sg38
I00
sg39
Nsg40
g238
sg111
g669
sg112
I0
sg91
S'O'
sg92
I00
sg113
(F191.35720243434196
F227.14231775904008
F0.61214002972084591
tp686
sg115
(lp687
sg89
g1
sg117
g8
((ltRp688
sg119
g8
((lp689
(imodel.Bond
Bond
p690
(dp691
g123
g251
sg89
g1
sg111
g669
sg93
g8
((lp692
g679
ag682
atRp693
sbatRp694
sg128
I00
sbag659
atRp695
sg36
VC
sg38
I00
sg39
Nsg40
g487
sg111
g669
sg112
I0
sg91
S'C'
sg92
I00
sg113
(F201.44127268133326
F184.29116164701466
F0.94796087918280236
tp696
sg115
(lp697
sg89
g1
sg117
g8
((ltRp698
sg119
g8
((lp699
(imodel.Bond
Bond
p700
(dp701
g123
g145
sg89
g1
sg111
g669
sg93
g8
((lp702
g679
ag676
atRp703
sbag690
a(imodel.Bond
Bond
p704
(dp705
g123
g145
sg89
g1
sg111
g669
sg93
g8
((lp706
g659
ag679
atRp707
sbatRp708
sg128
I00
sbag673
atRp709
sg36
g331
sg38
I00
sg39
Nsg40
g332
sg111
g669
sg112
I0
sg91
S'O'
sg92
I00
sg113
(F151.50914337461373
F177.05952086812914
F0.020840183205926843
tp710
sg115
(lp711
sg89
g1
sg117
g8
((ltRp712
sg119
g8
((lp713
g700
a(imodel.Bond
Bond
p714
(dp715
g123
g145
sg89
g1
sg111
g669
sg93
g8
((lp716
g676
ag673
atRp717
sbatRp718
sg128
I00
sbatRp719
sg36
g475
sg38
I01
sg39
Nsg40
g476
sg111
g669
sg112
I0
sg91
S'H'
sg92
I01
sg113
(F114.78346811897694
F167.95332596113099
F0.51698886212375705
tp720
sg115
(lp721
sg89
g1
sg117
g8
((ltRp722
sg119
g8
((lp723
g714
atRp724
sg128
I00
sba(imodel.VarAtom
VarAtom
p725
(dp726
g21
g8
((lp727
g656
atRp728
sg36
S'H'
sg38
I00
sg39
Nsg40
g545
sg111
g669
sg112
I0
sg91
S'H'
sg92
I00
sg113
(F277.11970936433852
F234.19130801877259
F0.86664336281338072
tp729
sg115
(lp730
sg89
g1
sg117
g8
((ltRp731
sg119
g8
((lp732
(imodel.Bond
Bond
p733
(dp734
g123
g124
sg89
g1
sg111
g669
sg93
g8
((lp735
g725
ag656
atRp736
sbatRp737
sg128
I00
sba(imodel.VarAtom
VarAtom
p738
(dp739
g21
g8
((lp740
g662
atRp741
sg36
g164
sg38
I00
sg39
Nsg40
g165
sg111
g669
sg112
I0
sg91
S'H'
sg92
I00
sg113
(F241.18607111650977
F75.635713560700367
F0.74561403965733763
tp742
sg115
(lp743
sg89
g1
sg117
g8
((lp744
(imodel.AtomGroup
AtomGroup
p745
(dp746
g310
g311
sg312
g8
((ltRp747
sg93
g8
((lp748
g738
ag665
atRp749
sg111
g669
sg89
g1
sbatRp750
sg119
g8
((lp751
(imodel.Bond
Bond
p752
(dp753
g123
g145
sg89
g1
sg111
g669
sg93
g8
((lp754
g662
ag738
atRp755
sbatRp756
sg128
I00
sbag665
a(imodel.VarAtom
VarAtom
p757
(dp758
g21
g8
((lp759
g659
atRp760
sg36
g220
sg38
I00
sg39
Nsg40
g221
sg111
g669
sg112
I0
sg91
S'H'
sg92
I00
sg113
(F277.69338812783911
F137.13197192648244
F0.32188437965785377
tp761
sg115
(lp762
sg89
g1
sg117
g8
((ltRp763
sg119
g8
((lp764
(imodel.Bond
Bond
p765
(dp766
g123
g145
sg89
g1
sg111
g669
sg93
g8
((lp767
g659
ag757
atRp768
sbatRp769
sg128
I00
sbatRp770
sS'C'
g8
((lp771
g679
ag659
ag662
atRp772
sg630
g8
((lp773
g653
atRp774
sS'O'
g8
((lp775
g682
ag676
atRp776
sS'N'
g8
((lp777
g656
atRp778
ssg119
g8
((lp779
g752
a(imodel.Bond
Bond
p780
(dp781
g123
g145
sg89
g1
sg111
g669
sg93
g8
((lp782
g656
ag659
atRp783
sba(imodel.Bond
Bond
p784
(dp785
g123
g145
sg89
g1
sg111
g669
sg93
g8
((lp786
g662
ag659
atRp787
sba(imodel.Bond
Bond
p788
(dp789
g123
g145
sg89
g1
sg111
g669
sg93
g8
((lp790
g662
ag665
atRp791
sbag714
ag704
ag690
ag765
ag733
ag700
a(imodel.Bond
Bond
p792
(dp793
g123
g124
sg89
g1
sg111
g669
sg93
g8
((lp794
g653
ag656
atRp795
sbatRp796
sg89
g1
sg437
(dp797
g10
g665
sg238
g682
sg332
g676
sg439
g662
sg476
g673
sg637
g653
sg165
g738
sg221
g757
sg153
g659
sg487
g679
sg545
g725
sg100
g656
ssS'descriptor'
p798
(V+H''
S'none'
p799
S'default'
p800
tp801
sg93
g8
((lp802
g673
ag662
ag679
ag656
ag659
ag738
ag682
ag665
ag653
ag757
ag676
ag725
atRp803
sg117
g8
((lp804
g745
atRp805
sS'polyLink'
p806
S'end'
p807
sbsg112
I0
sg91
S'H'
sg92
I00
sg113
(F187.40936363176701
F96.371905953071632
F0.96928276402162605
tp808
sg115
(lp809
sg89
g1
sg117
g8
((lp810
g745
atRp811
sg119
g8
((lp812
g788
atRp813
sg128
I00
sbag738
ag659
atRp814
sg36
g441
sg38
I00
sg39
Nsg40
g439
sg111
g669
sg112
I0
sg91
S'C'
sg92
I00
sg113
(F223.44929762746716
F109.70887160429839
F0.88936000459209741
tp815
sg115
(lp816
F5.6315028053089264
asg89
g1
sg117
g8
((ltRp817
sg119
g8
((lp818
g788
ag784
ag752
atRp819
sg128
I00
sbag679
ag757
ag656
atRp820
sg36
g152
sg38
I00
sg39
Nsg40
g153
sg111
g669
sg112
I0
sg91
S'C'
sg92
I00
sg113
(F244.5631066025862
F156.61384668176953
F0.39931433581398768
tp821
sg115
(lp822
sg89
g1
sg117
g8
((ltRp823
sg119
g8
((lp824
g765
ag784
ag780
ag704
atRp825
sg128
I00
sbag725
ag653
atRp826
sg36
VN
sg38
I00
sg39
Nsg40
g100
sg111
g669
sg112
I0
sg91
S'N'
sg92
I00
sg113
(F277.60915772828122
F195.93453099254936
F0.37884450065241659
tp827
sg115
(lp828
sg89
g1
sg117
g8
((ltRp829
sg119
g8
((lp830
g780
ag792
ag733
atRp831
sg128
I00
sbatRp832
sg36
g636
sg38
I00
sg39
Nsg40
g637
sg111
g669
sg112
I0
sg91
g630
sg92
I00
sg113
(F328.15622117502551
F197.1734346114296
F0.70928131305431763
tp833
sg115
(lp834
sg89
g1
sg117
g8
((ltRp835
sg119
g8
((lp836
g792
atRp837
sg128
I00
sbatRp838
sg128
I00
sbsg111
g564
sg112
I0
sg91
g630
sg92
I00
sg113
(F328.15622117502551
F197.1734346114296
F0.70928131305431763
tp839
sg115
(lp840
sg89
g1
sg117
g8
((ltRp841
sg119
g8
((lp842
(imodel.Bond
Bond
p843
(dp844
g123
g124
sg89
g1
sg111
g564
sg93
g8
((lp845
g632
ag551
atRp846
sbatRp847
sg128
I00
sbatRp848
sS'O'
g8
((lp849
g560
a(imodel.VarAtom
VarAtom
p850
(dp851
g21
g8
((lp852
g557
atRp853
sg36
g331
sg38
I00
sg39
Nsg40
g332
sg111
g564
sg112
I-1
sg91
S'O'
sg92
I00
sg113
(F151.50914337461373
F177.05952086812914
F0.020840183205926843
tp854
sg115
(lp855
sg89
g1
sg117
g8
((ltRp856
sg119
g8
((lp857
(imodel.Bond
Bond
p858
(dp859
g123
g145
sg89
g1
sg111
g564
sg93
g8
((lp860
g557
ag850
atRp861
sbatRp862
sg128
I00
sbatRp863
sS'N'
g8
((lp864
g551
atRp865
ssg119
g8
((lp866
(imodel.Bond
Bond
p867
(dp868
g123
g145
sg89
g1
sg111
g564
sg93
g8
((lp869
g554
ag557
atRp870
sbag601
a(imodel.Bond
Bond
p871
(dp872
g123
g251
sg89
g1
sg111
g564
sg93
g8
((lp873
g557
ag560
atRp874
sba(imodel.Bond
Bond
p875
(dp876
g123
g145
sg89
g1
sg111
g564
sg93
g8
((lp877
g551
ag554
atRp878
sbag843
ag615
ag576
ag611
ag858
a(imodel.Bond
Bond
p879
(dp880
g123
g124
sg89
g1
sg111
g564
sg93
g8
((lp881
g548
ag551
atRp882
sbatRp883
sg89
g1
sg437
(dp884
g10
g587
sg238
g560
sg332
g850
sg439
g584
sg165
g581
sg637
g632
sg221
g568
sg153
g554
sg487
g557
sg545
g548
sg100
g551
ssg798
(V-H''
g799
g800
tp885
sg93
g8
((lp886
g557
ag584
ag632
ag587
ag560
ag581
ag568
ag551
ag548
ag554
ag850
atRp887
sg117
g8
((lp888
g594
atRp889
sg806
g807
sbsg112
I0
sg91
S'O'
sg92
I00
sg113
(F191.35720243434196
F227.14231775904008
F0.61214002972084591
tp890
sg115
(lp891
sg89
g1
sg117
g8
((ltRp892
sg119
g8
((lp893
g871
atRp894
sg128
I00
sbag850
atRp895
sg36
VC
sg38
I00
sg39
Nsg40
g487
sg111
g564
sg112
I0
sg91
S'C'
sg92
I00
sg113
(F201.44127268133326
F184.29116164701466
F0.94796087918280236
tp896
sg115
(lp897
sg89
g1
sg117
g8
((ltRp898
sg119
g8
((lp899
g867
ag871
ag858
atRp900
sg128
I00
sbag568
ag584
ag551
atRp901
sg36
g152
sg38
I00
sg39
Nsg40
g153
sg111
g564
sg112
I0
sg91
S'C'
sg92
I00
sg113
(F244.5631066025862
F156.61384668176953
F0.39931433581398768
tp902
sg115
(lp903
sg89
g1
sg117
g8
((ltRp904
sg119
g8
((lp905
g867
ag576
ag615
ag875
atRp906
sg128
I00
sbag548
ag632
atRp907
sg36
VN
sg38
I00
sg39
Nsg40
g100
sg111
g564
sg112
I0
sg91
S'N'
sg92
I00
sg113
(F277.60915772828122
F195.93453099254936
F0.37884450065241659
tp908
sg115
(lp909
sg89
g1
sg117
g8
((ltRp910
sg119
g8
((lp911
g875
ag843
ag879
atRp912
sg128
I00
sbatRp913
sg36
S'H'
sg38
I00
sg39
Nsg40
g545
sg111
g564
sg112
I0
sg91
S'H'
sg92
I00
sg113
(F277.11970936433852
F234.19130801877259
F0.86664336281338072
tp914
sg115
(lp915
sg89
g1
sg117
g8
((ltRp916
sg119
g8
((lp917
g879
atRp918
sg128
I00
sbag725
atRp919
sg128
I00
sbsg111
g528
sg112
I0
sg91
S'H'
sg92
I00
sg113
(F277.11970936433852
F234.19130801877259
F0.86664336281338072
tp920
sg115
(lp921
sg89
g1
sg117
g8
((ltRp922
sg119
g8
((lp923
(imodel.Bond
Bond
p924
(dp925
g123
g124
sg89
g1
sg111
g528
sg93
g8
((lp926
g541
ag538
atRp927
sbatRp928
sg128
I00
sbag640
atRp929
sg36
VN
sg38
I00
sg39
Nsg40
g100
sg111
g528
sg112
I0
sg91
S'N'
sg92
I00
sg113
(F277.60915772828122
F195.93453099254936
F0.37884450065241659
tp930
sg115
(lp931
sg89
g1
sg117
g8
((ltRp932
sg119
g8
((lp933
(imodel.Bond
Bond
p934
(dp935
g123
g145
sg89
g1
sg111
g528
sg93
g8
((lp936
g538
ag535
atRp937
sbag648
ag924
atRp938
sg128
I00
sbag532
a(imodel.VarAtom
VarAtom
p939
(dp940
g21
g8
((lp941
(imodel.VarAtom
VarAtom
p942
(dp943
g21
g8
((lp944
g939
atRp945
sg36
g164
sg38
I00
sg39
Nsg40
g165
sg111
g528
sg112
I0
sg91
S'H'
sg92
I00
sg113
(F241.18607111650977
F75.635713560700367
F0.74561403965733763
tp946
sg115
(lp947
sg89
g1
sg117
g8
((lp948
(imodel.AtomGroup
AtomGroup
p949
(dp950
g310
g311
sg312
g8
((ltRp951
sg93
g8
((lp952
(imodel.VarAtom
VarAtom
p953
(dp954
g21
g8
((lp955
g939
atRp956
sg36
g12
sg38
I00
sg39
Nsg40
g10
sg111
g528
sg112
I0
sg91
S'H'
sg92
I00
sg113
(F187.40936363176701
F96.371905953071632
F0.96928276402162605
tp957
sg115
(lp958
sg89
g1
sg117
g8
((lp959
g949
atRp960
sg119
g8
((lp961
(imodel.Bond
Bond
p962
(dp963
g123
g145
sg89
g1
sg111
g528
sg93
g8
((lp964
g939
ag953
atRp965
sbatRp966
sg128
I00
sbag942
atRp967
sg111
g528
sg89
g1
sbatRp968
sg119
g8
((lp969
(imodel.Bond
Bond
p970
(dp971
g123
g145
sg89
g1
sg111
g528
sg93
g8
((lp972
g939
ag942
atRp973
sbatRp974
sg128
I00
sbag535
ag953
atRp975
sg36
g441
sg38
I00
sg39
Nsg40
g439
sg111
g528
sg112
I0
sg91
S'C'
sg92
I00
sg113
(F223.44929762746716
F109.70887160429839
F0.88936000459209741
tp976
sg115
(lp977
F5.5320556625091166
asg89
g1
sg117
g8
((ltRp978
sg119
g8
((lp979
g970
a(imodel.Bond
Bond
p980
(dp981
g123
g145
sg89
g1
sg111
g528
sg93
g8
((lp982
g939
ag535
atRp983
sbag962
atRp984
sg128
I00
sbag521
atRp985
sg36
g152
sg38
I00
sg39
Nsg40
g153
sg111
g528
sg112
I0
sg91
S'C'
sg92
I00
sg113
(F244.5631066025862
F156.61384668176953
F0.39931433581398768
tp986
sg115
(lp987
sg89
g1
sg117
g8
((ltRp988
sg119
g8
((lp989
g934
ag980
a(imodel.Bond
Bond
p990
(dp991
g123
g145
sg89
g1
sg111
g528
sg93
g8
((lp992
g535
ag521
atRp993
sba(imodel.Bond
Bond
p994
(dp995
g123
g145
sg89
g1
sg111
g528
sg93
g8
((lp996
g535
ag532
atRp997
sbatRp998
sg128
I00
sbatRp999
sg36
g220
sg38
I00
sg39
Nsg40
g221
sg111
g528
sg112
I0
sg91
S'H'
sg92
I00
sg113
(F277.69338812783911
F137.13197192648244
F0.32188437965785377
tp1000
sg115
(lp1001
sg89
g1
sg117
g8
((ltRp1002
sg119
g8
((lp1003
g994
atRp1004
sg128
I00
sbag942
ag541
ag953
atRp1005
sS'C'
g8
((lp1006
g521
ag535
ag939
atRp1007
sg43
g8
((lp1008
g524
ag640
atRp1009
sS'O'
g8
((lp1010
(imodel.VarAtom
VarAtom
p1011
(dp1012
g21
g8
((lp1013
g521
atRp1014
sg36
g237
sg38
I00
sg39
Nsg40
g238
sg111
g528
sg112
I0
sg91
S'O'
sg92
I00
sg113
(F191.35720243434196
F227.14231775904008
F0.61214002972084591
tp1015
sg115
(lp1016
sg89
g1
sg117
g8
((ltRp1017
sg119
g8
((lp1018
(imodel.Bond
Bond
p1019
(dp1020
g123
g251
sg89
g1
sg111
g528
sg93
g8
((lp1021
g521
ag1011
atRp1022
sbatRp1023
sg128
I00
sbatRp1024
sS'N'
g8
((lp1025
g538
atRp1026
ssg119
g8
((lp1027
g970
ag648
ag924
ag1019
a(imodel.Bond
Bond
p1028
(dp1029
g123
g517
sg89
g1
sg111
g528
sg93
g8
((lp1030
g524
ag521
atRp1031
sbag980
ag934
ag962
ag994
ag990
atRp1032
sg89
g1
sg437
(dp1033
g10
g953
sg238
g1011
sg439
g939
sg165
g942
sg637
g640
sg221
g532
sg153
g535
sg487
g521
sg545
g541
sg41
g524
sg100
g538
ssg798
(S'neutral'
p1034
g799
g800
tp1035
sg93
g8
((lp1036
g535
ag538
ag524
ag939
ag640
ag541
ag953
ag521
ag532
ag942
ag1011
atRp1037
sg117
g8
((lp1038
g949
atRp1039
sg806
S'middle'
p1040
sbsg112
I0
sg91
g43
sg92
I00
sg113
(F151.44439469812542
F177.32280353317211
F0.63782073973115372
tp1041
sg115
(lp1042
sg89
g1
sg117
g8
((ltRp1043
sg119
g8
((lp1044
g1028
atRp1045
sg128
I00
sbag535
ag1011
atRp1046
sg36
VC
sg38
I00
sg39
Nsg40
g487
sg111
g528
sg112
I0
sg91
S'C'
sg92
I00
sg113
(F201.44127268133326
F184.29116164701466
F0.94796087918280236
tp1047
sg115
(lp1048
sg89
g1
sg117
g8
((ltRp1049
sg119
g8
((lp1050
g1028
ag990
ag1019
atRp1051
sg128
I00
sbag29
ag679
ag230
ag557
ag258
atRp1052
sg149
I00
sbsg50
g158
sg105
g8
((lp1053
g156
ag482
a(imodel.VarAtom
VarAtom
p1054
(dp1055
g3
g237
sg47
I00
sg48
Nsg49
g238
sg50
g158
sg105
g8
((lp1056
g485
atRp1057
sg15
S'O'
sg133
I0
sg16
I00
sg134
(F191.35720243434196
F227.14231775904008
F0.61214002972084591
tp1058
sg136
(lp1059
sg13
g1
sg138
g8
((ltRp1060
sg140
g8
((lp1061
(imodel.Bond
Bond
p1062
(dp1063
g13
g1
sg144
g251
sg50
g158
sg17
g8
((lp1064
g485
ag1054
atRp1065
sbatRp1066
sg149
I00
sbatRp1067
sg15
S'C'
sg133
I0
sg16
I00
sg134
(F201.44127268133326
F184.29116164701466
F0.94796087918280236
tp1068
sg136
(lp1069
sg13
g1
sg138
g8
((ltRp1070
sg140
g8
((lp1071
(imodel.Bond
Bond
p1072
(dp1073
g13
g1
sg144
g145
sg50
g158
sg17
g8
((lp1074
g156
ag485
atRp1075
sbag1062
a(imodel.Bond
Bond
p1076
(dp1077
g13
g1
sg144
g145
sg50
g158
sg17
g8
((lp1078
g485
ag482
atRp1079
sbatRp1080
sg149
I00
sbatRp1081
sg15
S'O'
sg133
I0
sg16
I00
sg134
(F151.50914337461373
F177.05952086812914
F0.020840183205926843
tp1082
sg136
(lp1083
sg13
g1
sg138
g8
((ltRp1084
sg140
g8
((lp1085
(imodel.Bond
Bond
p1086
(dp1087
g13
g1
sg144
g145
sg50
g158
sg17
g8
((lp1088
g482
ag479
atRp1089
sbag1076
atRp1090
sg149
I00
sbatRp1091
sg15
S'H'
sg133
I0
sg16
I01
sg134
(F114.78346811897694
F167.95332596113099
F0.51698886212375705
tp1092
sg136
(lp1093
sg13
g1
sg138
g8
((ltRp1094
sg140
g8
((lp1095
g1086
atRp1096
sg149
I00
sbag454
ag673
atRp1097
sg149
I00
sbsg111
g450
sg112
I0
sg91
S'H'
sg92
I01
sg113
(F114.78346811897694
F167.95332596113099
F0.51698886212375705
tp1098
sg115
(lp1099
sg89
g1
sg117
g8
((ltRp1100
sg119
g8
((lp1101
g469
atRp1102
sg128
I00
sba(imodel.VarAtom
VarAtom
p1103
(dp1104
g21
g8
((lp1105
g443
atRp1106
sg36
g164
sg38
I00
sg39
Nsg40
g165
sg111
g450
sg112
I0
sg91
S'H'
sg92
I00
sg113
(F241.18607111650977
F75.635713560700367
F0.74561403965733763
tp1107
sg115
(lp1108
sg89
g1
sg117
g8
((lp1109
(imodel.AtomGroup
AtomGroup
p1110
(dp1111
g310
g311
sg312
g8
((ltRp1112
sg93
g8
((lp1113
g446
ag1103
atRp1114
sg111
g450
sg89
g1
sbatRp1115
sg119
g8
((lp1116
(imodel.Bond
Bond
p1117
(dp1118
g123
g145
sg89
g1
sg111
g450
sg93
g8
((lp1119
g443
ag1103
atRp1120
sbatRp1121
sg128
I00
sba(imodel.VarAtom
VarAtom
p1122
(dp1123
g21
g8
((lp1124
(imodel.VarAtom
VarAtom
p1125
(dp1126
g21
g8
((lp1127
(imodel.VarAtom
VarAtom
p1128
(dp1129
g21
g8
((lp1130
g1125
atRp1131
sg36
g58
sg38
I01
sg39
Nsg40
g59
sg111
g450
sg112
I0
sg91
S'H'
sg92
I00
sg113
(F277.13002808326229
F234.4013602077176
F0.61388162641604782
tp1132
sg115
(lp1133
sg89
g1
sg117
g8
((ltRp1134
sg119
g8
((lp1135
(imodel.Bond
Bond
p1136
(dp1137
g123
g145
sg89
g1
sg111
g450
sg93
g8
((lp1138
g1125
ag1128
atRp1139
sbatRp1140
sg128
I00
sbag227
ag1122
atRp1141
sg36
VN
sg38
I00
sg39
Nsg40
g100
sg111
g450
sg112
I0
sg91
S'N'
sg92
I00
sg113
(F277.60915772828122
F195.93453099254936
F0.37884450065241659
tp1142
sg115
(lp1143
sg89
g1
sg117
g8
((ltRp1144
sg119
g8
((lp1145
g1136
a(imodel.Bond
Bond
p1146
(dp1147
g123
g145
sg89
g1
sg111
g450
sg93
g8
((lp1148
g1125
ag227
atRp1149
sba(imodel.Bond
Bond
p1150
(dp1151
g123
g145
sg89
g1
sg111
g450
sg93
g8
((lp1152
g1125
ag1122
atRp1153
sbatRp1154
sg128
I00
sbatRp1155
sg36
g72
sg38
I01
sg39
Nsg40
g73
sg111
g450
sg112
I0
sg91
S'H'
sg92
I00
sg113
(F315.91442504537309
F192.63368334468439
F1.7860694615034878
tp1156
sg115
(lp1157
sg89
g1
sg117
g8
((ltRp1158
sg119
g8
((lp1159
g1150
atRp1160
sg128
I00
sbag1128
atRp1161
sS'C'
g8
((lp1162
g230
ag227
ag443
atRp1163
sS'O'
g8
((lp1164
g233
ag457
atRp1165
sS'N'
g8
((lp1166
g1125
atRp1167
ssg119
g8
((lp1168
g1136
a(imodel.Bond
Bond
p1169
(dp1170
g123
g145
sg89
g1
sg111
g450
sg93
g8
((lp1171
g443
ag446
atRp1172
sbag1146
ag465
a(imodel.Bond
Bond
p1173
(dp1174
g123
g145
sg89
g1
sg111
g450
sg93
g8
((lp1175
g227
ag230
atRp1176
sba(imodel.Bond
Bond
p1177
(dp1178
g123
g145
sg89
g1
sg111
g450
sg93
g8
((lp1179
g227
ag224
atRp1180
sba(imodel.Bond
Bond
p1181
(dp1182
g123
g251
sg89
g1
sg111
g450
sg93
g8
((lp1183
g230
ag233
atRp1184
sba(imodel.Bond
Bond
p1185
(dp1186
g123
g145
sg89
g1
sg111
g450
sg93
g8
((lp1187
g443
ag227
atRp1188
sbag1117
ag1150
ag469
atRp1189
sg89
g1
sg437
(dp1190
g10
g446
sg221
g224
sg238
g233
sg332
g457
sg439
g443
sg59
g1128
sg165
g1103
sg476
g454
sg73
g1122
sg153
g227
sg487
g230
sg100
g1125
ssg798
(V+H'',-H3
g799
g800
tp1191
sg93
g8
((lp1192
g443
ag224
ag446
ag227
ag233
ag1125
ag1103
ag454
ag1122
ag230
ag1128
ag457
atRp1193
sg117
g8
((lp1194
g1110
atRp1195
sg806
g799
sbsg112
I0
sg91
S'H'
sg92
I00
sg113
(F187.40936363176701
F96.371905953071632
F0.96928276402162605
tp1196
sg115
(lp1197
sg89
g1
sg117
g8
((lp1198
g1110
atRp1199
sg119
g8
((lp1200
g1169
atRp1201
sg128
I00
sbag1103
atRp1202
sg36
g441
sg38
I00
sg39
Nsg40
g439
sg111
g450
sg112
I0
sg91
S'C'
sg92
I00
sg113
(F223.44929762746716
F109.70887160429839
F0.88936000459209741
tp1203
sg115
(lp1204
F5.6315028053089264
asg89
g1
sg117
g8
((ltRp1205
sg119
g8
((lp1206
g1185
ag1169
ag1117
atRp1207
sg128
I00
sba(imodel.VarAtom
VarAtom
p1208
(dp1209
g3
g441
sg47
I00
sg48
Nsg49
g439
sg50
g51
sg105
g8
((lp1210
g150
a(imodel.VarAtom
VarAtom
p1211
(dp1212
g3
g164
sg47
I00
sg48
Nsg49
g165
sg50
g51
sg105
g8
((lp1213
g1208
atRp1214
sg15
S'H'
sg133
I0
sg16
I00
sg134
(F241.18607111650977
F75.635713560700367
F0.74561403965733763
tp1215
sg136
(lp1216
sg13
g1
sg138
g8
((lp1217
(imodel.AtomGroup
AtomGroup
p1218
(dp1219
g310
g311
sg312
g8
((ltRp1220
sg93
g8
((lp1221
(imodel.VarAtom
VarAtom
p1222
(dp1223
g3
g12
sg47
I00
sg48
Nsg49
g10
sg50
g51
sg105
g8
((lp1224
g1208
atRp1225
sg15
S'H'
sg133
I0
sg16
I00
sg134
(F187.40936363176701
F96.371905953071632
F0.96928276402162605
tp1226
sg136
(lp1227
sg13
g1
sg138
g8
((lp1228
g1218
atRp1229
sg140
g8
((lp1230
(imodel.Bond
Bond
p1231
(dp1232
g13
g1
sg144
g145
sg50
g51
sg17
g8
((lp1233
g1208
ag1222
atRp1234
sbatRp1235
sg149
I00
sbag1211
atRp1236
sg111
g51
sg89
g1
sbatRp1237
sg140
g8
((lp1238
(imodel.Bond
Bond
p1239
(dp1240
g13
g1
sg144
g145
sg50
g51
sg17
g8
((lp1241
g1208
ag1211
atRp1242
sbatRp1243
sg149
I00
sbag1222
atRp1244
sg15
S'C'
sg133
I0
sg16
I00
sg134
(F223.44929762746716
F109.70887160429839
F0.88936000459209741
tp1245
sg136
(lp1246
F5.6315028053089264
asg13
g1
sg138
g8
((ltRp1247
sg140
g8
((lp1248
(imodel.Bond
Bond
p1249
(dp1250
g13
g1
sg144
g145
sg50
g51
sg17
g8
((lp1251
g1208
ag150
atRp1252
sbag1231
ag1239
atRp1253
sg149
I00
sbag662
ag23
a(imodel.VarAtom
VarAtom
p1254
(dp1255
g3
g441
sg47
I00
sg48
Nsg49
g439
sg50
g158
sg105
g8
((lp1256
g162
a(imodel.VarAtom
VarAtom
p1257
(dp1258
g3
g12
sg47
I00
sg48
Nsg49
g10
sg50
g158
sg105
g8
((lp1259
g1254
atRp1260
sg15
S'H'
sg133
I0
sg16
I00
sg134
(F187.40936363176701
F96.371905953071632
F0.96928276402162605
tp1261
sg136
(lp1262
sg13
g1
sg138
g8
((lp1263
(imodel.AtomGroup
AtomGroup
p1264
(dp1265
g310
g311
sg312
g8
((ltRp1266
sg93
g8
((lp1267
g1257
ag162
atRp1268
sg111
g158
sg89
g1
sbatRp1269
sg140
g8
((lp1270
(imodel.Bond
Bond
p1271
(dp1272
g13
g1
sg144
g145
sg50
g158
sg17
g8
((lp1273
g1254
ag1257
atRp1274
sbatRp1275
sg149
I00
sbag156
atRp1276
sg15
S'C'
sg133
I0
sg16
I00
sg134
(F223.44929762746716
F109.70887160429839
F0.88936000459209741
tp1277
sg136
(lp1278
F5.6315028053089264
asg13
g1
sg138
g8
((ltRp1279
sg140
g8
((lp1280
(imodel.Bond
Bond
p1281
(dp1282
g13
g1
sg144
g145
sg50
g158
sg17
g8
((lp1283
g1254
ag162
atRp1284
sbag1271
a(imodel.Bond
Bond
p1285
(dp1286
g13
g1
sg144
g145
sg50
g158
sg17
g8
((lp1287
g1254
ag156
atRp1288
sbatRp1289
sg149
I00
sbag344
ag584
ag264
ag939
atRp1290
sg149
I00
sbg344
sg59
g62
sg165
g355
sg221
g374
sg153
g341
sg487
g338
sg100
g65
ssg798
(V-H'',-H3
g799
g800
tp1291
sg93
g8
((lp1292
g355
ag68
ag335
ag374
ag338
ag62
ag344
ag391
ag65
ag341
ag347
atRp1293
sg117
g8
((lp1294
g362
atRp1295
sg806
g799
sbsg112
I0
sg91
S'H'
sg92
I00
sg113
(F187.40936363176701
F96.371905953071632
F0.96928276402162605
tp1296
sg115
(lp1297
sg89
g1
sg117
g8
((lp1298
g362
atRp1299
sg119
g8
((lp1300
g420
atRp1301
sg128
I00
sbag355
ag341
atRp1302
sg36
g441
sg38
I00
sg39
Nsg40
g439
sg111
g351
sg112
I0
sg91
S'C'
sg92
I00
sg113
(F223.44929762746716
F109.70887160429839
F0.88936000459209741
tp1303
sg115
(lp1304
F5.6315028053089264
asg89
g1
sg117
g8
((ltRp1305
sg119
g8
((lp1306
g420
ag432
ag369
atRp1307
sg128
I00
sbag374
ag65
ag338
atRp1308
sg36
g152
sg38
I00
sg39
Nsg40
g153
sg111
g351
sg112
I0
sg91
S'C'
sg92
I00
sg113
(F244.5631066025862
F156.61384668176953
F0.39931433581398768
tp1309
sg115
(lp1310
sg89
g1
sg117
g8
((ltRp1311
sg119
g8
((lp1312
g382
ag432
ag408
ag416
atRp1313
sg128
I00
sbag391
atRp1314
sg36
VC
sg38
I00
sg39
Nsg40
g487
sg111
g351
sg112
I0
sg91
S'C'
sg92
I00
sg113
(F201.44127268133326
F184.29116164701466
F0.94796087918280236
tp1315
sg115
(lp1316
sg89
g1
sg117
g8
((ltRp1317
sg119
g8
((lp1318
g428
ag399
ag408
atRp1319
sg128
I00
sbatRp1320
sg36
g331
sg38
I00
sg39
Nsg40
g332
sg111
g351
sg112
I-1
sg91
S'O'
sg92
I00
sg113
(F151.50914337461373
F177.05952086812914
F0.020840183205926843
tp1321
sg115
(lp1322
sg89
g1
sg117
g8
((ltRp1323
sg119
g8
((lp1324
g428
atRp1325
sg128
I00
sbag676
ag457
ag327
ag482
ag850
atRp1326
sg149
I00
sbsg111
g271
sg112
I-1
sg91
S'O'
sg92
I00
sg113
(F151.50914337461373
F177.05952086812914
F0.020840183205926843
tp1327
sg115
(lp1328
sg89
g1
sg117
g8
((ltRp1329
sg119
g8
((lp1330
(imodel.Bond
Bond
p1331
(dp1332
g123
g145
sg89
g1
sg111
g271
sg93
g8
((lp1333
g258
ag327
atRp1334
sbatRp1335
sg128
I00
sbatRp1336
sS'N'
g8
((lp1337
g79
atRp1338
ssg119
g8
((lp1339
(imodel.Bond
Bond
p1340
(dp1341
g123
g251
sg89
g1
sg111
g271
sg93
g8
((lp1342
g258
ag255
atRp1343
sba(imodel.Bond
Bond
p1344
(dp1345
g123
g145
sg89
g1
sg111
g271
sg93
g8
((lp1346
g264
ag261
atRp1347
sba(imodel.Bond
Bond
p1348
(dp1349
g123
g145
sg89
g1
sg111
g271
sg93
g8
((lp1350
g264
ag267
atRp1351
sba(imodel.Bond
Bond
p1352
(dp1353
g123
g145
sg89
g1
sg111
g271
sg93
g8
((lp1354
g79
ag76
atRp1355
sba(imodel.Bond
Bond
p1356
(dp1357
g123
g145
sg89
g1
sg111
g271
sg93
g8
((lp1358
g261
ag258
atRp1359
sbag283
ag318
ag296
a(imodel.Bond
Bond
p1360
(dp1361
g123
g124
sg89
g1
sg111
g271
sg93
g8
((lp1362
g79
ag82
atRp1363
sbag1331
a(imodel.Bond
Bond
p1364
(dp1365
g123
g145
sg89
g1
sg111
g271
sg93
g8
((lp1366
g79
ag261
atRp1367
sbatRp1368
sg89
g1
sg437
(dp1369
g87
g82
sg221
g288
sg238
g255
sg332
g327
sg439
g264
sg59
g275
sg165
g267
sg73
g76
sg153
g261
sg487
g258
sg100
g79
sg10
g301
ssg798
(V+H3,-H''
g799
g800
tp1370
sg93
g8
((lp1371
g275
ag82
ag76
ag267
ag301
ag258
ag264
ag288
ag327
ag261
ag79
ag255
atRp1372
sg117
g8
((lp1373
g308
atRp1374
sg806
g799
sbsg112
I0
sg91
S'H'
sg92
I00
sg113
(F241.18607111650977
F75.635713560700367
F0.74561403965733763
tp1375
sg115
(lp1376
sg89
g1
sg117
g8
((lp1377
g308
atRp1378
sg119
g8
((lp1379
g1348
atRp1380
sg128
I00
sbag301
atRp1381
sg36
g441
sg38
I00
sg39
Nsg40
g439
sg111
g271
sg112
I0
sg91
S'C'
sg92
I00
sg113
(F223.44929762746716
F109.70887160429839
F0.88936000459209741
tp1382
sg115
(lp1383
F5.6315028053089264
asg89
g1
sg117
g8
((ltRp1384
sg119
g8
((lp1385
g1344
ag318
ag1348
atRp1386
sg128
I00
sbag288
atRp1387
sg36
g152
sg38
I00
sg39
Nsg40
g153
sg111
g271
sg112
I0
sg91
S'C'
sg92
I00
sg113
(F244.5631066025862
F156.61384668176953
F0.39931433581398768
tp1388
sg115
(lp1389
sg89
g1
sg117
g8
((ltRp1390
sg119
g8
((lp1391
g1356
ag296
ag1364
ag1344
atRp1392
sg128
I00
sbag327
ag255
atRp1393
sg36
VC
sg38
I00
sg39
Nsg40
g487
sg111
g271
sg112
I0
sg91
S'C'
sg92
I00
sg113
(F201.44127268133326
F184.29116164701466
F0.94796087918280236
tp1394
sg115
(lp1395
sg89
g1
sg117
g8
((ltRp1396
sg119
g8
((lp1397
g1356
ag1340
ag1331
atRp1398
sg128
I00
sbatRp1399
sg36
g237
sg38
I00
sg39
Nsg40
g238
sg111
g271
sg112
I0
sg91
S'O'
sg92
I00
sg113
(F191.35720243434196
F227.14231775904008
F0.61214002972084591
tp1400
sg115
(lp1401
sg89
g1
sg117
g8
((ltRp1402
sg119
g8
((lp1403
g1340
atRp1404
sg128
I00
sbag1054
ag560
ag233
ag682
ag391
ag493
ag1011
atRp1405
sg149
I00
sbsg111
g450
sg112
I0
sg91
S'O'
sg92
I00
sg113
(F191.35720243434196
F227.14231775904008
F0.61214002972084591
tp1406
sg115
(lp1407
sg89
g1
sg117
g8
((ltRp1408
sg119
g8
((lp1409
g1181
atRp1410
sg128
I00
sbag457
atRp1411
sg36
VC
sg38
I00
sg39
Nsg40
g487
sg111
g450
sg112
I0
sg91
S'C'
sg92
I00
sg113
(F201.44127268133326
F184.29116164701466
F0.94796087918280236
tp1412
sg115
(lp1413
sg89
g1
sg117
g8
((ltRp1414
sg119
g8
((lp1415
g1173
ag1181
ag465
atRp1416
sg128
I00
sbag443
ag1125
atRp1417
sg36
g152
sg38
I00
sg39
Nsg40
g153
sg111
g450
sg112
I0
sg91
S'C'
sg92
I00
sg113
(F244.5631066025862
F156.61384668176953
F0.39931433581398768
tp1418
sg115
(lp1419
sg89
g1
sg117
g8
((ltRp1420
sg119
g8
((lp1421
g1173
ag1177
ag1146
ag1185
atRp1422
sg128
I00
sbatRp1423
sg36
g220
sg38
I00
sg39
Nsg40
g221
sg111
g450
sg112
I0
sg91
S'H'
sg92
I00
sg113
(F277.69338812783911
F137.13197192648244
F0.32188437965785377
tp1424
sg115
(lp1425
sg89
g1
sg117
g8
((ltRp1426
sg119
g8
((lp1427
g1177
atRp1428
sg128
I00
sbag757
ag374
a(imodel.VarAtom
VarAtom
p1429
(dp1430
g3
g220
sg47
I00
sg48
Nsg49
g221
sg50
g158
sg105
g8
((lp1431
g156
atRp1432
sg15
S'H'
sg133
I0
sg16
I00
sg134
(F277.69338812783911
F137.13197192648244
F0.32188437965785377
tp1433
sg136
(lp1434
sg13
g1
sg138
g8
((ltRp1435
sg140
g8
((lp1436
(imodel.Bond
Bond
p1437
(dp1438
g13
g1
sg144
g145
sg50
g158
sg17
g8
((lp1439
g156
ag1429
atRp1440
sbatRp1441
sg149
I00
sbag568
ag288
ag532
a(imodel.VarAtom
VarAtom
p1442
(dp1443
g3
g220
sg47
I00
sg48
Nsg49
g221
sg50
g51
sg105
g8
((lp1444
g150
atRp1445
sg15
S'H'
sg133
I0
sg16
I00
sg134
(F277.69338812783911
F137.13197192648244
F0.32188437965785377
tp1446
sg136
(lp1447
sg13
g1
sg138
g8
((ltRp1448
sg140
g8
((lp1449
(imodel.Bond
Bond
p1450
(dp1451
g13
g1
sg144
g145
sg50
g51
sg17
g8
((lp1452
g150
ag1442
atRp1453
sbatRp1454
sg149
I00
sbag216
atRp1455
sg149
I00
sbsg111
g172
sg112
I0
sg91
S'H'
sg92
I00
sg113
(F277.69338812783911
F137.13197192648244
F0.32188437965785377
tp1456
sg115
(lp1457
sg89
g1
sg117
g8
((ltRp1458
sg119
g8
((lp1459
(imodel.Bond
Bond
p1460
(dp1461
g123
g145
sg89
g1
sg111
g172
sg93
g8
((lp1462
g26
ag216
atRp1463
sbatRp1464
sg128
I00
sbatRp1465
sS'C'
g8
((lp1466
g29
ag26
ag23
atRp1467
sg43
g8
((lp1468
g32
atRp1469
sS'O'
g8
((lp1470
g241
atRp1471
sS'N'
g8
((lp1472
g180
atRp1473
ssg119
g8
((lp1474
(imodel.Bond
Bond
p1475
(dp1476
g123
g517
sg89
g1
sg111
g172
sg93
g8
((lp1477
g32
ag29
atRp1478
sbag205
ag201
a(imodel.Bond
Bond
p1479
(dp1480
g123
g145
sg89
g1
sg111
g172
sg93
g8
((lp1481
g23
ag26
atRp1482
sba(imodel.Bond
Bond
p1483
(dp1484
g123
g145
sg89
g1
sg111
g172
sg93
g8
((lp1485
g26
ag29
atRp1486
sbag1460
ag191
a(imodel.Bond
Bond
p1487
(dp1488
g123
g145
sg89
g1
sg111
g172
sg93
g8
((lp1489
g23
ag19
atRp1490
sba(imodel.Bond
Bond
p1491
(dp1492
g123
g145
sg89
g1
sg111
g172
sg93
g8
((lp1493
g23
ag168
atRp1494
sbag249
atRp1495
sg89
g1
sg437
(dp1496
g10
g19
sg73
g177
sg238
g241
sg439
g23
sg59
g183
sg165
g168
sg221
g216
sg153
g26
sg487
g29
sg41
g32
sg100
g180
ssg798
(V-H3
g799
g800
tp1497
sg93
g8
((lp1498
g168
ag26
ag23
ag32
ag180
ag29
ag177
ag19
ag183
ag241
ag216
atRp1499
sg117
g8
((lp1500
(imodel.AtomGroup
AtomGroup
p1501
(dp1502
g310
g311
sg312
g8
((ltRp1503
sg93
g8
((lp1504
g19
ag168
atRp1505
sg111
g172
sg89
g1
sbatRp1506
sg806
S'start'
p1507
sbsg112
I0
sg91
S'H'
sg92
I00
sg113
(F241.18607111650977
F75.635713560700367
F0.74561403965733763
tp1508
sg115
(lp1509
sg89
g1
sg117
g8
((lp1510
g1501
atRp1511
sg119
g8
((lp1512
g1491
atRp1513
sg128
I00
sbag738
ag1103
ag581
ag1211
ag267
ag942
ag355
atRp1514
sg149
I00
sbsg50
g158
sg105
g8
((lp1515
g1254
atRp1516
sg15
S'H'
sg133
I0
sg16
I00
sg134
(F241.18607111650977
F75.635713560700367
F0.74561403965733763
tp1517
sg136
(lp1518
sg13
g1
sg138
g8
((lp1519
g1264
atRp1520
sg140
g8
((lp1521
g1281
atRp1522
sg149
I00
sbag479
ag95
ag1429
a(imodel.VarAtom
VarAtom
p1523
(dp1524
g3
g58
sg47
I01
sg48
Nsg49
g59
sg50
g158
sg105
g8
((lp1525
g98
atRp1526
sg15
S'H'
sg133
I0
sg16
I00
sg134
(F277.13002808326229
F234.4013602077176
F0.61388162641604782
tp1527
sg136
(lp1528
sg13
g1
sg138
g8
((ltRp1529
sg140
g8
((lp1530
(imodel.Bond
Bond
p1531
(dp1532
g13
g1
sg144
g145
sg50
g158
sg17
g8
((lp1533
g98
ag1523
atRp1534
sbatRp1535
sg149
I00
sba(imodel.VarAtom
VarAtom
p1536
(dp1537
g3
g72
sg47
I01
sg48
Nsg49
g73
sg50
g158
sg105
g8
((lp1538
g98
atRp1539
sg15
S'H'
sg133
I0
sg16
I00
sg134
(F315.91442504537309
F192.63368334468439
F1.7860694615034878
tp1540
sg136
(lp1541
sg13
g1
sg138
g8
((ltRp1542
sg140
g8
((lp1543
(imodel.Bond
Bond
p1544
(dp1545
g13
g1
sg144
g145
sg50
g158
sg17
g8
((lp1546
g98
ag1536
atRp1547
sbatRp1548
sg149
I00
sbag1257
atRp1549
sS'C'
g8
((lp1550
g485
ag156
ag1254
atRp1551
sS'O'
g8
((lp1552
g1054
ag482
atRp1553
sS'N'
g8
((lp1554
g98
atRp1555
ssg140
g8
((lp1556
g1086
ag1271
a(imodel.Bond
Bond
p1557
(dp1558
g123
g124
sg89
g1
sg111
g158
sg93
g8
((lp1559
g98
ag95
atRp1560
sbag1437
ag1076
ag1062
a(imodel.Bond
Bond
p1561
(dp1562
g13
g1
sg144
g145
sg50
g158
sg17
g8
((lp1563
g98
ag156
atRp1564
sbag1531
ag1072
ag1285
ag1281
ag1544
atRp1565
sg13
g1
sS'descriptor'
p1566
(V+H'',+H3
g799
g800
tp1567
sS'atomDict'
p1568
(dp1569
g10
g1257
sg332
g482
sg238
g1054
sg153
g156
sg439
g1254
sg100
g98
sg165
g162
sg221
g1429
sg476
g479
sg73
g1536
sg487
g485
sg59
g1523
sg87
g95
ssg17
g8
((lp1570
g162
ag1523
ag156
ag95
ag1536
ag1429
ag485
ag482
ag1254
ag1054
ag1257
ag98
ag479
atRp1571
sg138
g8
((lp1572
g1264
atRp1573
sS'polyLink'
p1574
g799
sbsg105
g8
((lp1575
g98
ag1429
ag1254
ag485
atRp1576
sg15
S'C'
sg133
I0
sg16
I00
sg134
(F244.5631066025862
F156.61384668176953
F0.39931433581398768
tp1577
sg136
(lp1578
sg13
g1
sg138
g8
((ltRp1579
sg140
g8
((lp1580
g1072
ag1561
ag1437
ag1285
atRp1581
sg149
I00
sbag26
ag535
ag554
ag227
ag150
ag261
ag341
ag659
atRp1582
sg149
I00
sbsg50
g51
sg105
g8
((lp1583
g1208
ag103
ag1442
ag490
atRp1584
sg15
S'C'
sg133
I0
sg16
I00
sg134
(F244.5631066025862
F156.61384668176953
F0.39931433581398768
tp1585
sg136
(lp1586
sg13
g1
sg138
g8
((ltRp1587
sg140
g8
((lp1588
g1249
ag511
ag1450
a(imodel.Bond
Bond
p1589
(dp1590
g13
g1
sg144
g145
sg50
g51
sg17
g8
((lp1591
g103
ag150
atRp1592
sbatRp1593
sg149
I00
sbatRp1594
sg15
S'N'
sg133
I1
sg16
I00
sg134
(F277.60915772828122
F195.93453099254936
F0.37884450065241659
tp1595
sg136
(lp1596
sg13
g1
sg138
g8
((ltRp1597
sg140
g8
((lp1598
g142
ag1589
a(imodel.Bond
Bond
p1599
(dp1600
g13
g1
sg144
g145
sg50
g51
sg17
g8
((lp1601
g103
ag56
atRp1602
sbag121
atRp1603
sg149
I00
sbag180
ag538
ag65
ag656
ag98
ag551
ag1125
ag79
atRp1604
sg149
I00
sbsg50
g158
sg105
g8
((lp1605
g156
ag95
ag1536
ag1523
atRp1606
sg15
S'N'
sg133
I1
sg16
I00
sg134
(F277.60915772828122
F195.93453099254936
F0.37884450065241659
tp1607
sg136
(lp1608
sg13
g1
sg138
g8
((ltRp1609
sg140
g8
((lp1610
g1544
ag1561
ag1557
ag1531
atRp1611
sg149
I00
sbatRp1612
sg36
g86
sg38
I01
sg39
Nsg40
g87
sg111
g158
sg112
I0
sg91
S'H'
sg92
I01
sg113
(F244.81776372194662
F215.43504584335173
F1.7901040319097805
tp1613
sg115
(lp1614
sg89
g1
sg117
g8
((ltRp1615
sg119
g8
((lp1616
g1557
atRp1617
sg128
I00
sbag107
ag82
atRp1618
sg128
I00
sbsg111
g271
sg112
I0
sg91
S'H'
sg92
I01
sg113
(F244.81776372194662
F215.43504584335173
F1.7901040319097805
tp1619
sg115
(lp1620
sg89
g1
sg117
g8
((ltRp1621
sg119
g8
((lp1622
g1360
atRp1623
sg128
I00
sbag275
ag76
ag261
atRp1624
sg36
VN
sg38
I00
sg39
Nsg40
g100
sg111
g271
sg112
I1
sg91
S'N'
sg92
I00
sg113
(F277.60915772828122
F195.93453099254936
F0.37884450065241659
tp1625
sg115
(lp1626
sg89
g1
sg117
g8
((ltRp1627
sg119
g8
((lp1628
g1360
ag283
ag1364
ag1352
atRp1629
sg128
I00
sbatRp1630
sg36
g72
sg38
I01
sg39
Nsg40
g73
sg111
g271
sg112
I0
sg91
S'H'
sg92
I00
sg113
(F315.91442504537309
F192.63368334468439
F1.7860694615034878
tp1631
sg115
(lp1632
sg89
g1
sg117
g8
((ltRp1633
sg119
g8
((lp1634
g1352
atRp1635
sg128
I00
sbag129
ag177
ag68
ag1122
ag1536
atRp1636
sg149
I00
sbsg111
g351
sg112
I0
sg91
S'H'
sg92
I00
sg113
(F315.91442504537309
F192.63368334468439
F1.7860694615034878
tp1637
sg115
(lp1638
sg89
g1
sg117
g8
((ltRp1639
sg119
g8
((lp1640
g412
atRp1641
sg128
I00
sbag62
ag341
atRp1642
sg36
VN
sg38
I00
sg39
Nsg40
g100
sg111
g351
sg112
I0
sg91
S'N'
sg92
I00
sg113
(F277.60915772828122
F195.93453099254936
F0.37884450065241659
tp1643
sg115
(lp1644
sg89
g1
sg117
g8
((ltRp1645
sg119
g8
((lp1646
g412
ag416
ag424
atRp1647
sg128
I00
sbatRp1648
sg36
g58
sg38
I00
sg39
Nsg40
g59
sg111
g351
sg112
I0
sg91
S'H'
sg92
I00
sg113
(F277.13002808326229
F234.4013602077176
F0.61388162641604782
tp1649
sg115
(lp1650
sg89
g1
sg117
g8
((ltRp1651
sg119
g8
((lp1652
g424
atRp1653
sg128
I00
sbag275
ag1523
ag183
ag1128
atRp1654
sg149
I00
sbsg50
g51
sg105
g8
((lp1655
g103
atRp1656
sg15
S'H'
sg133
I0
sg16
I00
sg134
(F277.13002808326229
F234.4013602077176
F0.61388162641604782
tp1657
sg136
(lp1658
sg13
g1
sg138
g8
((ltRp1659
sg140
g8
((lp1660
g1599
atRp1661
sg149
I00
sbag1222
ag129
ag1211
ag107
ag1442
atRp1662
sS'C'
g8
((lp1663
g490
ag150
ag1208
atRp1664
sg43
g8
((lp1665
g45
atRp1666
sS'O'
g8
((lp1667
g493
atRp1668
sS'N'
g8
((lp1669
g103
atRp1670
ssg140
g8
((lp1671
g1450
ag511
ag121
ag1231
ag515
ag1589
ag142
ag1249
ag1239
ag1599
ag501
atRp1672
sg13
g1
sg1566
(V+H3
g799
g800
tp1673
sg1568
(dp1674
g10
g1222
sg73
g129
sg439
g1208
sg100
g103
sg221
g1442
sg165
g1211
sg487
g490
sg238
g493
sg59
g56
sg153
g150
sg41
g45
sg87
g107
ssg17
g8
((lp1675
g103
ag1208
ag1211
ag107
ag1222
ag129
ag150
ag1442
ag45
ag490
ag493
ag56
atRp1676
sg138
g8
((lp1677
g1218
atRp1678
sg1574
g1507
sbsg105
g8
((lp1679
g490
atRp1680
sg15
g43
sg133
I0
sg16
I00
sg134
(F151.44439469812542
F177.32280353317211
F0.63782073973115372
tp1681
sg136
(lp1682
sg13
g1
sg138
g8
((ltRp1683
sg140
g8
((lp1684
g515
atRp1685
sg149
I00
sbag32
ag524
atRp1686
sg149
I00
sbsg111
g172
sg112
I0
sg91
g43
sg92
I00
sg113
(F151.44439469812542
F177.32280353317211
F0.63782073973115372
tp1687
sg115
(lp1688
sg89
g1
sg117
g8
((ltRp1689
sg119
g8
((lp1690
g1475
atRp1691
sg128
I00
sbag241
atRp1692
sg36
VC
sg38
I00
sg39
Nsg40
g487
sg111
g172
sg112
I0
sg91
S'C'
sg92
I00
sg113
(F201.44127268133326
F184.29116164701466
F0.94796087918280236
tp1693
sg115
(lp1694
sg89
g1
sg117
g8
((ltRp1695
sg119
g8
((lp1696
g1483
ag1475
ag249
atRp1697
sg128
I00
sbag216
ag23
ag180
atRp1698
sg36
g152
sg38
I00
sg39
Nsg40
g153
sg111
g172
sg112
I0
sg91
S'C'
sg92
I00
sg113
(F244.5631066025862
F156.61384668176953
F0.39931433581398768
tp1699
sg115
(lp1700
sg89
g1
sg117
g8
((ltRp1701
sg119
g8
((lp1702
g1483
ag201
ag1460
ag1479
atRp1703
sg128
I00
sbag168
atRp1704
sg36
g441
sg38
I00
sg39
Nsg40
g439
sg111
g172
sg112
I0
sg91
S'C'
sg92
I00
sg113
(F223.44929762746716
F109.70887160429839
F0.88936000459209741
tp1705
sg115
(lp1706
F5.6315028053089264
asg89
g1
sg117
g8
((ltRp1707
sg119
g8
((lp1708
g1487
ag1479
ag1491
atRp1709
sg128
I00
sbatRp1710
sg36
g12
sg38
I00
sg39
Nsg40
g10
sg111
g172
sg112
I0
sg91
S'H'
sg92
I00
sg113
(F187.40936363176701
F96.371905953071632
F0.96928276402162605
tp1711
sg115
(lp1712
sg89
g1
sg117
g8
((lp1713
g1501
atRp1714
sg119
g8
((lp1715
g1487
atRp1716
sg128
I00
sbag347
ag587
ag301
ag1222
ag953
ag446
ag665
ag1257
atRp1717
sg149
I00
sbag332
ag238
ag153
ag439
ag100
ag637
ag165
ag41
ag221
ag476
ag73
ag487
ag545
ag59
ag87
atRp1718
sS'ccpMolType'
p1719
Vprotein
p1720
sS'details'
p1721
V
sg1568
(dp1722
VC
g487
sg636
g637
sg58
g59
sg441
g439
sg152
g153
sg72
g73
sVN
g100
sg237
g238
sS'H'
g545
sg86
g87
sg475
g476
sg331
g332
sg220
g221
sg37
g41
sg12
g10
sg164
g165
ssS'keywords'
p1723
g8
((ltRp1724
sg138
g8
((lp1725
g308
ag745
ag1110
ag1218
ag1501
ag1264
ag949
ag594
ag362
atRp1726
sS'variants'
p1727
g8
((lp1728
g172
ag564
ag528
ag271
ag669
ag51
ag351
ag158
ag450
atRp1729
sS'defaultVars'
p1730
g8
((ltRp1731
sb.