(imodel.Compound
Compound
p1
(dp2
S'name'
p3
S'Unnamed'
p4
sS'isModified'
p5
I00
sS'ccpCode'
p6
NsS'atoms'
p7
c__builtin__
set
p8
((lp9
(imodel.Atom
Atom
p10
(dp11
g3
VC4
p12
sS'compound'
p13
g1
sS'baseValences'
p14
I4
sS'element'
p15
S'C'
sS'isVariable'
p16
I00
sS'varAtoms'
p17
g8
((lp18
(imodel.VarAtom
VarAtom
p19
(dp20
S'neighbours'
p21
g8
((lp22
(imodel.VarAtom
VarAtom
p23
(dp24
g21
g8
((lp25
g19
a(imodel.VarAtom
VarAtom
p26
(dp27
g21
g8
((lp28
(imodel.VarAtom
VarAtom
p29
(dp30
g21
g8
((lp31
g26
a(imodel.VarAtom
VarAtom
p32
(dp33
g21
g8
((lp34
g29
a(imodel.VarAtom
VarAtom
p35
(dp36
g21
g8
((lp37
g32
ag19
atRp38
sg3
VC3
p39
sS'isLabile'
p40
I00
sS'chirality'
p41
NsS'atom'
p42
(imodel.Atom
Atom
p43
(dp44
g3
g39
sg13
g1
sg14
I4
sg15
S'C'
sg16
I00
sg17
g8
((lp45
g35
atRp46
sS'isDeleted'
p47
I00
sbsS'variant'
p48
(imodel.Variant
Variant
p49
(dp50
S'elementDict'
p51
(dp52
S'C'
g8
((lp53
g35
ag23
ag19
ag26
atRp54
sS'N'
g8
((lp55
g29
ag32
atRp56
ssS'bonds'
p57
g8
((lp58
(imodel.Bond
Bond
p59
(dp60
S'bondType'
p61
S'aromatic'
p62
sg13
g1
sg48
g49
sg17
g8
((lp63
g32
ag35
atRp64
sba(imodel.Bond
Bond
p65
(dp66
g61
g62
sg13
g1
sg48
g49
sg17
g8
((lp67
g19
ag35
atRp68
sba(imodel.Bond
Bond
p69
(dp70
g61
g62
sg13
g1
sg48
g49
sg17
g8
((lp71
g23
ag26
atRp72
sba(imodel.Bond
Bond
p73
(dp74
g61
g62
sg13
g1
sg48
g49
sg17
g8
((lp75
g23
ag19
atRp76
sba(imodel.Bond
Bond
p77
(dp78
g61
g62
sg13
g1
sg48
g49
sg17
g8
((lp79
g29
ag32
atRp80
sba(imodel.Bond
Bond
p81
(dp82
g61
g62
sg13
g1
sg48
g49
sg17
g8
((lp83
g29
ag26
atRp84
sbatRp85
sg13
g1
sS'atomDict'
p86
(dp87
g10
g19
s(imodel.Atom
Atom
p88
(dp89
g3
S'C6'
p90
sg13
g1
sg14
I4
sg15
S'C'
sg16
I00
sg17
g8
((lp91
g26
atRp92
sg47
I00
sbg26
s(imodel.Atom
Atom
p93
(dp94
g3
VN2
p95
sg13
g1
sg14
I3
sg15
S'N'
sg16
I00
sg17
g8
((lp96
g32
atRp97
sg47
I00
sbg32
sg43
g35
s(imodel.Atom
Atom
p98
(dp99
g3
S'C5'
p100
sg13
g1
sg14
I4
sg15
S'C'
sg16
I00
sg17
g8
((lp101
g23
atRp102
sg47
I00
sbg23
s(imodel.Atom
Atom
p103
(dp104
g3
S'N1'
p105
sg13
g1
sg14
I3
sg15
S'N'
sg16
I00
sg17
g8
((lp106
g29
atRp107
sg47
I00
sbg29
ssS'descriptor'
p108
(S'neutral'
p109
S'none'
p110
S'default'
p111
tp112
sg17
g8
((lp113
g35
ag32
ag23
ag19
ag26
ag29
atRp114
sS'atomGroups'
p115
g8
((lp116
(imodel.AtomGroup
AtomGroup
p117
(dp118
S'groupType'
p119
g62
sS'subGroups'
p120
g8
((ltRp121
sg17
g8
((lp122
g35
ag29
ag19
ag26
ag32
ag23
atRp123
sg48
g49
sg13
g1
sbatRp124
sS'polyLink'
p125
g110
sbsS'charge'
p126
I0
sg15
S'C'
sg16
I00
sS'coords'
p127
(F-90.91684052382999
F-71.561296675558935
F0.72651118814749982
tp128
sS'freeValences'
p129
(lp130
F2.1265388746895293
asg13
g1
sg115
g8
((lp131
g117
atRp132
sg57
g8
((lp133
g59
ag65
atRp134
sg47
I00
sbatRp135
sg3
g95
sg40
I00
sg41
Nsg42
g93
sg48
g49
sg126
I0
sg15
S'N'
sg16
I00
sg127
(F-134.99767679744565
F-95.160143995441473
F1.3006007768680461
tp136
sg129
(lp137
sg13
g1
sg115
g8
((lp138
g117
atRp139
sg57
g8
((lp140
g77
ag59
atRp141
sg47
I00
sbatRp142
sg3
g105
sg40
I00
sg41
Nsg42
g103
sg48
g49
sg126
I0
sg15
S'N'
sg16
I00
sg127
(F-177.47672360352954
F-68.778843476374561
F2.7677122571787582
tp143
sg129
(lp144
sg13
g1
sg115
g8
((lp145
g117
atRp146
sg57
g8
((lp147
g81
ag77
atRp148
sg47
I00
sbag23
atRp149
sg3
g90
sg40
I00
sg41
Nsg42
g88
sg48
g49
sg126
I0
sg15
S'C'
sg16
I00
sg127
(F-175.8835128477082
F-18.792898695731001
F3.7747382698452085
tp150
sg129
(lp151
F5.2682151320290522
asg13
g1
sg115
g8
((lp152
g117
atRp153
sg57
g8
((lp154
g81
ag69
atRp155
sg47
I00
sbatRp156
sg3
g100
sg40
I00
sg41
Nsg42
g98
sg48
g49
sg126
I0
sg15
S'C'
sg16
I00
sg127
(F-131.78118284614348
F4.7878047911972104
F1.6038282093837952
tp157
sg129
(lp158
F0.032362472145504917
asg13
g1
sg115
g8
((lp159
g117
atRp160
sg57
g8
((lp161
g73
ag69
atRp162
sg47
I00
sbag35
atRp163
sg3
g12
sg40
I00
sg41
Nsg42
g10
sg48
g49
sg126
I0
sg15
S'C'
sg16
I00
sg127
(F-89.306310755469582
F-21.589892235980024
F1.1949801494919194
tp164
sg129
(lp165
F1.0793727791227843
asg13
g1
sg115
g8
((lp166
g117
atRp167
sg57
g8
((lp168
g73
ag65
atRp169
sg47
I00
sbatRp170
sg47
I00
sbag88
ag93
ag43
ag98
ag103
atRp171
sS'ccpMolType'
p172
S'other'
p173
sS'details'
p174
V
sg86
(dp175
g95
g93
sg105
g103
sg39
g43
sg90
g88
sg100
g98
sg12
g10
ssS'keywords'
p176
g8
((ltRp177
sg115
g8
((lp178
g117
atRp179
sS'variants'
p180
g8
((lp181
g49
atRp182
sS'defaultVars'
p183
g8
((ltRp184
sb.