(imodel.Compound
Compound
p1
(dp2
S'name'
p3
S'Unnamed'
p4
sS'isModified'
p5
I01
sS'ccpCode'
p6
NsS'atoms'
p7
c__builtin__
set
p8
((lp9
(imodel.Atom
Atom
p10
(dp11
g3
VN4
p12
sS'compound'
p13
g1
sS'baseValences'
p14
I3
sS'element'
p15
S'N'
sS'isVariable'
p16
I00
sS'varAtoms'
p17
g8
((lp18
(imodel.VarAtom
VarAtom
p19
(dp20
S'neighbours'
p21
g8
((lp22
(imodel.VarAtom
VarAtom
p23
(dp24
g21
g8
((lp25
g19
a(imodel.VarAtom
VarAtom
p26
(dp27
g21
g8
((lp28
(imodel.VarAtom
VarAtom
p29
(dp30
g21
g8
((lp31
g26
a(imodel.VarAtom
VarAtom
p32
(dp33
g21
g8
((lp34
g29
a(imodel.VarAtom
VarAtom
p35
(dp36
g21
g8
((lp37
g19
ag32
atRp38
sg3
S'C3'
p39
sS'isLabile'
p40
I00
sS'chirality'
p41
NsS'atom'
p42
(imodel.Atom
Atom
p43
(dp44
g3
g39
sg13
g1
sg14
I4
sg15
S'C'
sg16
I00
sg17
g8
((lp45
g35
atRp46
sS'isDeleted'
p47
I00
sbsS'variant'
p48
(imodel.Variant
Variant
p49
(dp50
S'elementDict'
p51
(dp52
S'C'
g8
((lp53
g32
ag35
ag23
ag26
atRp54
sS'N'
g8
((lp55
g29
ag19
atRp56
ssS'bonds'
p57
g8
((lp58
(imodel.Bond
Bond
p59
(dp60
S'bondType'
p61
S'aromatic'
p62
sg13
g1
sg48
g49
sg17
g8
((lp63
g35
ag19
atRp64
sba(imodel.Bond
Bond
p65
(dp66
g61
g62
sg13
g1
sg48
g49
sg17
g8
((lp67
g23
ag26
atRp68
sba(imodel.Bond
Bond
p69
(dp70
g61
g62
sg13
g1
sg48
g49
sg17
g8
((lp71
g32
ag35
atRp72
sba(imodel.Bond
Bond
p73
(dp74
g61
g62
sg13
g1
sg48
g49
sg17
g8
((lp75
g23
ag19
atRp76
sba(imodel.Bond
Bond
p77
(dp78
g61
g62
sg13
g1
sg48
g49
sg17
g8
((lp79
g32
ag29
atRp80
sba(imodel.Bond
Bond
p81
(dp82
g61
g62
sg13
g1
sg48
g49
sg17
g8
((lp83
g29
ag26
atRp84
sbatRp85
sg13
g1
sS'atomDict'
p86
(dp87
g10
g19
s(imodel.Atom
Atom
p88
(dp89
g3
S'C6'
p90
sg13
g1
sg14
I4
sg15
S'C'
sg16
I00
sg17
g8
((lp91
g26
atRp92
sg47
I00
sbg26
sg43
g35
s(imodel.Atom
Atom
p93
(dp94
g3
S'C2'
p95
sg13
g1
sg14
I4
sg15
S'C'
sg16
I00
sg17
g8
((lp96
g32
atRp97
sg47
I00
sbg32
s(imodel.Atom
Atom
p98
(dp99
g3
S'C5'
p100
sg13
g1
sg14
I4
sg15
S'C'
sg16
I00
sg17
g8
((lp101
g23
atRp102
sg47
I00
sbg23
s(imodel.Atom
Atom
p103
(dp104
g3
S'N1'
p105
sg13
g1
sg14
I3
sg15
S'N'
sg16
I00
sg17
g8
((lp106
g29
atRp107
sg47
I00
sbg29
ssS'descriptor'
p108
(S'neutral'
p109
S'none'
p110
S'default'
p111
tp112
sg17
g8
((lp113
g32
ag35
ag19
ag23
ag26
ag29
atRp114
sS'atomGroups'
p115
g8
((lp116
(imodel.AtomGroup
AtomGroup
p117
(dp118
S'groupType'
p119
g62
sS'subGroups'
p120
g8
((ltRp121
sg17
g8
((lp122
g23
ag32
ag26
ag19
ag35
ag29
atRp123
sg48
g49
sg13
g1
sbatRp124
sS'polyLink'
p125
g110
sbsS'charge'
p126
I0
sg15
S'C'
sg16
I00
sS'coords'
p127
(F-100.58338551877358
F-83.760867038281106
F1.6478436072769287
tp128
sS'freeValences'
p129
(lp130
F2.6240240613589347
asg13
g1
sg115
g8
((lp131
g117
atRp132
sg57
g8
((lp133
g59
ag69
atRp134
sg47
I00
sbatRp135
sg3
g95
sg40
I00
sg41
Nsg42
g93
sg48
g49
sg126
I0
sg15
S'C'
sg16
I00
sg127
(F-150.58591664276975
F-83.467517285179014
F1.1108358977303192
tp136
sg129
(lp137
F3.6711123773236727
asg13
g1
sg115
g8
((lp138
g117
atRp139
sg57
g8
((lp140
g77
ag69
atRp141
sg47
I00
sbatRp142
sg3
g105
sg40
I00
sg41
Nsg42
g103
sg48
g49
sg126
I0
sg15
S'N'
sg16
I00
sg127
(F-175.32598935319493
F-40.018949388876386
F1.4350227163691269
tp143
sg129
(lp144
sg13
g1
sg115
g8
((lp145
g117
atRp146
sg57
g8
((lp147
g81
ag77
atRp148
sg47
I00
sbag23
atRp149
sg3
g90
sg40
I00
sg41
Nsg42
g88
sg48
g49
sg126
I0
sg15
S'C'
sg16
I00
sg127
(F-150.06895308583924
F3.1302881247076684
F2.6045113417194776
tp150
sg129
(lp151
F5.7654451964524878
asg13
g1
sg115
g8
((lp152
g117
atRp153
sg57
g8
((lp154
g81
ag65
atRp155
sg47
I00
sbatRp156
sg3
g100
sg40
I00
sg41
Nsg42
g98
sg48
g49
sg126
I0
sg15
S'C'
sg16
I00
sg127
(F-100.07349653033175
F2.8430760931271024
F1.2222218291499143
tp157
sg129
(lp158
F0.52924823261605791
asg13
g1
sg115
g8
((lp159
g117
atRp160
sg57
g8
((lp161
g73
ag65
atRp162
sg47
I00
sbag35
atRp163
sg3
g12
sg40
I00
sg41
Nsg42
g10
sg48
g49
sg126
I0
sg15
S'N'
sg16
I00
sg127
(F-75.309563026029906
F-40.604841714841825
F1.053485736423152
tp164
sg129
(lp165
sg13
g1
sg115
g8
((lp166
g117
atRp167
sg57
g8
((lp168
g73
ag59
atRp169
sg47
I00
sbatRp170
sg47
I00
sbag88
ag43
ag93
ag98
ag103
atRp171
sS'ccpMolType'
p172
S'other'
p173
sS'details'
p174
V
sg86
(dp175
g105
g103
sg39
g43
sg95
g93
sg12
g10
sg90
g88
sg100
g98
ssS'keywords'
p176
g8
((ltRp177
sg115
g8
((lp178
g117
atRp179
sS'variants'
p180
g8
((lp181
g49
atRp182
sS'defaultVars'
p183
g8
((ltRp184
sb.