(iccpnmr.chemBuild.model.Compound
Compound
p1
(dp2
S'name'
p3
VUnnamed
p4
sS'isModified'
p5
I01
sS'ccpCode'
p6
NsS'atoms'
p7
c__builtin__
set
p8
((lp9
(iccpnmr.chemBuild.model.Atom
Atom
p10
(dp11
g3
S'HO4'
p12
sS'compound'
p13
g1
sS'baseValences'
p14
I1
sS'element'
p15
S'H'
sS'isVariable'
p16
I00
sS'varAtoms'
p17
g8
((lp18
(iccpnmr.chemBuild.model.VarAtom
VarAtom
p19
(dp20
S'stereo'
p21
(lp22
sS'neighbours'
p23
g8
((lp24
(iccpnmr.chemBuild.model.VarAtom
VarAtom
p25
(dp26
g21
(lp27
sg23
g8
((lp28
(iccpnmr.chemBuild.model.VarAtom
VarAtom
p29
(dp30
g21
(lp31
sg23
g8
((lp32
g25
a(iccpnmr.chemBuild.model.VarAtom
VarAtom
p33
(dp34
g21
(lp35
sg23
g8
((lp36
g29
a(iccpnmr.chemBuild.model.VarAtom
VarAtom
p37
(dp38
g21
(lp39
sg23
g8
((lp40
g33
atRp41
sg3
S'H5'
p42
sS'isLabile'
p43
I00
sS'chirality'
p44
Nsg13
g1
sS'variant'
p45
(iccpnmr.chemBuild.model.Variant
Variant
p46
(dp47
S'elementDict'
p48
(dp49
S'H'
g8
((lp50
(iccpnmr.chemBuild.model.VarAtom
VarAtom
p51
(dp52
g21
(lp53
sg23
g8
((lp54
(iccpnmr.chemBuild.model.VarAtom
VarAtom
p55
(dp56
g21
(lp57
sg23
g8
((lp58
g51
ag33
a(iccpnmr.chemBuild.model.VarAtom
VarAtom
p59
(dp60
g21
(lp61
sg23
g8
((lp62
g55
a(iccpnmr.chemBuild.model.VarAtom
VarAtom
p63
(dp64
g21
(lp65
sg23
g8
((lp66
g59
atRp67
sg3
VHO6
p68
sg43
I01
sg44
Nsg13
g1
sg45
g46
sS'charge'
p69
I0
sg15
S'H'
sg16
I00
sS'coords'
p70
(F-199.14606535897295
F-31.108553317166219
F0
tp71
sS'freeValences'
p72
(lp73
sS'atom'
p74
(iccpnmr.chemBuild.model.Atom
Atom
p75
(dp76
g3
g68
sg13
g1
sg14
I1
sg15
S'H'
sg16
I00
sg17
g8
((lp77
g63
atRp78
sS'isDeleted'
p79
I00
sbsS'atomGroups'
p80
g8
((ltRp81
sS'bonds'
p82
g8
((lp83
(iccpnmr.chemBuild.model.Bond
Bond
p84
(dp85
S'bondType'
p86
S'single'
p87
sS'direction'
p88
Nsg13
g1
sg45
g46
sg17
g8
((lp89
g63
ag59
atRp90
sbatRp91
sg79
I00
sbatRp92
sg3
VO6
p93
sg43
I00
sg44
Nsg13
g1
sg45
g46
sg69
I0
sg15
S'O'
sg16
I00
sg70
(F-166.68266206809562
F-50.898916134404352
F0
tp94
sg72
(lp95
sg74
(iccpnmr.chemBuild.model.Atom
Atom
p96
(dp97
g3
g93
sg13
g1
sg14
I2
sg15
S'O'
sg16
I00
sg17
g8
((lp98
g59
atRp99
sg79
I00
sbsg80
g8
((ltRp100
sg82
g8
((lp101
(iccpnmr.chemBuild.model.Bond
Bond
p102
(dp103
g86
g87
sg88
Nsg13
g1
sg45
g46
sg17
g8
((lp104
g55
ag59
atRp105
sbag84
atRp106
sg79
I00
sba(iccpnmr.chemBuild.model.VarAtom
VarAtom
p107
(dp108
g21
(lp109
sg23
g8
((lp110
g55
atRp111
sg3
VH62
p112
sg43
I00
sg44
Nsg13
g1
sg45
g46
sg69
I0
sg15
S'H'
sg16
I00
sg70
(F-156.87257064031141
F-104.18937219515639
F0
tp113
sg72
(lp114
sg74
(iccpnmr.chemBuild.model.Atom
Atom
p115
(dp116
g3
g112
sg13
g1
sg14
I1
sg15
S'H'
sg16
I00
sg17
g8
((lp117
g107
atRp118
sg79
I00
sbsg80
g8
((lp119
(iccpnmr.chemBuild.model.AtomGroup
AtomGroup
p120
(dp121
S'groupType'
p122
S'prochiral'
p123
sS'subGroups'
p124
g8
((ltRp125
sg17
g8
((lp126
g51
ag107
atRp127
sg45
g46
sg13
g1
sbatRp128
sg82
g8
((lp129
(iccpnmr.chemBuild.model.Bond
Bond
p130
(dp131
g86
g87
sg88
Nsg13
g1
sg45
g46
sg17
g8
((lp132
g55
ag107
atRp133
sbatRp134
sg79
I00
sbatRp135
sg3
S'C6'
p136
sg43
I00
sg44
Nsg13
g1
sg45
g46
sg69
I0
sg15
S'C'
sg16
I00
sg70
(F-125.48045018324768
F-81.270135212717861
F0
tp137
sg72
(lp138
sg74
(iccpnmr.chemBuild.model.Atom
Atom
p139
(dp140
g3
g136
sg13
g1
sg14
I4
sg15
S'C'
sg16
I00
sg17
g8
((lp141
g55
atRp142
sg79
I00
sbsg80
g8
((ltRp143
sg82
g8
((lp144
g102
a(iccpnmr.chemBuild.model.Bond
Bond
p145
(dp146
g86
g87
sg88
Nsg13
g1
sg45
g46
sg17
g8
((lp147
g55
ag33
atRp148
sbag130
a(iccpnmr.chemBuild.model.Bond
Bond
p149
(dp150
g86
g87
sg88
Nsg13
g1
sg45
g46
sg17
g8
((lp151
g51
ag55
atRp152
sbatRp153
sg79
I00
sbatRp154
sg3
VH61
p155
sg43
I00
sg44
Nsg13
g1
sg45
g46
sg69
I0
sg15
S'H'
sg16
I00
sg70
(F-109.92947209614169
F-116.74957336135689
F0
tp156
sg72
(lp157
sg74
(iccpnmr.chemBuild.model.Atom
Atom
p158
(dp159
g3
g155
sg13
g1
sg14
I1
sg15
S'H'
sg16
I00
sg17
g8
((lp160
g51
atRp161
sg79
I00
sbsg80
g8
((lp162
g120
atRp163
sg82
g8
((lp164
g149
atRp165
sg79
I00
sba(iccpnmr.chemBuild.model.VarAtom
VarAtom
p166
(dp167
g21
(lp168
sg23
g8
((lp169
g29
atRp170
sg3
S'H4'
p171
sg43
I00
sg44
Nsg13
g1
sg45
g46
sg69
I0
sg15
S'H'
sg16
I00
sg70
(F-115.49286471430091
F-9.7350157581859023
F0
tp172
sg72
(lp173
sg74
(iccpnmr.chemBuild.model.Atom
Atom
p174
(dp175
g3
g171
sg13
g1
sg14
I1
sg15
S'H'
sg16
I00
sg17
g8
((lp176
g166
atRp177
sg79
I00
sbsg80
g8
((ltRp178
sg82
g8
((lp179
(iccpnmr.chemBuild.model.Bond
Bond
p180
(dp181
g86
g87
sg88
Nsg13
g1
sg45
g46
sg17
g8
((lp182
g29
ag166
atRp183
sbatRp184
sg79
I00
sba(iccpnmr.chemBuild.model.VarAtom
VarAtom
p185
(dp186
g21
(lp187
sg23
g8
((lp188
(iccpnmr.chemBuild.model.VarAtom
VarAtom
p189
(dp190
g21
(lp191
sg23
g8
((lp192
(iccpnmr.chemBuild.model.VarAtom
VarAtom
p193
(dp194
g21
(lp195
sg23
g8
((lp196
(iccpnmr.chemBuild.model.VarAtom
VarAtom
p197
(dp198
g21
(lp199
sg23
g8
((lp200
g193
atRp201
sg3
S'H2'
p202
sg43
I00
sg44
Nsg13
g1
sg45
g46
sg69
I0
sg15
S'H'
sg16
I00
sg70
(F28.736274032726861
F45.073844458215603
F0
tp203
sg72
(lp204
sg74
(iccpnmr.chemBuild.model.Atom
Atom
p205
(dp206
g3
g202
sg13
g1
sg14
I1
sg15
S'H'
sg16
I00
sg17
g8
((lp207
g197
atRp208
sg79
I00
sbsg80
g8
((ltRp209
sg82
g8
((lp210
(iccpnmr.chemBuild.model.Bond
Bond
p211
(dp212
g86
g87
sg88
Nsg13
g1
sg45
g46
sg17
g8
((lp213
g197
ag193
atRp214
sbatRp215
sg79
I00
sbag189
a(iccpnmr.chemBuild.model.VarAtom
VarAtom
p216
(dp217
g21
(lp218
sg23
g8
((lp219
(iccpnmr.chemBuild.model.VarAtom
VarAtom
p220
(dp221
g21
(lp222
sg23
g8
((lp223
g216
atRp224
sg3
S'HO2'
p225
sg43
I01
sg44
Nsg13
g1
sg45
g46
sg69
I0
sg15
S'H'
sg16
I00
sg70
(F102.59171882776695
F23.733388388002659
F0
tp226
sg72
(lp227
sg74
(iccpnmr.chemBuild.model.Atom
Atom
p228
(dp229
g3
g225
sg13
g1
sg14
I1
sg15
S'H'
sg16
I00
sg17
g8
((lp230
g220
atRp231
sg79
I00
sbsg80
g8
((ltRp232
sg82
g8
((lp233
(iccpnmr.chemBuild.model.Bond
Bond
p234
(dp235
g86
g87
sg88
Nsg13
g1
sg45
g46
sg17
g8
((lp236
g220
ag216
atRp237
sbatRp238
sg79
I00
sbag193
atRp239
sg3
S'O2'
p240
sg43
I00
sg44
Nsg13
g1
sg45
g46
sg69
I0
sg15
S'O'
sg16
I00
sg70
(F65.879824387088831
F13.790571380660621
F0
tp241
sg72
(lp242
sg74
(iccpnmr.chemBuild.model.Atom
Atom
p243
(dp244
g3
g240
sg13
g1
sg14
I2
sg15
S'O'
sg16
I00
sg17
g8
((lp245
g216
atRp246
sg79
I00
sbsg80
g8
((ltRp247
sg82
g8
((lp248
(iccpnmr.chemBuild.model.Bond
Bond
p249
(dp250
g86
g87
sg88
Nsg13
g1
sg45
g46
sg17
g8
((lp251
g216
ag193
atRp252
sbag234
atRp253
sg79
I00
sba(iccpnmr.chemBuild.model.VarAtom
VarAtom
p254
(dp255
g21
(lp256
sg23
g8
((lp257
g29
ag193
a(iccpnmr.chemBuild.model.VarAtom
VarAtom
p258
(dp259
g21
(lp260
sg23
g8
((lp261
(iccpnmr.chemBuild.model.VarAtom
VarAtom
p262
(dp263
g21
(lp264
sg23
g8
((lp265
g258
atRp266
sg3
S'HO3'
p267
sg43
I01
sg44
Nsg13
g1
sg45
g46
sg69
I0
sg15
S'H'
sg16
I00
sg70
(F-10.719227312526286
F117.00974345383837
F0
tp268
sg72
(lp269
sg74
(iccpnmr.chemBuild.model.Atom
Atom
p270
(dp271
g3
g267
sg13
g1
sg14
I1
sg15
S'H'
sg16
I00
sg17
g8
((lp272
g262
atRp273
sg79
I00
sbsg80
g8
((ltRp274
sg82
g8
((lp275
(iccpnmr.chemBuild.model.Bond
Bond
p276
(dp277
g86
g87
sg88
Nsg13
g1
sg45
g46
sg17
g8
((lp278
g258
ag262
atRp279
sbatRp280
sg79
I00
sbag254
atRp281
sg3
S'O3'
p282
sg43
I00
sg44
Nsg13
g1
sg45
g46
sg69
I0
sg15
S'O'
sg16
I00
sg70
(F-17.901192189850363
F79.591489119506463
F0
tp283
sg72
(lp284
sg74
(iccpnmr.chemBuild.model.Atom
Atom
p285
(dp286
g3
g282
sg13
g1
sg14
I2
sg15
S'O'
sg16
I00
sg17
g8
((lp287
g258
atRp288
sg79
I00
sbsg80
g8
((ltRp289
sg82
g8
((lp290
(iccpnmr.chemBuild.model.Bond
Bond
p291
(dp292
g86
g87
sg88
Nsg13
g1
sg45
g46
sg17
g8
((lp293
g258
ag254
atRp294
sbag276
atRp295
sg79
I00
sba(iccpnmr.chemBuild.model.VarAtom
VarAtom
p296
(dp297
g21
(lp298
sg23
g8
((lp299
g254
atRp300
sg3
S'H3'
p301
sg43
I00
sg44
Nsg13
g1
sg45
g46
sg69
I0
sg15
S'H'
sg16
I00
sg70
(F-60.01405249459561
F56.682895505020504
F0
tp302
sg72
(lp303
sg74
(iccpnmr.chemBuild.model.Atom
Atom
p304
(dp305
g3
g301
sg13
g1
sg14
I1
sg15
S'H'
sg16
I00
sg17
g8
((lp306
g296
atRp307
sg79
I00
sbsg80
g8
((ltRp308
sg82
g8
((lp309
(iccpnmr.chemBuild.model.Bond
Bond
p310
(dp311
g86
g87
sg88
Nsg13
g1
sg45
g46
sg17
g8
((lp312
g296
ag254
atRp313
sbatRp314
sg79
I00
sbatRp315
sg3
S'C3'
p316
sg43
I00
sg44
Nsg13
g1
sg45
g46
sg69
I0
sg15
S'C'
sg16
I00
sg70
(F-32.748288577273073
F30.301437562385331
F0
tp317
sg72
(lp318
sg74
(iccpnmr.chemBuild.model.Atom
Atom
p319
(dp320
g3
g316
sg13
g1
sg14
I4
sg15
S'C'
sg16
I00
sg17
g8
((lp321
g254
atRp322
sg79
I00
sbsg80
g8
((ltRp323
sg82
g8
((lp324
g291
ag310
a(iccpnmr.chemBuild.model.Bond
Bond
p325
(dp326
g86
g87
sg88
Nsg13
g1
sg45
g46
sg17
g8
((lp327
g193
ag254
atRp328
sba(iccpnmr.chemBuild.model.Bond
Bond
p329
(dp330
g86
g87
sg88
Nsg13
g1
sg45
g46
sg17
g8
((lp331
g29
ag254
atRp332
sbatRp333
sg79
I00
sbatRp334
sg3
S'C2'
p335
sg43
I00
sg44
Nsg13
g1
sg45
g46
sg69
I0
sg15
S'C'
sg16
I00
sg70
(F14.873697312831077
F9.6485560368205778
F0
tp336
sg72
(lp337
sg74
(iccpnmr.chemBuild.model.Atom
Atom
p338
(dp339
g3
g335
sg13
g1
sg14
I4
sg15
S'C'
sg16
I00
sg17
g8
((lp340
g193
atRp341
sg79
I00
sbsg80
g8
((ltRp342
sg82
g8
((lp343
g211
ag249
ag325
a(iccpnmr.chemBuild.model.Bond
Bond
p344
(dp345
g86
g87
sg88
Nsg13
g1
sg45
g46
sg17
g8
((lp346
g189
ag193
atRp347
sbatRp348
sg79
I00
sbag185
a(iccpnmr.chemBuild.model.VarAtom
VarAtom
p349
(dp350
g21
(lp351
sg23
g8
((lp352
g189
ag33
atRp353
sg3
VO5
p354
sg43
I00
sg44
Nsg13
g1
sg45
g46
sg69
I0
sg15
S'O'
sg16
I00
sg70
(F-29.32474518319291
F-61.232510577499724
F0
tp355
sg72
(lp356
sg74
(iccpnmr.chemBuild.model.Atom
Atom
p357
(dp358
g3
g354
sg13
g1
sg14
I2
sg15
S'O'
sg16
I00
sg17
g8
((lp359
g349
atRp360
sg79
I00
sbsg80
g8
((ltRp361
sg82
g8
((lp362
(iccpnmr.chemBuild.model.Bond
Bond
p363
(dp364
g86
g87
sg88
Nsg13
g1
sg45
g46
sg17
g8
((lp365
g349
ag33
atRp366
sba(iccpnmr.chemBuild.model.Bond
Bond
p367
(dp368
g86
g87
sg88
Nsg13
g1
sg45
g46
sg17
g8
((lp369
g189
ag349
atRp370
sbatRp371
sg79
I00
sba(iccpnmr.chemBuild.model.VarAtom
VarAtom
p372
(dp373
g21
(lp374
sg23
g8
((lp375
g189
a(iccpnmr.chemBuild.model.VarAtom
VarAtom
p376
(dp377
g21
(lp378
sg23
g8
((lp379
g372
atRp380
sg3
S'HO1'
p381
sg43
I01
sg44
Nsg13
g1
sg45
g46
sg69
I0
sg15
S'H'
sg16
I00
sg70
(F102.85726833299881
F-76.283425216395358
F0
tp382
sg72
(lp383
sg74
(iccpnmr.chemBuild.model.Atom
Atom
p384
(dp385
g3
g381
sg13
g1
sg14
I1
sg15
S'H'
sg16
I00
sg17
g8
((lp386
g376
atRp387
sg79
I00
sbsg80
g8
((ltRp388
sg82
g8
((lp389
(iccpnmr.chemBuild.model.Bond
Bond
p390
(dp391
g86
g87
sg88
Nsg13
g1
sg45
g46
sg17
g8
((lp392
g376
ag372
atRp393
sbatRp394
sg79
I00
sbatRp395
sg3
S'O1'
p396
sg43
I00
sg44
Nsg13
g1
sg45
g46
sg69
I0
sg15
S'O'
sg16
I00
sg70
(F68.039188723441612
F-61.108452689878021
F0
tp397
sg72
(lp398
sg74
(iccpnmr.chemBuild.model.Atom
Atom
p399
(dp400
g3
g396
sg13
g1
sg14
I2
sg15
S'O'
sg16
I00
sg17
g8
((lp401
g372
atRp402
sg79
I00
sbsg80
g8
((ltRp403
sg82
g8
((lp404
(iccpnmr.chemBuild.model.Bond
Bond
p405
(dp406
g86
g87
sg88
Nsg13
g1
sg45
g46
sg17
g8
((lp407
g189
ag372
atRp408
sbag390
atRp409
sg79
I00
sbatRp410
sg3
S'C1'
p411
sg43
I00
sg44
Nsg13
g1
sg45
g46
sg69
I0
sg15
S'C'
sg16
I00
sg70
(F20.871490908320361
F-41.441034471995088
F0
tp412
sg72
(lp413
sg74
(iccpnmr.chemBuild.model.Atom
Atom
p414
(dp415
g3
g411
sg13
g1
sg14
I4
sg15
S'C'
sg16
I00
sg17
g8
((lp416
g189
atRp417
sg79
I00
sbsg80
g8
((ltRp418
sg82
g8
((lp419
g405
a(iccpnmr.chemBuild.model.Bond
Bond
p420
(dp421
g86
g87
sg88
Nsg13
g1
sg45
g46
sg17
g8
((lp422
g189
ag185
atRp423
sbag344
ag367
atRp424
sg79
I00
sbatRp425
sg3
S'H1'
p426
sg43
I00
sg44
Nsg13
g1
sg45
g46
sg69
I0
sg15
S'H'
sg16
I00
sg70
(F15.949789266301615
F-79.478507475226138
F0
tp427
sg72
(lp428
sg74
(iccpnmr.chemBuild.model.Atom
Atom
p429
(dp430
g3
g426
sg13
g1
sg14
I1
sg15
S'H'
sg16
I00
sg17
g8
((lp431
g185
atRp432
sg79
I00
sbsg80
g8
((ltRp433
sg82
g8
((lp434
g420
atRp435
sg79
I00
sbag63
ag376
ag197
ag262
ag220
ag19
ag37
ag107
ag296
atRp436
sS'C'
g8
((lp437
g189
ag29
ag33
ag254
ag193
ag55
atRp438
sS'O'
g8
((lp439
g216
ag258
ag25
ag59
ag349
ag372
atRp440
ssg82
g8
((lp441
g102
ag180
ag145
a(iccpnmr.chemBuild.model.Bond
Bond
p442
(dp443
g86
g87
sg88
Nsg13
g1
sg45
g46
sg17
g8
((lp444
g29
ag33
atRp445
sbag291
ag420
ag130
a(iccpnmr.chemBuild.model.Bond
Bond
p446
(dp447
g86
g87
sg88
Nsg13
g1
sg45
g46
sg17
g8
((lp448
g37
ag33
atRp449
sbag390
ag405
ag84
ag149
ag276
ag211
ag367
ag310
ag344
ag329
ag249
ag325
a(iccpnmr.chemBuild.model.Bond
Bond
p450
(dp451
g86
g87
sg88
Nsg13
g1
sg45
g46
sg17
g8
((lp452
g25
ag19
atRp453
sbag234
ag363
a(iccpnmr.chemBuild.model.Bond
Bond
p454
(dp455
g86
g87
sg88
Nsg13
g1
sg45
g46
sg17
g8
((lp456
g29
ag25
atRp457
sbatRp458
sg13
g1
sS'atomDict'
p459
(dp460
g10
g19
s(iccpnmr.chemBuild.model.Atom
Atom
p461
(dp462
g3
g42
sg13
g1
sg14
I1
sg15
S'H'
sg16
I00
sg17
g8
((lp463
g37
atRp464
sg79
I00
sbg37
sg158
g51
sg75
g63
sg429
g185
sg399
g372
sg174
g166
sg285
g258
s(iccpnmr.chemBuild.model.Atom
Atom
p465
(dp466
g3
S'O4'
p467
sg13
g1
sg14
I2
sg15
S'O'
sg16
I00
sg17
g8
((lp468
g25
atRp469
sg79
I00
sbg25
sg96
g59
sg205
g197
sg357
g349
sg304
g296
sg139
g55
sg270
g262
sg243
g216
sg338
g193
sg228
g220
s(iccpnmr.chemBuild.model.Atom
Atom
p470
(dp471
g3
S'C4'
p472
sg13
g1
sg14
I4
sg15
S'C'
sg16
I00
sg17
g8
((lp473
g29
atRp474
sg79
I00
sbg29
sg414
g189
sg319
g254
sg115
g107
sg384
g376
s(iccpnmr.chemBuild.model.Atom
Atom
p475
(dp476
g3
S'C5'
p477
sg13
g1
sg14
I4
sg15
S'C'
sg16
I00
sg17
g8
((lp478
g33
atRp479
sg79
I00
sbg33
ssS'descriptor'
p480
(S'neutral'
p481
S'none'
p482
S'default'
p483
tp484
sg17
g8
((lp485
g63
ag197
ag19
ag55
ag372
ag216
ag258
ag25
ag59
ag37
ag349
ag296
ag29
ag33
ag166
ag185
ag193
ag220
ag189
ag254
ag376
ag51
ag262
ag107
atRp486
sg80
g8
((lp487
g120
atRp488
sS'polyLink'
p489
S'free'
p490
sbsg69
I0
sg15
S'H'
sg16
I00
sg70
(F-62.064917854964328
F-84.895599298917745
F0
tp491
sg72
(lp492
sg74
g461
sg80
g8
((ltRp493
sg82
g8
((lp494
g446
atRp495
sg79
I00
sbag349
ag55
atRp496
sg3
g477
sg43
I00
sg44
Nsg13
g1
sg45
g46
sg69
I0
sg15
S'C'
sg16
I00
sg70
(F-79.898991768810902
F-50.956476823075789
F0
tp497
sg72
(lp498
sg74
g475
sg80
g8
((ltRp499
sg82
g8
((lp500
g446
ag363
ag145
ag442
atRp501
sg79
I00
sbag254
ag166
atRp502
sg3
g472
sg43
I00
sg44
Nsg13
g1
sg45
g46
sg69
I0
sg15
S'C'
sg16
I00
sg70
(F-79.112070729374665
F0.995754093843777
F0
tp503
sg72
(lp504
sg74
g470
sg80
g8
((ltRp505
sg82
g8
((lp506
g454
ag329
ag180
ag442
atRp507
sg79
I00
sbag19
atRp508
sg3
g467
sg43
I00
sg44
Nsg13
g1
sg45
g46
sg69
I0
sg15
S'O'
sg16
I00
sg70
(F-113.92702754179606
F38.936070091357557
F0
tp509
sg72
(lp510
sg74
g465
sg80
g8
((ltRp511
sg82
g8
((lp512
g450
ag454
atRp513
sg79
I00
sbatRp514
sg3
g12
sg43
I01
sg44
Nsg13
g1
sg45
g46
sg69
I0
sg15
S'H'
sg16
I00
sg70
(F-141.25077823882287
F65.485182702302367
F0
tp515
sg72
(lp516
sg74
g10
sg80
g8
((ltRp517
sg82
g8
((lp518
g450
atRp519
sg79
I00
sbatRp520
sg79
I00
sbag461
ag158
ag75
ag429
ag399
ag174
ag285
ag465
ag96
ag205
ag357
ag304
ag139
ag270
ag243
ag338
ag228
ag470
ag414
ag319
ag115
ag384
ag475
atRp521
sS'ccpMolType'
p522
S'other'
p523
sS'details'
p524
V
sg459
(dp525
g472
g470
sg93
g96
sg354
g357
sg467
g465
sg282
g285
sg240
g243
sg396
g399
sg68
g75
sg12
g10
sg225
g228
sg267
g270
sg381
g384
sg316
g319
sg335
g338
sg411
g414
sg136
g139
sg477
g475
sg202
g205
sg301
g304
sg426
g429
sg171
g174
sg42
g461
sg155
g158
sg112
g115
ssS'keywords'
p526
g8
((ltRp527
sg80
g8
((lp528
g120
atRp529
sS'variants'
p530
g8
((lp531
g46
atRp532
sS'defaultVars'
p533
g8
((ltRp534
sb.