(imodel.Compound
Compound
p1
(dp2
S'name'
p3
S'Unnamed'
p4
sS'isModified'
p5
I00
sS'ccpCode'
p6
NsS'atoms'
p7
c__builtin__
set
p8
((lp9
(imodel.Atom
Atom
p10
(dp11
g3
S'HO1'
p12
sS'compound'
p13
g1
sS'element'
p14
S'H'
sS'isVariable'
p15
I00
sS'varAtoms'
p16
g8
((lp17
(imodel.VarAtom
VarAtom
p18
(dp19
g3
g12
sS'isLabile'
p20
I01
sS'chirality'
p21
NsS'atom'
p22
g10
sS'variant'
p23
(imodel.Variant
Variant
p24
(dp25
S'elementDict'
p26
(dp27
S'H'
g8
((lp28
(imodel.VarAtom
VarAtom
p29
(dp30
S'neighbours'
p31
g8
((lp32
(imodel.VarAtom
VarAtom
p33
(dp34
g3
S'C5'
p35
sg20
I00
sg21
Nsg22
(imodel.Atom
Atom
p36
(dp37
g3
g35
sg13
g1
sg14
S'C'
sg15
I00
sg16
g8
((lp38
g33
atRp39
sS'isDeleted'
p40
I00
sbsg23
g24
sS'neighbours'
p41
g8
((lp42
(imodel.VarAtom
VarAtom
p43
(dp44
g31
g8
((lp45
g33
atRp46
sS'name'
p47
VH51
p48
sS'isLabile'
p49
I00
sS'chirality'
p50
NsS'atom'
p51
(imodel.Atom
Atom
p52
(dp53
g47
g48
sS'compound'
p54
g1
sS'element'
p55
S'H'
sS'isVariable'
p56
I00
sS'varAtoms'
p57
g8
((lp58
g43
atRp59
sS'isDeleted'
p60
I00
sbsS'variant'
p61
g24
sS'charge'
p62
I0
sg55
S'H'
sg56
I00
sS'coords'
p63
(F124.86932228708409
F112.72887474016655
F1.3099351017851277
tp64
sS'freeValences'
p65
(lp66
sg54
g1
sS'atomGroups'
p67
g8
((lp68
(imodel.AtomGroup
AtomGroup
p69
(dp70
S'groupType'
p71
S'prochiral'
p72
sS'subGroups'
p73
g8
((ltRp74
sg57
g8
((lp75
g43
ag29
atRp76
sg61
g24
sg54
g1
sbatRp77
sS'bonds'
p78
g8
((lp79
(imodel.Bond
Bond
p80
(dp81
S'bondType'
p82
S'single'
p83
sg54
g1
sg61
g24
sg57
g8
((lp84
g33
ag43
atRp85
sbatRp86
sg60
I00
sbag29
a(imodel.VarAtom
VarAtom
p87
(dp88
g31
g8
((lp89
g33
a(imodel.VarAtom
VarAtom
p90
(dp91
g31
g8
((lp92
g87
atRp93
sg47
VHO5
p94
sg49
I01
sg50
Nsg51
(imodel.Atom
Atom
p95
(dp96
g47
g94
sg54
g1
sg55
S'H'
sg56
I00
sg57
g8
((lp97
g90
atRp98
sg60
I00
sbsg61
g24
sg62
I0
sg55
S'H'
sg56
I00
sg63
(F32.965516102966703
F131.09994743889621
F1.5632165784174701
tp99
sg65
(lp100
sg54
g1
sg67
g8
((ltRp101
sg78
g8
((lp102
(imodel.Bond
Bond
p103
(dp104
g82
g83
sg54
g1
sg61
g24
sg57
g8
((lp105
g87
ag90
atRp106
sbatRp107
sg60
I00
sbatRp108
sg47
VO5
p109
sg49
I00
sg50
Nsg51
(imodel.Atom
Atom
p110
(dp111
g47
g109
sg54
g1
sg55
S'O'
sg56
I00
sg57
g8
((lp112
g87
atRp113
sg60
I00
sbsg61
g24
sg62
I0
sg55
S'O'
sg56
I00
sg63
(F70.828040306834708
F134.80611730485262
F1.285870844775451
tp114
sg65
(lp115
sg54
g1
sg67
g8
((ltRp116
sg78
g8
((lp117
(imodel.Bond
Bond
p118
(dp119
g82
g83
sg54
g1
sg61
g24
sg57
g8
((lp120
g33
ag87
atRp121
sbag103
atRp122
sg60
I00
sba(imodel.VarAtom
VarAtom
p123
(dp124
g3
S'C4'
p125
sg20
I00
sg21
Nsg22
(imodel.Atom
Atom
p126
(dp127
g3
g125
sg13
g1
sg14
S'C'
sg15
I00
sg16
g8
((lp128
g123
atRp129
sg40
I00
sbsg23
g24
sg41
g8
((lp130
(imodel.VarAtom
VarAtom
p131
(dp132
g3
VO4
p133
sg20
I00
sg21
Nsg22
(imodel.Atom
Atom
p134
(dp135
g3
g133
sg13
g1
sg14
S'O'
sg15
I00
sg16
g8
((lp136
g131
atRp137
sg40
I00
sbsg23
g24
sg41
g8
((lp138
(imodel.VarAtom
VarAtom
p139
(dp140
g3
S'C1'
p141
sg20
I00
sg21
Nsg22
(imodel.Atom
Atom
p142
(dp143
g3
g141
sg13
g1
sg14
S'C'
sg15
I00
sg16
g8
((lp144
g139
atRp145
sg40
I00
sbsg23
g24
sg41
g8
((lp146
(imodel.VarAtom
VarAtom
p147
(dp148
g3
S'H1'
p149
sg20
I00
sg21
Nsg22
(imodel.Atom
Atom
p150
(dp151
g3
g149
sg13
g1
sg14
S'H'
sg15
I00
sg16
g8
((lp152
g147
atRp153
sg40
I00
sbsg23
g24
sg41
g8
((lp154
g139
atRp155
sg14
S'H'
sS'charge'
p156
I0
sg15
I00
sS'coords'
p157
(F275.01909802051318
F161.63699668981442
F1.6719832104738888
tp158
sS'freeValences'
p159
(lp160
sg13
g1
sS'atomGroups'
p161
g8
((ltRp162
sS'bonds'
p163
g8
((lp164
(imodel.Bond
Bond
p165
(dp166
g13
g1
sS'bondType'
p167
S'single'
p168
sg23
g24
sg16
g8
((lp169
g139
ag147
atRp170
sbatRp171
sg40
I00
sba(imodel.VarAtom
VarAtom
p172
(dp173
g3
S'O1'
p174
sg20
I00
sg21
Nsg22
(imodel.Atom
Atom
p175
(dp176
g3
g174
sg13
g1
sg14
S'O'
sg15
I00
sg16
g8
((lp177
g172
atRp178
sg40
I00
sbsg23
g24
sg41
g8
((lp179
g139
ag18
atRp180
sg14
S'O'
sg156
I0
sg15
I00
sg157
(F312.17739297733368
F206.0617364121602
F1.2632465382640614
tp181
sg159
(lp182
sg13
g1
sg161
g8
((ltRp183
sg163
g8
((lp184
(imodel.Bond
Bond
p185
(dp186
g13
g1
sg167
g168
sg23
g24
sg16
g8
((lp187
g139
ag172
atRp188
sba(imodel.Bond
Bond
p189
(dp190
g13
g1
sg167
g168
sg23
g24
sg16
g8
((lp191
g172
ag18
atRp192
sbatRp193
sg40
I00
sba(imodel.VarAtom
VarAtom
p194
(dp195
g3
S'C2'
p196
sg20
I00
sg21
Nsg22
(imodel.Atom
Atom
p197
(dp198
g3
g196
sg13
g1
sg14
S'C'
sg15
I00
sg16
g8
((lp199
g194
atRp200
sg40
I00
sbsg23
g24
sg41
g8
((lp201
(imodel.VarAtom
VarAtom
p202
(dp203
g3
S'O2'
p204
sg20
I00
sg21
Nsg22
(imodel.Atom
Atom
p205
(dp206
g3
g204
sg13
g1
sg14
S'O'
sg15
I00
sg16
g8
((lp207
g202
atRp208
sg40
I00
sbsg23
g24
sg41
g8
((lp209
g194
a(imodel.VarAtom
VarAtom
p210
(dp211
g3
S'HO2'
p212
sg20
I01
sg21
Nsg22
(imodel.Atom
Atom
p213
(dp214
g3
g212
sg13
g1
sg14
S'H'
sg15
I00
sg16
g8
((lp215
g210
atRp216
sg40
I00
sbsg23
g24
sg41
g8
((lp217
g202
atRp218
sg14
S'H'
sg156
I0
sg15
I00
sg157
(F292.08467002567096
F298.73325160586319
F1.6940900062228521
tp219
sg159
(lp220
sg13
g1
sg161
g8
((ltRp221
sg163
g8
((lp222
(imodel.Bond
Bond
p223
(dp224
g13
g1
sg167
g168
sg23
g24
sg16
g8
((lp225
g202
ag210
atRp226
sbatRp227
sg40
I00
sbatRp228
sg14
S'O'
sg156
I0
sg15
I00
sg157
(F267.60977845774994
F269.64699364930425
F1.0260389474952194
tp229
sg159
(lp230
sg13
g1
sg161
g8
((ltRp231
sg163
g8
((lp232
(imodel.Bond
Bond
p233
(dp234
g13
g1
sg167
g168
sg23
g24
sg16
g8
((lp235
g194
ag202
atRp236
sbag223
atRp237
sg40
I00
sba(imodel.VarAtom
VarAtom
p238
(dp239
g3
S'H2'
p240
sg20
I00
sg21
Nsg22
(imodel.Atom
Atom
p241
(dp242
g3
g240
sg13
g1
sg14
S'H'
sg15
I00
sg16
g8
((lp243
g238
atRp244
sg40
I00
sbsg23
g24
sg41
g8
((lp245
g194
atRp246
sg14
S'H'
sg156
I0
sg15
I00
sg157
(F218.28626827373429
F273.63448919398854
F1.7737084338918643
tp247
sg159
(lp248
sg13
g1
sg161
g8
((ltRp249
sg163
g8
((lp250
(imodel.Bond
Bond
p251
(dp252
g13
g1
sg167
g168
sg23
g24
sg16
g8
((lp253
g194
ag238
atRp254
sbatRp255
sg40
I00
sba(imodel.VarAtom
VarAtom
p256
(dp257
g3
S'C3'
p258
sg20
I00
sg21
Nsg22
(imodel.Atom
Atom
p259
(dp260
g3
g258
sg13
g1
sg14
S'C'
sg15
I00
sg16
g8
((lp261
g256
atRp262
sg40
I00
sbsg23
g24
sg41
g8
((lp263
(imodel.VarAtom
VarAtom
p264
(dp265
g3
S'O3'
p266
sg20
I00
sg21
Nsg22
(imodel.Atom
Atom
p267
(dp268
g3
g266
sg13
g1
sg14
S'O'
sg15
I00
sg16
g8
((lp269
g264
atRp270
sg40
I00
sbsg23
g24
sg41
g8
((lp271
g256
a(imodel.VarAtom
VarAtom
p272
(dp273
g3
S'HO3'
p274
sg20
I01
sg21
Nsg22
(imodel.Atom
Atom
p275
(dp276
g3
g274
sg13
g1
sg14
S'H'
sg15
I00
sg16
g8
((lp277
g272
atRp278
sg40
I00
sbsg23
g24
sg41
g8
((lp279
g264
atRp280
sg14
S'H'
sg156
I0
sg15
I00
sg157
(F141.24208467407138
F305.04249187590995
F0.77931651709727567
tp281
sg159
(lp282
sg13
g1
sg161
g8
((ltRp283
sg163
g8
((lp284
(imodel.Bond
Bond
p285
(dp286
g13
g1
sg167
g168
sg23
g24
sg16
g8
((lp287
g264
ag272
atRp288
sbatRp289
sg40
I00
sbatRp290
sg14
S'O'
sg156
I0
sg15
I00
sg157
(F158.49015201648149
F271.10296075874157
F0.71425397902319698
tp291
sg159
(lp292
sg13
g1
sg161
g8
((ltRp293
sg163
g8
((lp294
(imodel.Bond
Bond
p295
(dp296
g13
g1
sg167
g168
sg23
g24
sg16
g8
((lp297
g256
ag264
atRp298
sbag285
atRp299
sg40
I00
sbag123
a(imodel.VarAtom
VarAtom
p300
(dp301
g3
S'H3'
p302
sg20
I00
sg21
Nsg22
(imodel.Atom
Atom
p303
(dp304
g3
g302
sg13
g1
sg14
S'H'
sg15
I00
sg16
g8
((lp305
g300
atRp306
sg40
I00
sbsg23
g24
sg41
g8
((lp307
g256
atRp308
sg14
S'H'
sg156
I0
sg15
I00
sg157
(F140.01150518955842
F225.4161860445202
F1.6861287526820021
tp309
sg159
(lp310
sg13
g1
sg161
g8
((ltRp311
sg163
g8
((lp312
(imodel.Bond
Bond
p313
(dp314
g13
g1
sg167
g168
sg23
g24
sg16
g8
((lp315
g256
ag300
atRp316
sbatRp317
sg40
I00
sbag194
atRp318
sg14
S'C'
sg156
I0
sg15
I00
sg157
(F178.19310452068132
F223.63773933046207
F0.64961353182334813
tp319
sg159
(lp320
sg13
g1
sg161
g8
((ltRp321
sg163
g8
((lp322
g295
a(imodel.Bond
Bond
p323
(dp324
g13
g1
sg167
g168
sg23
g24
sg16
g8
((lp325
g123
ag256
atRp326
sbag313
a(imodel.Bond
Bond
p327
(dp328
g13
g1
sg167
g168
sg23
g24
sg16
g8
((lp329
g256
ag194
atRp330
sbatRp331
sg40
I00
sbag139
atRp332
sg14
S'C'
sg156
I0
sg15
I00
sg157
(F228.39652946981377
F236.85509606717841
F0.34441866847848623
tp333
sg159
(lp334
sg13
g1
sg161
g8
((ltRp335
sg163
g8
((lp336
g233
a(imodel.Bond
Bond
p337
(dp338
g13
g1
sg167
g168
sg23
g24
sg16
g8
((lp339
g139
ag194
atRp340
sbag327
ag251
atRp341
sg40
I00
sbag131
atRp342
sg14
S'C'
sg156
I0
sg15
I00
sg157
(F261.88928917885812
F197.75019419101773
F1.0600018653112846
tp343
sg159
(lp344
sg13
g1
sg161
g8
((ltRp345
sg163
g8
((lp346
g185
a(imodel.Bond
Bond
p347
(dp348
g13
g1
sg167
g168
sg23
g24
sg16
g8
((lp349
g139
ag131
atRp350
sbag165
ag337
atRp351
sg40
I00
sbag123
atRp352
sg14
S'O'
sg156
I0
sg15
I00
sg157
(F217.58421890183462
F173.6376335423991
F1.2384334431319837
tp353
sg159
(lp354
sg13
g1
sg161
g8
((ltRp355
sg163
g8
((lp356
g347
a(imodel.Bond
Bond
p357
(dp358
g82
g83
sg54
g1
sg61
g24
sg57
g8
((lp359
g123
ag131
atRp360
sbatRp361
sg40
I00
sbag256
ag33
a(imodel.VarAtom
VarAtom
p362
(dp363
g3
S'H4'
p364
sg20
I00
sg21
Nsg22
(imodel.Atom
Atom
p365
(dp366
g3
g364
sg13
g1
sg14
S'H'
sg15
I00
sg16
g8
((lp367
g362
atRp368
sg40
I00
sbsg23
g24
sg41
g8
((lp369
g123
atRp370
sg14
S'H'
sg156
I0
sg15
I00
sg157
(F181.66898954150264
F136.18605639433699
F1.7788448779272632
tp371
sg159
(lp372
sg13
g1
sg161
g8
((ltRp373
sg163
g8
((lp374
(imodel.Bond
Bond
p375
(dp376
g13
g1
sg167
g168
sg23
g24
sg16
g8
((lp377
g123
ag362
atRp378
sbatRp379
sg40
I00
sbatRp380
sg14
S'C'
sg156
I0
sg15
I00
sg157
(F166.9890769233929
F171.88281600553259
F1.6277009357172147
tp381
sg159
(lp382
sg13
g1
sg161
g8
((ltRp383
sg163
g8
((lp384
g357
ag323
ag375
a(imodel.Bond
Bond
p385
(dp386
g82
g83
sg54
g1
sg61
g24
sg57
g8
((lp387
g123
ag33
atRp388
sbatRp389
sg40
I00
sbatRp390
sg14
S'C'
sg156
I0
sg15
I00
sg157
(F119.44318296839825
F150.9301890428107
F2.6571420337480638
tp391
sg159
(lp392
sg13
g1
sg161
g8
((ltRp393
sg163
g8
((lp394
g118
a(imodel.Bond
Bond
p395
(dp396
g82
g83
sg54
g1
sg61
g24
sg57
g8
((lp397
g33
ag29
atRp398
sbag80
ag385
atRp399
sg40
I00
sbatRp400
sg47
VH52
p401
sg49
I00
sg50
Nsg51
(imodel.Atom
Atom
p402
(dp403
g47
g401
sg54
g1
sg55
S'H'
sg56
I00
sg57
g8
((lp404
g29
atRp405
sg60
I00
sbsg61
g24
sg62
I0
sg55
S'H'
sg56
I00
sg63
(F97.013258252579817
F182.17277646713117
F0.63992488950501003
tp406
sg65
(lp407
sg54
g1
sg67
g8
((lp408
g69
atRp409
sg78
g8
((lp410
g395
atRp411
sg60
I00
sbag90
ag43
ag210
ag272
ag300
ag18
ag147
ag238
ag362
atRp412
sS'C'
g8
((lp413
g123
ag33
ag139
ag194
ag256
atRp414
sS'O'
g8
((lp415
g202
ag172
ag87
ag264
ag131
atRp416
ssg163
g8
((lp417
g118
ag347
ag165
ag395
ag223
ag327
ag251
ag103
ag233
ag313
ag185
ag337
ag285
ag189
ag323
ag295
ag385
ag357
ag80
ag375
atRp418
sg13
g1
sS'descriptor'
p419
(S'neutral'
p420
S'none'
p421
S'default'
p422
tp423
sS'atomDict'
p424
(dp425
g10
g18
sg259
g256
sg150
g147
sg275
g272
sg95
g90
sg36
g33
sg365
g362
sg213
g210
sg126
g123
sg241
g238
sg52
g43
sg303
g300
sg110
g87
sg267
g264
sg134
g131
sg197
g194
sg205
g202
sg175
g172
sg142
g139
sg402
g29
ssg16
g8
((lp426
g131
ag264
ag362
ag123
ag194
ag300
ag238
ag139
ag256
ag29
ag202
ag272
ag33
ag90
ag147
ag172
ag43
ag18
ag210
ag87
atRp427
sg161
g8
((lp428
g69
atRp429
sS'polyLink'
p430
g421
sbsg41
g8
((lp431
g172
atRp432
sg14
S'H'
sg156
I0
sg15
I00
sg157
(F349.01283840737898
F215.17198467247078
F1.1458472985585457
tp433
sg159
(lp434
sg13
g1
sg161
g8
((ltRp435
sg163
g8
((lp436
g189
atRp437
sg40
I00
sbatRp438
sg40
I00
sbag259
ag150
ag275
ag95
ag36
ag365
ag213
ag126
ag241
ag52
ag303
ag110
ag267
ag134
ag197
ag205
ag175
ag142
ag402
atRp439
sS'ccpMolType'
p440
S'other'
p441
sS'details'
p442
V
sg424
(dp443
g48
g52
sg109
g110
sg133
g134
sg266
g267
sg204
g205
sg174
g175
sg94
g95
sg212
g213
sg274
g275
sg401
g402
sg12
g10
sg258
g259
sg196
g197
sg141
g142
sg35
g36
sg125
g126
sg240
g241
sg302
g303
sg149
g150
sg364
g365
ssS'keywords'
p444
g8
((ltRp445
sg161
g8
((lp446
g69
atRp447
sS'variants'
p448
g8
((lp449
g24
atRp450
sS'defaultVars'
p451
g8
((ltRp452
sb.