(imodel.Compound
Compound
p1
(dp2
S'name'
p3
VADENOSINE-5'-TRIPHOSPHATE
p4
sS'isModified'
p5
I01
sS'ccpCode'
p6
VAtp
p7
sS'atoms'
p8
c__builtin__
set
p9
((lp10
(imodel.Atom
Atom
p11
(dp12
g3
S'H2'
p13
sS'compound'
p14
g1
sS'baseValences'
p15
I1
sS'element'
p16
S'H'
sS'isVariable'
p17
I00
sS'varAtoms'
p18
g9
((lp19
(imodel.VarAtom
VarAtom
p20
(dp21
g3
g13
sS'isLabile'
p22
I00
sS'chirality'
p23
NsS'atom'
p24
g11
sS'variant'
p25
(imodel.Variant
Variant
p26
(dp27
S'elementDict'
p28
(dp29
S'H'
g9
((lp30
(imodel.VarAtom
VarAtom
p31
(dp32
g3
S"HO3'"
p33
sg22
I01
sg23
Nsg24
(imodel.Atom
Atom
p34
(dp35
g3
g33
sg14
g1
sg15
I1
sg16
S'H'
sg17
I00
sg18
g9
((lp36
g31
atRp37
sS'isDeleted'
p38
I00
sbsg25
g26
sS'neighbours'
p39
g9
((lp40
(imodel.VarAtom
VarAtom
p41
(dp42
g3
S"O3'"
p43
sg22
I00
sg23
Nsg24
(imodel.Atom
Atom
p44
(dp45
g3
g43
sg14
g1
sg15
I2
sg16
S'O'
sg17
I00
sg18
g9
((lp46
g41
atRp47
sg38
I00
sbsg25
g26
sg39
g9
((lp48
g31
a(imodel.VarAtom
VarAtom
p49
(dp50
g3
S"C3'"
p51
sg22
I00
sg23
S'S'
sg24
(imodel.Atom
Atom
p52
(dp53
g3
g51
sg14
g1
sg15
I4
sg16
S'C'
sg17
I00
sg18
g9
((lp54
g49
atRp55
sg38
I00
sbsg25
g26
sg39
g9
((lp56
(imodel.VarAtom
VarAtom
p57
(dp58
g3
S"C4'"
p59
sg22
I00
sg23
S'R'
sg24
(imodel.Atom
Atom
p60
(dp61
g3
g59
sg14
g1
sg15
I4
sg16
S'C'
sg17
I00
sg18
g9
((lp62
g57
atRp63
sg38
I00
sbsg25
g26
sg39
g9
((lp64
g49
a(imodel.VarAtom
VarAtom
p65
(dp66
g3
S"O4'"
p67
sg22
I00
sg23
Nsg24
(imodel.Atom
Atom
p68
(dp69
g3
g67
sg14
g1
sg15
I2
sg16
S'O'
sg17
I00
sg18
g9
((lp70
g65
atRp71
sg38
I00
sbsg25
g26
sg39
g9
((lp72
g57
a(imodel.VarAtom
VarAtom
p73
(dp74
g3
S"C1'"
p75
sg22
I00
sg23
S'R'
sg24
(imodel.Atom
Atom
p76
(dp77
g3
g75
sg14
g1
sg15
I4
sg16
S'C'
sg17
I00
sg18
g9
((lp78
g73
atRp79
sg38
I00
sbsg25
g26
sg39
g9
((lp80
(imodel.VarAtom
VarAtom
p81
(dp82
g3
S"H1'"
p83
sg22
I00
sg23
Nsg24
(imodel.Atom
Atom
p84
(dp85
g3
g83
sg14
g1
sg15
I1
sg16
S'H'
sg17
I00
sg18
g9
((lp86
g81
atRp87
sg38
I00
sbsg25
g26
sg39
g9
((lp88
g73
atRp89
sg16
S'H'
sS'charge'
p90
I0
sg17
I00
sS'coords'
p91
(F274.80385256346352
F411.85844116356179
F-91.213303807618203
tp92
sS'freeValences'
p93
(lp94
sg14
g1
sS'atomGroups'
p95
g9
((ltRp96
sS'bonds'
p97
g9
((lp98
(imodel.Bond
Bond
p99
(dp100
g14
g1
sS'bondType'
p101
S'single'
p102
sg25
g26
sg18
g9
((lp103
g73
ag81
atRp104
sbatRp105
sg38
I00
sbag65
a(imodel.VarAtom
VarAtom
p106
(dp107
g3
S"C2'"
p108
sg22
I00
sg23
S'R'
sg24
(imodel.Atom
Atom
p109
(dp110
g3
g108
sg14
g1
sg15
I4
sg16
S'C'
sg17
I00
sg18
g9
((lp111
g106
atRp112
sg38
I00
sbsg25
g26
sg39
g9
((lp113
(imodel.VarAtom
VarAtom
p114
(dp115
g3
S"O2'"
p116
sg22
I00
sg23
Nsg24
(imodel.Atom
Atom
p117
(dp118
g3
g116
sg14
g1
sg15
I2
sg16
S'O'
sg17
I00
sg18
g9
((lp119
g114
atRp120
sg38
I00
sbsg25
g26
sg39
g9
((lp121
g106
a(imodel.VarAtom
VarAtom
p122
(dp123
g3
S"HO2'"
p124
sg22
I01
sg23
Nsg24
(imodel.Atom
Atom
p125
(dp126
g3
g124
sg14
g1
sg15
I1
sg16
S'H'
sg17
I00
sg18
g9
((lp127
g122
atRp128
sg38
I00
sbsg25
g26
sg39
g9
((lp129
g114
atRp130
sg16
S'H'
sg90
I0
sg17
I00
sg91
(F273.18075914695919
F544.54436944725251
F-6.1957160998927776
tp131
sg93
(lp132
sg14
g1
sg95
g9
((ltRp133
sg97
g9
((lp134
(imodel.Bond
Bond
p135
(dp136
g14
g1
sg101
g102
sg25
g26
sg18
g9
((lp137
g122
ag114
atRp138
sbatRp139
sg38
I00
sbatRp140
sg16
S'O'
sg90
I0
sg17
I00
sg91
(F251.9849380825579
F513.06749801502087
F24.188807777997855
tp141
sg93
(lp142
sg14
g1
sg95
g9
((ltRp143
sg97
g9
((lp144
(imodel.Bond
Bond
p145
(dp146
g14
g1
sg101
g102
sg25
g26
sg18
g9
((lp147
g106
ag114
atRp148
sbag135
atRp149
sg38
I00
sba(imodel.VarAtom
VarAtom
p150
(dp151
g3
S"H2'"
p152
sg22
I00
sg23
Nsg24
(imodel.Atom
Atom
p153
(dp154
g3
g152
sg14
g1
sg15
I1
sg16
S'H'
sg17
I00
sg18
g9
((lp155
g150
atRp156
sg38
I00
sbsg25
g26
sg39
g9
((lp157
g106
atRp158
sg16
S'H'
sg90
I0
sg17
I00
sg91
(F273.38728738012924
F466.33673560179545
F13.051781356149208
tp159
sg93
(lp160
sg14
g1
sg95
g9
((ltRp161
sg97
g9
((lp162
(imodel.Bond
Bond
p163
(dp164
g14
g1
sg101
g102
sg25
g26
sg18
g9
((lp165
g106
ag150
atRp166
sbatRp167
sg38
I00
sbag73
ag49
atRp168
sg16
S'C'
sg90
I0
sg17
I00
sg91
(F234.91123295992583
F464.85352214291606
F9.8853216740590852
tp169
sg93
(lp170
sg14
g1
sg95
g9
((ltRp171
sg97
g9
((lp172
g145
a(imodel.Bond
Bond
p173
(dp174
g14
g1
sg101
g102
sg25
g26
sg18
g9
((lp175
g49
ag106
atRp176
sbag163
a(imodel.Bond
Bond
p177
(dp178
g14
g1
sg101
g102
sg25
g26
sg18
g9
((lp179
g73
ag106
atRp180
sbatRp181
sg38
I00
sba(imodel.VarAtom
VarAtom
p182
(dp183
g3
S'N9'
p184
sg22
I00
sg23
Nsg24
(imodel.Atom
Atom
p185
(dp186
g3
g184
sg14
g1
sg15
I3
sg16
S'N'
sg17
I00
sg18
g9
((lp187
g182
atRp188
sg38
I00
sbsg25
g26
sg39
g9
((lp189
(imodel.VarAtom
VarAtom
p190
(dp191
g3
S'C8'
p192
sg22
I00
sg23
Nsg24
(imodel.Atom
Atom
p193
(dp194
g3
g192
sg14
g1
sg15
I4
sg16
S'C'
sg17
I00
sg18
g9
((lp195
g190
atRp196
sg38
I00
sbsg25
g26
sg39
g9
((lp197
g182
a(imodel.VarAtom
VarAtom
p198
(dp199
g3
S'N7'
p200
sg22
I00
sg23
Nsg24
(imodel.Atom
Atom
p201
(dp202
g3
g200
sg14
g1
sg15
I3
sg16
S'N'
sg17
I00
sg18
g9
((lp203
g198
atRp204
sg38
I00
sbsg25
g26
sg39
g9
((lp205
(imodel.VarAtom
VarAtom
p206
(dp207
g3
S'C5'
p208
sg22
I00
sg23
Nsg24
(imodel.Atom
Atom
p209
(dp210
g3
g208
sg14
g1
sg15
I4
sg16
S'C'
sg17
I00
sg18
g9
((lp211
g206
atRp212
sg38
I00
sbsg25
g26
sg39
g9
((lp213
(imodel.VarAtom
VarAtom
p214
(dp215
g3
S'C4'
p216
sg22
I00
sg23
Nsg24
(imodel.Atom
Atom
p217
(dp218
g3
g216
sg14
g1
sg15
I4
sg16
S'C'
sg17
I00
sg18
g9
((lp219
g214
atRp220
sg38
I00
sbsg25
g26
sg39
g9
((lp221
g206
a(imodel.VarAtom
VarAtom
p222
(dp223
g3
S'N3'
p224
sg22
I00
sg23
Nsg24
(imodel.Atom
Atom
p225
(dp226
g3
g224
sg14
g1
sg15
I3
sg16
S'N'
sg17
I00
sg18
g9
((lp227
g222
atRp228
sg38
I00
sbsg25
g26
sg39
g9
((lp229
(imodel.VarAtom
VarAtom
p230
(dp231
g3
S'C2'
p232
sg22
I00
sg23
Nsg24
(imodel.Atom
Atom
p233
(dp234
g3
g232
sg14
g1
sg15
I4
sg16
S'C'
sg17
I00
sg18
g9
((lp235
g230
atRp236
sg38
I00
sbsg25
g26
sg39
g9
((lp237
g20
ag222
a(imodel.VarAtom
VarAtom
p238
(dp239
g3
S'N1'
p240
sg22
I00
sg23
Nsg24
(imodel.Atom
Atom
p241
(dp242
g3
g240
sg14
g1
sg15
I3
sg16
S'N'
sg17
I00
sg18
g9
((lp243
g238
atRp244
sg38
I00
sbsg25
g26
sg39
g9
((lp245
(imodel.VarAtom
VarAtom
p246
(dp247
g3
S'C6'
p248
sg22
I00
sg23
Nsg24
(imodel.Atom
Atom
p249
(dp250
g3
g248
sg14
g1
sg15
I4
sg16
S'C'
sg17
I00
sg18
g9
((lp251
g246
atRp252
sg38
I00
sbsg25
g26
sg39
g9
((lp253
g238
a(imodel.VarAtom
VarAtom
p254
(dp255
g3
S'N6'
p256
sg22
I00
sg23
Nsg24
(imodel.Atom
Atom
p257
(dp258
g3
g256
sg14
g1
sg15
I3
sg16
S'N'
sg17
I00
sg18
g9
((lp259
g254
atRp260
sg38
I00
sbsg25
g26
sg39
g9
((lp261
(imodel.VarAtom
VarAtom
p262
(dp263
g3
S'HN61'
p264
sg22
I00
sg23
Nsg24
(imodel.Atom
Atom
p265
(dp266
g3
g264
sg14
g1
sg15
I1
sg16
S'H'
sg17
I00
sg18
g9
((lp267
g262
atRp268
sg38
I00
sbsg25
g26
sg39
g9
((lp269
g254
atRp270
sg16
S'H'
sg90
I0
sg17
I00
sg91
(F388.02697141305475
F206.04923103921195
F-274.15413943243823
tp271
sg93
(lp272
sg14
g1
sg95
g9
((ltRp273
sg97
g9
((lp274
(imodel.Bond
Bond
p275
(dp276
g14
g1
sg101
g102
sg25
g26
sg18
g9
((lp277
g262
ag254
atRp278
sbatRp279
sg38
I00
sbag246
a(imodel.VarAtom
VarAtom
p280
(dp281
g3
S'HN62'
p282
sg22
I00
sg23
Nsg24
(imodel.Atom
Atom
p283
(dp284
g3
g282
sg14
g1
sg15
I1
sg16
S'H'
sg17
I00
sg18
g9
((lp285
g280
atRp286
sg38
I00
sbsg25
g26
sg39
g9
((lp287
g254
atRp288
sg16
S'H'
sg90
I0
sg17
I00
sg91
(F324.07012603005484
F199.91559464836993
F-205.24752625750563
tp289
sg93
(lp290
sg14
g1
sg95
g9
((ltRp291
sg97
g9
((lp292
(imodel.Bond
Bond
p293
(dp294
g14
g1
sg101
g102
sg25
g26
sg18
g9
((lp295
g280
ag254
atRp296
sbatRp297
sg38
I00
sbatRp298
sg16
S'N'
sg90
I0
sg17
I00
sg91
(F354.06149278715515
F223.52941312006169
F-240.88005952062937
tp299
sg93
(lp300
sg14
g1
sg95
g9
((ltRp301
sg97
g9
((lp302
g275
ag293
a(imodel.Bond
Bond
p303
(dp304
g14
g1
sg101
g102
sg25
g26
sg18
g9
((lp305
g246
ag254
atRp306
sbatRp307
sg38
I00
sbag206
atRp308
sg16
S'C'
sg90
I0
sg17
I00
sg91
(F348.47977176279909
F274.01503213691757
F-210.94327378089108
tp309
sg93
(lp310
sg14
g1
sg95
g9
((lp311
(imodel.AtomGroup
AtomGroup
p312
(dp313
S'groupType'
p314
S'aromatic'
p315
sS'subGroups'
p316
g9
((ltRp317
sg18
g9
((lp318
g214
ag230
ag222
ag206
ag238
ag246
atRp319
sg25
g26
sg14
g1
sbatRp320
sg97
g9
((lp321
(imodel.Bond
Bond
p322
(dp323
g14
g1
sg101
g315
sg25
g26
sg18
g9
((lp324
g246
ag238
atRp325
sbag303
a(imodel.Bond
Bond
p326
(dp327
g14
g1
sg101
g315
sg25
g26
sg18
g9
((lp328
g206
ag246
atRp329
sbatRp330
sg38
I00
sbag230
atRp331
sg16
S'N'
sg90
I0
sg17
I00
sg91
(F390.77886405783761
F300.685395728488
F-225.14116864520858
tp332
sg93
(lp333
sg14
g1
sg95
g9
((lp334
g312
atRp335
sg97
g9
((lp336
g322
a(imodel.Bond
Bond
p337
(dp338
g14
g1
sg101
g315
sg25
g26
sg18
g9
((lp339
g238
ag230
atRp340
sbatRp341
sg38
I00
sbatRp342
sg16
S'C'
sg90
I0
sg17
I00
sg91
(F389.06536412387163
F350.66436664121255
F-195.71775255941688
tp343
sg93
(lp344
sg14
g1
sg95
g9
((lp345
g312
atRp346
sg97
g9
((lp347
(imodel.Bond
Bond
p348
(dp349
g14
g1
sg101
g102
sg25
g26
sg18
g9
((lp350
g20
ag230
atRp351
sba(imodel.Bond
Bond
p352
(dp353
g14
g1
sg101
g315
sg25
g26
sg18
g9
((lp354
g222
ag230
atRp355
sbag337
atRp356
sg38
I00
sbag214
atRp357
sg16
S'N'
sg90
I0
sg17
I00
sg91
(F344.87710890113226
F374.09367864292142
F-152.2724148393595
tp358
sg93
(lp359
sg14
g1
sg95
g9
((lp360
g312
atRp361
sg97
g9
((lp362
g352
a(imodel.Bond
Bond
p363
(dp364
g14
g1
sg101
g315
sg25
g26
sg18
g9
((lp365
g214
ag222
atRp366
sbatRp367
sg38
I00
sbag182
atRp368
sg16
S'C'
sg90
I0
sg17
I00
sg91
(F302.37965582068966
F347.43403317192832
F-139.1066351188195
tp369
sg93
(lp370
sg14
g1
sg95
g9
((lp371
g312
a(imodel.AtomGroup
AtomGroup
p372
(dp373
S'groupType'
p374
S'aromatic'
p375
sS'subGroups'
p376
g9
((ltRp377
sS'varAtoms'
p378
g9
((lp379
g190
ag198
ag206
ag214
ag182
atRp380
sS'variant'
p381
g26
sS'compound'
p382
g1
sbatRp383
sg97
g9
((lp384
(imodel.Bond
Bond
p385
(dp386
g14
g1
sg101
g375
sg25
g26
sg18
g9
((lp387
g206
ag214
atRp388
sba(imodel.Bond
Bond
p389
(dp390
g14
g1
sg101
g375
sg25
g26
sg18
g9
((lp391
g182
ag214
atRp392
sbag363
atRp393
sg38
I00
sbag198
ag246
atRp394
sg16
S'C'
sg90
I0
sg17
I00
sg91
(F304.23818388411371
F297.70665159942155
F-164.77059639636545
tp395
sg93
(lp396
sg14
g1
sg95
g9
((lp397
g312
ag372
atRp398
sg97
g9
((lp399
g385
a(imodel.Bond
Bond
p400
(dp401
g14
g1
sg101
g375
sg25
g26
sg18
g9
((lp402
g206
ag198
atRp403
sbag326
atRp404
sg38
I00
sbag190
atRp405
sg16
S'N'
sg90
I0
sg17
I00
sg91
(F257.51096751446778
F280.23208950094102
F-138.80715660049344
tp406
sg93
(lp407
sg14
g1
sg95
g9
((lp408
g372
atRp409
sg97
g9
((lp410
g400
a(imodel.Bond
Bond
p411
(dp412
g14
g1
sg101
g375
sg25
g26
sg18
g9
((lp413
g190
ag198
atRp414
sbatRp415
sg38
I00
sba(imodel.VarAtom
VarAtom
p416
(dp417
g3
S'H8'
p418
sg22
I00
sg23
Nsg24
(imodel.Atom
Atom
p419
(dp420
g3
g418
sg14
g1
sg15
I1
sg16
S'H'
sg17
I00
sg18
g9
((lp421
g416
atRp422
sg38
I00
sbsg25
g26
sg39
g9
((lp423
g190
atRp424
sg16
S'H'
sg90
I0
sg17
I00
sg91
(F190.77684906282127
F308.11788488163035
F-72.445581403069156
tp425
sg93
(lp426
sg14
g1
sg95
g9
((ltRp427
sg97
g9
((lp428
(imodel.Bond
Bond
p429
(dp430
g14
g1
sg101
g102
sg25
g26
sg18
g9
((lp431
g416
ag190
atRp432
sbatRp433
sg38
I00
sbatRp434
sg16
S'C'
sg90
I0
sg17
I00
sg91
(F226.32571777508639
F319.21936693572599
F-99.923090537921411
tp435
sg93
(lp436
sg14
g1
sg95
g9
((lp437
g372
atRp438
sg97
g9
((lp439
(imodel.Bond
Bond
p440
(dp441
g14
g1
sg101
g375
sg25
g26
sg18
g9
((lp442
g182
ag190
atRp443
sbag429
ag411
atRp444
sg38
I00
sbag214
ag73
atRp445
sg16
S'N'
sg90
I0
sg17
I00
sg91
(F253.86197365619572
F361.21669960069971
F-98.444541108662889
tp446
sg93
(lp447
sg14
g1
sg95
g9
((lp448
g372
atRp449
sg97
g9
((lp450
g440
ag389
a(imodel.Bond
Bond
p451
(dp452
g14
g1
sg101
g102
sg25
g26
sg18
g9
((lp453
g73
ag182
atRp454
sbatRp455
sg38
I00
sbatRp456
sg16
S'C'
sg90
I0
sg17
I00
sg91
(F236.77810064144296
F409.71294407165391
F-61.973254998840659
tp457
sg93
(lp458
sg14
g1
sg95
g9
((ltRp459
sg97
g9
((lp460
g99
ag177
a(imodel.Bond
Bond
p461
(dp462
g14
g1
sg101
g102
sg25
g26
sg18
g9
((lp463
g73
ag65
atRp464
sbag451
atRp465
sg38
I00
sbatRp466
sg16
S'O'
sg90
I0
sg17
I00
sg91
(F186.7211087159296
F398.1708593237812
F-50.416271369760359
tp467
sg93
(lp468
sg14
g1
sg95
g9
((ltRp469
sg97
g9
((lp470
(imodel.Bond
Bond
p471
(dp472
g14
g1
sg101
g102
sg25
g26
sg18
g9
((lp473
g65
ag57
atRp474
sbag461
atRp475
sg38
I00
sba(imodel.VarAtom
VarAtom
p476
(dp477
g3
S"H4'"
p478
sg22
I00
sg23
Nsg24
(imodel.Atom
Atom
p479
(dp480
g3
g478
sg14
g1
sg15
I1
sg16
S'H'
sg17
I00
sg18
g9
((lp481
g476
atRp482
sg38
I00
sbsg25
g26
sg39
g9
((lp483
g57
atRp484
sg16
S'H'
sg90
I0
sg17
I00
sg91
(F121.5393803365221
F459.40993838431058
F34.009566860622414
tp485
sg93
(lp486
sg14
g1
sg95
g9
((ltRp487
sg97
g9
((lp488
(imodel.Bond
Bond
p489
(dp490
g14
g1
sg101
g102
sg25
g26
sg18
g9
((lp491
g476
ag57
atRp492
sbatRp493
sg38
I00
sba(imodel.VarAtom
VarAtom
p494
(dp495
g3
S"C5'"
p496
sg22
I00
sg23
Nsg24
(imodel.Atom
Atom
p497
(dp498
g3
g496
sg14
g1
sg15
I4
sg16
S'C'
sg17
I00
sg18
g9
((lp499
g494
atRp500
sg38
I00
sbsg25
g26
sg39
g9
((lp501
(imodel.VarAtom
VarAtom
p502
(dp503
g3
S"H5'2"
p504
sg22
I00
sg23
Nsg24
(imodel.Atom
Atom
p505
(dp506
g3
g504
sg14
g1
sg15
I1
sg16
S'H'
sg17
I00
sg18
g9
((lp507
g502
atRp508
sg38
I00
sbsg25
g26
sg39
g9
((lp509
g494
atRp510
sg16
S'H'
sg90
I0
sg17
I00
sg91
(F76.318768109342727
F414.46070161059293
F84.980793759655228
tp511
sg93
(lp512
sg14
g1
sg95
g9
((lp513
(imodel.AtomGroup
AtomGroup
p514
(dp515
g314
S'prochiral'
p516
sg316
g9
((ltRp517
sg18
g9
((lp518
g502
a(imodel.VarAtom
VarAtom
p519
(dp520
g3
S"H5'1"
p521
sg22
I00
sg23
Nsg24
(imodel.Atom
Atom
p522
(dp523
g3
g521
sg14
g1
sg15
I1
sg16
S'H'
sg17
I00
sg18
g9
((lp524
g519
atRp525
sg38
I00
sbsg25
g26
sg39
g9
((lp526
g494
atRp527
sg16
S'H'
sg90
I0
sg17
I00
sg91
(F129.76619837834269
F361.49571153801105
F13.849069945740053
tp528
sg93
(lp529
sg14
g1
sg95
g9
((lp530
g514
atRp531
sg97
g9
((lp532
(imodel.Bond
Bond
p533
(dp534
g14
g1
sg101
g102
sg25
g26
sg18
g9
((lp535
g519
ag494
atRp536
sbatRp537
sg38
I00
sbatRp538
sg25
g26
sg14
g1
sbatRp539
sg97
g9
((lp540
(imodel.Bond
Bond
p541
(dp542
g14
g1
sg101
g102
sg25
g26
sg18
g9
((lp543
g502
ag494
atRp544
sbatRp545
sg38
I00
sbag57
ag519
a(imodel.VarAtom
VarAtom
p546
(dp547
g3
S"O5'"
p548
sg22
I00
sg23
Nsg24
(imodel.Atom
Atom
p549
(dp550
g3
g548
sg14
g1
sg15
I2
sg16
S'O'
sg17
I00
sg18
g9
((lp551
g546
atRp552
sg38
I00
sbsg25
g26
sg39
g9
((lp553
(imodel.VarAtom
VarAtom
p554
(dp555
g3
S'PA'
p556
sg22
I00
sg23
S'R'
sg24
(imodel.Atom
Atom
p557
(dp558
g3
g556
sg14
g1
sg15
I5
sg16
S'P'
sg17
I00
sg18
g9
((lp559
g554
atRp560
sg38
I00
sbsg25
g26
sg39
g9
((lp561
(imodel.VarAtom
VarAtom
p562
(dp563
g3
S'O2A'
p564
sg22
I00
sg23
Nsg24
(imodel.Atom
Atom
p565
(dp566
g3
g564
sg14
g1
sg15
I2
sg16
S'O'
sg17
I00
sg18
g9
((lp567
g562
atRp568
sg38
I00
sbsg25
g26
sg39
g9
((lp569
g554
a(imodel.VarAtom
VarAtom
p570
(dp571
g3
S'HOA2'
p572
sg22
I01
sg23
Nsg24
(imodel.Atom
Atom
p573
(dp574
g3
g572
sg14
g1
sg15
I1
sg16
S'H'
sg17
I00
sg18
g9
((lp575
g570
atRp576
sg38
I00
sbsg25
g26
sg39
g9
((lp577
g562
atRp578
sg16
S'H'
sg90
I0
sg17
I00
sg91
(F-29.388059952068772
F374.43462649102742
F-14.388732972274706
tp579
sg93
(lp580
sg14
g1
sg95
g9
((ltRp581
sg97
g9
((lp582
(imodel.Bond
Bond
p583
(dp584
g14
g1
sg101
g102
sg25
g26
sg18
g9
((lp585
g570
ag562
atRp586
sbatRp587
sg38
I00
sbatRp588
sg16
S'O'
sg90
I0
sg17
I00
sg91
(F0.32619882712447179
F351.20402599180619
F-29.535869381808602
tp589
sg93
(lp590
sg14
g1
sg95
g9
((ltRp591
sg97
g9
((lp592
(imodel.Bond
Bond
p593
(dp594
g14
g1
sg101
g102
sg25
g26
sg18
g9
((lp595
g562
ag554
atRp596
sbag583
atRp597
sg38
I00
sba(imodel.VarAtom
VarAtom
p598
(dp599
g3
S'O3A'
p600
sg22
I00
sg23
Nsg24
(imodel.Atom
Atom
p601
(dp602
g3
g600
sg14
g1
sg15
I2
sg16
S'O'
sg17
I00
sg18
g9
((lp603
g598
atRp604
sg38
I00
sbsg25
g26
sg39
g9
((lp605
g554
a(imodel.VarAtom
VarAtom
p606
(dp607
g3
S'PB'
p608
sg22
I00
sg23
S'R'
sg24
(imodel.Atom
Atom
p609
(dp610
g3
g608
sg14
g1
sg15
I5
sg16
S'P'
sg17
I00
sg18
g9
((lp611
g606
atRp612
sg38
I00
sbsg25
g26
sg39
g9
((lp613
(imodel.VarAtom
VarAtom
p614
(dp615
g3
S'O1B'
p616
sg22
I00
sg23
Nsg24
(imodel.Atom
Atom
p617
(dp618
g3
g616
sg14
g1
sg15
I2
sg16
S'O'
sg17
I00
sg18
g9
((lp619
g614
atRp620
sg38
I00
sbsg25
g26
sg39
g9
((lp621
g606
atRp622
sg16
S'O'
sg90
I0
sg17
I00
sg91
(F-60.711613681317061
F279.46784491683587
F151.41503408114812
tp623
sg93
(lp624
sg14
g1
sg95
g9
((ltRp625
sg97
g9
((lp626
(imodel.Bond
Bond
p627
(dp628
g14
g1
sg101
S'double'
p629
sg25
g26
sg18
g9
((lp630
g606
ag614
atRp631
sbatRp632
sg38
I00
sba(imodel.VarAtom
VarAtom
p633
(dp634
g3
S'O2B'
p635
sg22
I00
sg23
Nsg24
(imodel.Atom
Atom
p636
(dp637
g3
g635
sg14
g1
sg15
I2
sg16
S'O'
sg17
I00
sg18
g9
((lp638
g633
atRp639
sg38
I00
sbsg25
g26
sg39
g9
((lp640
(imodel.VarAtom
VarAtom
p641
(dp642
g3
S'HOB2'
p643
sg22
I01
sg23
Nsg24
(imodel.Atom
Atom
p644
(dp645
g3
g643
sg14
g1
sg15
I1
sg16
S'H'
sg17
I00
sg18
g9
((lp646
g641
atRp647
sg38
I00
sbsg25
g26
sg39
g9
((lp648
g633
atRp649
sg16
S'H'
sg90
I0
sg17
I00
sg91
(F-105.39297314597178
F196.36164750605542
F75.265423447156181
tp650
sg93
(lp651
sg14
g1
sg95
g9
((ltRp652
sg97
g9
((lp653
(imodel.Bond
Bond
p654
(dp655
g14
g1
sg101
g102
sg25
g26
sg18
g9
((lp656
g633
ag641
atRp657
sbatRp658
sg38
I00
sbag606
atRp659
sg16
S'O'
sg90
I0
sg17
I00
sg91
(F-74.514990337474387
F218.31309575581798
F86.364302557357234
tp660
sg93
(lp661
sg14
g1
sg95
g9
((ltRp662
sg97
g9
((lp663
g654
a(imodel.Bond
Bond
p664
(dp665
g14
g1
sg101
g102
sg25
g26
sg18
g9
((lp666
g633
ag606
atRp667
sbatRp668
sg38
I00
sbag598
a(imodel.VarAtom
VarAtom
p669
(dp670
g3
S'O3B'
p671
sg22
I00
sg23
Nsg24
(imodel.Atom
Atom
p672
(dp673
g3
g671
sg14
g1
sg15
I2
sg16
S'O'
sg17
I00
sg18
g9
((lp674
g669
atRp675
sg38
I00
sbsg25
g26
sg39
g9
((lp676
(imodel.VarAtom
VarAtom
p677
(dp678
g3
S'PG'
p679
sg22
I00
sg23
Nsg24
(imodel.Atom
Atom
p680
(dp681
g3
g679
sg14
g1
sg15
I5
sg16
S'P'
sg17
I00
sg18
g9
((lp682
g677
atRp683
sg38
I00
sbsg25
g26
sg39
g9
((lp684
g669
a(imodel.VarAtom
VarAtom
p685
(dp686
g3
S'O3G'
p687
sg22
I00
sg23
Nsg24
(imodel.Atom
Atom
p688
(dp689
g3
g687
sg14
g1
sg15
I2
sg16
S'O'
sg17
I00
sg18
g9
((lp690
g685
atRp691
sg38
I00
sbsg25
g26
sg39
g9
((lp692
(imodel.VarAtom
VarAtom
p693
(dp694
g3
S'HOG3'
p695
sg22
I01
sg23
Nsg24
(imodel.Atom
Atom
p696
(dp697
g3
g695
sg14
g1
sg15
I1
sg16
S'H'
sg17
I00
sg18
g9
((lp698
g693
atRp699
sg38
I00
sbsg25
g26
sg39
g9
((lp700
g685
atRp701
sg16
S'H'
sg90
I0
sg17
I00
sg91
(F94.127013005894568
F189.78833400731887
F299.96822188650077
tp702
sg93
(lp703
sg14
g1
sg95
g9
((ltRp704
sg97
g9
((lp705
(imodel.Bond
Bond
p706
(dp707
g14
g1
sg101
g102
sg25
g26
sg18
g9
((lp708
g685
ag693
atRp709
sbatRp710
sg38
I00
sbag677
atRp711
sg16
S'O'
sg90
I0
sg17
I00
sg91
(F58.441851380520092
F177.45738638050275
F271.12333432619215
tp712
sg93
(lp713
sg14
g1
sg95
g9
((ltRp714
sg97
g9
((lp715
g706
a(imodel.Bond
Bond
p716
(dp717
g14
g1
sg101
g102
sg25
g26
sg18
g9
((lp718
g677
ag685
atRp719
sbatRp720
sg38
I00
sba(imodel.VarAtom
VarAtom
p721
(dp722
g3
S'O1G'
p723
sg22
I00
sg23
Nsg24
(imodel.Atom
Atom
p724
(dp725
g3
g723
sg14
g1
sg15
I2
sg16
S'O'
sg17
I00
sg18
g9
((lp726
g721
atRp727
sg38
I00
sbsg25
g26
sg39
g9
((lp728
g677
atRp729
sg16
S'O'
sg90
I0
sg17
I00
sg91
(F-26.416958607358083
F135.01995621145292
F154.69535447952276
tp730
sg93
(lp731
sg14
g1
sg95
g9
((ltRp732
sg97
g9
((lp733
(imodel.Bond
Bond
p734
(dp735
g14
g1
sg101
S'double'
p736
sg25
g26
sg18
g9
((lp737
g677
ag721
atRp738
sbatRp739
sg38
I00
sba(imodel.VarAtom
VarAtom
p740
(dp741
g3
S'O2G'
p742
sg22
I00
sg23
Nsg24
(imodel.Atom
Atom
p743
(dp744
g3
g742
sg14
g1
sg15
I2
sg16
S'O'
sg17
I00
sg18
g9
((lp745
g740
atRp746
sg38
I00
sbsg25
g26
sg39
g9
((lp747
(imodel.VarAtom
VarAtom
p748
(dp749
g3
S'HOG2'
p750
sg22
I01
sg23
Nsg24
(imodel.Atom
Atom
p751
(dp752
g3
g750
sg14
g1
sg15
I1
sg16
S'H'
sg17
I00
sg18
g9
((lp753
g748
atRp754
sg38
I00
sbsg25
g26
sg39
g9
((lp755
g740
atRp756
sg16
S'H'
sg90
I0
sg17
I00
sg91
(F54.605824390217933
F77.529648239202317
F212.01258259972212
tp757
sg93
(lp758
sg14
g1
sg95
g9
((ltRp759
sg97
g9
((lp760
(imodel.Bond
Bond
p761
(dp762
g14
g1
sg101
g102
sg25
g26
sg18
g9
((lp763
g740
ag748
atRp764
sbatRp765
sg38
I00
sbag677
atRp766
sg16
S'O'
sg90
I0
sg17
I00
sg91
(F34.426802802897996
F109.56637420692127
F184.0874388768265
tp767
sg93
(lp768
sg14
g1
sg95
g9
((ltRp769
sg97
g9
((lp770
g761
a(imodel.Bond
Bond
p771
(dp772
g14
g1
sg101
g102
sg25
g26
sg18
g9
((lp773
g677
ag740
atRp774
sbatRp775
sg38
I00
sbatRp776
sg16
S'P'
sg90
I0
sg17
I00
sg91
(F12.745066750492839
F155.45966874716058
F199.76293539522118
tp777
sg93
(lp778
sg14
g1
sg95
g9
((ltRp779
sg97
g9
((lp780
(imodel.Bond
Bond
p781
(dp782
g14
g1
sg101
g102
sg25
g26
sg18
g9
((lp783
g677
ag669
atRp784
sbag734
ag771
ag716
atRp785
sg38
I00
sbag606
atRp786
sg16
S'O'
sg90
I0
sg17
I00
sg91
(F-5.590796310924901
F202.66090067088982
F189.20199084342985
tp787
sg93
(lp788
sg14
g1
sg95
g9
((ltRp789
sg97
g9
((lp790
g781
a(imodel.Bond
Bond
p791
(dp792
g14
g1
sg101
g102
sg25
g26
sg18
g9
((lp793
g606
ag669
atRp794
sbatRp795
sg38
I00
sbatRp796
sg16
S'P'
sg90
I0
sg17
I00
sg91
(F-31.933194332389974
F245.96263710970086
F135.70400599946498
tp797
sg93
(lp798
sg14
g1
sg95
g9
((ltRp799
sg97
g9
((lp800
g627
ag664
ag791
a(imodel.Bond
Bond
p801
(dp802
g14
g1
sg101
g102
sg25
g26
sg18
g9
((lp803
g606
ag598
atRp804
sbatRp805
sg38
I00
sbatRp806
sg16
S'O'
sg90
I0
sg17
I00
sg91
(F5.6869543917959788
F280.02065133186295
F91.566904819910505
tp807
sg93
(lp808
sg14
g1
sg95
g9
((ltRp809
sg97
g9
((lp810
(imodel.Bond
Bond
p811
(dp812
g14
g1
sg101
g102
sg25
g26
sg18
g9
((lp813
g598
ag554
atRp814
sbag801
atRp815
sg38
I00
sba(imodel.VarAtom
VarAtom
p816
(dp817
g3
S'O1A'
p818
sg22
I00
sg23
Nsg24
(imodel.Atom
Atom
p819
(dp820
g3
g818
sg14
g1
sg15
I2
sg16
S'O'
sg17
I00
sg18
g9
((lp821
g816
atRp822
sg38
I00
sbsg25
g26
sg39
g9
((lp823
g554
atRp824
sg16
S'O'
sg90
I0
sg17
I00
sg91
(F69.596871320519924
F286.73102659960472
F-7.7821697330354551
tp825
sg93
(lp826
sg14
g1
sg95
g9
((ltRp827
sg97
g9
((lp828
(imodel.Bond
Bond
p829
(dp830
g14
g1
sg101
S'double'
p831
sg25
g26
sg18
g9
((lp832
g816
ag554
atRp833
sbatRp834
sg38
I00
sbag546
atRp835
sg16
S'P'
sg90
I0
sg17
I00
sg91
(F38.961512927080776
F318.42842395564372
F15.485749056376655
tp836
sg93
(lp837
sg14
g1
sg95
g9
((ltRp838
sg97
g9
((lp839
g593
a(imodel.Bond
Bond
p840
(dp841
g14
g1
sg101
g102
sg25
g26
sg18
g9
((lp842
g546
ag554
atRp843
sbag811
ag829
atRp844
sg38
I00
sbag494
atRp845
sg16
S'O'
sg90
I0
sg17
I00
sg91
(F72.881167754346009
F356.34635481274177
F18.035026621545121
tp846
sg93
(lp847
sg14
g1
sg95
g9
((ltRp848
sg97
g9
((lp849
g840
a(imodel.Bond
Bond
p850
(dp851
g14
g1
sg101
g102
sg25
g26
sg18
g9
((lp852
g546
ag494
atRp853
sbatRp854
sg38
I00
sbatRp855
sg16
S'C'
sg90
I0
sg17
I00
sg91
(F108.3931294787017
F393.29493725838893
F29.399496123269664
tp856
sg93
(lp857
sg14
g1
sg95
g9
((ltRp858
sg97
g9
((lp859
g533
ag541
ag850
a(imodel.Bond
Bond
p860
(dp861
g14
g1
sg101
g102
sg25
g26
sg18
g9
((lp862
g57
ag494
atRp863
sbatRp864
sg38
I00
sbatRp865
sg16
S'C'
sg90
I0
sg17
I00
sg91
(F145.84913946647922
F429.54693572896036
F20.977449459269582
tp866
sg93
(lp867
sg14
g1
sg95
g9
((ltRp868
sg97
g9
((lp869
(imodel.Bond
Bond
p870
(dp871
g14
g1
sg101
g102
sg25
g26
sg18
g9
((lp872
g49
ag57
atRp873
sbag489
ag860
ag471
atRp874
sg38
I00
sbag41
ag106
a(imodel.VarAtom
VarAtom
p875
(dp876
g3
S"H3'"
p877
sg22
I00
sg23
Nsg24
(imodel.Atom
Atom
p878
(dp879
g3
g877
sg14
g1
sg15
I1
sg16
S'H'
sg17
I00
sg18
g9
((lp880
g875
atRp881
sg38
I00
sbsg25
g26
sg39
g9
((lp882
g49
atRp883
sg16
S'H'
sg90
I0
sg17
I00
sg91
(F193.35556294239086
F439.98902001414683
F71.515102810822711
tp884
sg93
(lp885
sg14
g1
sg95
g9
((ltRp886
sg97
g9
((lp887
(imodel.Bond
Bond
p888
(dp889
g14
g1
sg101
g102
sg25
g26
sg18
g9
((lp890
g49
ag875
atRp891
sbatRp892
sg38
I00
sbatRp893
sg16
S'C'
sg90
I0
sg17
I00
sg91
(F183.48858306857716
F474.30191767444649
F57.992094039842399
tp894
sg93
(lp895
sg14
g1
sg95
g9
((ltRp896
sg97
g9
((lp897
g888
ag870
a(imodel.Bond
Bond
p898
(dp899
g14
g1
sg101
g102
sg25
g26
sg18
g9
((lp900
g49
ag41
atRp901
sbag173
atRp902
sg38
I00
sbatRp903
sg16
S'O'
sg90
I0
sg17
I00
sg91
(F170.26068502199803
F523.27976752330733
F123.46885311263416
tp904
sg93
(lp905
sg14
g1
sg95
g9
((ltRp906
sg97
g9
((lp907
(imodel.Bond
Bond
p908
(dp909
g14
g1
sg101
g102
sg25
g26
sg18
g9
((lp910
g31
ag41
atRp911
sbag898
atRp912
sg38
I00
sbatRp913
sg16
S'H'
sg90
I0
sg17
I00
sg91
(F163.94982995703654
F560.4934736703168
F147.00519910205995
tp914
sg93
(lp915
sg14
g1
sg95
g9
((ltRp916
sg97
g9
((lp917
g908
atRp918
sg38
I00
sbag150
ag748
ag476
ag122
ag693
ag280
ag641
ag875
ag81
ag20
ag502
ag570
ag416
ag519
ag262
atRp919
sS'C'
g9
((lp920
g214
ag49
ag190
ag230
ag73
ag494
ag106
ag57
ag246
ag206
atRp921
sS'P'
g9
((lp922
g554
ag606
ag677
atRp923
sS'O'
g9
((lp924
g614
ag633
ag65
ag598
ag816
ag669
ag114
ag721
ag685
ag740
ag41
ag546
ag562
atRp925
sS'N'
g9
((lp926
g222
ag254
ag238
ag198
ag182
atRp927
ssg97
g9
((lp928
g654
ag275
ag489
ag533
ag348
ag389
ag461
ag860
ag771
ag135
ag451
ag734
ag850
ag664
ag400
ag593
ag337
ag471
ag888
ag908
ag99
ag440
ag791
ag352
ag829
ag870
ag781
ag163
ag811
ag322
ag840
ag293
ag541
ag177
ag363
ag145
ag716
ag801
ag583
ag411
ag385
ag326
ag429
ag303
ag898
ag761
ag173
ag627
ag706
atRp929
sg14
g1
sS'descriptor'
p930
(S'neutral'
p931
S'none'
p932
S'default'
p933
tp934
sS'atomDict'
p935
(dp936
g11
g20
sg522
g519
sg225
g222
sg68
g65
sg644
g641
sg193
g190
sg125
g122
sg724
g721
sg819
g816
sg34
g31
sg233
g230
sg479
g476
sg696
g693
sg680
g677
sg419
g416
sg497
g494
sg257
g254
sg44
g41
sg878
g875
sg201
g198
sg265
g262
sg557
g554
sg117
g114
sg52
g49
sg601
g598
sg60
g57
sg217
g214
sg241
g238
sg549
g546
sg672
g669
sg743
g740
sg636
g633
sg617
g614
sg84
g81
sg688
g685
sg505
g502
sg573
g570
sg76
g73
sg185
g182
sg249
g246
sg109
g106
sg751
g748
sg209
g206
sg283
g280
sg565
g562
sg609
g606
sg153
g150
ssg18
g9
((lp937
g740
ag875
ag614
ag633
ag280
ag206
ag494
ag190
ag214
ag73
ag502
ag81
ag57
ag31
ag150
ag554
ag721
ag122
ag49
ag476
ag254
ag238
ag519
ag262
ag606
ag114
ag598
ag677
ag748
ag669
ag106
ag41
ag641
ag416
ag198
ag562
ag20
ag570
ag65
ag816
ag182
ag230
ag693
ag546
ag685
ag246
ag222
atRp938
sg95
g9
((lp939
g514
ag312
ag372
atRp940
sS'polyLink'
p941
S'none'
p942
sbsg39
g9
((lp943
g230
atRp944
sg16
S'H'
sg90
I0
sg17
I00
sg91
(F422.04810539942281
F369.45992324702553
F-209.67563649150179
tp945
sg93
(lp946
sg14
g1
sg95
g9
((ltRp947
sg97
g9
((lp948
g348
atRp949
sg38
I00
sbatRp950
sg38
I00
sbag522
ag225
ag680
ag193
ag125
ag34
ag52
ag819
ag724
ag233
ag479
ag44
ag109
ag419
ag497
ag257
ag573
ag241
ag265
ag743
ag117
ag201
ag601
ag60
ag217
ag878
ag549
ag505
ag557
ag636
ag617
ag283
ag84
ag688
ag672
ag696
ag76
ag185
ag249
ag644
ag751
ag209
ag609
ag565
ag68
ag153
atRp951
sS'ccpMolType'
p952
S'other'
p953
sS'details'
p954
V
sg935
(dp955
g33
g34
sg51
g52
sg75
g76
sg723
g724
sg616
g617
sg818
g819
sg240
g241
sg600
g601
sg152
g153
sg671
g672
sg687
g688
sg643
g644
sg877
g878
sg192
g193
sg67
g68
sg608
g609
sg556
g557
sg679
g680
sg116
g117
sg200
g201
sg248
g249
sg208
g209
sg216
g217
sg124
g125
sg184
g185
sg59
g60
sg108
g109
sg504
g505
sg232
g233
sg742
g743
sg224
g225
sg635
g636
sg256
g257
sg83
g84
sg478
g479
sg496
g497
sg418
g419
sg13
g11
sg264
g265
sg564
g565
sg548
g549
sg750
g751
sg695
g696
sg572
g573
sg282
g283
sg43
g44
sg521
g522
ssS'keywords'
p956
g9
((ltRp957
sg95
g9
((lp958
g514
ag312
ag372
atRp959
sS'variants'
p960
g9
((lp961
g26
atRp962
sS'defaultVars'
p963
g9
((ltRp964
sb.