(imodel.Compound
Compound
p1
(dp2
S'name'
p3
VUnnamed
p4
sS'isModified'
p5
I00
sS'ccpCode'
p6
V
sS'atoms'
p7
c__builtin__
set
p8
((lp9
(imodel.Atom
Atom
p10
(dp11
g3
S"C1'"
p12
sS'compound'
p13
g1
sS'baseValences'
p14
I4
sS'element'
p15
S'C'
sS'isVariable'
p16
I00
sS'varAtoms'
p17
g8
((lp18
(imodel.VarAtom
VarAtom
p19
(dp20
g3
g12
sS'isLabile'
p21
I00
sS'chirality'
p22
S'R'
sS'atom'
p23
g10
sS'variant'
p24
(imodel.Variant
Variant
p25
(dp26
S'elementDict'
p27
(dp28
S'H'
g8
((lp29
(imodel.VarAtom
VarAtom
p30
(dp31
g3
S'H1'
p32
sg21
I00
sg22
Nsg23
(imodel.Atom
Atom
p33
(dp34
g3
g32
sg13
g1
sg14
I1
sg15
S'H'
sg16
I01
sg17
g8
((lp35
g30
atRp36
sS'isDeleted'
p37
I00
sbsg24
g25
sS'neighbours'
p38
g8
((lp39
(imodel.VarAtom
VarAtom
p40
(dp41
g3
S'N1'
p42
sg21
I00
sg22
Nsg23
(imodel.Atom
Atom
p43
(dp44
g3
g42
sg13
g1
sg14
I3
sg15
S'N'
sg16
I00
sg17
g8
((lp45
g40
atRp46
sg37
I00
sbsg24
g25
sg38
g8
((lp47
(imodel.VarAtom
VarAtom
p48
(dp49
g3
S'C2'
p50
sg21
I00
sg22
Nsg23
(imodel.Atom
Atom
p51
(dp52
g3
g50
sg13
g1
sg14
I4
sg15
S'C'
sg16
I00
sg17
g8
((lp53
g48
atRp54
sg37
I00
sbsg24
g25
sg38
g8
((lp55
g40
a(imodel.VarAtom
VarAtom
p56
(dp57
g3
S'N2'
p58
sg21
I00
sg22
Nsg23
(imodel.Atom
Atom
p59
(dp60
g3
g58
sg13
g1
sg14
I3
sg15
S'N'
sg16
I00
sg17
g8
((lp61
g56
atRp62
sg37
I00
sbsg24
g25
sg38
g8
((lp63
(imodel.VarAtom
VarAtom
p64
(dp65
g3
S'H21'
p66
sg21
I00
sg22
Nsg23
(imodel.Atom
Atom
p67
(dp68
g3
g66
sg13
g1
sg14
I1
sg15
S'H'
sg16
I00
sg17
g8
((lp69
g64
atRp70
sg37
I00
sbsg24
g25
sg38
g8
((lp71
g56
atRp72
sg15
S'H'
sS'charge'
p73
I0
sg16
I00
sS'coords'
p74
(F715.58811352608859
F458.73420086316696
F0
tp75
sS'freeValences'
p76
(lp77
sg13
g1
sS'atomGroups'
p78
g8
((ltRp79
sS'bonds'
p80
g8
((lp81
(imodel.Bond
Bond
p82
(dp83
g13
g1
sS'bondType'
p84
S'single'
p85
sg24
g25
sg17
g8
((lp86
g64
ag56
atRp87
sbatRp88
sg37
I00
sba(imodel.VarAtom
VarAtom
p89
(dp90
g3
S'H22'
p91
sg21
I00
sg22
Nsg23
(imodel.Atom
Atom
p92
(dp93
g3
g91
sg13
g1
sg14
I1
sg15
S'H'
sg16
I00
sg17
g8
((lp94
g89
atRp95
sg37
I00
sbsg24
g25
sg38
g8
((lp96
g56
atRp97
sg15
S'H'
sg73
I0
sg16
I00
sg74
(F764.41136389131134
F413.13216750978654
F0
tp98
sg76
(lp99
sg13
g1
sg78
g8
((ltRp100
sg80
g8
((lp101
(imodel.Bond
Bond
p102
(dp103
g13
g1
sg84
g85
sg24
g25
sg17
g8
((lp104
g89
ag56
atRp105
sbatRp106
sg37
I00
sbag48
atRp107
sg15
S'N'
sg73
I0
sg16
I00
sg74
(F727.41166329005318
F422.39360617258035
F0
tp108
sg76
(lp109
sg13
g1
sg78
g8
((ltRp110
sg80
g8
((lp111
g82
ag102
a(imodel.Bond
Bond
p112
(dp113
g13
g1
sg84
g85
sg24
g25
sg17
g8
((lp114
g48
ag56
atRp115
sbatRp116
sg37
I00
sba(imodel.VarAtom
VarAtom
p117
(dp118
g3
S'N3'
p119
sg21
I00
sg22
Nsg23
(imodel.Atom
Atom
p120
(dp121
g3
g119
sg13
g1
sg14
I3
sg15
S'N'
sg16
I00
sg17
g8
((lp122
g117
atRp123
sg37
I00
sbsg24
g25
sg38
g8
((lp124
(imodel.VarAtom
VarAtom
p125
(dp126
g3
S'C4'
p127
sg21
I00
sg22
Nsg23
(imodel.Atom
Atom
p128
(dp129
g3
g127
sg13
g1
sg14
I4
sg15
S'C'
sg16
I00
sg17
g8
((lp130
g125
atRp131
sg37
I00
sbsg24
g25
sg38
g8
((lp132
(imodel.VarAtom
VarAtom
p133
(dp134
g3
S'N9'
p135
sg21
I00
sg22
Nsg23
(imodel.Atom
Atom
p136
(dp137
g3
g135
sg13
g1
sg14
I3
sg15
S'N'
sg16
I00
sg17
g8
((lp138
g133
atRp139
sg37
I00
sbsg24
g25
sg38
g8
((lp140
g125
a(imodel.VarAtom
VarAtom
p141
(dp142
g3
S'C8'
p143
sg21
I00
sg22
Nsg23
(imodel.Atom
Atom
p144
(dp145
g3
g143
sg13
g1
sg14
I4
sg15
S'C'
sg16
I00
sg17
g8
((lp146
g141
atRp147
sg37
I00
sbsg24
g25
sg38
g8
((lp148
(imodel.VarAtom
VarAtom
p149
(dp150
g3
S'H8'
p151
sg21
I00
sg22
Nsg23
(imodel.Atom
Atom
p152
(dp153
g3
g151
sg13
g1
sg14
I1
sg15
S'H'
sg16
I00
sg17
g8
((lp154
g149
atRp155
sg37
I00
sbsg24
g25
sg38
g8
((lp156
g141
atRp157
sg15
S'H'
sg73
I0
sg16
I00
sg74
(F495.34547570673476
F330.02182330590199
F0
tp158
sg76
(lp159
sg13
g1
sg78
g8
((ltRp160
sg80
g8
((lp161
(imodel.Bond
Bond
p162
(dp163
g13
g1
sg84
g85
sg24
g25
sg17
g8
((lp164
g141
ag149
atRp165
sbatRp166
sg37
I00
sbag133
a(imodel.VarAtom
VarAtom
p167
(dp168
g3
S'N7'
p169
sg21
I00
sg22
Nsg23
(imodel.Atom
Atom
p170
(dp171
g3
g169
sg13
g1
sg14
I3
sg15
S'N'
sg16
I00
sg17
g8
((lp172
g167
atRp173
sg37
I00
sbsg24
g25
sg38
g8
((lp174
g141
a(imodel.VarAtom
VarAtom
p175
(dp176
g3
S'C5'
p177
sg21
I00
sg22
Nsg23
(imodel.Atom
Atom
p178
(dp179
g3
g177
sg13
g1
sg14
I4
sg15
S'C'
sg16
I00
sg17
g8
((lp180
g175
atRp181
sg37
I00
sbsg24
g25
sg38
g8
((lp182
(imodel.VarAtom
VarAtom
p183
(dp184
g3
S'C6'
p185
sg21
I00
sg22
Nsg23
(imodel.Atom
Atom
p186
(dp187
g3
g185
sg13
g1
sg14
I4
sg15
S'C'
sg16
I00
sg17
g8
((lp188
g183
atRp189
sg37
I00
sbsg24
g25
sg38
g8
((lp190
g175
a(imodel.VarAtom
VarAtom
p191
(dp192
g3
S'O6'
p193
sg21
I00
sg22
Nsg23
(imodel.Atom
Atom
p194
(dp195
g3
g193
sg13
g1
sg14
I2
sg15
S'O'
sg16
I00
sg17
g8
((lp196
g191
atRp197
sg37
I00
sbsg24
g25
sg38
g8
((lp198
g183
atRp199
sg15
S'O'
sg73
I0
sg16
I00
sg74
(F662.19051296430689
F260.18255452113863
F0
tp200
sg76
(lp201
sg13
g1
sg78
g8
((ltRp202
sg80
g8
((lp203
(imodel.Bond
Bond
p204
(dp205
g13
g1
sg84
S'double'
p206
sg24
g25
sg17
g8
((lp207
g183
ag191
atRp208
sbatRp209
sg37
I00
sbag40
atRp210
sg15
S'C'
sg73
I0
sg16
I00
sg74
(F660.95726479364885
F304.13782705002404
F0
tp211
sg76
(lp212
sg13
g1
sg78
g8
((lp213
(imodel.AtomGroup
AtomGroup
p214
(dp215
S'groupType'
p216
S'aromatic'
p217
sS'subGroups'
p218
g8
((ltRp219
sS'varAtoms'
p220
g8
((lp221
g117
ag125
ag40
ag183
ag48
ag175
atRp222
sS'variant'
p223
g25
sS'compound'
p224
g1
sbatRp225
sg80
g8
((lp226
(imodel.Bond
Bond
p227
(dp228
g13
g1
sg84
g217
sg24
g25
sg17
g8
((lp229
g183
ag175
atRp230
sbag204
a(imodel.Bond
Bond
p231
(dp232
g13
g1
sg84
g217
sg24
g25
sg17
g8
((lp233
g183
ag40
atRp234
sbatRp235
sg37
I00
sbag167
ag125
atRp236
sg15
S'C'
sg73
I0
sg16
I00
sg74
(F614.66969248834334
F323.2574210176349
F0
tp237
sg76
(lp238
sg13
g1
sg78
g8
((lp239
(imodel.AtomGroup
AtomGroup
p240
(dp241
S'groupType'
p242
S'aromatic'
p243
sS'subGroups'
p244
g8
((ltRp245
sg17
g8
((lp246
g133
ag141
ag125
ag175
ag167
atRp247
sg24
g25
sg13
g1
sbag214
atRp248
sg80
g8
((lp249
g227
a(imodel.Bond
Bond
p250
(dp251
g13
g1
sg84
g217
sg24
g25
sg17
g8
((lp252
g175
ag125
atRp253
sba(imodel.Bond
Bond
p254
(dp255
g13
g1
sg84
g243
sg24
g25
sg17
g8
((lp256
g175
ag167
atRp257
sbatRp258
sg37
I00
sbatRp259
sg15
S'N'
sg73
I0
sg16
I00
sg74
(F570.00054465497851
F300.85699011340307
F0
tp260
sg76
(lp261
sg13
g1
sg78
g8
((lp262
g240
atRp263
sg80
g8
((lp264
(imodel.Bond
Bond
p265
(dp266
g13
g1
sg84
g243
sg24
g25
sg17
g8
((lp267
g141
ag167
atRp268
sbag254
atRp269
sg37
I00
sbatRp270
sg15
S'C'
sg73
I0
sg16
I00
sg74
(F534.93533572720708
F336.54176700437688
F0
tp271
sg76
(lp272
sg13
g1
sg78
g8
((lp273
g240
atRp274
sg80
g8
((lp275
g162
ag265
a(imodel.Bond
Bond
p276
(dp277
g13
g1
sg84
g243
sg24
g25
sg17
g8
((lp278
g141
ag133
atRp279
sbatRp280
sg37
I00
sbag19
atRp281
sg15
S'N'
sg73
I0
sg16
I00
sg74
(F558.61127717512557
F379.52030629632014
F0.21458195252242251
tp282
sg76
(lp283
sg13
g1
sg78
g8
((lp284
g240
atRp285
sg80
g8
((lp286
(imodel.Bond
Bond
p287
(dp288
g13
g1
sg84
g243
sg24
g25
sg17
g8
((lp289
g125
ag133
atRp290
sbag276
a(imodel.Bond
Bond
p291
(dp292
g13
g1
sg84
S'single'
p293
sg24
g25
sg17
g8
((lp294
g19
ag133
atRp295
sbatRp296
sg37
I00
sbag175
ag117
atRp297
sg15
S'C'
sg73
I0
sg16
I00
sg74
(F607.60267138778863
F372.50295701061054
F0
tp298
sg76
(lp299
sg13
g1
sg78
g8
((lp300
g240
ag214
atRp301
sg80
g8
((lp302
g287
a(imodel.Bond
Bond
p303
(dp304
g13
g1
sg84
g217
sg24
g25
sg17
g8
((lp305
g117
ag125
atRp306
sbag250
atRp307
sg37
I00
sbag48
atRp308
sg15
S'N'
sg73
I0
sg16
I00
sg74
(F647.35187260499242
F403.20710878487398
F0
tp309
sg76
(lp310
sg13
g1
sg78
g8
((lp311
g214
atRp312
sg80
g8
((lp313
g303
a(imodel.Bond
Bond
p314
(dp315
g13
g1
sg84
g217
sg24
g25
sg17
g8
((lp316
g117
ag48
atRp317
sbatRp318
sg37
I00
sbatRp319
sg15
S'C'
sg73
I0
sg16
I00
sg74
(F693.58066966084061
F384.51214130985954
F0
tp320
sg76
(lp321
sg13
g1
sg78
g8
((lp322
g214
atRp323
sg80
g8
((lp324
(imodel.Bond
Bond
p325
(dp326
g13
g1
sg84
g217
sg24
g25
sg17
g8
((lp327
g40
ag48
atRp328
sbag314
ag112
atRp329
sg37
I00
sbag183
ag30
atRp330
sg15
S'N'
sg73
I0
sg16
I00
sg74
(F700.65920578257874
F334.80924117881182
F0
tp331
sg76
(lp332
sg13
g1
sg78
g8
((lp333
g214
atRp334
sg80
g8
((lp335
g325
a(imodel.Bond
Bond
p336
(dp337
g13
g1
sg84
g85
sg24
g25
sg17
g8
((lp338
g30
ag40
atRp339
sbag231
atRp340
sg37
I00
sbatRp341
sg15
S'H'
sg73
I0
sg16
I01
sg74
(F734.74703454191786
F317.63968814748432
F0
tp342
sg76
(lp343
sg13
g1
sg78
g8
((ltRp344
sg80
g8
((lp345
g336
atRp346
sg37
I00
sba(imodel.VarAtom
VarAtom
p347
(dp348
g3
S'HOA2'
p349
sg21
I01
sg22
Nsg23
(imodel.Atom
Atom
p350
(dp351
g3
g349
sg13
g1
sg14
I1
sg15
S'H'
sg16
I00
sg17
g8
((lp352
g347
atRp353
sg37
I00
sbsg24
g25
sg38
g8
((lp354
(imodel.VarAtom
VarAtom
p355
(dp356
g3
S'O2A'
p357
sg21
I00
sg22
Nsg23
(imodel.Atom
Atom
p358
(dp359
g3
g357
sg13
g1
sg14
I2
sg15
S'O'
sg16
I00
sg17
g8
((lp360
g355
atRp361
sg37
I00
sbsg24
g25
sg38
g8
((lp362
(imodel.VarAtom
VarAtom
p363
(dp364
g3
S'PA'
p365
sg21
I00
sg22
S'R'
sg23
(imodel.Atom
Atom
p366
(dp367
g3
g365
sg13
g1
sg14
I5
sg15
S'P'
sg16
I00
sg17
g8
((lp368
g363
atRp369
sg37
I00
sbsg24
g25
sg38
g8
((lp370
(imodel.VarAtom
VarAtom
p371
(dp372
g3
S'O1A'
p373
sg21
I00
sg22
Nsg23
(imodel.Atom
Atom
p374
(dp375
g3
g373
sg13
g1
sg14
I2
sg15
S'O'
sg16
I00
sg17
g8
((lp376
g371
atRp377
sg37
I00
sbsg24
g25
sg38
g8
((lp378
g363
atRp379
sg15
S'O'
sg73
I0
sg16
I00
sg74
(F375.7768631157989
F303.39254283369917
F0
tp380
sg76
(lp381
sg13
g1
sg78
g8
((ltRp382
sg80
g8
((lp383
(imodel.Bond
Bond
p384
(dp385
g13
g1
sg84
S'double'
p386
sg24
g25
sg17
g8
((lp387
g371
ag363
atRp388
sbatRp389
sg37
I00
sba(imodel.VarAtom
VarAtom
p390
(dp391
g3
S'O3A'
p392
sg21
I00
sg22
Nsg23
(imodel.Atom
Atom
p393
(dp394
g3
g392
sg13
g1
sg14
I2
sg15
S'O'
sg16
I00
sg17
g8
((lp395
g390
atRp396
sg37
I00
sbsg24
g25
sg38
g8
((lp397
(imodel.VarAtom
VarAtom
p398
(dp399
g3
S'PB'
p400
sg21
I00
sg22
S'R'
sg23
(imodel.Atom
Atom
p401
(dp402
g3
g400
sg13
g1
sg14
I5
sg15
S'P'
sg16
I00
sg17
g8
((lp403
g398
atRp404
sg37
I00
sbsg24
g25
sg38
g8
((lp405
(imodel.VarAtom
VarAtom
p406
(dp407
g3
S'O1B'
p408
sg21
I00
sg22
Nsg23
(imodel.Atom
Atom
p409
(dp410
g3
g408
sg13
g1
sg14
I2
sg15
S'O'
sg16
I00
sg17
g8
((lp411
g406
atRp412
sg37
I00
sbsg24
g25
sg38
g8
((lp413
g398
atRp414
sg15
S'O'
sg73
I0
sg16
I00
sg74
(F245.4683781139619
F296.12936115093032
F0
tp415
sg76
(lp416
sg13
g1
sg78
g8
((ltRp417
sg80
g8
((lp418
(imodel.Bond
Bond
p419
(dp420
g13
g1
sg84
S'double'
p421
sg24
g25
sg17
g8
((lp422
g398
ag406
atRp423
sbatRp424
sg37
I00
sba(imodel.VarAtom
VarAtom
p425
(dp426
g3
S'O3B'
p427
sg21
I00
sg22
Nsg23
(imodel.Atom
Atom
p428
(dp429
g3
g427
sg13
g1
sg14
I2
sg15
S'O'
sg16
I00
sg17
g8
((lp430
g425
atRp431
sg37
I00
sbsg24
g25
sg38
g8
((lp432
g398
a(imodel.VarAtom
VarAtom
p433
(dp434
g3
S'PG'
p435
sg21
I00
sg22
Nsg23
(imodel.Atom
Atom
p436
(dp437
g3
g435
sg13
g1
sg14
I5
sg15
S'P'
sg16
I00
sg17
g8
((lp438
g433
atRp439
sg37
I00
sbsg24
g25
sg38
g8
((lp440
(imodel.VarAtom
VarAtom
p441
(dp442
g3
S'O1G'
p443
sg21
I00
sg22
Nsg23
(imodel.Atom
Atom
p444
(dp445
g3
g443
sg13
g1
sg14
I2
sg15
S'O'
sg16
I00
sg17
g8
((lp446
g441
atRp447
sg37
I00
sbsg24
g25
sg38
g8
((lp448
g433
atRp449
sg15
S'O'
sg73
I0
sg16
I00
sg74
(F279.76303318792088
F151.68147244554737
F0
tp450
sg76
(lp451
sg13
g1
sg78
g8
((ltRp452
sg80
g8
((lp453
(imodel.Bond
Bond
p454
(dp455
g13
g1
sg84
S'double'
p456
sg24
g25
sg17
g8
((lp457
g433
ag441
atRp458
sbatRp459
sg37
I00
sbag425
a(imodel.VarAtom
VarAtom
p460
(dp461
g3
S'O3G'
p462
sg21
I00
sg22
Nsg23
(imodel.Atom
Atom
p463
(dp464
g3
g462
sg13
g1
sg14
I2
sg15
S'O'
sg16
I00
sg17
g8
((lp465
g460
atRp466
sg37
I00
sbsg24
g25
sg38
g8
((lp467
(imodel.VarAtom
VarAtom
p468
(dp469
g3
S'HOG3'
p470
sg21
I01
sg22
Nsg23
(imodel.Atom
Atom
p471
(dp472
g3
g470
sg13
g1
sg14
I1
sg15
S'H'
sg16
I00
sg17
g8
((lp473
g468
atRp474
sg37
I00
sbsg24
g25
sg38
g8
((lp475
g460
atRp476
sg15
S'H'
sg73
I0
sg16
I00
sg74
(F400.30700480117355
F206.44985024141332
F0
tp477
sg76
(lp478
sg13
g1
sg78
g8
((ltRp479
sg80
g8
((lp480
(imodel.Bond
Bond
p481
(dp482
g13
g1
sg84
S'single'
p483
sg24
g25
sg17
g8
((lp484
g460
ag468
atRp485
sbatRp486
sg37
I00
sbag433
atRp487
sg15
S'O'
sg73
I0
sg16
I00
sg74
(F364.62184317579909
F194.1189026145972
F0
tp488
sg76
(lp489
sg13
g1
sg78
g8
((ltRp490
sg80
g8
((lp491
g481
a(imodel.Bond
Bond
p492
(dp493
g13
g1
sg84
g483
sg24
g25
sg17
g8
((lp494
g433
ag460
atRp495
sbatRp496
sg37
I00
sba(imodel.VarAtom
VarAtom
p497
(dp498
g3
S'O2G'
p499
sg21
I00
sg22
Nsg23
(imodel.Atom
Atom
p500
(dp501
g3
g499
sg13
g1
sg14
I2
sg15
S'O'
sg16
I00
sg17
g8
((lp502
g497
atRp503
sg37
I00
sbsg24
g25
sg38
g8
((lp504
(imodel.VarAtom
VarAtom
p505
(dp506
g3
S'HOG2'
p507
sg21
I01
sg22
Nsg23
(imodel.Atom
Atom
p508
(dp509
g3
g507
sg13
g1
sg14
I1
sg15
S'H'
sg16
I00
sg17
g8
((lp510
g505
atRp511
sg37
I00
sbsg24
g25
sg38
g8
((lp512
g497
atRp513
sg15
S'H'
sg73
I0
sg16
I00
sg74
(F360.78581618549691
F94.191164473296766
F0
tp514
sg76
(lp515
sg13
g1
sg78
g8
((ltRp516
sg80
g8
((lp517
(imodel.Bond
Bond
p518
(dp519
g13
g1
sg84
g483
sg24
g25
sg17
g8
((lp520
g497
ag505
atRp521
sbatRp522
sg37
I00
sbag433
atRp523
sg15
S'O'
sg73
I0
sg16
I00
sg74
(F340.60679459817698
F126.22789044101572
F0
tp524
sg76
(lp525
sg13
g1
sg78
g8
((ltRp526
sg80
g8
((lp527
g518
a(imodel.Bond
Bond
p528
(dp529
g13
g1
sg84
g483
sg24
g25
sg17
g8
((lp530
g433
ag497
atRp531
sbatRp532
sg37
I00
sbatRp533
sg15
S'P'
sg73
I0
sg16
I00
sg74
(F318.92505854577178
F172.12118498125503
F0
tp534
sg76
(lp535
sg13
g1
sg78
g8
((ltRp536
sg80
g8
((lp537
g454
ag528
ag492
a(imodel.Bond
Bond
p538
(dp539
g13
g1
sg84
g483
sg24
g25
sg17
g8
((lp540
g433
ag425
atRp541
sbatRp542
sg37
I00
sbatRp543
sg15
S'O'
sg73
I0
sg16
I00
sg74
(F300.58919548435404
F219.32241690498427
F0
tp544
sg76
(lp545
sg13
g1
sg78
g8
((ltRp546
sg80
g8
((lp547
(imodel.Bond
Bond
p548
(dp549
g13
g1
sg84
g483
sg24
g25
sg17
g8
((lp550
g398
ag425
atRp551
sbag538
atRp552
sg37
I00
sba(imodel.VarAtom
VarAtom
p553
(dp554
g3
S'O2B'
p555
sg21
I00
sg22
Nsg23
(imodel.Atom
Atom
p556
(dp557
g3
g555
sg13
g1
sg14
I2
sg15
S'O'
sg16
I00
sg17
g8
((lp558
g553
atRp559
sg37
I00
sbsg24
g25
sg38
g8
((lp560
(imodel.VarAtom
VarAtom
p561
(dp562
g3
S'HOB2'
p563
sg21
I01
sg22
Nsg23
(imodel.Atom
Atom
p564
(dp565
g3
g563
sg13
g1
sg14
I1
sg15
S'H'
sg16
I00
sg17
g8
((lp566
g561
atRp567
sg37
I00
sbsg24
g25
sg38
g8
((lp568
g553
atRp569
sg15
S'H'
sg73
I0
sg16
I00
sg74
(F200.78701864930719
F213.02316374014987
F0
tp570
sg76
(lp571
sg13
g1
sg78
g8
((ltRp572
sg80
g8
((lp573
(imodel.Bond
Bond
p574
(dp575
g13
g1
sg84
g483
sg24
g25
sg17
g8
((lp576
g553
ag561
atRp577
sbatRp578
sg37
I00
sbag398
atRp579
sg15
S'O'
sg73
I0
sg16
I00
sg74
(F231.66500145780458
F234.97461198991243
F0
tp580
sg76
(lp581
sg13
g1
sg78
g8
((ltRp582
sg80
g8
((lp583
g574
a(imodel.Bond
Bond
p584
(dp585
g13
g1
sg84
g483
sg24
g25
sg17
g8
((lp586
g553
ag398
atRp587
sbatRp588
sg37
I00
sbag390
atRp589
sg15
S'P'
sg73
I0
sg16
I00
sg74
(F274.24679746288899
F262.62415334379534
F0
tp590
sg76
(lp591
sg13
g1
sg78
g8
((ltRp592
sg80
g8
((lp593
g548
ag419
ag584
a(imodel.Bond
Bond
p594
(dp595
g13
g1
sg84
g483
sg24
g25
sg17
g8
((lp596
g398
ag390
atRp597
sbatRp598
sg37
I00
sbag363
atRp599
sg15
S'O'
sg73
I0
sg16
I00
sg74
(F311.86694618707497
F296.6821675659574
F0
tp600
sg76
(lp601
sg13
g1
sg78
g8
((ltRp602
sg80
g8
((lp603
g594
a(imodel.Bond
Bond
p604
(dp605
g13
g1
sg84
g483
sg24
g25
sg17
g8
((lp606
g390
ag363
atRp607
sbatRp608
sg37
I00
sbag355
a(imodel.VarAtom
VarAtom
p609
(dp610
g3
S"O5'"
p611
sg21
I00
sg22
Nsg23
(imodel.Atom
Atom
p612
(dp613
g3
g611
sg13
g1
sg14
I2
sg15
S'O'
sg16
I00
sg17
g8
((lp614
g609
atRp615
sg37
I00
sbsg24
g25
sg38
g8
((lp616
g363
a(imodel.VarAtom
VarAtom
p617
(dp618
g3
S"C5'"
p619
sg21
I00
sg22
Nsg23
(imodel.Atom
Atom
p620
(dp621
g3
g619
sg13
g1
sg14
I4
sg15
S'C'
sg16
I00
sg17
g8
((lp622
g617
atRp623
sg37
I00
sbsg24
g25
sg38
g8
((lp624
(imodel.VarAtom
VarAtom
p625
(dp626
g3
S"H5'1"
p627
sg21
I00
sg22
Nsg23
(imodel.Atom
Atom
p628
(dp629
g3
g627
sg13
g1
sg14
I1
sg15
S'H'
sg16
I00
sg17
g8
((lp630
g625
atRp631
sg37
I00
sbsg24
g25
sg38
g8
((lp632
g617
atRp633
sg15
S'H'
sg73
I0
sg16
I00
sg74
(F435.94619017362163
F378.1572277721055
F0
tp634
sg76
(lp635
sg13
g1
sg78
g8
((lp636
(imodel.AtomGroup
AtomGroup
p637
(dp638
g242
S'prochiral'
p639
sg244
g8
((ltRp640
sg17
g8
((lp641
(imodel.VarAtom
VarAtom
p642
(dp643
g3
S"H5'2"
p644
sg21
I00
sg22
Nsg23
(imodel.Atom
Atom
p645
(dp646
g3
g644
sg13
g1
sg14
I1
sg15
S'H'
sg16
I00
sg17
g8
((lp647
g642
atRp648
sg37
I00
sbsg24
g25
sg38
g8
((lp649
g617
atRp650
sg15
S'H'
sg73
I0
sg16
I00
sg74
(F382.49875990462169
F431.12221784468738
F0
tp651
sg76
(lp652
sg13
g1
sg78
g8
((lp653
g637
atRp654
sg80
g8
((lp655
(imodel.Bond
Bond
p656
(dp657
g13
g1
sg84
g483
sg24
g25
sg17
g8
((lp658
g642
ag617
atRp659
sbatRp660
sg37
I00
sbag625
atRp661
sg24
g25
sg13
g1
sbatRp662
sg80
g8
((lp663
(imodel.Bond
Bond
p664
(dp665
g13
g1
sg84
g483
sg24
g25
sg17
g8
((lp666
g625
ag617
atRp667
sbatRp668
sg37
I00
sbag609
ag642
a(imodel.VarAtom
VarAtom
p669
(dp670
g3
S"C4'"
p671
sg21
I00
sg22
S'R'
sg23
(imodel.Atom
Atom
p672
(dp673
g3
g671
sg13
g1
sg14
I4
sg15
S'C'
sg16
I00
sg17
g8
((lp674
g669
atRp675
sg37
I00
sbsg24
g25
sg38
g8
((lp676
g617
a(imodel.VarAtom
VarAtom
p677
(dp678
g3
S"O4'"
p679
sg21
I00
sg22
Nsg23
(imodel.Atom
Atom
p680
(dp681
g3
g679
sg13
g1
sg14
I2
sg15
S'O'
sg16
I00
sg17
g8
((lp682
g677
atRp683
sg37
I00
sbsg24
g25
sg38
g8
((lp684
g19
ag669
atRp685
sg15
S'O'
sg73
I0
sg16
I00
sg74
(F492.9011005112086
F414.83237555787565
F0
tp686
sg76
(lp687
sg13
g1
sg78
g8
((ltRp688
sg80
g8
((lp689
(imodel.Bond
Bond
p690
(dp691
g13
g1
sg84
g483
sg24
g25
sg17
g8
((lp692
g19
ag677
atRp693
sba(imodel.Bond
Bond
p694
(dp695
g13
g1
sg84
g483
sg24
g25
sg17
g8
((lp696
g677
ag669
atRp697
sbatRp698
sg37
I00
sba(imodel.VarAtom
VarAtom
p699
(dp700
g3
S"C3'"
p701
sg21
I00
sg22
S'S'
sg23
(imodel.Atom
Atom
p702
(dp703
g3
g701
sg13
g1
sg14
I4
sg15
S'C'
sg16
I00
sg17
g8
((lp704
g699
atRp705
sg37
I00
sbsg24
g25
sg38
g8
((lp706
(imodel.VarAtom
VarAtom
p707
(dp708
g3
S"O3'"
p709
sg21
I00
sg22
Nsg23
(imodel.Atom
Atom
p710
(dp711
g3
g709
sg13
g1
sg14
I2
sg15
S'O'
sg16
I00
sg17
g8
((lp712
g707
atRp713
sg37
I00
sbsg24
g25
sg38
g8
((lp714
g699
a(imodel.VarAtom
VarAtom
p715
(dp716
g3
S"HO3'"
p717
sg21
I01
sg22
Nsg23
(imodel.Atom
Atom
p718
(dp719
g3
g717
sg13
g1
sg14
I1
sg15
S'H'
sg16
I00
sg17
g8
((lp720
g715
atRp721
sg37
I00
sbsg24
g25
sg38
g8
((lp722
g707
atRp723
sg15
S'H'
sg73
I0
sg16
I00
sg74
(F470.12982175231548
F577.1549899044112
F0
tp724
sg76
(lp725
sg13
g1
sg78
g8
((ltRp726
sg80
g8
((lp727
(imodel.Bond
Bond
p728
(dp729
g13
g1
sg84
g483
sg24
g25
sg17
g8
((lp730
g715
ag707
atRp731
sbatRp732
sg37
I00
sbatRp733
sg15
S'O'
sg73
I0
sg16
I00
sg74
(F476.44067681727699
F539.94128375740183
F0
tp734
sg76
(lp735
sg13
g1
sg78
g8
((ltRp736
sg80
g8
((lp737
(imodel.Bond
Bond
p738
(dp739
g13
g1
sg84
g483
sg24
g25
sg17
g8
((lp740
g699
ag707
atRp741
sbag728
atRp742
sg37
I00
sbag669
a(imodel.VarAtom
VarAtom
p743
(dp744
g3
S"C2'"
p745
sg21
I00
sg22
S'R'
sg23
(imodel.Atom
Atom
p746
(dp747
g3
g745
sg13
g1
sg14
I4
sg15
S'C'
sg16
I00
sg17
g8
((lp748
g743
atRp749
sg37
I00
sbsg24
g25
sg38
g8
((lp750
(imodel.VarAtom
VarAtom
p751
(dp752
g3
S"O2'"
p753
sg21
I00
sg22
Nsg23
(imodel.Atom
Atom
p754
(dp755
g3
g753
sg13
g1
sg14
I2
sg15
S'O'
sg16
I00
sg17
g8
((lp756
g751
atRp757
sg37
I00
sbsg24
g25
sg38
g8
((lp758
(imodel.VarAtom
VarAtom
p759
(dp760
g3
S"HO2'"
p761
sg21
I01
sg22
Nsg23
(imodel.Atom
Atom
p762
(dp763
g3
g761
sg13
g1
sg14
I1
sg15
S'H'
sg16
I00
sg17
g8
((lp764
g759
atRp765
sg37
I00
sbsg24
g25
sg38
g8
((lp766
g751
atRp767
sg15
S'H'
sg73
I0
sg16
I00
sg74
(F579.36075094223816
F561.2058856813469
F0
tp768
sg76
(lp769
sg13
g1
sg78
g8
((ltRp770
sg80
g8
((lp771
(imodel.Bond
Bond
p772
(dp773
g13
g1
sg84
g483
sg24
g25
sg17
g8
((lp774
g759
ag751
atRp775
sbatRp776
sg37
I00
sbag743
atRp777
sg15
S'O'
sg73
I0
sg16
I00
sg74
(F558.16492987783681
F529.72901424911538
F0
tp778
sg76
(lp779
sg13
g1
sg78
g8
((ltRp780
sg80
g8
((lp781
g772
a(imodel.Bond
Bond
p782
(dp783
g13
g1
sg84
g483
sg24
g25
sg17
g8
((lp784
g743
ag751
atRp785
sbatRp786
sg37
I00
sba(imodel.VarAtom
VarAtom
p787
(dp788
g3
S"H2'"
p789
sg21
I00
sg22
Nsg23
(imodel.Atom
Atom
p790
(dp791
g3
g789
sg13
g1
sg14
I1
sg15
S'H'
sg16
I00
sg17
g8
((lp792
g787
atRp793
sg37
I00
sbsg24
g25
sg38
g8
((lp794
g743
atRp795
sg15
S'H'
sg73
I0
sg16
I00
sg74
(F579.5672791754082
F482.9982518358899
F0
tp796
sg76
(lp797
sg13
g1
sg78
g8
((ltRp798
sg80
g8
((lp799
(imodel.Bond
Bond
p800
(dp801
g13
g1
sg84
g483
sg24
g25
sg17
g8
((lp802
g743
ag787
atRp803
sbatRp804
sg37
I00
sbag699
ag19
atRp805
sg15
S'C'
sg73
I0
sg16
I00
sg74
(F541.09122475520485
F481.51503837701051
F0
tp806
sg76
(lp807
sg13
g1
sg78
g8
((ltRp808
sg80
g8
((lp809
(imodel.Bond
Bond
p810
(dp811
g13
g1
sg84
g483
sg24
g25
sg17
g8
((lp812
g19
ag743
atRp813
sbag782
a(imodel.Bond
Bond
p814
(dp815
g13
g1
sg84
g483
sg24
g25
sg17
g8
((lp816
g699
ag743
atRp817
sbag800
atRp818
sg37
I00
sba(imodel.VarAtom
VarAtom
p819
(dp820
g3
S"H3'"
p821
sg21
I00
sg22
Nsg23
(imodel.Atom
Atom
p822
(dp823
g3
g821
sg13
g1
sg14
I1
sg15
S'H'
sg16
I00
sg17
g8
((lp824
g819
atRp825
sg37
I00
sbsg24
g25
sg38
g8
((lp826
g699
atRp827
sg15
S'H'
sg73
I0
sg16
I00
sg74
(F499.53555473766983
F456.65053624824128
F0
tp828
sg76
(lp829
sg13
g1
sg78
g8
((ltRp830
sg80
g8
((lp831
(imodel.Bond
Bond
p832
(dp833
g13
g1
sg84
g483
sg24
g25
sg17
g8
((lp834
g699
ag819
atRp835
sbatRp836
sg37
I00
sbatRp837
sg15
S'C'
sg73
I0
sg16
I00
sg74
(F489.66857486385612
F490.96343390854094
F0
tp838
sg76
(lp839
sg13
g1
sg78
g8
((ltRp840
sg80
g8
((lp841
g738
a(imodel.Bond
Bond
p842
(dp843
g13
g1
sg84
g483
sg24
g25
sg17
g8
((lp844
g699
ag669
atRp845
sbag814
ag832
atRp846
sg37
I00
sba(imodel.VarAtom
VarAtom
p847
(dp848
g3
S"H4'"
p849
sg21
I00
sg22
Nsg23
(imodel.Atom
Atom
p850
(dp851
g3
g849
sg13
g1
sg14
I1
sg15
S'H'
sg16
I00
sg17
g8
((lp852
g847
atRp853
sg37
I00
sbsg24
g25
sg38
g8
((lp854
g669
atRp855
sg15
S'H'
sg73
I0
sg16
I00
sg74
(F427.71937213180104
F476.07145461840503
F0
tp856
sg76
(lp857
sg13
g1
sg78
g8
((ltRp858
sg80
g8
((lp859
(imodel.Bond
Bond
p860
(dp861
g13
g1
sg84
g483
sg24
g25
sg17
g8
((lp862
g847
ag669
atRp863
sbatRp864
sg37
I00
sbatRp865
sg15
S'C'
sg73
I0
sg16
I00
sg74
(F452.02913126175815
F446.20845196305481
F0
tp866
sg76
(lp867
sg13
g1
sg78
g8
((ltRp868
sg80
g8
((lp869
g842
ag694
ag860
a(imodel.Bond
Bond
p870
(dp871
g13
g1
sg84
g483
sg24
g25
sg17
g8
((lp872
g669
ag617
atRp873
sbatRp874
sg37
I00
sbatRp875
sg15
S'C'
sg73
I0
sg16
I00
sg74
(F414.57312127398063
F409.95645349248338
F0
tp876
sg76
(lp877
sg13
g1
sg78
g8
((ltRp878
sg80
g8
((lp879
g664
ag870
a(imodel.Bond
Bond
p880
(dp881
g13
g1
sg84
g483
sg24
g25
sg17
g8
((lp882
g609
ag617
atRp883
sbag656
atRp884
sg37
I00
sbatRp885
sg15
S'O'
sg73
I0
sg16
I00
sg74
(F379.06115954962496
F373.00787104683621
F0
tp886
sg76
(lp887
sg13
g1
sg78
g8
((ltRp888
sg80
g8
((lp889
(imodel.Bond
Bond
p890
(dp891
g13
g1
sg84
g483
sg24
g25
sg17
g8
((lp892
g609
ag363
atRp893
sbag880
atRp894
sg37
I00
sbatRp895
sg15
S'P'
sg73
I0
sg16
I00
sg74
(F345.14150472235974
F335.08994018973817
F0
tp896
sg76
(lp897
sg13
g1
sg78
g8
((ltRp898
sg80
g8
((lp899
g384
ag890
ag604
a(imodel.Bond
Bond
p900
(dp901
g13
g1
sg84
g483
sg24
g25
sg17
g8
((lp902
g355
ag363
atRp903
sbatRp904
sg37
I00
sbag347
atRp905
sg15
S'O'
sg73
I0
sg16
I00
sg74
(F306.50619062240344
F367.86554222590064
F0
tp906
sg76
(lp907
sg13
g1
sg78
g8
((ltRp908
sg80
g8
((lp909
g900
a(imodel.Bond
Bond
p910
(dp911
g13
g1
sg84
g483
sg24
g25
sg17
g8
((lp912
g347
ag355
atRp913
sbatRp914
sg37
I00
sbatRp915
sg15
S'H'
sg73
I0
sg16
I00
sg74
(F276.79193184321019
F391.09614272512187
F0
tp916
sg76
(lp917
sg13
g1
sg78
g8
((ltRp918
sg80
g8
((lp919
g910
atRp920
sg37
I00
sbag468
ag847
ag149
ag787
ag64
ag819
ag642
ag715
ag89
ag759
a(imodel.VarAtom
VarAtom
p921
(dp922
g3
S"H1'"
p923
sg21
I00
sg22
Nsg23
(imodel.Atom
Atom
p924
(dp925
g3
g923
sg13
g1
sg14
I1
sg15
S'H'
sg16
I00
sg17
g8
((lp926
g921
atRp927
sg37
I00
sbsg24
g25
sg38
g8
((lp928
g19
atRp929
sg15
S'H'
sg73
I0
sg16
I00
sg74
(F580.98384435874254
F428.51995739765624
F0
tp930
sg76
(lp931
sg13
g1
sg78
g8
((ltRp932
sg80
g8
((lp933
(imodel.Bond
Bond
p934
(dp935
g13
g1
sg84
g483
sg24
g25
sg17
g8
((lp936
g19
ag921
atRp937
sbatRp938
sg37
I00
sbag625
ag505
ag561
atRp939
sS'C'
g8
((lp940
g669
ag699
ag125
ag141
ag617
ag48
ag183
ag19
ag743
ag175
atRp941
sS'P'
g8
((lp942
g363
ag398
ag433
atRp943
sS'O'
g8
((lp944
g553
ag497
ag441
ag390
ag707
ag406
ag425
ag609
ag191
ag677
ag751
ag371
ag355
ag460
atRp945
sS'N'
g8
((lp946
g40
ag117
ag133
ag56
ag167
atRp947
ssg80
g8
((lp948
g842
ag860
ag900
ag276
ag772
ag594
ag890
ag250
ag910
ag231
ag690
ag303
ag102
ag782
ag528
ag880
ag664
ag694
ag336
ag584
ag314
ag934
ag287
ag810
ag325
ag492
ag112
ag384
ag227
ag574
ag656
ag870
ag162
ag604
ag832
ag419
ag454
ag814
ag538
ag518
ag291
ag481
ag738
ag254
ag548
ag800
ag82
ag728
ag265
ag204
atRp949
sg13
g1
sS'descriptor'
p950
(S'+H1'
S'none'
p951
S'default'
p952
tp953
sS'atomDict'
p954
(dp955
g10
g19
sg754
g751
sg152
g149
sg33
g30
sg374
g371
sg628
g625
sg186
g183
sg43
g40
sg393
g390
sg645
g642
sg92
g89
sg718
g715
sg436
g433
sg67
g64
sg762
g759
sg409
g406
sg710
g707
sg680
g677
sg358
g355
sg508
g505
sg790
g787
sg620
g617
sg194
g191
sg850
g847
sg564
g561
sg471
g468
sg672
g669
sg59
g56
sg556
g553
sg612
g609
sg746
g743
sg51
g48
sg178
g175
sg170
g167
sg500
g497
sg822
g819
sg463
g460
sg128
g125
sg144
g141
sg401
g398
sg924
g921
sg444
g441
sg702
g699
sg350
g347
sg428
g425
sg120
g117
sg136
g133
sg366
g363
ssg17
g8
((lp956
g715
ag553
ag347
ag505
ag175
ag117
ag167
ag561
ag30
ag743
ag48
ag460
ag669
ag497
ag363
ag609
ag441
ag787
ag64
ag133
ag425
ag398
ag625
ag751
ag355
ag149
ag406
ag677
ag468
ag390
ag847
ag642
ag819
ag19
ag40
ag56
ag617
ag759
ag699
ag433
ag125
ag141
ag707
ag371
ag183
ag89
ag921
ag191
atRp957
sg78
g8
((lp958
g637
ag240
ag214
atRp959
sS'polyLink'
p960
S'none'
p961
sbsg38
g8
((lp962
g743
ag921
ag133
ag677
atRp963
sg15
S'C'
sg73
I0
sg16
I00
sg74
(F542.95809243672193
F426.37446030574836
F0
tp964
sg76
(lp965
sg13
g1
sg78
g8
((ltRp966
sg80
g8
((lp967
g810
ag934
ag690
ag291
atRp968
sg37
I00
sbatRp969
sg37
I00
sbag754
ag152
ag33
ag374
ag628
ag186
ag43
ag393
ag645
ag92
ag718
ag436
ag67
ag762
ag409
ag710
ag680
ag358
ag508
ag790
ag620
ag194
ag850
ag564
ag471
ag672
ag59
ag556
ag612
ag746
ag51
ag178
ag170
ag500
ag822
ag463
ag128
ag144
ag401
ag924
ag444
ag702
ag350
ag428
ag120
ag136
ag366
atRp970
sS'ccpMolType'
p971
S'other'
p972
sS'details'
p973
V
sg954
(dp974
g717
g718
sg701
g702
sg12
g10
sg91
g92
sg619
g620
sg408
g409
sg373
g374
sg499
g500
sg392
g393
sg193
g194
sg789
g790
sg427
g428
sg462
g463
sg169
g170
sg563
g564
sg821
g822
sg679
g680
sg400
g401
sg143
g144
sg435
g436
sg50
g51
sg923
g924
sg185
g186
sg177
g178
sg127
g128
sg761
g762
sg66
g67
sg135
g136
sg671
g672
sg627
g628
sg644
g645
sg753
g754
sg42
g43
sg58
g59
sg119
g120
sg555
g556
sg357
g358
sg849
g850
sg443
g444
sg151
g152
sg365
g366
sg32
g33
sg611
g612
sg507
g508
sg470
g471
sg349
g350
sg709
g710
sg745
g746
ssS'keywords'
p975
g8
((ltRp976
sg78
g8
((lp977
g637
ag240
ag214
atRp978
sS'variants'
p979
g8
((lp980
g25
atRp981
sS'defaultVars'
p982
g8
((ltRp983
sb.