(imodel.Compound
Compound
p1
(dp2
S'name'
p3
S'Unnamed'
p4
sS'isModified'
p5
I01
sS'ccpCode'
p6
NsS'atoms'
p7
c__builtin__
set
p8
((lp9
(imodel.Atom
Atom
p10
(dp11
g3
S'O3'
p12
sS'compound'
p13
g1
sS'element'
p14
S'O'
sS'isVariable'
p15
I00
sS'varAtoms'
p16
g8
((lp17
(imodel.VarAtom
VarAtom
p18
(dp19
g3
g12
sS'isLabile'
p20
I00
sS'chirality'
p21
NsS'atom'
p22
g10
sS'variant'
p23
(imodel.Variant
Variant
p24
(dp25
S'elementDict'
p26
(dp27
S'P'
g8
((lp28
(imodel.VarAtom
VarAtom
p29
(dp30
g3
VP
sg20
I00
sg21
Nsg22
(imodel.Atom
Atom
p31
(dp32
g3
VP
sg13
g1
sg14
S'P'
sg15
I00
sg16
g8
((lp33
g29
atRp34
sS'isDeleted'
p35
I00
sbsg23
g24
sS'neighbours'
p36
g8
((lp37
(imodel.VarAtom
VarAtom
p38
(dp39
g3
VO1
p40
sg20
I00
sg21
Nsg22
(imodel.Atom
Atom
p41
(dp42
g3
g40
sg13
g1
sg14
S'O'
sg15
I00
sg16
g8
((lp43
g38
atRp44
sg35
I00
sbsg23
g24
sg36
g8
((lp45
g29
atRp46
sg14
S'O'
sS'charge'
p47
I0
sg15
I00
sS'coords'
p48
(F-134.68944799236618
F-105.00754867716766
F0.27182332369844076
tp49
sS'freeValences'
p50
(lp51
sg13
g1
sS'atomGroups'
p52
g8
((ltRp53
sS'bonds'
p54
g8
((lp55
(imodel.Bond
Bond
p56
(dp57
g13
g1
sS'bondType'
p58
S'double'
p59
sg23
g24
sg16
g8
((lp60
g29
ag38
atRp61
sbatRp62
sg35
I00
sba(imodel.VarAtom
VarAtom
p63
(dp64
g3
S'O2'
p65
sg20
I00
sg21
Nsg22
(imodel.Atom
Atom
p66
(dp67
g3
g65
sg13
g1
sg14
S'O'
sg15
I00
sg16
g8
((lp68
g63
atRp69
sg35
I00
sbsg23
g24
sg36
g8
((lp70
g29
a(imodel.VarAtom
VarAtom
p71
(dp72
g3
S'H2'
p73
sg20
I01
sg21
Nsg22
(imodel.Atom
Atom
p74
(dp75
g3
g73
sg13
g1
sg14
S'H'
sg15
I00
sg16
g8
((lp76
g71
atRp77
sg35
I00
sbsg23
g24
sg36
g8
((lp78
g63
atRp79
sg14
S'H'
sg47
I0
sg15
I00
sg48
(F-117.8585751017817
F24.815473065414608
F0.017794137124653941
tp80
sg50
(lp81
sg13
g1
sg52
g8
((ltRp82
sg54
g8
((lp83
(imodel.Bond
Bond
p84
(dp85
g13
g1
sg58
S'single'
p86
sg23
g24
sg16
g8
((lp87
g63
ag71
atRp88
sbatRp89
sg35
I00
sbatRp90
sg14
S'O'
sg47
I0
sg15
I00
sg48
(F-120.18736781319164
F-15.325281571987134
F0.8679961346395183
tp91
sg50
(lp92
sg13
g1
sg52
g8
((ltRp93
sg54
g8
((lp94
(imodel.Bond
Bond
p95
(dp96
S'bondType'
p97
S'single'
p98
sS'compound'
p99
g1
sS'variant'
p100
g24
sS'varAtoms'
p101
g8
((lp102
g29
ag63
atRp103
sbag84
atRp104
sg35
I00
sbag18
atRp105
sg14
S'P'
sg47
I0
sg15
I00
sg48
(F-133.94639389212995
F-61.026262826814595
F0.62742949023424732
tp106
sg50
(lp107
F4.8670529557529445
asg13
g1
sg52
g8
((ltRp108
sg54
g8
((lp109
g56
ag95
a(imodel.Bond
Bond
p110
(dp111
g97
g98
sg99
g1
sg100
g24
sg101
g8
((lp112
g18
ag29
atRp113
sbatRp114
sg35
I00
sbatRp115
sS'O'
g8
((lp116
g38
ag63
ag18
atRp117
sS'H'
g8
((lp118
(imodel.VarAtom
VarAtom
p119
(dp120
g3
S'H1'
p121
sg20
I01
sg21
Nsg22
(imodel.Atom
Atom
p122
(dp123
g3
g121
sg13
g1
sg14
S'H'
sg15
I00
sg16
g8
((lp124
g119
atRp125
sg35
I00
sbsg23
g24
sg36
g8
((lp126
g18
atRp127
sg14
S'H'
sg47
I0
sg15
I00
sg48
(F-40.182851758429834
F-48.074049248986917
F0.52766553083579626
tp128
sg50
(lp129
sg13
g1
sg52
g8
((ltRp130
sg54
g8
((lp131
(imodel.Bond
Bond
p132
(dp133
g97
g98
sg99
g1
sg100
g24
sg101
g8
((lp134
g119
ag18
atRp135
sbatRp136
sg35
I00
sbag71
atRp137
ssg54
g8
((lp138
g84
ag132
ag56
ag95
ag110
atRp139
sg13
g1
sS'descriptor'
p140
(S'neutral'
p141
S'none'
p142
S'default'
p143
tp144
sS'atomDict'
p145
(dp146
g10
g18
sg41
g38
sg122
g119
sg74
g71
sg31
g29
sg66
g63
ssg16
g8
((lp147
g18
ag63
ag38
ag71
ag29
ag119
atRp148
sg52
g8
((ltRp149
sS'polyLink'
p150
g142
sbsg36
g8
((lp151
g29
ag119
atRp152
sg14
S'O'
sg47
I0
sg15
I00
sg48
(F-87.602274989511201
F-46.454981544550485
F1.0895779885492209
tp153
sg50
(lp154
sg13
g1
sg52
g8
((ltRp155
sg54
g8
((lp156
g110
ag132
atRp157
sg35
I00
sbatRp158
sg35
I00
sbag41
ag122
ag74
ag31
ag66
atRp159
sS'ccpMolType'
p160
S'other'
p161
sS'details'
p162
V
sg145
(dp163
g73
g74
sg121
g122
sVP
g31
sg12
g10
sg65
g66
sg40
g41
ssS'keywords'
p164
g8
((ltRp165
sg52
g8
((ltRp166
sS'variants'
p167
g8
((lp168
g24
atRp169
sS'defaultVars'
p170
g8
((ltRp171
sb.