(imodel.Compound
Compound
p1
(dp2
S'name'
p3
S'Unnamed'
p4
sS'isModified'
p5
I01
sS'ccpCode'
p6
NsS'atoms'
p7
c__builtin__
set
p8
((lp9
(imodel.Atom
Atom
p10
(dp11
g3
S'O3'
p12
sS'compound'
p13
g1
sS'element'
p14
S'O'
sS'isVariable'
p15
I00
sS'varAtoms'
p16
g8
((lp17
(imodel.VarAtom
VarAtom
p18
(dp19
g3
g12
sS'isLabile'
p20
I00
sS'chirality'
p21
NsS'atom'
p22
g10
sS'variant'
p23
(imodel.Variant
Variant
p24
(dp25
S'elementDict'
p26
(dp27
S'P'
g8
((lp28
(imodel.VarAtom
VarAtom
p29
(dp30
g3
VP
sg20
I00
sg21
Nsg22
(imodel.Atom
Atom
p31
(dp32
g3
VP
sg13
g1
sg14
S'P'
sg15
I00
sg16
g8
((lp33
g29
atRp34
sS'isDeleted'
p35
I00
sbsg23
g24
sS'neighbours'
p36
g8
((lp37
(imodel.VarAtom
VarAtom
p38
(dp39
g3
VO1
p40
sg20
I00
sg21
Nsg22
(imodel.Atom
Atom
p41
(dp42
g3
g40
sg13
g1
sg14
S'O'
sg15
I00
sg16
g8
((lp43
g38
atRp44
sg35
I00
sbsg23
g24
sg36
g8
((lp45
g29
atRp46
sg14
S'O'
sS'charge'
p47
I0
sg15
I00
sS'coords'
p48
(F-177.21856193750273
F-39.701785422154046
F0.70326460330462048
tp49
sS'freeValences'
p50
(lp51
F5.1702591428577556
asg13
g1
sS'atomGroups'
p52
g8
((ltRp53
sS'bonds'
p54
g8
((lp55
(imodel.Bond
Bond
p56
(dp57
g13
g1
sS'bondType'
p58
S'single'
p59
sg23
g24
sg16
g8
((lp60
g29
ag38
atRp61
sbatRp62
sg35
I00
sba(imodel.VarAtom
VarAtom
p63
(dp64
g3
VO4
p65
sg20
I00
sg21
Nsg22
(imodel.Atom
Atom
p66
(dp67
g3
g65
sg13
g1
sg14
S'O'
sg15
I00
sg16
g8
((lp68
g63
atRp69
sg35
I00
sbsg23
g24
sg36
g8
((lp70
g29
atRp71
sg14
S'O'
sg47
I0
sg15
I00
sg48
(F-134.68944799236618
F-105.00754867716766
F0.27182332369844076
tp72
sg50
(lp73
sg13
g1
sg52
g8
((ltRp74
sg54
g8
((lp75
(imodel.Bond
Bond
p76
(dp77
g13
g1
sg58
S'double'
p78
sg23
g24
sg16
g8
((lp79
g29
ag63
atRp80
sbatRp81
sg35
I00
sbag18
a(imodel.VarAtom
VarAtom
p82
(dp83
g3
S'O2'
p84
sg20
I00
sg21
Nsg22
(imodel.Atom
Atom
p85
(dp86
g3
g84
sg13
g1
sg14
S'O'
sg15
I00
sg16
g8
((lp87
g82
atRp88
sg35
I00
sbsg23
g24
sg36
g8
((lp89
g29
a(imodel.VarAtom
VarAtom
p90
(dp91
g3
S'H2'
p92
sg20
I01
sg21
Nsg22
(imodel.Atom
Atom
p93
(dp94
g3
g92
sg13
g1
sg14
S'H'
sg15
I00
sg16
g8
((lp95
g90
atRp96
sg35
I00
sbsg23
g24
sg36
g8
((lp97
g82
atRp98
sg14
S'H'
sg47
I0
sg15
I00
sg48
(F-117.8585751017817
F24.815473065414608
F0.017794137124653941
tp99
sg50
(lp100
sg13
g1
sg52
g8
((ltRp101
sg54
g8
((lp102
(imodel.Bond
Bond
p103
(dp104
g13
g1
sg58
g59
sg23
g24
sg16
g8
((lp105
g82
ag90
atRp106
sbatRp107
sg35
I00
sbatRp108
sg14
S'O'
sg47
I0
sg15
I00
sg48
(F-120.18736781319164
F-15.325281571987134
F0.8679961346395183
tp109
sg50
(lp110
sg13
g1
sg52
g8
((ltRp111
sg54
g8
((lp112
(imodel.Bond
Bond
p113
(dp114
S'bondType'
p115
S'single'
p116
sS'compound'
p117
g1
sS'variant'
p118
g24
sS'varAtoms'
p119
g8
((lp120
g29
ag82
atRp121
sbag103
atRp122
sg35
I00
sbatRp123
sg14
S'P'
sg47
I0
sg15
I00
sg48
(F-133.94639389212995
F-61.026262826814595
F0.62742949023424732
tp124
sg50
(lp125
sg13
g1
sg52
g8
((ltRp126
sg54
g8
((lp127
g56
ag76
ag113
a(imodel.Bond
Bond
p128
(dp129
g115
g116
sg117
g1
sg118
g24
sg119
g8
((lp130
g18
ag29
atRp131
sbatRp132
sg35
I00
sbatRp133
sS'O'
g8
((lp134
g63
ag82
ag38
ag18
atRp135
sS'H'
g8
((lp136
(imodel.VarAtom
VarAtom
p137
(dp138
g3
S'H1'
p139
sg20
I01
sg21
Nsg22
(imodel.Atom
Atom
p140
(dp141
g3
g139
sg13
g1
sg14
S'H'
sg15
I00
sg16
g8
((lp142
g137
atRp143
sg35
I00
sbsg23
g24
sg36
g8
((lp144
g18
atRp145
sg14
S'H'
sg47
I0
sg15
I00
sg48
(F-40.182851758429834
F-48.074049248986917
F0.52766553083579626
tp146
sg50
(lp147
sg13
g1
sg52
g8
((ltRp148
sg54
g8
((lp149
(imodel.Bond
Bond
p150
(dp151
g115
g116
sg117
g1
sg118
g24
sg119
g8
((lp152
g137
ag18
atRp153
sbatRp154
sg35
I00
sbag90
atRp155
ssg54
g8
((lp156
g103
ag150
ag76
ag56
ag113
ag128
atRp157
sg13
g1
sS'descriptor'
p158
(S'neutral'
S'none'
p159
S'default'
tp160
sS'atomDict'
p161
(dp162
g10
g18
sg66
g63
sg140
g137
sg93
g90
sg31
g29
sg41
g38
sg85
g82
ssg16
g8
((lp163
g38
ag18
ag82
ag63
ag90
ag29
ag137
atRp164
sg52
g8
((ltRp165
sS'polyLink'
p166
g159
sbsg36
g8
((lp167
g29
ag137
atRp168
sg14
S'O'
sg47
I0
sg15
I00
sg48
(F-87.602274989511201
F-46.454981544550485
F1.0895779885492209
tp169
sg50
(lp170
sg13
g1
sg52
g8
((ltRp171
sg54
g8
((lp172
g128
ag150
atRp173
sg35
I00
sbatRp174
sg35
I00
sbag66
ag140
ag93
ag31
ag41
ag85
atRp175
sS'ccpMolType'
p176
S'other'
p177
sS'details'
p178
V
sg161
(dp179
g92
g93
sg139
g140
sVP
g31
sg65
g66
sg12
g10
sg84
g85
sg40
g41
ssS'keywords'
p180
g8
((ltRp181
sg52
g8
((ltRp182
sS'variants'
p183
g8
((lp184
g24
atRp185
sS'defaultVars'
p186
g8
((ltRp187
sb.