(imodel.Compound
Compound
p1
(dp2
S'name'
p3
S'Unnamed'
p4
sS'isModified'
p5
I01
sS'ccpCode'
p6
NsS'atoms'
p7
c__builtin__
set
p8
((lp9
(imodel.Atom
Atom
p10
(dp11
g3
S'O1'
p12
sS'compound'
p13
g1
sS'baseValences'
p14
I2
sS'element'
p15
S'O'
sS'isVariable'
p16
I00
sS'varAtoms'
p17
g8
((lp18
(imodel.VarAtom
VarAtom
p19
(dp20
S'neighbours'
p21
g8
((lp22
(imodel.VarAtom
VarAtom
p23
(dp24
g21
g8
((lp25
g19
a(imodel.VarAtom
VarAtom
p26
(dp27
g21
g8
((lp28
g23
a(imodel.VarAtom
VarAtom
p29
(dp30
g21
g8
((lp31
(imodel.VarAtom
VarAtom
p32
(dp33
g21
g8
((lp34
g29
ag19
atRp35
sg3
VC2
p36
sS'isLabile'
p37
I00
sS'chirality'
p38
NsS'atom'
p39
(imodel.Atom
Atom
p40
(dp41
g3
g36
sg13
g1
sg14
I4
sg15
S'C'
sg16
I00
sg17
g8
((lp42
g32
atRp43
sS'isDeleted'
p44
I00
sbsS'variant'
p45
(imodel.Variant
Variant
p46
(dp47
S'elementDict'
p48
(dp49
S'C'
g8
((lp50
g23
ag32
ag26
ag29
atRp51
sS'O'
g8
((lp52
g19
atRp53
sS'N'
g8
((ltRp54
ssS'bonds'
p55
g8
((lp56
(imodel.Bond
Bond
p57
(dp58
S'bondType'
p59
S'aromatic'
p60
sg13
g1
sg45
g46
sg17
g8
((lp61
g23
ag19
atRp62
sba(imodel.Bond
Bond
p63
(dp64
g59
g60
sg13
g1
sg45
g46
sg17
g8
((lp65
g32
ag19
atRp66
sba(imodel.Bond
Bond
p67
(dp68
g59
g60
sg13
g1
sg45
g46
sg17
g8
((lp69
g23
ag26
atRp70
sba(imodel.Bond
Bond
p71
(dp72
g59
g60
sg13
g1
sg45
g46
sg17
g8
((lp73
g26
ag29
atRp74
sba(imodel.Bond
Bond
p75
(dp76
g59
g60
sg13
g1
sg45
g46
sg17
g8
((lp77
g32
ag29
atRp78
sbatRp79
sg13
g1
sS'atomDict'
p80
(dp81
g10
g19
s(imodel.Atom
Atom
p82
(dp83
g3
VC4
p84
sg13
g1
sg14
I4
sg15
S'C'
sg16
I00
sg17
g8
((lp85
g26
atRp86
sg44
I00
sbg26
sg40
g32
s(imodel.Atom
Atom
p87
(dp88
g3
VC3
p89
sg13
g1
sg14
I4
sg15
S'C'
sg16
I00
sg17
g8
((lp90
g29
atRp91
sg44
I00
sbg29
s(imodel.Atom
Atom
p92
(dp93
g3
VC5
p94
sg13
g1
sg14
I4
sg15
S'C'
sg16
I00
sg17
g8
((lp95
g23
atRp96
sg44
I00
sbg23
ssS'descriptor'
p97
(S'neutral'
p98
S'none'
p99
S'default'
p100
tp101
sg17
g8
((lp102
g32
ag23
ag19
ag26
ag29
atRp103
sS'atomGroups'
p104
g8
((lp105
(imodel.AtomGroup
AtomGroup
p106
(dp107
S'groupType'
p108
g60
sS'subGroups'
p109
g8
((ltRp110
sg17
g8
((lp111
g19
ag32
ag23
ag26
ag29
atRp112
sg45
g46
sg13
g1
sbatRp113
sS'polyLink'
p114
g99
sbsS'charge'
p115
I0
sg15
S'C'
sg16
I00
sS'coords'
p116
(F-101.46207172050553
F-112.44871251152171
F0.76118489938434908
tp117
sS'freeValences'
p118
(lp119
F3.134401133112164
asg13
g1
sg104
g8
((lp120
g106
atRp121
sg55
g8
((lp122
g75
ag63
atRp123
sg44
I00
sbag26
atRp124
sg3
g89
sg37
I00
sg38
Nsg39
g87
sg45
g46
sg115
I0
sg15
S'C'
sg16
I00
sg116
(F-61.224940515189736
F-82.77366454950284
F0.95784120536368311
tp125
sg118
(lp126
F1.8778625786988723
asg13
g1
sg104
g8
((lp127
g106
atRp128
sg55
g8
((lp129
g75
ag71
atRp130
sg44
I00
sbatRp131
sg3
g84
sg37
I00
sg38
Nsg39
g82
sg45
g46
sg115
I0
sg15
S'C'
sg16
I00
sg116
(F-77.010352067116855
F-35.331676707431484
F0.51743445786765907
tp132
sg118
(lp133
F0.62120085068275266
asg13
g1
sg104
g8
((lp134
g106
atRp135
sg55
g8
((lp136
g67
ag71
atRp137
sg44
I00
sbatRp138
sg3
g94
sg37
I00
sg38
Nsg39
g92
sg45
g46
sg115
I0
sg15
S'C'
sg16
I00
sg116
(F-127.00846052334246
F-35.690990817212061
F0.54479941680959831
tp139
sg118
(lp140
F5.647744574993192
asg13
g1
sg104
g8
((lp141
g106
atRp142
sg55
g8
((lp143
g57
ag67
atRp144
sg44
I00
sbag32
atRp145
sg3
g12
sg37
I00
sg38
Nsg39
g10
sg45
g46
sg115
I0
sg15
S'O'
sg16
I00
sg116
(F-142.12400475520198
F-83.353900049825654
F0.76036025782780992
tp146
sg118
(lp147
sg13
g1
sg104
g8
((lp148
g106
atRp149
sg55
g8
((lp150
g57
ag63
atRp151
sg44
I00
sbatRp152
sg44
I00
sbag82
ag40
ag87
ag92
atRp153
sS'ccpMolType'
p154
S'other'
p155
sS'details'
p156
V
sg80
(dp157
g94
g92
sg89
g87
sg36
g40
sg12
g10
sg84
g82
ssS'keywords'
p158
g8
((ltRp159
sg104
g8
((lp160
g106
atRp161
sS'variants'
p162
g8
((lp163
g46
atRp164
sS'defaultVars'
p165
g8
((ltRp166
sb.