(imodel.Compound
Compound
p1
(dp2
S'name'
p3
S'Unnamed'
p4
sS'isModified'
p5
I01
sS'ccpCode'
p6
NsS'atoms'
p7
c__builtin__
set
p8
((lp9
(imodel.Atom
Atom
p10
(dp11
g3
VH1
p12
sS'compound'
p13
g1
sS'baseValences'
p14
I1
sS'element'
p15
S'H'
sS'isVariable'
p16
I00
sS'varAtoms'
p17
g8
((lp18
(imodel.VarAtom
VarAtom
p19
(dp20
g3
g12
sS'isLabile'
p21
I00
sS'chirality'
p22
NsS'atom'
p23
g10
sS'variant'
p24
(imodel.Variant
Variant
p25
(dp26
S'elementDict'
p27
(dp28
S'H'
g8
((lp29
g19
atRp30
sS'C'
g8
((lp31
(imodel.VarAtom
VarAtom
p32
(dp33
g3
VC5
p34
sg21
I00
sg22
Nsg23
(imodel.Atom
Atom
p35
(dp36
g3
g34
sg13
g1
sg14
I4
sg15
S'C'
sg16
I00
sg17
g8
((lp37
g32
atRp38
sS'isDeleted'
p39
I00
sbsg24
g25
sS'neighbours'
p40
g8
((lp41
(imodel.VarAtom
VarAtom
p42
(dp43
g3
S'N1'
p44
sg21
I00
sg22
Nsg23
(imodel.Atom
Atom
p45
(dp46
g3
g44
sg13
g1
sg14
I3
sg15
S'N'
sg16
I00
sg17
g8
((lp47
g42
atRp48
sg39
I00
sbsg24
g25
sg40
g8
((lp49
g32
a(imodel.VarAtom
VarAtom
p50
(dp51
g3
VC2
p52
sg21
I00
sg22
Nsg23
(imodel.Atom
Atom
p53
(dp54
g3
g52
sg13
g1
sg14
I4
sg15
S'C'
sg16
I00
sg17
g8
((lp55
g50
atRp56
sg39
I00
sbsg24
g25
sg40
g8
((lp57
(imodel.VarAtom
VarAtom
p58
(dp59
S'neighbours'
p60
g8
((lp61
(imodel.VarAtom
VarAtom
p62
(dp63
g3
VC4
p64
sg21
I00
sg22
Nsg23
(imodel.Atom
Atom
p65
(dp66
g3
g64
sg13
g1
sg14
I4
sg15
S'C'
sg16
I00
sg17
g8
((lp67
g62
atRp68
sg39
I00
sbsg24
g25
sg40
g8
((lp69
g32
ag58
atRp70
sg15
S'C'
sS'charge'
p71
I0
sg16
I00
sS'coords'
p72
(F-74.35636406205137
F-33.662824876449299
F2.2365717193357586
tp73
sS'freeValences'
p74
(lp75
F0.65682000414172492
asg13
g1
sS'atomGroups'
p76
g8
((lp77
(imodel.AtomGroup
AtomGroup
p78
(dp79
S'groupType'
p80
S'aromatic'
p81
sS'subGroups'
p82
g8
((ltRp83
sS'varAtoms'
p84
g8
((lp85
g42
ag50
ag32
ag62
ag58
atRp86
sS'variant'
p87
g25
sS'compound'
p88
g1
sbatRp89
sS'bonds'
p90
g8
((lp91
(imodel.Bond
Bond
p92
(dp93
g13
g1
sS'bondType'
p94
g81
sg24
g25
sg17
g8
((lp95
g32
ag62
atRp96
sba(imodel.Bond
Bond
p97
(dp98
S'bondType'
p99
g81
sg88
g1
sg87
g25
sg84
g8
((lp100
g62
ag58
atRp101
sbatRp102
sg39
I00
sbag50
atRp103
sS'name'
p104
VN3
p105
sS'isLabile'
p106
I00
sS'chirality'
p107
NsS'atom'
p108
(imodel.Atom
Atom
p109
(dp110
g104
g105
sg88
g1
sS'baseValences'
p111
I3
sS'element'
p112
S'N'
sS'isVariable'
p113
I00
sg84
g8
((lp114
g58
atRp115
sS'isDeleted'
p116
I00
sbsg87
g25
sS'charge'
p117
I0
sg112
S'N'
sg113
I00
sS'coords'
p118
(F-60.242353322853994
F-81.620425924745518
F2.2956059386103296
tp119
sS'freeValences'
p120
(lp121
sg88
g1
sS'atomGroups'
p122
g8
((lp123
g78
atRp124
sS'bonds'
p125
g8
((lp126
g97
a(imodel.Bond
Bond
p127
(dp128
g99
g81
sg88
g1
sg87
g25
sg84
g8
((lp129
g50
ag58
atRp130
sbatRp131
sg116
I00
sbag42
atRp132
sg15
S'C'
sg71
I0
sg16
I00
sg72
(F-101.40593537596024
F-109.86351679720113
F1.7976002999655041
tp133
sg74
(lp134
F3.1677763010605733
asg13
g1
sg76
g8
((lp135
g78
atRp136
sg90
g8
((lp137
g127
a(imodel.Bond
Bond
p138
(dp139
g13
g1
sg94
g81
sg24
g25
sg17
g8
((lp140
g50
ag42
atRp141
sbatRp142
sg39
I00
sbag19
atRp143
sg15
S'N'
sg71
I0
sg16
I00
sg72
(F-141.17839859277711
F-79.394455651550373
F1.7107123641473252
tp144
sg74
(lp145
sg13
g1
sg76
g8
((lp146
g78
atRp147
sg90
g8
((lp148
(imodel.Bond
Bond
p149
(dp150
g13
g1
sg94
g81
sg24
g25
sg17
g8
((lp151
g32
ag42
atRp152
sbag138
a(imodel.Bond
Bond
p153
(dp154
g13
g1
sg94
S'single'
p155
sg24
g25
sg17
g8
((lp156
g42
ag19
atRp157
sbatRp158
sg39
I00
sbag62
atRp159
sg15
S'C'
sg71
I0
sg16
I00
sg72
(F-124.26546513089156
F-32.211825599536674
F3.8543198926782329
tp160
sg74
(lp161
F5.6844138404026854
asg13
g1
sg76
g8
((lp162
g78
atRp163
sg90
g8
((lp164
g149
ag92
atRp165
sg39
I00
sbag50
ag62
atRp166
sS'S'
g8
((ltRp167
sS'O'
g8
((ltRp168
sS'N'
g8
((lp169
g42
ag58
atRp170
ssg90
g8
((lp171
g149
ag138
ag153
ag92
ag127
ag97
atRp172
sg13
g1
sS'descriptor'
p173
(S'neutral'
p174
S'none'
p175
S'default'
p176
tp177
sS'atomDict'
p178
(dp179
g10
g19
sg53
g50
sg65
g62
sg45
g42
sg109
g58
sg35
g32
ssg17
g8
((lp180
g50
ag42
ag32
ag62
ag58
ag19
atRp181
sg76
g8
((lp182
g78
atRp183
sS'polyLink'
p184
g175
sbsg40
g8
((lp185
g42
atRp186
sg15
S'H'
sg71
I0
sg16
I00
sg72
(F-175.1394566569424
F-96.358972968334157
F1.2682584942185153
tp187
sg74
(lp188
sg13
g1
sg76
g8
((ltRp189
sg90
g8
((lp190
g153
atRp191
sg39
I00
sbatRp192
sg39
I00
sbag53
ag65
ag45
ag109
ag35
atRp193
sS'ccpMolType'
p194
S'other'
p195
sS'details'
p196
V
sg178
(dp197
g12
g10
sg52
g53
sg44
g45
sg105
g109
sg34
g35
sg64
g65
ssS'keywords'
p198
g8
((ltRp199
sg76
g8
((lp200
g78
atRp201
sS'variants'
p202
g8
((lp203
g25
atRp204
sS'defaultVars'
p205
g8
((ltRp206
sb.