(imodel.Compound
Compound
p1
(dp2
S'name'
p3
VUnnamed
p4
sS'isModified'
p5
I01
sS'ccpCode'
p6
NsS'atoms'
p7
c__builtin__
set
p8
((lp9
(imodel.Atom
Atom
p10
(dp11
S'name'
p12
VC3
p13
sS'compound'
p14
g1
sS'baseValences'
p15
I4
sS'element'
p16
S'C'
sS'isVariable'
p17
I00
sS'varAtoms'
p18
g8
((lp19
(imodel.VarAtom
VarAtom
p20
(dp21
S'neighbours'
p22
g8
((lp23
(imodel.VarAtom
VarAtom
p24
(dp25
g3
VC4
p26
sS'isLabile'
p27
I00
sS'chirality'
p28
NsS'atom'
p29
(imodel.Atom
Atom
p30
(dp31
g3
g26
sS'compound'
p32
g1
sS'baseValences'
p33
I4
sS'element'
p34
S'C'
sS'isVariable'
p35
I00
sS'varAtoms'
p36
g8
((lp37
g24
atRp38
sS'isDeleted'
p39
I00
sbsS'variant'
p40
(imodel.Variant
Variant
p41
(dp42
S'elementDict'
p43
(dp44
S'H'
g8
((ltRp45
sS'C'
g8
((lp46
(imodel.VarAtom
VarAtom
p47
(dp48
g3
VC5
p49
sg27
I00
sg28
Nsg29
(imodel.Atom
Atom
p50
(dp51
g3
g49
sg32
g1
sg33
I4
sg34
S'C'
sg35
I00
sg36
g8
((lp52
g47
atRp53
sg39
I00
sbsg40
g41
sS'neighbours'
p54
g8
((lp55
(imodel.VarAtom
VarAtom
p56
(dp57
g22
g8
((lp58
g47
a(imodel.VarAtom
VarAtom
p59
(dp60
S'name'
p61
VN2
p62
sS'isLabile'
p63
I00
sS'chirality'
p64
NsS'atom'
p65
(imodel.Atom
Atom
p66
(dp67
g61
g62
sS'compound'
p68
g1
sS'baseValences'
p69
I3
sS'element'
p70
S'N'
sS'isVariable'
p71
I00
sS'varAtoms'
p72
g8
((lp73
g59
atRp74
sS'isDeleted'
p75
I00
sbsS'variant'
p76
g41
sS'neighbours'
p77
g8
((lp78
g20
ag56
atRp79
sg70
S'N'
sS'charge'
p80
I0
sg71
I00
sS'coords'
p81
(F-94.760929751926923
F-101.93600307716537
F3.6668072419943822
tp82
sS'freeValences'
p83
(lp84
sg68
g1
sS'atomGroups'
p85
g8
((lp86
(imodel.AtomGroup
AtomGroup
p87
(dp88
S'groupType'
p89
S'aromatic'
p90
sS'subGroups'
p91
g8
((ltRp92
sg18
g8
((lp93
g56
ag59
ag24
ag20
ag47
atRp94
sS'variant'
p95
g41
sg14
g1
sbatRp96
sS'bonds'
p97
g8
((lp98
(imodel.Bond
Bond
p99
(dp100
S'bondType'
p101
g90
sg14
g1
sg95
g41
sg18
g8
((lp102
g59
ag20
atRp103
sba(imodel.Bond
Bond
p104
(dp105
g101
g90
sg14
g1
sg95
g41
sg18
g8
((lp106
g56
ag59
atRp107
sbatRp108
sg75
I00
sbatRp109
sg12
S'O1'
p110
sS'isLabile'
p111
I00
sS'chirality'
p112
NsS'atom'
p113
(imodel.Atom
Atom
p114
(dp115
g12
g110
sg14
g1
sg15
I2
sg16
S'O'
sg17
I00
sg18
g8
((lp116
g56
atRp117
sS'isDeleted'
p118
I00
sbsg95
g41
sS'charge'
p119
I0
sg16
S'O'
sg17
I00
sS'coords'
p120
(F-134.7906003611964
F-71.974048883071319
F1.3839476085698204
tp121
sS'freeValences'
p122
(lp123
sg14
g1
sS'atomGroups'
p124
g8
((lp125
g87
atRp126
sS'bonds'
p127
g8
((lp128
(imodel.Bond
Bond
p129
(dp130
g101
g90
sg14
g1
sg95
g41
sg18
g8
((lp131
g47
ag56
atRp132
sbag104
atRp133
sg118
I00
sbag24
atRp134
sg34
S'C'
sS'charge'
p135
I0
sg35
I00
sS'coords'
p136
(F-118.66808494890712
F-24.646588565063141
F4.6716363686549842
tp137
sS'freeValences'
p138
(lp139
F5.6689744462312026
asg32
g1
sS'atomGroups'
p140
g8
((lp141
g87
atRp142
sS'bonds'
p143
g8
((lp144
g129
a(imodel.Bond
Bond
p145
(dp146
g32
g1
sS'bondType'
p147
g90
sg40
g41
sg36
g8
((lp148
g47
ag24
atRp149
sbatRp150
sg39
I00
sbag20
ag24
atRp151
sS'S'
g8
((ltRp152
sS'O'
g8
((lp153
g56
atRp154
sS'N'
g8
((lp155
g59
atRp156
ssg143
g8
((lp157
g99
ag129
a(imodel.Bond
Bond
p158
(dp159
g101
g90
sg14
g1
sg95
g41
sg18
g8
((lp160
g24
ag20
atRp161
sbag145
ag104
atRp162
sg32
g1
sS'descriptor'
p163
(S'neutral'
p164
S'none'
p165
S'default'
p166
tp167
sS'atomDict'
p168
(dp169
g10
g20
sg30
g24
sg114
g56
sg66
g59
sg50
g47
ssg36
g8
((lp170
g24
ag47
ag20
ag59
ag56
atRp171
sg140
g8
((lp172
g87
atRp173
sS'polyLink'
p174
g165
sbsg54
g8
((lp175
g47
ag20
atRp176
sg34
S'C'
sg135
I0
sg35
I00
sg136
(F-68.675708709951422
F-25.348812191609255
F2.4537939292561566
tp177
sg138
(lp178
F0.64243614187717846
asg32
g1
sg140
g8
((lp179
g87
atRp180
sg143
g8
((lp181
g145
ag158
atRp182
sg39
I00
sbag59
atRp183
sg12
g13
sg111
I00
sg112
Nsg113
g10
sg95
g41
sg119
I0
sg16
S'C'
sg17
I00
sg120
(F-53.900980266439994
F-73.11661357099905
F1.3855396185941657
tp184
sg122
(lp185
F1.8990654565352614
asg14
g1
sg124
g8
((lp186
g87
atRp187
sg127
g8
((lp188
g158
ag99
atRp189
sg118
I00
sbatRp190
sg118
I00
sbag30
ag114
ag66
ag50
atRp191
sS'ccpMolType'
p192
S'other'
p193
sS'details'
p194
V
sg168
(dp195
g110
g114
sg13
g10
sg62
g66
sg49
g50
sg26
g30
ssS'keywords'
p196
g8
((ltRp197
sg140
g8
((lp198
g87
atRp199
sS'variants'
p200
g8
((lp201
g41
atRp202
sS'defaultVars'
p203
g8
((ltRp204
sb.