(imodel.Compound
Compound
p1
(dp2
S'name'
p3
VUnnamed
p4
sS'isModified'
p5
I01
sS'ccpCode'
p6
NsS'atoms'
p7
c__builtin__
set
p8
((lp9
(imodel.Atom
Atom
p10
(dp11
g3
VC2
p12
sS'compound'
p13
g1
sS'baseValences'
p14
I4
sS'element'
p15
S'C'
sS'isVariable'
p16
I00
sS'varAtoms'
p17
g8
((lp18
(imodel.VarAtom
VarAtom
p19
(dp20
g3
g12
sS'isLabile'
p21
I00
sS'chirality'
p22
NsS'atom'
p23
g10
sS'variant'
p24
(imodel.Variant
Variant
p25
(dp26
S'elementDict'
p27
(dp28
S'H'
g8
((ltRp29
sS'C'
g8
((lp30
(imodel.VarAtom
VarAtom
p31
(dp32
g3
VC5
p33
sg21
I00
sg22
Nsg23
(imodel.Atom
Atom
p34
(dp35
g3
g33
sg13
g1
sg14
I4
sg15
S'C'
sg16
I00
sg17
g8
((lp36
g31
atRp37
sS'isDeleted'
p38
I00
sbsg24
g25
sS'neighbours'
p39
g8
((lp40
(imodel.VarAtom
VarAtom
p41
(dp42
S'neighbours'
p43
g8
((lp44
g31
ag19
atRp45
sS'name'
p46
S'O1'
p47
sS'isLabile'
p48
I00
sS'chirality'
p49
NsS'atom'
p50
(imodel.Atom
Atom
p51
(dp52
g46
g47
sS'compound'
p53
g1
sS'baseValences'
p54
I2
sS'element'
p55
S'O'
sS'isVariable'
p56
I00
sS'varAtoms'
p57
g8
((lp58
g41
atRp59
sS'isDeleted'
p60
I00
sbsS'variant'
p61
g25
sS'charge'
p62
I0
sg55
S'O'
sg56
I00
sS'coords'
p63
(F-141.47280227731881
F-79.499620930653393
F0.82066565726229801
tp64
sS'freeValences'
p65
(lp66
sg53
g1
sS'atomGroups'
p67
g8
((lp68
(imodel.AtomGroup
AtomGroup
p69
(dp70
S'groupType'
p71
S'aromatic'
p72
sS'subGroups'
p73
g8
((ltRp74
sg57
g8
((lp75
g41
ag19
a(imodel.VarAtom
VarAtom
p76
(dp77
S'name'
p78
VN3
p79
sS'isLabile'
p80
I00
sS'chirality'
p81
NsS'atom'
p82
(imodel.Atom
Atom
p83
(dp84
g78
g79
sS'compound'
p85
g1
sS'baseValences'
p86
I3
sS'element'
p87
S'N'
sS'isVariable'
p88
I00
sS'varAtoms'
p89
g8
((lp90
g76
atRp91
sS'isDeleted'
p92
I00
sbsS'variant'
p93
g25
sS'neighbours'
p94
g8
((lp95
(imodel.VarAtom
VarAtom
p96
(dp97
g3
VC4
p98
sg21
I00
sg22
Nsg23
(imodel.Atom
Atom
p99
(dp100
g3
g98
sg13
g1
sg14
I4
sg15
S'C'
sg16
I00
sg17
g8
((lp101
g96
atRp102
sg38
I00
sbsg24
g25
sg39
g8
((lp103
g31
ag76
atRp104
sg15
S'C'
sS'charge'
p105
I0
sg16
I00
sS'coords'
p106
(F-74.35636406205137
F-33.662824876449299
F2.2365717193357586
tp107
sS'freeValences'
p108
(lp109
F0.65682000414172492
asg13
g1
sS'atomGroups'
p110
g8
((lp111
g69
atRp112
sS'bonds'
p113
g8
((lp114
(imodel.Bond
Bond
p115
(dp116
g13
g1
sS'bondType'
p117
g72
sg24
g25
sg17
g8
((lp118
g31
ag96
atRp119
sba(imodel.Bond
Bond
p120
(dp121
g85
g1
sS'bondType'
p122
g72
sg93
g25
sg89
g8
((lp123
g96
ag76
atRp124
sbatRp125
sg38
I00
sbag19
atRp126
sg87
S'N'
sS'charge'
p127
I0
sg88
I00
sS'coords'
p128
(F-60.242353322853994
F-81.620425924745518
F2.2956059386103296
tp129
sS'freeValences'
p130
(lp131
sg85
g1
sS'atomGroups'
p132
g8
((lp133
g69
atRp134
sS'bonds'
p135
g8
((lp136
g120
a(imodel.Bond
Bond
p137
(dp138
g85
g1
sg122
g72
sg93
g25
sg89
g8
((lp139
g19
ag76
atRp140
sbatRp141
sg92
I00
sbag96
ag31
atRp142
sg61
g25
sg53
g1
sbatRp143
sS'bonds'
p144
g8
((lp145
(imodel.Bond
Bond
p146
(dp147
S'bondType'
p148
g72
sg53
g1
sg61
g25
sg57
g8
((lp149
g31
ag41
atRp150
sba(imodel.Bond
Bond
p151
(dp152
g148
g72
sg53
g1
sg61
g25
sg57
g8
((lp153
g19
ag41
atRp154
sbatRp155
sg60
I00
sbag96
atRp156
sg15
S'C'
sg105
I0
sg16
I00
sg106
(F-124.26546513089156
F-32.211825599536674
F3.8543198926782329
tp157
sg108
(lp158
F5.6868149279448907
asg13
g1
sg110
g8
((lp159
g69
atRp160
sg113
g8
((lp161
g146
ag115
atRp162
sg38
I00
sbag19
ag96
atRp163
sS'S'
g8
((ltRp164
sS'O'
g8
((lp165
g41
atRp166
sS'N'
g8
((lp167
g76
atRp168
ssg113
g8
((lp169
g120
ag146
ag137
ag115
ag151
atRp170
sg13
g1
sS'descriptor'
p171
(S'neutral'
p172
S'none'
p173
S'default'
p174
tp175
sS'atomDict'
p176
(dp177
g10
g19
sg99
g96
sg51
g41
sg83
g76
sg34
g31
ssg17
g8
((lp178
g96
ag31
ag19
ag76
ag41
atRp179
sg110
g8
((lp180
g69
atRp181
sS'polyLink'
p182
g173
sbsg39
g8
((lp183
g76
ag41
atRp184
sg15
S'C'
sg105
I0
sg16
I00
sg106
(F-101.40593537596024
F-109.86351679720113
F1.7976002999655041
tp185
sg108
(lp186
F3.1651652962379413
asg13
g1
sg110
g8
((lp187
g69
atRp188
sg113
g8
((lp189
g137
ag151
atRp190
sg38
I00
sbatRp191
sg38
I00
sbag99
ag51
ag83
ag34
atRp192
sS'ccpMolType'
p193
S'other'
p194
sS'details'
p195
V
sg176
(dp196
g47
g51
sg12
g10
sg79
g83
sg33
g34
sg98
g99
ssS'keywords'
p197
g8
((ltRp198
sg110
g8
((lp199
g69
atRp200
sS'variants'
p201
g8
((lp202
g25
atRp203
sS'defaultVars'
p204
g8
((ltRp205
sb.