(imodel.Compound
Compound
p1
(dp2
S'name'
p3
S'Unnamed'
p4
sS'isModified'
p5
I01
sS'ccpCode'
p6
NsS'atoms'
p7
c__builtin__
set
p8
((lp9
(imodel.Atom
Atom
p10
(dp11
g3
VH1
p12
sS'compound'
p13
g1
sS'baseValences'
p14
I1
sS'element'
p15
S'H'
sS'isVariable'
p16
I00
sS'varAtoms'
p17
g8
((lp18
(imodel.VarAtom
VarAtom
p19
(dp20
g3
g12
sS'isLabile'
p21
I00
sS'chirality'
p22
NsS'atom'
p23
g10
sS'variant'
p24
(imodel.Variant
Variant
p25
(dp26
S'elementDict'
p27
(dp28
S'H'
g8
((lp29
g19
atRp30
sS'C'
g8
((lp31
(imodel.VarAtom
VarAtom
p32
(dp33
g3
VC5
p34
sg21
I00
sg22
Nsg23
(imodel.Atom
Atom
p35
(dp36
g3
g34
sg13
g1
sg14
I4
sg15
S'C'
sg16
I00
sg17
g8
((lp37
g32
atRp38
sS'isDeleted'
p39
I00
sbsg24
g25
sS'neighbours'
p40
g8
((lp41
(imodel.VarAtom
VarAtom
p42
(dp43
g3
S'N1'
p44
sg21
I00
sg22
Nsg23
(imodel.Atom
Atom
p45
(dp46
g3
g44
sg13
g1
sg14
I3
sg15
S'N'
sg16
I00
sg17
g8
((lp47
g42
atRp48
sg39
I00
sbsg24
g25
sg40
g8
((lp49
g32
a(imodel.VarAtom
VarAtom
p50
(dp51
S'neighbours'
p52
g8
((lp53
g42
a(imodel.VarAtom
VarAtom
p54
(dp55
g52
g8
((lp56
(imodel.VarAtom
VarAtom
p57
(dp58
g3
VC4
p59
sg21
I00
sg22
Nsg23
(imodel.Atom
Atom
p60
(dp61
g3
g59
sg13
g1
sg14
I4
sg15
S'C'
sg16
I00
sg17
g8
((lp62
g57
atRp63
sg39
I00
sbsg24
g25
sg40
g8
((lp64
g32
ag54
atRp65
sg15
S'C'
sS'charge'
p66
I0
sg16
I00
sS'coords'
p67
(F-65.68856509730864
F-24.047879505104611
F2.693404004485918
tp68
sS'freeValences'
p69
(lp70
F0.66986726859798651
asg13
g1
sS'atomGroups'
p71
g8
((lp72
(imodel.AtomGroup
AtomGroup
p73
(dp74
S'groupType'
p75
S'aromatic'
p76
sS'subGroups'
p77
g8
((ltRp78
sS'varAtoms'
p79
g8
((lp80
g50
ag54
ag32
ag57
ag42
atRp81
sS'variant'
p82
g25
sS'compound'
p83
g1
sbatRp84
sS'bonds'
p85
g8
((lp86
(imodel.Bond
Bond
p87
(dp88
g13
g1
sS'bondType'
p89
g76
sg24
g25
sg17
g8
((lp90
g32
ag57
atRp91
sba(imodel.Bond
Bond
p92
(dp93
S'bondType'
p94
g76
sg83
g1
sg82
g25
sg79
g8
((lp95
g57
ag54
atRp96
sbatRp97
sg39
I00
sbag50
atRp98
sS'name'
p99
VC3
p100
sS'isLabile'
p101
I00
sS'chirality'
p102
NsS'atom'
p103
(imodel.Atom
Atom
p104
(dp105
g99
g100
sg83
g1
sS'baseValences'
p106
I4
sS'element'
p107
S'C'
sS'isVariable'
p108
I00
sg79
g8
((lp109
g54
atRp110
sS'isDeleted'
p111
I00
sbsg82
g25
sS'charge'
p112
I0
sg107
S'C'
sg108
I00
sS'coords'
p113
(F-52.205374797443525
F-72.189003189945097
F1.127219863218379
tp114
sS'freeValences'
p115
(lp116
F1.9253039351717032
asg83
g1
sS'atomGroups'
p117
g8
((lp118
g73
atRp119
sS'bonds'
p120
g8
((lp121
g92
a(imodel.Bond
Bond
p122
(dp123
g94
g76
sg83
g1
sg82
g25
sg79
g8
((lp124
g54
ag50
atRp125
sbatRp126
sg111
I00
sbatRp127
sg99
S'N2'
p128
sg101
I00
sg102
Nsg103
(imodel.Atom
Atom
p129
(dp130
g99
g128
sg83
g1
sg106
I3
sg107
S'N'
sg108
I00
sg79
g8
((lp131
g50
atRp132
sg111
I00
sbsg82
g25
sg112
I0
sg107
S'N'
sg108
I00
sg113
(F-93.700924475605859
F-99.89461940932415
F0.71627748168443039
tp133
sg115
(lp134
sg83
g1
sg117
g8
((lp135
g73
atRp136
sg120
g8
((lp137
(imodel.Bond
Bond
p138
(dp139
g94
g76
sg83
g1
sg82
g25
sg79
g8
((lp140
g42
ag50
atRp141
sbag122
atRp142
sg111
I00
sbag19
atRp143
sg15
S'N'
sg66
I0
sg16
I00
sg67
(F-133.09105774159087
F-68.926295102735239
F2.1915879038490207
tp144
sg69
(lp145
sg13
g1
sg71
g8
((lp146
g73
atRp147
sg85
g8
((lp148
(imodel.Bond
Bond
p149
(dp150
g13
g1
sg89
g76
sg24
g25
sg17
g8
((lp151
g32
ag42
atRp152
sbag138
a(imodel.Bond
Bond
p153
(dp154
g13
g1
sg89
S'single'
p155
sg24
g25
sg17
g8
((lp156
g42
ag19
atRp157
sbatRp158
sg39
I00
sbag57
atRp159
sg15
S'C'
sg66
I0
sg16
I00
sg67
(F-115.582487195315
F-21.950216383439496
F4.6558061600667688
tp160
sg69
(lp161
F5.6971778313101389
asg13
g1
sg71
g8
((lp162
g73
atRp163
sg85
g8
((lp164
g149
ag87
atRp165
sg39
I00
sbag54
ag57
atRp166
sS'S'
g8
((ltRp167
sS'O'
g8
((ltRp168
sS'N'
g8
((lp169
g42
ag50
atRp170
ssg85
g8
((lp171
g149
ag138
ag122
ag153
ag87
ag92
atRp172
sg13
g1
sS'descriptor'
p173
(S'neutral'
p174
S'none'
p175
S'default'
p176
tp177
sS'atomDict'
p178
(dp179
g10
g19
sg129
g50
sg104
g54
sg60
g57
sg45
g42
sg35
g32
ssg17
g8
((lp180
g54
ag42
ag32
ag57
ag50
ag19
atRp181
sg71
g8
((lp182
g73
atRp183
sS'polyLink'
p184
g175
sbsg40
g8
((lp185
g42
atRp186
sg15
S'H'
sg66
I0
sg16
I00
sg67
(F-169.04959845943893
F-80.575545919987547
F1.7295826262855749
tp187
sg69
(lp188
sg13
g1
sg71
g8
((ltRp189
sg85
g8
((lp190
g153
atRp191
sg39
I00
sbatRp192
sg39
I00
sbag129
ag104
ag60
ag45
ag35
atRp193
sS'ccpMolType'
p194
S'other'
p195
sS'details'
p196
V
sg178
(dp197
g12
g10
sg100
g104
sg44
g45
sg128
g129
sg34
g35
sg59
g60
ssS'keywords'
p198
g8
((ltRp199
sg71
g8
((lp200
g73
atRp201
sS'variants'
p202
g8
((lp203
g25
atRp204
sS'defaultVars'
p205
g8
((ltRp206
sb.