(imodel.Compound
Compound
p1
(dp2
S'name'
p3
S'Unnamed'
p4
sS'isModified'
p5
I01
sS'ccpCode'
p6
NsS'atoms'
p7
c__builtin__
set
p8
((lp9
(imodel.Atom
Atom
p10
(dp11
g3
S'N1'
p12
sS'compound'
p13
g1
sS'baseValences'
p14
I3
sS'element'
p15
S'N'
sS'isVariable'
p16
I00
sS'varAtoms'
p17
g8
((lp18
(imodel.VarAtom
VarAtom
p19
(dp20
S'neighbours'
p21
g8
((lp22
(imodel.VarAtom
VarAtom
p23
(dp24
g21
g8
((lp25
g19
a(imodel.VarAtom
VarAtom
p26
(dp27
g21
g8
((lp28
g23
a(imodel.VarAtom
VarAtom
p29
(dp30
g21
g8
((lp31
(imodel.VarAtom
VarAtom
p32
(dp33
g21
g8
((lp34
g29
ag19
atRp35
sg3
VC2
p36
sS'isLabile'
p37
I00
sS'chirality'
p38
NsS'atom'
p39
(imodel.Atom
Atom
p40
(dp41
g3
g36
sg13
g1
sg14
I4
sg15
S'C'
sg16
I00
sg17
g8
((lp42
g32
atRp43
sS'isDeleted'
p44
I00
sbsS'variant'
p45
(imodel.Variant
Variant
p46
(dp47
S'elementDict'
p48
(dp49
S'H'
g8
((lp50
(imodel.VarAtom
VarAtom
p51
(dp52
g21
g8
((lp53
g19
atRp54
sg3
VH1
p55
sg37
I00
sg38
Nsg39
(imodel.Atom
Atom
p56
(dp57
g3
g55
sg13
g1
sg14
I1
sg15
S'H'
sg16
I00
sg17
g8
((lp58
g51
atRp59
sg44
I00
sbsg45
g46
sS'charge'
p60
I0
sg15
S'H'
sg16
I00
sS'coords'
p61
(F-178.62017820866492
F-88.614955927980958
F1.2250197418890925
tp62
sS'freeValences'
p63
(lp64
sg13
g1
sS'atomGroups'
p65
g8
((ltRp66
sS'bonds'
p67
g8
((lp68
(imodel.Bond
Bond
p69
(dp70
S'bondType'
p71
S'single'
p72
sg13
g1
sg45
g46
sg17
g8
((lp73
g19
ag51
atRp74
sbatRp75
sg44
I00
sbatRp76
sS'C'
g8
((lp77
g23
ag32
ag26
ag29
atRp78
sS'S'
g8
((ltRp79
sS'O'
g8
((ltRp80
sS'N'
g8
((lp81
g19
atRp82
ssg67
g8
((lp83
g69
a(imodel.Bond
Bond
p84
(dp85
g71
S'aromatic'
p86
sg13
g1
sg45
g46
sg17
g8
((lp87
g23
ag26
atRp88
sba(imodel.Bond
Bond
p89
(dp90
g71
g86
sg13
g1
sg45
g46
sg17
g8
((lp91
g26
ag29
atRp92
sba(imodel.Bond
Bond
p93
(dp94
g71
g86
sg13
g1
sg45
g46
sg17
g8
((lp95
g23
ag19
atRp96
sba(imodel.Bond
Bond
p97
(dp98
g71
g86
sg13
g1
sg45
g46
sg17
g8
((lp99
g32
ag29
atRp100
sba(imodel.Bond
Bond
p101
(dp102
g71
g86
sg13
g1
sg45
g46
sg17
g8
((lp103
g32
ag19
atRp104
sbatRp105
sg13
g1
sS'atomDict'
p106
(dp107
g10
g19
s(imodel.Atom
Atom
p108
(dp109
g3
VC4
p110
sg13
g1
sg14
I4
sg15
S'C'
sg16
I00
sg17
g8
((lp111
g26
atRp112
sg44
I00
sbg26
sg40
g32
s(imodel.Atom
Atom
p113
(dp114
g3
VC3
p115
sg13
g1
sg14
I4
sg15
S'C'
sg16
I00
sg17
g8
((lp116
g29
atRp117
sg44
I00
sbg29
s(imodel.Atom
Atom
p118
(dp119
g3
VC5
p120
sg13
g1
sg14
I4
sg15
S'C'
sg16
I00
sg17
g8
((lp121
g23
atRp122
sg44
I00
sbg23
sg56
g51
ssS'descriptor'
p123
(S'neutral'
p124
S'none'
p125
S'default'
p126
tp127
sg17
g8
((lp128
g32
ag23
ag19
ag26
ag29
ag51
atRp129
sg65
g8
((lp130
(imodel.AtomGroup
AtomGroup
p131
(dp132
S'groupType'
p133
g86
sS'subGroups'
p134
g8
((ltRp135
sg17
g8
((lp136
g19
ag32
ag23
ag26
ag29
atRp137
sg45
g46
sg13
g1
sbatRp138
sS'polyLink'
p139
g125
sbsg60
I0
sg15
S'C'
sg16
I00
sg61
(F-100.3053698690112
F-112.57191884933431
F1.2996936638342498
tp140
sg63
(lp141
F3.1364369318799334
asg13
g1
sg65
g8
((lp142
g131
atRp143
sg67
g8
((lp144
g97
ag101
atRp145
sg44
I00
sbag26
atRp146
sg3
g115
sg37
I00
sg38
Nsg39
g113
sg45
g46
sg60
I0
sg15
S'C'
sg16
I00
sg61
(F-60.053662543861989
F-83.032764202841861
F1.1241568256274321
tp147
sg63
(lp148
F1.8808267248850257
asg13
g1
sg65
g8
((lp149
g131
atRp150
sg67
g8
((lp151
g97
ag89
atRp152
sg44
I00
sbatRp153
sg3
g110
sg37
I00
sg38
Nsg39
g108
sg45
g46
sg60
I0
sg15
S'C'
sg16
I00
sg61
(F-75.667147701926538
F-35.54308368333259
F1.2942933198568654
tp154
sg63
(lp155
F0.62535462056852786
asg13
g1
sg65
g8
((lp156
g131
atRp157
sg67
g8
((lp158
g84
ag89
atRp159
sg44
I00
sbatRp160
sg3
g120
sg37
I00
sg38
Nsg39
g118
sg45
g46
sg60
I0
sg15
S'C'
sg16
I00
sg61
(F-125.58709373822676
F-35.665057440603157
F2.2622568618016503
tp161
sg63
(lp162
F5.6532010930106349
asg13
g1
sg65
g8
((lp163
g131
atRp164
sg67
g8
((lp165
g93
ag84
atRp166
sg44
I00
sbag32
ag51
atRp167
sg3
g12
sg37
I00
sg38
Nsg39
g10
sg45
g46
sg60
I0
sg15
S'N'
sg16
I00
sg61
(F-141.0272468950846
F-83.328935581580538
F0.29476043565811694
tp168
sg63
(lp169
sg13
g1
sg65
g8
((lp170
g131
atRp171
sg67
g8
((lp172
g93
ag101
ag69
atRp173
sg44
I00
sbatRp174
sg44
I00
sbag108
ag40
ag113
ag118
ag56
atRp175
sS'ccpMolType'
p176
S'other'
p177
sS'details'
p178
V
sg106
(dp179
g55
g56
sg120
g118
sg12
g10
sg115
g113
sg36
g40
sg110
g108
ssS'keywords'
p180
g8
((ltRp181
sg65
g8
((lp182
g131
atRp183
sS'variants'
p184
g8
((lp185
g46
atRp186
sS'defaultVars'
p187
g8
((ltRp188
sb.