(imodel.Compound
Compound
p1
(dp2
S'name'
p3
S'Unnamed'
p4
sS'isModified'
p5
I01
sS'ccpCode'
p6
NsS'atoms'
p7
c__builtin__
set
p8
((lp9
(imodel.Atom
Atom
p10
(dp11
g3
VC4
p12
sS'compound'
p13
g1
sS'baseValences'
p14
I4
sS'element'
p15
S'C'
sS'isVariable'
p16
I00
sS'varAtoms'
p17
g8
((lp18
(imodel.VarAtom
VarAtom
p19
(dp20
S'neighbours'
p21
g8
((lp22
(imodel.VarAtom
VarAtom
p23
(dp24
g21
g8
((lp25
(imodel.VarAtom
VarAtom
p26
(dp27
g21
g8
((lp28
g23
a(imodel.VarAtom
VarAtom
p29
(dp30
g21
g8
((lp31
(imodel.VarAtom
VarAtom
p32
(dp33
g21
g8
((lp34
g29
ag19
atRp35
sg3
VC3
p36
sS'isLabile'
p37
I00
sS'chirality'
p38
NsS'atom'
p39
(imodel.Atom
Atom
p40
(dp41
g3
g36
sg13
g1
sg14
I4
sg15
S'C'
sg16
I00
sg17
g8
((lp42
g32
atRp43
sS'isDeleted'
p44
I00
sbsS'variant'
p45
(imodel.Variant
Variant
p46
(dp47
S'elementDict'
p48
(dp49
S'C'
g8
((lp50
g23
ag29
ag19
ag32
atRp51
sS'S'
g8
((lp52
g26
atRp53
sS'O'
g8
((ltRp54
sS'N'
g8
((ltRp55
ssS'bonds'
p56
g8
((lp57
(imodel.Bond
Bond
p58
(dp59
S'bondType'
p60
S'aromatic'
p61
sg13
g1
sg45
g46
sg17
g8
((lp62
g23
ag26
atRp63
sba(imodel.Bond
Bond
p64
(dp65
g60
g61
sg13
g1
sg45
g46
sg17
g8
((lp66
g23
ag19
atRp67
sba(imodel.Bond
Bond
p68
(dp69
g60
g61
sg13
g1
sg45
g46
sg17
g8
((lp70
g29
ag26
atRp71
sba(imodel.Bond
Bond
p72
(dp73
g60
g61
sg13
g1
sg45
g46
sg17
g8
((lp74
g19
ag32
atRp75
sba(imodel.Bond
Bond
p76
(dp77
g60
g61
sg13
g1
sg45
g46
sg17
g8
((lp78
g29
ag32
atRp79
sbatRp80
sg13
g1
sS'atomDict'
p81
(dp82
g10
g19
s(imodel.Atom
Atom
p83
(dp84
g3
VC2
p85
sg13
g1
sg14
I4
sg15
S'C'
sg16
I00
sg17
g8
((lp86
g29
atRp87
sg44
I00
sbg29
s(imodel.Atom
Atom
p88
(dp89
g3
S'S1'
p90
sg13
g1
sg14
I2
sg15
S'S'
sg16
I00
sg17
g8
((lp91
g26
atRp92
sg44
I00
sbg26
sg40
g32
s(imodel.Atom
Atom
p93
(dp94
g3
VC5
p95
sg13
g1
sg14
I4
sg15
S'C'
sg16
I00
sg17
g8
((lp96
g23
atRp97
sg44
I00
sbg23
ssS'descriptor'
p98
(S'neutral'
p99
S'none'
p100
S'default'
p101
tp102
sg17
g8
((lp103
g26
ag29
ag23
ag19
ag32
atRp104
sS'atomGroups'
p105
g8
((lp106
(imodel.AtomGroup
AtomGroup
p107
(dp108
S'groupType'
p109
g61
sS'subGroups'
p110
g8
((ltRp111
sg17
g8
((lp112
g26
ag29
ag23
ag19
ag32
atRp113
sg45
g46
sg13
g1
sbatRp114
sS'polyLink'
p115
g100
sbsS'charge'
p116
I0
sg15
S'C'
sg16
I00
sS'coords'
p117
(F-60.604579413841662
F-82.217317559955532
F1.0851182778685726
tp118
sS'freeValences'
p119
(lp120
F1.8771871339014936
asg13
g1
sg105
g8
((lp121
g107
atRp122
sg56
g8
((lp123
g76
ag72
atRp124
sg44
I00
sbag26
atRp125
sg3
g85
sg37
I00
sg38
Nsg39
g83
sg45
g46
sg116
I0
sg15
S'C'
sg16
I00
sg117
(F-100.82802449017541
F-111.92000713408019
F1.2714107326219617
tp126
sg119
(lp127
F3.1339099032021207
asg13
g1
sg105
g8
((lp128
g107
atRp129
sg56
g8
((lp130
g76
ag68
atRp131
sg44
I00
sbatRp132
sg3
g90
sg37
I00
sg38
Nsg39
g88
sg45
g46
sg116
I0
sg15
S'S'
sg16
I00
sg117
(F-141.50385425174989
F-82.838313704094816
F0.82198940233024287
tp133
sg119
(lp134
sg13
g1
sg105
g8
((lp135
g107
atRp136
sg56
g8
((lp137
g58
ag68
atRp138
sg44
I00
sbag19
atRp139
sg3
g95
sg37
I00
sg38
Nsg39
g93
sg45
g46
sg116
I0
sg15
S'C'
sg16
I00
sg117
(F-126.42284591464005
F-35.167483684559087
F1.5172643393493375
tp140
sg119
(lp141
F5.6471818516268666
asg13
g1
sg105
g8
((lp142
g107
atRp143
sg56
g8
((lp144
g58
ag64
atRp145
sg44
I00
sbag32
atRp146
sg3
g12
sg37
I00
sg38
Nsg39
g10
sg45
g46
sg116
I0
sg15
S'C'
sg16
I00
sg117
(F-76.425215581328175
F-34.787215434927127
F0.84022062725681212
tp147
sg119
(lp148
F0.62061951433207163
asg13
g1
sg105
g8
((lp149
g107
atRp150
sg56
g8
((lp151
g64
ag72
atRp152
sg44
I00
sbatRp153
sg44
I00
sbag83
ag88
ag40
ag93
atRp154
sS'ccpMolType'
p155
S'other'
p156
sS'details'
p157
V
sg81
(dp158
g90
g88
sg95
g93
sg36
g40
sg85
g83
sg12
g10
ssS'keywords'
p159
g8
((ltRp160
sg105
g8
((lp161
g107
atRp162
sS'variants'
p163
g8
((lp164
g46
atRp165
sS'defaultVars'
p166
g8
((ltRp167
sb.