(imodel.Compound
Compound
p1
(dp2
S'name'
p3
VADENOSINE-5'-MONOPHOSPHATE
p4
sS'isModified'
p5
I01
sS'ccpCode'
p6
VA
sS'atoms'
p7
c__builtin__
set
p8
((lp9
(imodel.Atom
Atom
p10
(dp11
g3
S'P'
sS'compound'
p12
g1
sS'baseValences'
p13
I5
sS'element'
p14
S'P'
sS'isVariable'
p15
I00
sS'varAtoms'
p16
g8
((lp17
(imodel.VarAtom
VarAtom
p18
(dp19
g3
S'P'
sS'isLabile'
p20
I00
sS'chirality'
p21
NsS'atom'
p22
g10
sS'variant'
p23
(imodel.Variant
Variant
p24
(dp25
S'elementDict'
p26
(dp27
S'H'
g8
((lp28
(imodel.VarAtom
VarAtom
p29
(dp30
g3
S"H2'"
p31
sg20
I00
sg21
Nsg22
(imodel.Atom
Atom
p32
(dp33
g3
g31
sg12
g1
sg13
I1
sg14
S'H'
sg15
I00
sg16
g8
((lp34
g29
atRp35
sS'isDeleted'
p36
I00
sbsg23
g24
sS'neighbours'
p37
g8
((lp38
(imodel.VarAtom
VarAtom
p39
(dp40
g3
S"C2'"
p41
sg20
I00
sg21
S'R'
sg22
(imodel.Atom
Atom
p42
(dp43
g3
g41
sg12
g1
sg13
I4
sg14
S'C'
sg15
I00
sg16
g8
((lp44
g39
atRp45
sg36
I00
sbsg23
g24
sg37
g8
((lp46
(imodel.VarAtom
VarAtom
p47
(dp48
g3
S"C1'"
p49
sg20
I00
sg21
S'R'
sg22
(imodel.Atom
Atom
p50
(dp51
g3
g49
sg12
g1
sg13
I4
sg14
S'C'
sg15
I00
sg16
g8
((lp52
g47
atRp53
sg36
I00
sbsg23
g24
sg37
g8
((lp54
(imodel.VarAtom
VarAtom
p55
(dp56
g3
S'N9'
p57
sg20
I00
sg21
Nsg22
(imodel.Atom
Atom
p58
(dp59
g3
g57
sg12
g1
sg13
I3
sg14
S'N'
sg15
I00
sg16
g8
((lp60
g55
atRp61
sg36
I00
sbsg23
g24
sg37
g8
((lp62
(imodel.VarAtom
VarAtom
p63
(dp64
g3
S'C8'
p65
sg20
I00
sg21
Nsg22
(imodel.Atom
Atom
p66
(dp67
g3
g65
sg12
g1
sg13
I4
sg14
S'C'
sg15
I00
sg16
g8
((lp68
g63
atRp69
sg36
I00
sbsg23
g24
sg37
g8
((lp70
(imodel.VarAtom
VarAtom
p71
(dp72
g3
S'H8'
p73
sg20
I00
sg21
Nsg22
(imodel.Atom
Atom
p74
(dp75
g3
g73
sg12
g1
sg13
I1
sg14
S'H'
sg15
I00
sg16
g8
((lp76
g71
atRp77
sg36
I00
sbsg23
g24
sg37
g8
((lp78
g63
atRp79
sg14
S'H'
sS'charge'
p80
I0
sg15
I00
sS'coords'
p81
(F270.46359401204541
F192.74162112152806
F2.6327207791024829
tp82
sS'freeValences'
p83
(lp84
sg12
g1
sS'atomGroups'
p85
g8
((ltRp86
sS'bonds'
p87
g8
((lp88
(imodel.Bond
Bond
p89
(dp90
g12
g1
sS'bondType'
p91
S'single'
p92
sg23
g24
sg16
g8
((lp93
g63
ag71
atRp94
sbatRp95
sg36
I00
sbag55
a(imodel.VarAtom
VarAtom
p96
(dp97
g3
S'N7'
p98
sg20
I00
sg21
Nsg22
(imodel.Atom
Atom
p99
(dp100
g3
g98
sg12
g1
sg13
I3
sg14
S'N'
sg15
I00
sg16
g8
((lp101
g96
atRp102
sg36
I00
sbsg23
g24
sg37
g8
((lp103
(imodel.VarAtom
VarAtom
p104
(dp105
g3
S'C5'
p106
sg20
I00
sg21
Nsg22
(imodel.Atom
Atom
p107
(dp108
g3
g106
sg12
g1
sg13
I4
sg14
S'C'
sg15
I00
sg16
g8
((lp109
g104
atRp110
sg36
I00
sbsg23
g24
sg37
g8
((lp111
g96
a(imodel.VarAtom
VarAtom
p112
(dp113
g3
S'C6'
p114
sg20
I00
sg21
Nsg22
(imodel.Atom
Atom
p115
(dp116
g3
g114
sg12
g1
sg13
I4
sg14
S'C'
sg15
I00
sg16
g8
((lp117
g112
atRp118
sg36
I00
sbsg23
g24
sg37
g8
((lp119
(imodel.VarAtom
VarAtom
p120
(dp121
g3
S'N1'
p122
sg20
I00
sg21
Nsg22
(imodel.Atom
Atom
p123
(dp124
g3
g122
sg12
g1
sg13
I3
sg14
S'N'
sg15
I00
sg16
g8
((lp125
g120
atRp126
sg36
I00
sbsg23
g24
sg37
g8
((lp127
g112
a(imodel.VarAtom
VarAtom
p128
(dp129
g3
S'C2'
p130
sg20
I00
sg21
Nsg22
(imodel.Atom
Atom
p131
(dp132
g3
g130
sg12
g1
sg13
I4
sg14
S'C'
sg15
I00
sg16
g8
((lp133
g128
atRp134
sg36
I00
sbsg23
g24
sg37
g8
((lp135
(imodel.VarAtom
VarAtom
p136
(dp137
g3
S'N3'
p138
sg20
I00
sg21
Nsg22
(imodel.Atom
Atom
p139
(dp140
g3
g138
sg12
g1
sg13
I3
sg14
S'N'
sg15
I00
sg16
g8
((lp141
g136
atRp142
sg36
I00
sbsg23
g24
sg37
g8
((lp143
(imodel.VarAtom
VarAtom
p144
(dp145
g3
S'C4'
p146
sg20
I00
sg21
Nsg22
(imodel.Atom
Atom
p147
(dp148
g3
g146
sg12
g1
sg13
I4
sg14
S'C'
sg15
I00
sg16
g8
((lp149
g144
atRp150
sg36
I00
sbsg23
g24
sg37
g8
((lp151
g104
ag136
ag55
atRp152
sg14
S'C'
sg80
I0
sg15
I00
sg81
(F363.80593015943271
F266.31508716761914
F42.382113574463922
tp153
sg83
(lp154
sg12
g1
sg85
g8
((lp155
(imodel.AtomGroup
AtomGroup
p156
(dp157
S'groupType'
p158
S'aromatic'
p159
sS'subGroups'
p160
g8
((ltRp161
sS'varAtoms'
p162
g8
((lp163
g104
ag136
ag120
ag144
ag112
ag128
atRp164
sS'variant'
p165
g24
sS'compound'
p166
g1
sba(imodel.AtomGroup
AtomGroup
p167
(dp168
S'groupType'
p169
S'aromatic'
p170
sS'subGroups'
p171
g8
((ltRp172
sS'varAtoms'
p173
g8
((lp174
g55
ag144
ag63
ag104
ag96
atRp175
sS'variant'
p176
g24
sS'compound'
p177
g1
sbatRp178
sg87
g8
((lp179
(imodel.Bond
Bond
p180
(dp181
g12
g1
sg91
g170
sg23
g24
sg16
g8
((lp182
g144
ag104
atRp183
sba(imodel.Bond
Bond
p184
(dp185
g12
g1
sg91
g159
sg23
g24
sg16
g8
((lp186
g144
ag136
atRp187
sba(imodel.Bond
Bond
p188
(dp189
g12
g1
sg91
g170
sg23
g24
sg16
g8
((lp190
g144
ag55
atRp191
sbatRp192
sg36
I00
sbag128
atRp193
sg14
S'N'
sg80
I0
sg15
I00
sg81
(F394.23437992158847
F306.06538746108924
F54.014929298392829
tp194
sg83
(lp195
sg12
g1
sg85
g8
((lp196
g156
atRp197
sg87
g8
((lp198
g184
a(imodel.Bond
Bond
p199
(dp200
g12
g1
sg91
g159
sg23
g24
sg16
g8
((lp201
g136
ag128
atRp202
sbatRp203
sg36
I00
sbag120
a(imodel.VarAtom
VarAtom
p204
(dp205
g3
S'H2'
p206
sg20
I00
sg21
Nsg22
(imodel.Atom
Atom
p207
(dp208
g3
g206
sg12
g1
sg13
I1
sg14
S'H'
sg15
I00
sg16
g8
((lp209
g204
atRp210
sg36
I00
sbsg23
g24
sg37
g8
((lp211
g128
atRp212
sg14
S'H'
sg80
I0
sg15
I00
sg81
(F463.64227853329203
F329.25088192924682
F81.174215767291599
tp213
sg83
(lp214
sg12
g1
sg85
g8
((ltRp215
sg87
g8
((lp216
(imodel.Bond
Bond
p217
(dp218
g12
g1
sg91
g92
sg23
g24
sg16
g8
((lp219
g204
ag128
atRp220
sbatRp221
sg36
I00
sbatRp222
sg14
S'C'
sg80
I0
sg15
I00
sg81
(F443.73200357690575
F299.75338197145584
F70.563351441755174
tp223
sg83
(lp224
sg12
g1
sg85
g8
((lp225
g156
atRp226
sg87
g8
((lp227
g199
a(imodel.Bond
Bond
p228
(dp229
g12
g1
sg91
g159
sg23
g24
sg16
g8
((lp230
g120
ag128
atRp231
sbag217
atRp232
sg36
I00
sbatRp233
sg14
S'N'
sg80
I0
sg15
I00
sg81
(F463.06819328547044
F253.43605279462372
F73.986931534742197
tp234
sg83
(lp235
sg12
g1
sg85
g8
((lp236
g156
atRp237
sg87
g8
((lp238
(imodel.Bond
Bond
p239
(dp240
g12
g1
sg91
g159
sg23
g24
sg16
g8
((lp241
g120
ag112
atRp242
sbag228
atRp243
sg36
I00
sbag104
a(imodel.VarAtom
VarAtom
p244
(dp245
g3
S'N6'
p246
sg20
I00
sg21
Nsg22
(imodel.Atom
Atom
p247
(dp248
g3
g246
sg12
g1
sg13
I3
sg14
S'N'
sg15
I00
sg16
g8
((lp249
g244
atRp250
sg36
I00
sbsg23
g24
sg37
g8
((lp251
(imodel.VarAtom
VarAtom
p252
(dp253
g3
S'H62'
p254
sg20
I00
sg21
Nsg22
(imodel.Atom
Atom
p255
(dp256
g3
g254
sg12
g1
sg13
I1
sg14
S'H'
sg15
I00
sg16
g8
((lp257
g252
atRp258
sg36
I00
sbsg23
g24
sg37
g8
((lp259
g244
atRp260
sg14
S'H'
sg80
I0
sg15
I00
sg81
(F429.03573877041435
F133.84362944546012
F22.324931334970344
tp261
sg83
(lp262
sg12
g1
sg85
g8
((ltRp263
sg87
g8
((lp264
(imodel.Bond
Bond
p265
(dp266
g12
g1
sg91
g92
sg23
g24
sg16
g8
((lp267
g252
ag244
atRp268
sbatRp269
sg36
I00
sbag112
a(imodel.VarAtom
VarAtom
p270
(dp271
g3
S'H61'
p272
sg20
I00
sg21
Nsg22
(imodel.Atom
Atom
p273
(dp274
g3
g272
sg12
g1
sg13
I1
sg14
S'H'
sg15
I00
sg16
g8
((lp275
g270
atRp276
sg36
I00
sbsg23
g24
sg37
g8
((lp277
g244
atRp278
sg14
S'H'
sg80
I0
sg15
I00
sg81
(F486.88627888173687
F155.80094138694341
F79.170823442044181
tp279
sg83
(lp280
sg12
g1
sg85
g8
((ltRp281
sg87
g8
((lp282
(imodel.Bond
Bond
p283
(dp284
g12
g1
sg91
g92
sg23
g24
sg16
g8
((lp285
g244
ag270
atRp286
sbatRp287
sg36
I00
sbatRp288
sg14
S'N'
sg80
I0
sg15
I00
sg81
(F450.02010178494834
F165.80953722894776
F67.272968804035372
tp289
sg83
(lp290
sg12
g1
sg85
g8
((ltRp291
sg87
g8
((lp292
g265
ag283
a(imodel.Bond
Bond
p293
(dp294
g12
g1
sg91
g92
sg23
g24
sg16
g8
((lp295
g244
ag112
atRp296
sbatRp297
sg36
I00
sbatRp298
sg14
S'C'
sg80
I0
sg15
I00
sg81
(F432.61052846585915
F213.63598294261044
F62.477597120618647
tp299
sg83
(lp300
sg12
g1
sg85
g8
((lp301
g156
atRp302
sg87
g8
((lp303
g239
a(imodel.Bond
Bond
p304
(dp305
g12
g1
sg91
g159
sg23
g24
sg16
g8
((lp306
g112
ag104
atRp307
sbag293
atRp308
sg36
I00
sbag144
atRp309
sg14
S'C'
sg80
I0
sg15
I00
sg81
(F382.84387600576315
F220.34821261830314
F44.812238472717681
tp310
sg83
(lp311
sg12
g1
sg85
g8
((lp312
g156
ag167
atRp313
sg87
g8
((lp314
(imodel.Bond
Bond
p315
(dp316
g12
g1
sg91
g170
sg23
g24
sg16
g8
((lp317
g104
ag96
atRp318
sbag304
ag180
atRp319
sg36
I00
sbag63
atRp320
sg14
S'N'
sg80
I0
sg15
I00
sg81
(F344.85041287768422
F187.82600690272898
F30.028945399601628
tp321
sg83
(lp322
sg12
g1
sg85
g8
((lp323
g167
atRp324
sg87
g8
((lp325
g315
a(imodel.Bond
Bond
p326
(dp327
g12
g1
sg91
g170
sg23
g24
sg16
g8
((lp328
g63
ag96
atRp329
sbatRp330
sg36
I00
sbatRp331
sg14
S'C'
sg80
I0
sg15
I00
sg81
(F302.17421540992484
F213.72302241652926
F16.754187878522828
tp332
sg83
(lp333
sg12
g1
sg85
g8
((lp334
g167
atRp335
sg87
g8
((lp336
g89
a(imodel.Bond
Bond
p337
(dp338
g12
g1
sg91
g170
sg23
g24
sg16
g8
((lp339
g63
ag55
atRp340
sbag326
atRp341
sg36
I00
sbag144
ag47
atRp342
sg14
S'N'
sg80
I0
sg15
I00
sg81
(F313.64082025404662
F262.72637421769457
F24.195939019658841
tp343
sg83
(lp344
sg12
g1
sg85
g8
((lp345
g167
atRp346
sg87
g8
((lp347
g337
ag188
a(imodel.Bond
Bond
p348
(dp349
g12
g1
sg91
g92
sg23
g24
sg16
g8
((lp350
g55
ag47
atRp351
sbatRp352
sg36
I00
sba(imodel.VarAtom
VarAtom
p353
(dp354
g3
S"H1'"
p355
sg20
I00
sg21
Nsg22
(imodel.Atom
Atom
p356
(dp357
g3
g355
sg12
g1
sg13
I1
sg14
S'H'
sg15
I00
sg16
g8
((lp358
g353
atRp359
sg36
I00
sbsg23
g24
sg37
g8
((lp360
g47
atRp361
sg14
S'H'
sg80
I0
sg15
I00
sg81
(F321.5372171126993
F321.8231584442035
F58.197285863034033
tp362
sg83
(lp363
sg12
g1
sg85
g8
((ltRp364
sg87
g8
((lp365
(imodel.Bond
Bond
p366
(dp367
g12
g1
sg91
g92
sg23
g24
sg16
g8
((lp368
g353
ag47
atRp369
sbatRp370
sg36
I00
sbag39
a(imodel.VarAtom
VarAtom
p371
(dp372
g3
S"O4'"
p373
sg20
I00
sg21
Nsg22
(imodel.Atom
Atom
p374
(dp375
g3
g373
sg12
g1
sg13
I2
sg14
S'O'
sg15
I00
sg16
g8
((lp376
g371
atRp377
sg36
I00
sbsg23
g24
sg37
g8
((lp378
g47
a(imodel.VarAtom
VarAtom
p379
(dp380
g3
S"C4'"
p381
sg20
I00
sg21
S'R'
sg22
(imodel.Atom
Atom
p382
(dp383
g3
g381
sg12
g1
sg13
I4
sg14
S'C'
sg15
I00
sg16
g8
((lp384
g379
atRp385
sg36
I00
sbsg23
g24
sg37
g8
((lp386
(imodel.VarAtom
VarAtom
p387
(dp388
g3
S"H4'"
p389
sg20
I00
sg21
Nsg22
(imodel.Atom
Atom
p390
(dp391
g3
g389
sg12
g1
sg13
I1
sg14
S'H'
sg15
I00
sg16
g8
((lp392
g387
atRp393
sg36
I00
sbsg23
g24
sg37
g8
((lp394
g379
atRp395
sg14
S'H'
sg80
I0
sg15
I00
sg81
(F164.14952381705837
F336.79388292539852
F-61.319774688120575
tp396
sg83
(lp397
sg12
g1
sg85
g8
((ltRp398
sg87
g8
((lp399
(imodel.Bond
Bond
p400
(dp401
g12
g1
sg91
g92
sg23
g24
sg16
g8
((lp402
g387
ag379
atRp403
sbatRp404
sg36
I00
sba(imodel.VarAtom
VarAtom
p405
(dp406
g3
S"C5'"
p407
sg20
I00
sg21
Nsg22
(imodel.Atom
Atom
p408
(dp409
g3
g407
sg12
g1
sg13
I4
sg14
S'C'
sg15
I00
sg16
g8
((lp410
g405
atRp411
sg36
I00
sbsg23
g24
sg37
g8
((lp412
(imodel.VarAtom
VarAtom
p413
(dp414
g3
S"H5''"
p415
sg20
I00
sg21
Nsg22
(imodel.Atom
Atom
p416
(dp417
g3
g415
sg12
g1
sg13
I1
sg14
S'H'
sg15
I00
sg16
g8
((lp418
g413
atRp419
sg36
I00
sbsg23
g24
sg37
g8
((lp420
g405
atRp421
sg14
S'H'
sg80
I0
sg15
I00
sg81
(F127.12276005692809
F293.54276348086455
F-140.52516993769333
tp422
sg83
(lp423
sg12
g1
sg85
g8
((ltRp424
sg87
g8
((lp425
(imodel.Bond
Bond
p426
(dp427
g12
g1
sg91
g92
sg23
g24
sg16
g8
((lp428
g405
ag413
atRp429
sbatRp430
sg36
I00
sbag379
a(imodel.VarAtom
VarAtom
p431
(dp432
g3
S"H5'"
p433
sg20
I00
sg21
Nsg22
(imodel.Atom
Atom
p434
(dp435
g3
g433
sg12
g1
sg13
I1
sg14
S'H'
sg15
I00
sg16
g8
((lp436
g431
atRp437
sg36
I00
sbsg23
g24
sg37
g8
((lp438
g405
atRp439
sg14
S'H'
sg80
I0
sg15
I00
sg81
(F184.09242883216302
F243.71578064443645
F-88.714557551933041
tp440
sg83
(lp441
sg12
g1
sg85
g8
((ltRp442
sg87
g8
((lp443
(imodel.Bond
Bond
p444
(dp445
g12
g1
sg91
g92
sg23
g24
sg16
g8
((lp446
g431
ag405
atRp447
sbatRp448
sg36
I00
sba(imodel.VarAtom
VarAtom
p449
(dp450
g3
S"O5'"
p451
sg20
I00
sg21
Nsg22
(imodel.Atom
Atom
p452
(dp453
g3
g451
sg12
g1
sg13
I2
sg14
S'O'
sg15
I00
sg16
g8
((lp454
g449
atRp455
sg36
I00
sbsg23
g24
sg37
g8
((lp456
g18
ag405
atRp457
sg14
S'O'
sg80
I0
sg15
I00
sg81
(F125.94824934506187
F236.16036953239325
F-48.602172629909525
tp458
sg83
(lp459
sg12
g1
sg85
g8
((ltRp460
sg87
g8
((lp461
(imodel.Bond
Bond
p462
(dp463
g12
g1
sg91
g92
sg23
g24
sg16
g8
((lp464
g449
ag18
atRp465
sba(imodel.Bond
Bond
p466
(dp467
g12
g1
sg91
g92
sg23
g24
sg16
g8
((lp468
g405
ag449
atRp469
sbatRp470
sg36
I00
sbatRp471
sg14
S'C'
sg80
I0
sg15
I00
sg81
(F160.25674092412453
F273.90106116186257
F-87.381782352417602
tp472
sg83
(lp473
sg12
g1
sg85
g8
((ltRp474
sg87
g8
((lp475
g426
a(imodel.Bond
Bond
p476
(dp477
g12
g1
sg91
g92
sg23
g24
sg16
g8
((lp478
g405
ag379
atRp479
sbag466
ag444
atRp480
sg36
I00
sba(imodel.VarAtom
VarAtom
p481
(dp482
g3
S"C3'"
p483
sg20
I00
sg21
S'S'
sg22
(imodel.Atom
Atom
p484
(dp485
g3
g483
sg12
g1
sg13
I4
sg14
S'C'
sg15
I00
sg16
g8
((lp486
g481
atRp487
sg36
I00
sbsg23
g24
sg37
g8
((lp488
(imodel.VarAtom
VarAtom
p489
(dp490
g3
S"O3'"
p491
sg20
I00
sg21
Nsg22
(imodel.Atom
Atom
p492
(dp493
g3
g491
sg12
g1
sg13
I2
sg14
S'O'
sg15
I00
sg16
g8
((lp494
g489
atRp495
sg36
I00
sbsg23
g24
sg37
g8
((lp496
(imodel.VarAtom
VarAtom
p497
(dp498
g3
S"HO3'"
p499
sg20
I01
sg21
Nsg22
(imodel.Atom
Atom
p500
(dp501
g3
g499
sg12
g1
sg13
I1
sg14
S'H'
sg15
I00
sg16
g8
((lp502
g497
atRp503
sg36
I00
sbsg23
g24
sg37
g8
((lp504
g489
atRp505
sg14
S'H'
sg80
I0
sg15
I00
sg81
(F166.25392260499461
F430.94456476598236
F-178.05057604206172
tp506
sg83
(lp507
sg12
g1
sg85
g8
((ltRp508
sg87
g8
((lp509
(imodel.Bond
Bond
p510
(dp511
g12
g1
sg91
g92
sg23
g24
sg16
g8
((lp512
g489
ag497
atRp513
sbatRp514
sg36
I00
sbag481
atRp515
sg14
S'O'
sg80
I0
sg15
I00
sg81
(F186.67800374461353
F399.0150269881716
F-154.1392973190087
tp516
sg83
(lp517
sg12
g1
sg85
g8
((ltRp518
sg87
g8
((lp519
g510
a(imodel.Bond
Bond
p520
(dp521
g12
g1
sg91
g92
sg23
g24
sg16
g8
((lp522
g489
ag481
atRp523
sbatRp524
sg36
I00
sbag39
ag379
a(imodel.VarAtom
VarAtom
p525
(dp526
g3
S"H3'"
p527
sg20
I00
sg21
Nsg22
(imodel.Atom
Atom
p528
(dp529
g3
g527
sg12
g1
sg13
I1
sg14
S'H'
sg15
I00
sg16
g8
((lp530
g525
atRp531
sg36
I00
sbsg23
g24
sg37
g8
((lp532
g481
atRp533
sg14
S'H'
sg80
I0
sg15
I00
sg81
(F241.58049798953084
F331.61260012398441
F-118.35097910295117
tp534
sg83
(lp535
sg12
g1
sg85
g8
((ltRp536
sg87
g8
((lp537
(imodel.Bond
Bond
p538
(dp539
g12
g1
sg91
g92
sg23
g24
sg16
g8
((lp540
g525
ag481
atRp541
sbatRp542
sg36
I00
sbatRp543
sg14
S'C'
sg80
I0
sg15
I00
sg81
(F218.6289602494511
F359.59617444398646
F-96.890048477625157
tp544
sg83
(lp545
sg12
g1
sg85
g8
((ltRp546
sg87
g8
((lp547
(imodel.Bond
Bond
p548
(dp549
g12
g1
sg91
g92
sg23
g24
sg16
g8
((lp550
g481
ag379
atRp551
sbag520
ag538
a(imodel.Bond
Bond
p552
(dp553
g12
g1
sg91
g92
sg23
g24
sg16
g8
((lp554
g39
ag481
atRp555
sbatRp556
sg36
I00
sbag371
atRp557
sg14
S'C'
sg80
I0
sg15
I00
sg81
(F194.21438741272118
F313.00459563406696
F-58.573629914643263
tp558
sg83
(lp559
sg12
g1
sg85
g8
((ltRp560
sg87
g8
((lp561
g400
ag476
ag548
a(imodel.Bond
Bond
p562
(dp563
g12
g1
sg91
g92
sg23
g24
sg16
g8
((lp564
g379
ag371
atRp565
sbatRp566
sg36
I00
sbatRp567
sg14
S'O'
sg80
I0
sg15
I00
sg81
(F239.03163646557425
F287.67145087927861
F8.6303339965189974
tp568
sg83
(lp569
sg12
g1
sg85
g8
((ltRp570
sg87
g8
((lp571
(imodel.Bond
Bond
p572
(dp573
g12
g1
sg91
g92
sg23
g24
sg16
g8
((lp574
g47
ag371
atRp575
sbag562
atRp576
sg36
I00
sbatRp577
sg14
S'C'
sg80
I0
sg15
I00
sg81
(F286.67481324326786
F306.77769415157434
F14.27055696249516
tp578
sg83
(lp579
sg12
g1
sg85
g8
((ltRp580
sg87
g8
((lp581
(imodel.Bond
Bond
p582
(dp583
g12
g1
sg91
g92
sg23
g24
sg16
g8
((lp584
g39
ag47
atRp585
sbag366
ag572
ag348
atRp586
sg36
I00
sba(imodel.VarAtom
VarAtom
p587
(dp588
g3
S"O2'"
p589
sg20
I00
sg21
Nsg22
(imodel.Atom
Atom
p590
(dp591
g3
g589
sg12
g1
sg13
I2
sg14
S'O'
sg15
I00
sg16
g8
((lp592
g587
atRp593
sg36
I00
sbsg23
g24
sg37
g8
((lp594
g39
a(imodel.VarAtom
VarAtom
p595
(dp596
g3
S"HO2'"
p597
sg20
I01
sg21
Nsg22
(imodel.Atom
Atom
p598
(dp599
g3
g597
sg12
g1
sg13
I1
sg14
S'H'
sg15
I00
sg16
g8
((lp600
g595
atRp601
sg36
I00
sbsg23
g24
sg37
g8
((lp602
g587
atRp603
sg14
S'H'
sg80
I0
sg15
I00
sg81
(F263.55141396888689
F454.77337753120025
F-5.6081322123114825
tp604
sg83
(lp605
sg12
g1
sg85
g8
((ltRp606
sg87
g8
((lp607
(imodel.Bond
Bond
p608
(dp609
g12
g1
sg91
g92
sg23
g24
sg16
g8
((lp610
g587
ag595
atRp611
sbatRp612
sg36
I00
sbatRp613
sg14
S'O'
sg80
I0
sg15
I00
sg81
(F265.23566398055368
F416.81473809240356
F-38.364020642345686
tp614
sg83
(lp615
sg12
g1
sg85
g8
((ltRp616
sg87
g8
((lp617
(imodel.Bond
Bond
p618
(dp619
g12
g1
sg91
g92
sg23
g24
sg16
g8
((lp620
g587
ag39
atRp621
sbag608
atRp622
sg36
I00
sbag29
ag481
atRp623
sg14
S'C'
sg80
I0
sg15
I00
sg81
(F270.31711845030918
F365.9053882341575
F-44.536035748985668
tp624
sg83
(lp625
sg12
g1
sg85
g8
((ltRp626
sg87
g8
((lp627
g582
ag618
ag552
a(imodel.Bond
Bond
p628
(dp629
g12
g1
sg91
g92
sg23
g24
sg16
g8
((lp630
g39
ag29
atRp631
sbatRp632
sg36
I00
sbatRp633
sg14
S'H'
sg80
I0
sg15
I00
sg81
(F306.00799553173806
F380.49226907647835
F-55.540589773459189
tp634
sg83
(lp635
sg12
g1
sg85
g8
((ltRp636
sg87
g8
((lp637
g628
atRp638
sg36
I00
sbag595
a(imodel.VarAtom
VarAtom
p639
(dp640
g3
S'HOP2'
p641
sg20
I01
sg21
Nsg22
(imodel.Atom
Atom
p642
(dp643
g3
g641
sg12
g1
sg13
I1
sg14
S'H'
sg15
I00
sg16
g8
((lp644
g639
atRp645
sg36
I00
sbsg23
g24
sg37
g8
((lp646
(imodel.VarAtom
VarAtom
p647
(dp648
g3
S'OP2'
p649
sg20
I00
sg21
Nsg22
(imodel.Atom
Atom
p650
(dp651
g3
g649
sg12
g1
sg13
I2
sg14
S'O'
sg15
I00
sg16
g8
((lp652
g647
atRp653
sg36
I00
sbsg23
g24
sg37
g8
((lp654
g18
ag639
atRp655
sg14
S'O'
sg80
I0
sg15
I00
sg81
(F123.73346856536068
F163.9900790965429
F-88.179100933277681
tp656
sg83
(lp657
sg12
g1
sg85
g8
((ltRp658
sg87
g8
((lp659
(imodel.Bond
Bond
p660
(dp661
g12
g1
sg91
g92
sg23
g24
sg16
g8
((lp662
g18
ag647
atRp663
sba(imodel.Bond
Bond
p664
(dp665
g12
g1
sg91
g92
sg23
g24
sg16
g8
((lp666
g639
ag647
atRp667
sbatRp668
sg36
I00
sbatRp669
sg14
S'H'
sg80
I0
sg15
I00
sg81
(F148.13426997670422
F135.23688688090135
F-57.265094729361088
tp670
sg83
(lp671
sg12
g1
sg85
g8
((ltRp672
sg87
g8
((lp673
g664
atRp674
sg36
I00
sbag270
ag431
ag525
ag252
ag204
a(imodel.VarAtom
VarAtom
p675
(dp676
g3
S'HOP3'
p677
sg20
I01
sg21
Nsg22
(imodel.Atom
Atom
p678
(dp679
g3
g677
sg12
g1
sg13
I1
sg14
S'H'
sg15
I00
sg16
g8
((lp680
g675
atRp681
sg36
I00
sbsg23
g24
sg37
g8
((lp682
(imodel.VarAtom
VarAtom
p683
(dp684
g3
S'OP3'
p685
sg20
I00
sg21
Nsg22
(imodel.Atom
Atom
p686
(dp687
g3
g685
sg12
g1
sg13
I2
sg14
S'O'
sg15
I00
sg16
g8
((lp688
g683
atRp689
sg36
I00
sbsg23
g24
sg37
g8
((lp690
g18
ag675
atRp691
sg14
S'O'
sg80
I0
sg15
I00
sg81
(F52.918211892887484
F165.79502528652358
F3.7922616076837095
tp692
sg83
(lp693
sg12
g1
sg85
g8
((ltRp694
sg87
g8
((lp695
(imodel.Bond
Bond
p696
(dp697
g12
g1
sg91
g92
sg23
g24
sg16
g8
((lp698
g683
ag18
atRp699
sba(imodel.Bond
Bond
p700
(dp701
g12
g1
sg91
g92
sg23
g24
sg16
g8
((lp702
g683
ag675
atRp703
sbatRp704
sg36
I00
sbatRp705
sg14
S'H'
sg80
I0
sg15
I00
sg81
(F27.17644129045334
F137.98009946971723
F34.128604803264878
tp706
sg83
(lp707
sg12
g1
sg85
g8
((ltRp708
sg87
g8
((lp709
g700
atRp710
sg36
I00
sbag413
ag497
ag387
ag71
ag353
atRp711
sS'C'
g8
((lp712
g63
ag481
ag112
ag144
ag405
ag47
ag379
ag128
ag104
ag39
atRp713
sS'N'
g8
((lp714
g55
ag244
ag96
ag136
ag120
atRp715
sS'O'
g8
((lp716
g647
ag587
a(imodel.VarAtom
VarAtom
p717
(dp718
g3
S'OP1'
p719
sg20
I00
sg21
Nsg22
(imodel.Atom
Atom
p720
(dp721
g3
g719
sg12
g1
sg13
I2
sg14
S'O'
sg15
I00
sg16
g8
((lp722
g717
atRp723
sg36
I00
sbsg23
g24
sg37
g8
((lp724
g18
atRp725
sg14
S'O'
sg80
I0
sg15
I00
sg81
(F57.97065672179906
F232.36388693012009
F-115.44609958243154
tp726
sg83
(lp727
sg12
g1
sg85
g8
((ltRp728
sg87
g8
((lp729
(imodel.Bond
Bond
p730
(dp731
g12
g1
sg91
S'double'
p732
sg23
g24
sg16
g8
((lp733
g18
ag717
atRp734
sbatRp735
sg36
I00
sbag371
ag449
ag683
ag489
atRp736
sS'P'
g8
((lp737
g18
atRp738
ssg87
g8
((lp739
g199
ag337
ag552
ag462
ag700
ag572
ag562
ag239
ag538
ag366
ag510
ag426
ag326
ag184
ag293
ag664
ag608
ag582
ag476
ag217
ag228
ag660
ag265
ag89
ag696
ag188
ag444
ag520
ag548
ag400
ag283
ag304
ag466
ag730
ag628
ag315
ag348
ag618
ag180
atRp740
sg12
g1
sS'descriptor'
p741
(S'neutral'
p742
S'none'
p743
S'default'
p744
tp745
sS'atomDict'
p746
(dp747
g50
g47
sg500
g497
sg32
g29
sg123
g120
sg374
g371
sg678
g675
sg107
g104
sg131
g128
sg147
g144
sg58
g55
sg686
g683
sg66
g63
sg115
g112
sg434
g431
sg74
g71
sg42
g39
sg590
g587
sg416
g413
sg10
g18
sg598
g595
sg484
g481
sg255
g252
sg390
g387
sg408
g405
sg382
g379
sg99
g96
sg492
g489
sg273
g270
sg452
g449
sg356
g353
sg720
g717
sg247
g244
sg650
g647
sg642
g639
sg139
g136
sg528
g525
sg207
g204
ssg16
g8
((lp748
g244
ag587
ag639
ag55
ag405
ag112
ag39
ag489
ag717
ag270
ag353
ag120
ag144
ag525
ag252
ag104
ag63
ag29
ag431
ag18
ag204
ag71
ag675
ag595
ag497
ag683
ag47
ag449
ag128
ag481
ag413
ag371
ag379
ag387
ag96
ag647
ag136
atRp749
sg85
g8
((lp750
g156
ag167
atRp751
sS'polyLink'
p752
S'none'
p753
sbsg37
g8
((lp754
g683
ag717
ag647
ag449
atRp755
sg14
S'P'
sg80
I0
sg15
I00
sg81
(F89.271677131946944
F201.17834293498822
F-69.640076744560375
tp756
sg83
(lp757
sg12
g1
sg85
g8
((ltRp758
sg87
g8
((lp759
g462
ag660
ag730
ag696
atRp760
sg36
I00
sbatRp761
sg36
I00
sbag115
ag50
ag32
ag382
ag123
ag107
ag678
ag374
ag131
ag147
ag58
ag686
ag66
ag434
ag74
ag42
ag642
ag416
ag598
ag484
ag255
ag390
ag408
ag356
ag99
ag500
ag492
ag273
ag452
ag720
ag247
ag650
ag590
ag139
ag528
ag207
atRp762
sS'ccpMolType'
p763
S'RNA'
p764
sS'details'
p765
V
sg746
(dp766
g499
g500
sg719
g720
sg649
g650
sg685
g686
sg677
g678
sg641
g642
sg483
g484
sg49
g50
sg407
g408
sg31
g32
sg433
g434
sg527
g528
sg373
g374
sg65
g66
sg130
g131
sg98
g99
sg114
g115
sg106
g107
sg146
g147
sg415
g416
sg597
g598
sS'P'
g10
sg381
g382
sg41
g42
sg589
g590
sg122
g123
sg138
g139
sg246
g247
sg355
g356
sg389
g390
sg73
g74
sg57
g58
sg206
g207
sg451
g452
sg272
g273
sg254
g255
sg491
g492
ssS'keywords'
p767
g8
((ltRp768
sg85
g8
((lp769
g156
ag167
atRp770
sS'variants'
p771
g8
((lp772
g24
atRp773
sS'defaultVars'
p774
g8
((ltRp775
sb.