(imodel.Compound
Compound
p1
(dp2
S'name'
p3
VCYTIDINE-5'-MONOPHOSPHATE
p4
sS'isModified'
p5
I01
sS'ccpCode'
p6
VC
sS'atoms'
p7
c__builtin__
set
p8
((lp9
(imodel.Atom
Atom
p10
(dp11
g3
S"HO2'"
p12
sS'compound'
p13
g1
sS'baseValences'
p14
I1
sS'element'
p15
S'H'
sS'isVariable'
p16
I00
sS'varAtoms'
p17
g8
((lp18
(imodel.VarAtom
VarAtom
p19
(dp20
g3
g12
sS'isLabile'
p21
I01
sS'chirality'
p22
NsS'atom'
p23
g10
sS'variant'
p24
(imodel.Variant
Variant
p25
(dp26
S'elementDict'
p27
(dp28
S'H'
g8
((lp29
g19
a(imodel.VarAtom
VarAtom
p30
(dp31
g3
S"HO3'"
p32
sg21
I01
sg22
Nsg23
(imodel.Atom
Atom
p33
(dp34
g3
g32
sg13
g1
sg14
I1
sg15
S'H'
sg16
I00
sg17
g8
((lp35
g30
atRp36
sS'isDeleted'
p37
I00
sbsg24
g25
sS'neighbours'
p38
g8
((lp39
(imodel.VarAtom
VarAtom
p40
(dp41
g3
S"O3'"
p42
sg21
I00
sg22
Nsg23
(imodel.Atom
Atom
p43
(dp44
g3
g42
sg13
g1
sg14
I2
sg15
S'O'
sg16
I00
sg17
g8
((lp45
g40
atRp46
sg37
I00
sbsg24
g25
sg38
g8
((lp47
(imodel.VarAtom
VarAtom
p48
(dp49
g3
S"C3'"
p50
sg21
I00
sg22
S'S'
sg23
(imodel.Atom
Atom
p51
(dp52
g3
g50
sg13
g1
sg14
I4
sg15
S'C'
sg16
I00
sg17
g8
((lp53
g48
atRp54
sg37
I00
sbsg24
g25
sg38
g8
((lp55
(imodel.VarAtom
VarAtom
p56
(dp57
g3
S"C2'"
p58
sg21
I00
sg22
S'R'
sg23
(imodel.Atom
Atom
p59
(dp60
g3
g58
sg13
g1
sg14
I4
sg15
S'C'
sg16
I00
sg17
g8
((lp61
g56
atRp62
sg37
I00
sbsg24
g25
sg38
g8
((lp63
(imodel.VarAtom
VarAtom
p64
(dp65
g3
S"C1'"
p66
sg21
I00
sg22
S'R'
sg23
(imodel.Atom
Atom
p67
(dp68
g3
g66
sg13
g1
sg14
I4
sg15
S'C'
sg16
I00
sg17
g8
((lp69
g64
atRp70
sg37
I00
sbsg24
g25
sg38
g8
((lp71
(imodel.VarAtom
VarAtom
p72
(dp73
g3
S"H1'"
p74
sg21
I00
sg22
Nsg23
(imodel.Atom
Atom
p75
(dp76
g3
g74
sg13
g1
sg14
I1
sg15
S'H'
sg16
I00
sg17
g8
((lp77
g72
atRp78
sg37
I00
sbsg24
g25
sg38
g8
((lp79
g64
atRp80
sg15
S'H'
sS'charge'
p81
I0
sg16
I00
sS'coords'
p82
(F485.31572257303361
F440.9096783088437
F42.70457608634679
tp83
sS'freeValences'
p84
(lp85
sg13
g1
sS'atomGroups'
p86
g8
((ltRp87
sS'bonds'
p88
g8
((lp89
(imodel.Bond
Bond
p90
(dp91
g13
g1
sS'bondType'
p92
S'single'
p93
sg24
g25
sg17
g8
((lp94
g64
ag72
atRp95
sbatRp96
sg37
I00
sba(imodel.VarAtom
VarAtom
p97
(dp98
g3
S"O4'"
p99
sg21
I00
sg22
Nsg23
(imodel.Atom
Atom
p100
(dp101
g3
g99
sg13
g1
sg14
I2
sg15
S'O'
sg16
I00
sg17
g8
((lp102
g97
atRp103
sg37
I00
sbsg24
g25
sg38
g8
((lp104
(imodel.VarAtom
VarAtom
p105
(dp106
g3
S"C4'"
p107
sg21
I00
sg22
S'R'
sg23
(imodel.Atom
Atom
p108
(dp109
g3
g107
sg13
g1
sg14
I4
sg15
S'C'
sg16
I00
sg17
g8
((lp110
g105
atRp111
sg37
I00
sbsg24
g25
sg38
g8
((lp112
(imodel.VarAtom
VarAtom
p113
(dp114
g3
S"C5'"
p115
sg21
I00
sg22
Nsg23
(imodel.Atom
Atom
p116
(dp117
g3
g115
sg13
g1
sg14
I4
sg15
S'C'
sg16
I00
sg17
g8
((lp118
g113
atRp119
sg37
I00
sbsg24
g25
sg38
g8
((lp120
(imodel.VarAtom
VarAtom
p121
(dp122
g3
S"O5'"
p123
sg21
I00
sg22
Nsg23
(imodel.Atom
Atom
p124
(dp125
g3
g123
sg13
g1
sg14
I2
sg15
S'O'
sg16
I00
sg17
g8
((lp126
g121
atRp127
sg37
I00
sbsg24
g25
sg38
g8
((lp128
g113
a(imodel.VarAtom
VarAtom
p129
(dp130
g3
S'P'
sg21
I00
sg22
Nsg23
(imodel.Atom
Atom
p131
(dp132
g3
S'P'
sg13
g1
sg14
I5
sg15
S'P'
sg16
I00
sg17
g8
((lp133
g129
atRp134
sg37
I00
sbsg24
g25
sg38
g8
((lp135
(imodel.VarAtom
VarAtom
p136
(dp137
g3
S'OP3'
p138
sg21
I00
sg22
Nsg23
(imodel.Atom
Atom
p139
(dp140
g3
g138
sg13
g1
sg14
I2
sg15
S'O'
sg16
I00
sg17
g8
((lp141
g136
atRp142
sg37
I00
sbsg24
g25
sg38
g8
((lp143
(imodel.VarAtom
VarAtom
p144
(dp145
g3
S'HOP3'
p146
sg21
I01
sg22
Nsg23
(imodel.Atom
Atom
p147
(dp148
g3
g146
sg13
g1
sg14
I1
sg15
S'H'
sg16
I00
sg17
g8
((lp149
g144
atRp150
sg37
I00
sbsg24
g25
sg38
g8
((lp151
g136
atRp152
sg15
S'H'
sg81
I0
sg16
I00
sg82
(F246.97346672998569
F278.16171966519477
F-301.50923594614125
tp153
sg84
(lp154
sg13
g1
sg86
g8
((ltRp155
sg88
g8
((lp156
(imodel.Bond
Bond
p157
(dp158
g13
g1
sg92
g93
sg24
g25
sg17
g8
((lp159
g144
ag136
atRp160
sbatRp161
sg37
I00
sbag129
atRp162
sg15
S'O'
sg81
I0
sg16
I00
sg82
(F248.59973022850173
F316.00801109319383
F-262.50121150120043
tp163
sg84
(lp164
sg13
g1
sg86
g8
((ltRp165
sg88
g8
((lp166
g157
a(imodel.Bond
Bond
p167
(dp168
g13
g1
sg92
g93
sg24
g25
sg17
g8
((lp169
g129
ag136
atRp170
sbatRp171
sg37
I00
sbag121
a(imodel.VarAtom
VarAtom
p172
(dp173
g3
S'OP1'
p174
sg21
I00
sg22
Nsg23
(imodel.Atom
Atom
p175
(dp176
g3
g174
sg13
g1
sg14
I2
sg15
S'O'
sg16
I00
sg17
g8
((lp177
g172
atRp178
sg37
I00
sbsg24
g25
sg38
g8
((lp179
g129
atRp180
sg15
S'O'
sg81
I0
sg16
I00
sg82
(F216.28168198685952
F373.3387404527798
F-210.95165337746289
tp181
sg84
(lp182
sg13
g1
sg86
g8
((ltRp183
sg88
g8
((lp184
(imodel.Bond
Bond
p185
(dp186
g13
g1
sg92
S'double'
p187
sg24
g25
sg17
g8
((lp188
g172
ag129
atRp189
sbatRp190
sg37
I00
sba(imodel.VarAtom
VarAtom
p191
(dp192
g3
S'OP2'
p193
sg21
I00
sg22
Nsg23
(imodel.Atom
Atom
p194
(dp195
g3
g193
sg13
g1
sg14
I2
sg15
S'O'
sg16
I00
sg17
g8
((lp196
g191
atRp197
sg37
I00
sbsg24
g25
sg38
g8
((lp198
(imodel.VarAtom
VarAtom
p199
(dp200
g3
S'HOP2'
p201
sg21
I01
sg22
Nsg23
(imodel.Atom
Atom
p202
(dp203
g3
g201
sg13
g1
sg14
I1
sg15
S'H'
sg16
I00
sg17
g8
((lp204
g199
atRp205
sg37
I00
sbsg24
g25
sg38
g8
((lp206
g191
atRp207
sg15
S'H'
sg81
I0
sg16
I00
sg82
(F334.27412906199379
F323.13174703520889
F-294.38272378565927
tp208
sg84
(lp209
sg13
g1
sg86
g8
((ltRp210
sg88
g8
((lp211
(imodel.Bond
Bond
p212
(dp213
g13
g1
sg92
g93
sg24
g25
sg17
g8
((lp214
g191
ag199
atRp215
sbatRp216
sg37
I00
sbag129
atRp217
sg15
S'O'
sg81
I0
sg16
I00
sg82
(F307.67234818635995
F349.74811666222809
F-283.38611511353099
tp218
sg84
(lp219
sg13
g1
sg86
g8
((ltRp220
sg88
g8
((lp221
g212
a(imodel.Bond
Bond
p222
(dp223
g13
g1
sg92
g93
sg24
g25
sg17
g8
((lp224
g191
ag129
atRp225
sbatRp226
sg37
I00
sbatRp227
sg15
S'P'
sg81
I0
sg16
I00
sg82
(F259.70207942670999
F365.55332529993586
F-229.44681497547774
tp228
sg84
(lp229
sg13
g1
sg86
g8
((ltRp230
sg88
g8
((lp231
(imodel.Bond
Bond
p232
(dp233
g13
g1
sg92
g93
sg24
g25
sg17
g8
((lp234
g129
ag121
atRp235
sbag167
ag185
ag222
atRp236
sg37
I00
sbatRp237
sg15
S'O'
sg81
I0
sg16
I00
sg82
(F280.00092124107618
F412.07796075670029
F-165.02871742305862
tp238
sg84
(lp239
sg13
g1
sg86
g8
((ltRp240
sg88
g8
((lp241
(imodel.Bond
Bond
p242
(dp243
g13
g1
sg92
g93
sg24
g25
sg17
g8
((lp244
g113
ag121
atRp245
sbag232
atRp246
sg37
I00
sbag105
a(imodel.VarAtom
VarAtom
p247
(dp248
g3
S"H5'"
p249
sg21
I00
sg22
Nsg23
(imodel.Atom
Atom
p250
(dp251
g3
g249
sg13
g1
sg14
I1
sg15
S'H'
sg16
I00
sg17
g8
((lp252
g247
atRp253
sg37
I00
sbsg24
g25
sg38
g8
((lp254
g113
atRp255
sg15
S'H'
sg81
I0
sg16
I00
sg82
(F289.19241993401749
F498.26337190181528
F-175.17788772316413
tp256
sg84
(lp257
sg13
g1
sg86
g8
((ltRp258
sg88
g8
((lp259
(imodel.Bond
Bond
p260
(dp261
g13
g1
sg92
g93
sg24
g25
sg17
g8
((lp262
g113
ag247
atRp263
sbatRp264
sg37
I00
sba(imodel.VarAtom
VarAtom
p265
(dp266
g3
S"H5''"
p267
sg21
I00
sg22
Nsg23
(imodel.Atom
Atom
p268
(dp269
g3
g267
sg13
g1
sg14
I1
sg15
S'H'
sg16
I00
sg17
g8
((lp270
g265
atRp271
sg37
I00
sbsg24
g25
sg38
g8
((lp272
g113
atRp273
sg15
S'H'
sg81
I0
sg16
I00
sg82
(F258.27795453751429
F462.59215190470718
F-124.78196271171893
tp274
sg84
(lp275
sg13
g1
sg86
g8
((ltRp276
sg88
g8
((lp277
(imodel.Bond
Bond
p278
(dp279
g13
g1
sg92
g93
sg24
g25
sg17
g8
((lp280
g113
ag265
atRp281
sbatRp282
sg37
I00
sbatRp283
sg15
S'C'
sg81
I0
sg16
I00
sg82
(F297.0513461244239
F460.3217720883203
F-137.9431604082209
tp284
sg84
(lp285
sg13
g1
sg86
g8
((ltRp286
sg88
g8
((lp287
(imodel.Bond
Bond
p288
(dp289
g13
g1
sg92
g93
sg24
g25
sg17
g8
((lp290
g113
ag105
atRp291
sbag242
ag260
ag278
atRp292
sg37
I00
sbag97
a(imodel.VarAtom
VarAtom
p293
(dp294
g3
S"H4'"
p295
sg21
I00
sg22
Nsg23
(imodel.Atom
Atom
p296
(dp297
g3
g295
sg13
g1
sg14
I1
sg15
S'H'
sg16
I00
sg17
g8
((lp298
g293
atRp299
sg37
I00
sbsg24
g25
sg38
g8
((lp300
g105
atRp301
sg15
S'H'
sg81
I0
sg16
I00
sg82
(F348.65621865351062
F424.16634772538305
F-87.940155350410848
tp302
sg84
(lp303
sg13
g1
sg86
g8
((ltRp304
sg88
g8
((lp305
(imodel.Bond
Bond
p306
(dp307
g13
g1
sg92
g93
sg24
g25
sg17
g8
((lp308
g293
ag105
atRp309
sbatRp310
sg37
I00
sbag48
atRp311
sg15
S'C'
sg81
I0
sg16
I00
sg82
(F351.66162949443731
F462.19121151048199
F-75.678451539064355
tp312
sg84
(lp313
sg13
g1
sg86
g8
((ltRp314
sg88
g8
((lp315
g288
a(imodel.Bond
Bond
p316
(dp317
g13
g1
sg92
g93
sg24
g25
sg17
g8
((lp318
g97
ag105
atRp319
sba(imodel.Bond
Bond
p320
(dp321
g13
g1
sg92
g93
sg24
g25
sg17
g8
((lp322
g48
ag105
atRp323
sbag306
atRp324
sg37
I00
sbag64
atRp325
sg15
S'O'
sg81
I0
sg16
I00
sg82
(F397.49093542994115
F439.90058137668206
F-24.41873039429267
tp326
sg84
(lp327
sg13
g1
sg86
g8
((ltRp328
sg88
g8
((lp329
g316
a(imodel.Bond
Bond
p330
(dp331
g13
g1
sg92
g93
sg24
g25
sg17
g8
((lp332
g97
ag64
atRp333
sbatRp334
sg37
I00
sba(imodel.VarAtom
VarAtom
p335
(dp336
g3
S'N1'
p337
sg21
I00
sg22
Nsg23
(imodel.Atom
Atom
p338
(dp339
g3
g337
sg13
g1
sg14
I3
sg15
S'N'
sg16
I00
sg17
g8
((lp340
g335
atRp341
sg37
I00
sbsg24
g25
sg38
g8
((lp342
g64
a(imodel.VarAtom
VarAtom
p343
(dp344
g3
S'C2'
p345
sg21
I00
sg22
Nsg23
(imodel.Atom
Atom
p346
(dp347
g3
g345
sg13
g1
sg14
I4
sg15
S'C'
sg16
I00
sg17
g8
((lp348
g343
atRp349
sg37
I00
sbsg24
g25
sg38
g8
((lp350
(imodel.VarAtom
VarAtom
p351
(dp352
g3
S'O2'
p353
sg21
I00
sg22
Nsg23
(imodel.Atom
Atom
p354
(dp355
g3
g353
sg13
g1
sg14
I2
sg15
S'O'
sg16
I00
sg17
g8
((lp356
g351
atRp357
sg37
I00
sbsg24
g25
sg38
g8
((lp358
g343
atRp359
sg15
S'O'
sg81
I0
sg16
I00
sg82
(F393.29873189801413
F360.30670351558865
F52.727038770420336
tp360
sg84
(lp361
sg13
g1
sg86
g8
((ltRp362
sg88
g8
((lp363
(imodel.Bond
Bond
p364
(dp365
g13
g1
sg92
S'double'
p366
sg24
g25
sg17
g8
((lp367
g343
ag351
atRp368
sbatRp369
sg37
I00
sba(imodel.VarAtom
VarAtom
p370
(dp371
g3
S'N3'
p372
sg21
I00
sg22
Nsg23
(imodel.Atom
Atom
p373
(dp374
g3
g372
sg13
g1
sg14
I3
sg15
S'N'
sg16
I00
sg17
g8
((lp375
g370
atRp376
sg37
I00
sbsg24
g25
sg38
g8
((lp377
(imodel.VarAtom
VarAtom
p378
(dp379
g3
S'C4'
p380
sg21
I00
sg22
Nsg23
(imodel.Atom
Atom
p381
(dp382
g3
g380
sg13
g1
sg14
I4
sg15
S'C'
sg16
I00
sg17
g8
((lp383
g378
atRp384
sg37
I00
sbsg24
g25
sg38
g8
((lp385
(imodel.VarAtom
VarAtom
p386
(dp387
g3
S'C5'
p388
sg21
I00
sg22
Nsg23
(imodel.Atom
Atom
p389
(dp390
g3
g388
sg13
g1
sg14
I4
sg15
S'C'
sg16
I00
sg17
g8
((lp391
g386
atRp392
sg37
I00
sbsg24
g25
sg38
g8
((lp393
g378
a(imodel.VarAtom
VarAtom
p394
(dp395
g3
S'H5'
p396
sg21
I00
sg22
Nsg23
(imodel.Atom
Atom
p397
(dp398
g3
g396
sg13
g1
sg14
I1
sg15
S'H'
sg16
I00
sg17
g8
((lp399
g394
atRp400
sg37
I00
sbsg24
g25
sg38
g8
((lp401
g386
atRp402
sg15
S'H'
sg81
I0
sg16
I00
sg82
(F567.82119451904043
F309.67930805635353
F236.27666051892061
tp403
sg84
(lp404
sg13
g1
sg86
g8
((ltRp405
sg88
g8
((lp406
(imodel.Bond
Bond
p407
(dp408
g13
g1
sg92
g93
sg24
g25
sg17
g8
((lp409
g394
ag386
atRp410
sbatRp411
sg37
I00
sba(imodel.VarAtom
VarAtom
p412
(dp413
g3
S'C6'
p414
sg21
I00
sg22
Nsg23
(imodel.Atom
Atom
p415
(dp416
g3
g414
sg13
g1
sg14
I4
sg15
S'C'
sg16
I00
sg17
g8
((lp417
g412
atRp418
sg37
I00
sbsg24
g25
sg38
g8
((lp419
(imodel.VarAtom
VarAtom
p420
(dp421
g3
S'H6'
p422
sg21
I00
sg22
Nsg23
(imodel.Atom
Atom
p423
(dp424
g3
g422
sg13
g1
sg14
I1
sg15
S'H'
sg16
I00
sg17
g8
((lp425
g420
atRp426
sg37
I00
sbsg24
g25
sg38
g8
((lp427
g412
atRp428
sg15
S'H'
sg81
I0
sg16
I00
sg82
(F548.53239543491088
F398.52965396509092
F141.54603192706722
tp429
sg84
(lp430
sg13
g1
sg86
g8
((ltRp431
sg88
g8
((lp432
(imodel.Bond
Bond
p433
(dp434
g13
g1
sg92
g93
sg24
g25
sg17
g8
((lp435
g420
ag412
atRp436
sbatRp437
sg37
I00
sbag386
ag335
atRp438
sg15
S'C'
sg81
I0
sg16
I00
sg82
(F519.71141691407399
F373.61308010787997
F143.55556650153841
tp439
sg84
(lp440
sg13
g1
sg86
g8
((lp441
(imodel.AtomGroup
AtomGroup
p442
(dp443
S'groupType'
p444
S'aromatic'
p445
sS'subGroups'
p446
g8
((ltRp447
sS'varAtoms'
p448
g8
((lp449
g335
ag378
ag386
ag370
ag412
ag343
atRp450
sS'variant'
p451
g25
sS'compound'
p452
g1
sbatRp453
sg88
g8
((lp454
g433
a(imodel.Bond
Bond
p455
(dp456
g13
g1
sg92
g445
sg24
g25
sg17
g8
((lp457
g386
ag412
atRp458
sba(imodel.Bond
Bond
p459
(dp460
g13
g1
sg92
g445
sg24
g25
sg17
g8
((lp461
g335
ag412
atRp462
sbatRp463
sg37
I00
sbatRp464
sg15
S'C'
sg81
I0
sg16
I00
sg82
(F533.12084764882513
F325.59468595740202
F195.72832569432222
tp465
sg84
(lp466
sg13
g1
sg86
g8
((lp467
g442
atRp468
sg88
g8
((lp469
(imodel.Bond
Bond
p470
(dp471
g13
g1
sg92
g445
sg24
g25
sg17
g8
((lp472
g378
ag386
atRp473
sbag455
ag407
atRp474
sg37
I00
sbag370
a(imodel.VarAtom
VarAtom
p475
(dp476
g3
S'N4'
p477
sg21
I00
sg22
Nsg23
(imodel.Atom
Atom
p478
(dp479
g3
g477
sg13
g1
sg14
I3
sg15
S'N'
sg16
I00
sg17
g8
((lp480
g475
atRp481
sg37
I00
sbsg24
g25
sg38
g8
((lp482
(imodel.VarAtom
VarAtom
p483
(dp484
g3
S'H42'
p485
sg21
I00
sg22
Nsg23
(imodel.Atom
Atom
p486
(dp487
g3
g485
sg13
g1
sg14
I1
sg15
S'H'
sg16
I00
sg17
g8
((lp488
g483
atRp489
sg37
I00
sbsg24
g25
sg38
g8
((lp490
g475
atRp491
sg15
S'H'
sg81
I0
sg16
I00
sg82
(F529.23010614136695
F216.82245956384975
F285.35596968638532
tp492
sg84
(lp493
sg13
g1
sg86
g8
((ltRp494
sg88
g8
((lp495
(imodel.Bond
Bond
p496
(dp497
g13
g1
sg92
g93
sg24
g25
sg17
g8
((lp498
g483
ag475
atRp499
sbatRp500
sg37
I00
sbag378
a(imodel.VarAtom
VarAtom
p501
(dp502
g3
S'H41'
p503
sg21
I00
sg22
Nsg23
(imodel.Atom
Atom
p504
(dp505
g3
g503
sg13
g1
sg14
I1
sg15
S'H'
sg16
I00
sg17
g8
((lp506
g501
atRp507
sg37
I00
sbsg24
g25
sg38
g8
((lp508
g475
atRp509
sg15
S'H'
sg81
I0
sg16
I00
sg82
(F466.99733119614052
F215.49782568971472
F250.31722143598216
tp510
sg84
(lp511
sg13
g1
sg86
g8
((ltRp512
sg88
g8
((lp513
(imodel.Bond
Bond
p514
(dp515
g13
g1
sg92
g93
sg24
g25
sg17
g8
((lp516
g475
ag501
atRp517
sbatRp518
sg37
I00
sbatRp519
sg15
S'N'
sg81
I0
sg16
I00
sg82
(F497.6947221871261
F238.38894686149868
F249.4922903932578
tp520
sg84
(lp521
sg13
g1
sg86
g8
((ltRp522
sg88
g8
((lp523
g496
ag514
a(imodel.Bond
Bond
p524
(dp525
g13
g1
sg92
g93
sg24
g25
sg17
g8
((lp526
g378
ag475
atRp527
sbatRp528
sg37
I00
sbatRp529
sg15
S'C'
sg81
I0
sg16
I00
sg82
(F498.22727726922773
F289.39296035134072
F197.47553541457185
tp530
sg84
(lp531
sg13
g1
sg86
g8
((lp532
g442
atRp533
sg88
g8
((lp534
g470
a(imodel.Bond
Bond
p535
(dp536
g13
g1
sg92
g445
sg24
g25
sg17
g8
((lp537
g370
ag378
atRp538
sbag524
atRp539
sg37
I00
sbag343
atRp540
sg15
S'N'
sg81
I0
sg16
I00
sg82
(F449.86683262096477
F302.3235908893061
F148.65398833540996
tp541
sg84
(lp542
sg13
g1
sg86
g8
((lp543
g442
atRp544
sg88
g8
((lp545
g535
a(imodel.Bond
Bond
p546
(dp547
g13
g1
sg92
g445
sg24
g25
sg17
g8
((lp548
g370
ag343
atRp549
sbatRp550
sg37
I00
sbag335
atRp551
sg15
S'C'
sg81
I0
sg16
I00
sg82
(F436.47488154761618
F350.15257237289512
F97.213717854813282
tp552
sg84
(lp553
sg13
g1
sg86
g8
((lp554
g442
atRp555
sg88
g8
((lp556
g364
ag546
a(imodel.Bond
Bond
p557
(dp558
g13
g1
sg92
g445
sg24
g25
sg17
g8
((lp559
g343
ag335
atRp560
sbatRp561
sg37
I00
sbag412
atRp562
sg15
S'N'
sg81
I0
sg16
I00
sg82
(F470.87310177828925
F386.5930103102811
F94.699808656106839
tp563
sg84
(lp564
sg13
g1
sg86
g8
((lp565
g442
atRp566
sg88
g8
((lp567
(imodel.Bond
Bond
p568
(dp569
g13
g1
sg92
g93
sg24
g25
sg17
g8
((lp570
g335
ag64
atRp571
sbag557
ag459
atRp572
sg37
I00
sbag56
atRp573
sg15
S'C'
sg81
I0
sg16
I00
sg82
(F447.94767931363327
F435.20425330968141
F37.488067671965013
tp574
sg84
(lp575
sg13
g1
sg86
g8
((ltRp576
sg88
g8
((lp577
g90
ag568
a(imodel.Bond
Bond
p578
(dp579
g13
g1
sg92
g93
sg24
g25
sg17
g8
((lp580
g56
ag64
atRp581
sbag330
atRp582
sg37
I00
sba(imodel.VarAtom
VarAtom
p583
(dp584
g3
S"O2'"
p585
sg21
I00
sg22
Nsg23
(imodel.Atom
Atom
p586
(dp587
g3
g585
sg13
g1
sg14
I2
sg15
S'O'
sg16
I00
sg17
g8
((lp588
g583
atRp589
sg37
I00
sbsg24
g25
sg38
g8
((lp590
g19
ag56
atRp591
sg15
S'O'
sg81
I0
sg16
I00
sg82
(F481.63013261883953
F505.20190339793544
F61.448639989861512
tp592
sg84
(lp593
sg13
g1
sg86
g8
((ltRp594
sg88
g8
((lp595
(imodel.Bond
Bond
p596
(dp597
g13
g1
sg92
g93
sg24
g25
sg17
g8
((lp598
g19
ag583
atRp599
sba(imodel.Bond
Bond
p600
(dp601
g13
g1
sg92
g93
sg24
g25
sg17
g8
((lp602
g56
ag583
atRp603
sbatRp604
sg37
I00
sba(imodel.VarAtom
VarAtom
p605
(dp606
g3
S"H2'"
p607
sg21
I00
sg22
Nsg23
(imodel.Atom
Atom
p608
(dp609
g3
g607
sg13
g1
sg14
I1
sg15
S'H'
sg16
I00
sg17
g8
((lp610
g605
atRp611
sg37
I00
sbsg24
g25
sg38
g8
((lp612
g56
atRp613
sg15
S'H'
sg81
I0
sg16
I00
sg82
(F436.39628032069533
F525.29658872784478
F55.99624694023931
tp614
sg84
(lp615
sg13
g1
sg86
g8
((ltRp616
sg88
g8
((lp617
(imodel.Bond
Bond
p618
(dp619
g13
g1
sg92
g93
sg24
g25
sg17
g8
((lp620
g56
ag605
atRp621
sbatRp622
sg37
I00
sbag48
atRp623
sg15
S'C'
sg81
I0
sg16
I00
sg82
(F433.62978500424623
F487.1999757192828
F32.296681363815807
tp624
sg84
(lp625
sg13
g1
sg86
g8
((ltRp626
sg88
g8
((lp627
g618
a(imodel.Bond
Bond
p628
(dp629
g13
g1
sg92
g93
sg24
g25
sg17
g8
((lp630
g56
ag48
atRp631
sbag578
ag600
atRp632
sg37
I00
sbag40
a(imodel.VarAtom
VarAtom
p633
(dp634
g3
S"H3'"
p635
sg21
I00
sg22
Nsg23
(imodel.Atom
Atom
p636
(dp637
g3
g635
sg13
g1
sg14
I1
sg15
S'H'
sg16
I00
sg17
g8
((lp638
g633
atRp639
sg37
I00
sbsg24
g25
sg38
g8
((lp640
g48
atRp641
sg15
S'H'
sg81
I0
sg16
I00
sg82
(F347.73839814662915
F522.52668603198617
F-58.065272837636371
tp642
sg84
(lp643
sg13
g1
sg86
g8
((ltRp644
sg88
g8
((lp645
(imodel.Bond
Bond
p646
(dp647
g13
g1
sg92
g93
sg24
g25
sg17
g8
((lp648
g633
ag48
atRp649
sbatRp650
sg37
I00
sbag105
atRp651
sg15
S'C'
sg81
I0
sg16
I00
sg82
(F381.63276549072123
F504.51796110185865
F-43.817303608754308
tp652
sg84
(lp653
sg13
g1
sg86
g8
((ltRp654
sg88
g8
((lp655
(imodel.Bond
Bond
p656
(dp657
g13
g1
sg92
g93
sg24
g25
sg17
g8
((lp658
g48
ag40
atRp659
sbag628
ag320
ag646
atRp660
sg37
I00
sbag30
atRp661
sg15
S'O'
sg81
I0
sg16
I00
sg82
(F383.98051843147942
F556.01082502836186
F-63.286116723445225
tp662
sg84
(lp663
sg13
g1
sg86
g8
((ltRp664
sg88
g8
((lp665
g656
a(imodel.Bond
Bond
p666
(dp667
g13
g1
sg92
g93
sg24
g25
sg17
g8
((lp668
g40
ag30
atRp669
sbatRp670
sg37
I00
sbatRp671
sg15
S'H'
sg81
I0
sg16
I00
sg82
(F380.77107693470202
F594.03793979761519
F-41.932475104754189
tp672
sg84
(lp673
sg13
g1
sg86
g8
((ltRp674
sg88
g8
((lp675
g666
atRp676
sg37
I00
sbag247
ag72
ag199
ag394
ag293
ag501
ag265
ag483
ag144
ag633
ag605
ag420
atRp677
sS'C'
g8
((lp678
g378
ag48
ag412
ag343
ag64
ag113
ag105
ag386
ag56
atRp679
sS'P'
g8
((lp680
g129
atRp681
sS'O'
g8
((lp682
g40
ag191
ag121
ag97
ag583
ag172
ag136
ag351
atRp683
sS'N'
g8
((lp684
g370
ag475
ag335
atRp685
ssg88
g8
((lp686
g222
ag157
ag557
ag212
ag618
ag496
ag364
ag666
ag306
ag524
ag185
ag535
ag407
ag628
ag455
ag568
ag320
ag278
ag330
ag260
ag646
ag90
ag459
ag514
ag167
ag600
ag316
ag470
ag242
ag433
ag288
ag656
ag546
ag596
ag578
ag232
atRp687
sg13
g1
sS'descriptor'
p688
(S'neutral'
p689
S'none'
p690
S'default'
p691
tp692
sS'atomDict'
p693
(dp694
g10
g19
sg338
g335
sg389
g386
sg636
g633
sg397
g394
sg100
g97
sg268
g265
sg586
g583
sg67
g64
sg415
g412
sg504
g501
sg33
g30
sg423
g420
sg346
g343
sg381
g378
sg131
g129
sg59
g56
sg124
g121
sg51
g48
sg250
g247
sg296
g293
sg147
g144
sg139
g136
sg608
g605
sg175
g172
sg478
g475
sg373
g370
sg202
g199
sg116
g113
sg354
g351
sg43
g40
sg75
g72
sg194
g191
sg108
g105
sg486
g483
ssg17
g8
((lp695
g40
ag378
ag97
ag483
ag265
ag501
ag56
ag144
ag72
ag19
ag113
ag64
ag172
ag121
ag412
ag351
ag129
ag30
ag335
ag199
ag394
ag343
ag105
ag293
ag633
ag605
ag191
ag386
ag48
ag136
ag583
ag370
ag247
ag475
ag420
atRp696
sg86
g8
((lp697
g442
atRp698
sS'polyLink'
p699
S'none'
p700
sbsg38
g8
((lp701
g583
atRp702
sg15
S'H'
sg81
I0
sg16
I00
sg82
(F513.78256475207911
F525.49685702053102
F54.219485187217884
tp703
sg84
(lp704
sg13
g1
sg86
g8
((ltRp705
sg88
g8
((lp706
g596
atRp707
sg37
I00
sbatRp708
sg37
I00
sbag338
ag389
ag636
ag33
ag397
ag139
ag268
ag202
ag67
ag415
ag59
ag373
ag423
ag346
ag381
ag131
ag504
ag124
ag51
ag250
ag296
ag147
ag100
ag608
ag175
ag478
ag586
ag75
ag354
ag116
ag43
ag194
ag108
ag486
atRp709
sS'ccpMolType'
p710
S'RNA'
p711
sS'details'
p712
V
sg693
(dp713
g32
g33
sg174
g175
sg193
g194
sg138
g139
sg146
g147
sg201
g202
sg50
g51
sg66
g67
sg115
g116
sg607
g608
sg353
g354
sg249
g250
sg635
g636
sg99
g100
sg585
g586
sg414
g415
sg388
g389
sg380
g381
sg267
g268
sg12
g10
sS'P'
g131
sg107
g108
sg58
g59
sg345
g346
sg337
g338
sg372
g373
sg477
g478
sg74
g75
sg295
g296
sg422
g423
sg396
g397
sg123
g124
sg485
g486
sg503
g504
sg42
g43
ssS'keywords'
p714
g8
((ltRp715
sg86
g8
((lp716
g442
atRp717
sS'variants'
p718
g8
((lp719
g25
atRp720
sS'defaultVars'
p721
g8
((ltRp722
sb.