(imodel.Compound
Compound
p1
(dp2
S'name'
p3
VGUANOSINE-5'-MONOPHOSPHATE
p4
sS'isModified'
p5
I01
sS'ccpCode'
p6
VG
sS'atoms'
p7
c__builtin__
set
p8
((lp9
(imodel.Atom
Atom
p10
(dp11
g3
S'N7'
p12
sS'compound'
p13
g1
sS'baseValences'
p14
I3
sS'element'
p15
S'N'
sS'isVariable'
p16
I00
sS'varAtoms'
p17
g8
((lp18
(imodel.VarAtom
VarAtom
p19
(dp20
g3
g12
sS'isLabile'
p21
I00
sS'chirality'
p22
NsS'atom'
p23
g10
sS'variant'
p24
(imodel.Variant
Variant
p25
(dp26
S'elementDict'
p27
(dp28
S'H'
g8
((lp29
(imodel.VarAtom
VarAtom
p30
(dp31
g3
S"H5''"
p32
sg21
I00
sg22
Nsg23
(imodel.Atom
Atom
p33
(dp34
g3
g32
sg13
g1
sg14
I1
sg15
S'H'
sg16
I00
sg17
g8
((lp35
g30
atRp36
sS'isDeleted'
p37
I00
sbsg24
g25
sS'neighbours'
p38
g8
((lp39
(imodel.VarAtom
VarAtom
p40
(dp41
g3
S"C5'"
p42
sg21
I00
sg22
Nsg23
(imodel.Atom
Atom
p43
(dp44
g3
g42
sg13
g1
sg14
I4
sg15
S'C'
sg16
I00
sg17
g8
((lp45
g40
atRp46
sg37
I00
sbsg24
g25
sg38
g8
((lp47
(imodel.VarAtom
VarAtom
p48
(dp49
g3
S"O5'"
p50
sg21
I00
sg22
Nsg23
(imodel.Atom
Atom
p51
(dp52
g3
g50
sg13
g1
sg14
I2
sg15
S'O'
sg16
I00
sg17
g8
((lp53
g48
atRp54
sg37
I00
sbsg24
g25
sg38
g8
((lp55
g40
a(imodel.VarAtom
VarAtom
p56
(dp57
g3
S'P'
sg21
I00
sg22
Nsg23
(imodel.Atom
Atom
p58
(dp59
g3
S'P'
sg13
g1
sg14
I5
sg15
S'P'
sg16
I00
sg17
g8
((lp60
g56
atRp61
sg37
I00
sbsg24
g25
sg38
g8
((lp62
(imodel.VarAtom
VarAtom
p63
(dp64
g3
S'OP1'
p65
sg21
I00
sg22
Nsg23
(imodel.Atom
Atom
p66
(dp67
g3
g65
sg13
g1
sg14
I2
sg15
S'O'
sg16
I00
sg17
g8
((lp68
g63
atRp69
sg37
I00
sbsg24
g25
sg38
g8
((lp70
g56
atRp71
sg15
S'O'
sS'charge'
p72
I0
sg16
I00
sS'coords'
p73
(F176.33561300225892
F201.65987435208513
F-129.93489582641143
tp74
sS'freeValences'
p75
(lp76
sg13
g1
sS'atomGroups'
p77
g8
((ltRp78
sS'bonds'
p79
g8
((lp80
(imodel.Bond
Bond
p81
(dp82
g13
g1
sS'bondType'
p83
S'double'
p84
sg24
g25
sg17
g8
((lp85
g63
ag56
atRp86
sbatRp87
sg37
I00
sba(imodel.VarAtom
VarAtom
p88
(dp89
g3
S'OP2'
p90
sg21
I00
sg22
Nsg23
(imodel.Atom
Atom
p91
(dp92
g3
g90
sg13
g1
sg14
I2
sg15
S'O'
sg16
I00
sg17
g8
((lp93
g88
atRp94
sg37
I00
sbsg24
g25
sg38
g8
((lp95
g56
a(imodel.VarAtom
VarAtom
p96
(dp97
g3
S'HOP2'
p98
sg21
I01
sg22
Nsg23
(imodel.Atom
Atom
p99
(dp100
g3
g98
sg13
g1
sg14
I1
sg15
S'H'
sg16
I00
sg17
g8
((lp101
g96
atRp102
sg37
I00
sbsg24
g25
sg38
g8
((lp103
g88
atRp104
sg15
S'H'
sg72
I0
sg16
I00
sg73
(F123.30644043728421
F123.83778616606776
F0.12289446675012283
tp105
sg75
(lp106
sg13
g1
sg77
g8
((ltRp107
sg79
g8
((lp108
(imodel.Bond
Bond
p109
(dp110
g13
g1
sg83
S'single'
p111
sg24
g25
sg17
g8
((lp112
g88
ag96
atRp113
sbatRp114
sg37
I00
sbatRp115
sg15
S'O'
sg72
I0
sg16
I00
sg73
(F128.74677030546638
F161.24600383528684
F-26.029763498295704
tp116
sg75
(lp117
sg13
g1
sg77
g8
((ltRp118
sg79
g8
((lp119
(imodel.Bond
Bond
p120
(dp121
g13
g1
sg83
g111
sg24
g25
sg17
g8
((lp122
g88
ag56
atRp123
sbag109
atRp124
sg37
I00
sba(imodel.VarAtom
VarAtom
p125
(dp126
g3
S'OP3'
p127
sg21
I00
sg22
Nsg23
(imodel.Atom
Atom
p128
(dp129
g3
g127
sg13
g1
sg14
I2
sg15
S'O'
sg16
I00
sg17
g8
((lp130
g125
atRp131
sg37
I00
sbsg24
g25
sg38
g8
((lp132
g56
a(imodel.VarAtom
VarAtom
p133
(dp134
g3
S'HOP3'
p135
sg21
I01
sg22
Nsg23
(imodel.Atom
Atom
p136
(dp137
g3
g135
sg13
g1
sg14
I1
sg15
S'H'
sg16
I00
sg17
g8
((lp138
g133
atRp139
sg37
I00
sbsg24
g25
sg38
g8
((lp140
g125
atRp141
sg15
S'H'
sg72
I0
sg16
I00
sg73
(F45.690764660027753
F207.77554277270519
F-104.04620700400508
tp142
sg75
(lp143
sg13
g1
sg77
g8
((ltRp144
sg79
g8
((lp145
(imodel.Bond
Bond
p146
(dp147
g13
g1
sg83
g111
sg24
g25
sg17
g8
((lp148
g133
ag125
atRp149
sbatRp150
sg37
I00
sbatRp151
sg15
S'O'
sg72
I0
sg16
I00
sg73
(F82.756517036822515
F215.39017804386367
F-129.13775707223661
tp152
sg75
(lp153
sg13
g1
sg77
g8
((ltRp154
sg79
g8
((lp155
(imodel.Bond
Bond
p156
(dp157
g13
g1
sg83
g111
sg24
g25
sg17
g8
((lp158
g56
ag125
atRp159
sbag146
atRp160
sg37
I00
sbag48
atRp161
sg15
S'P'
sg72
I0
sg16
I00
sg73
(F133.35928797489373
F211.76844251964121
F-89.471193432671583
tp162
sg75
(lp163
sg13
g1
sg77
g8
((ltRp164
sg79
g8
((lp165
g81
ag120
a(imodel.Bond
Bond
p166
(dp167
g13
g1
sg83
g111
sg24
g25
sg17
g8
((lp168
g48
ag56
atRp169
sbag156
atRp170
sg37
I00
sbatRp171
sg15
S'O'
sg72
I0
sg16
I00
sg73
(F146.86626449915093
F260.6764972257705
F-67.91647318898454
tp172
sg75
(lp173
sg13
g1
sg77
g8
((ltRp174
sg79
g8
((lp175
(imodel.Bond
Bond
p176
(dp177
g13
g1
sg83
g111
sg24
g25
sg17
g8
((lp178
g40
ag48
atRp179
sbag166
atRp180
sg37
I00
sba(imodel.VarAtom
VarAtom
p181
(dp182
g3
S"H5'"
p183
sg21
I00
sg22
Nsg23
(imodel.Atom
Atom
p184
(dp185
g3
g183
sg13
g1
sg14
I1
sg15
S'H'
sg16
I00
sg17
g8
((lp186
g181
atRp187
sg37
I00
sbsg24
g25
sg38
g8
((lp188
g40
atRp189
sg15
S'H'
sg72
I0
sg16
I00
sg73
(F141.98859418213806
F317.09610173434089
F-91.525768297171652
tp190
sg75
(lp191
sg13
g1
sg77
g8
((ltRp192
sg79
g8
((lp193
(imodel.Bond
Bond
p194
(dp195
g13
g1
sg83
g111
sg24
g25
sg17
g8
((lp196
g40
ag181
atRp197
sbatRp198
sg37
I00
sbag30
a(imodel.VarAtom
VarAtom
p199
(dp200
g3
S"C4'"
p201
sg21
I00
sg22
S'R'
sg23
(imodel.Atom
Atom
p202
(dp203
g3
g201
sg13
g1
sg14
I4
sg15
S'C'
sg16
I00
sg17
g8
((lp204
g199
atRp205
sg37
I00
sbsg24
g25
sg38
g8
((lp206
(imodel.VarAtom
VarAtom
p207
(dp208
g3
S"O4'"
p209
sg21
I00
sg22
Nsg23
(imodel.Atom
Atom
p210
(dp211
g3
g209
sg13
g1
sg14
I2
sg15
S'O'
sg16
I00
sg17
g8
((lp212
g207
atRp213
sg37
I00
sbsg24
g25
sg38
g8
((lp214
g199
a(imodel.VarAtom
VarAtom
p215
(dp216
g3
S"C1'"
p217
sg21
I00
sg22
S'R'
sg23
(imodel.Atom
Atom
p218
(dp219
g3
g217
sg13
g1
sg14
I4
sg15
S'C'
sg16
I00
sg17
g8
((lp220
g215
atRp221
sg37
I00
sbsg24
g25
sg38
g8
((lp222
(imodel.VarAtom
VarAtom
p223
(dp224
g3
S'N9'
p225
sg21
I00
sg22
Nsg23
(imodel.Atom
Atom
p226
(dp227
g3
g225
sg13
g1
sg14
I3
sg15
S'N'
sg16
I00
sg17
g8
((lp228
g223
atRp229
sg37
I00
sbsg24
g25
sg38
g8
((lp230
(imodel.VarAtom
VarAtom
p231
(dp232
g3
S'C8'
p233
sg21
I00
sg22
Nsg23
(imodel.Atom
Atom
p234
(dp235
g3
g233
sg13
g1
sg14
I4
sg15
S'C'
sg16
I00
sg17
g8
((lp236
g231
atRp237
sg37
I00
sbsg24
g25
sg38
g8
((lp238
g223
a(imodel.VarAtom
VarAtom
p239
(dp240
g3
S'H8'
p241
sg21
I00
sg22
Nsg23
(imodel.Atom
Atom
p242
(dp243
g3
g241
sg13
g1
sg14
I1
sg15
S'H'
sg16
I00
sg17
g8
((lp244
g239
atRp245
sg37
I00
sbsg24
g25
sg38
g8
((lp246
g231
atRp247
sg15
S'H'
sg72
I0
sg16
I00
sg73
(F277.25454600707155
F233.49630931789625
F38.491462294957749
tp248
sg75
(lp249
sg13
g1
sg77
g8
((ltRp250
sg79
g8
((lp251
(imodel.Bond
Bond
p252
(dp253
g13
g1
sg83
g111
sg24
g25
sg17
g8
((lp254
g231
ag239
atRp255
sbatRp256
sg37
I00
sbag19
atRp257
sg15
S'C'
sg72
I0
sg16
I00
sg73
(F316.84440602754398
F240.01625301637114
F46.104321318067377
tp258
sg75
(lp259
sg13
g1
sg77
g8
((lp260
(imodel.AtomGroup
AtomGroup
p261
(dp262
S'groupType'
p263
S'aromatic'
p264
sS'subGroups'
p265
g8
((ltRp266
sS'varAtoms'
p267
g8
((lp268
(imodel.VarAtom
VarAtom
p269
(dp270
g3
S'C5'
p271
sg21
I00
sg22
Nsg23
(imodel.Atom
Atom
p272
(dp273
g3
g271
sg13
g1
sg14
I4
sg15
S'C'
sg16
I00
sg17
g8
((lp274
g269
atRp275
sg37
I00
sbsg24
g25
sg38
g8
((lp276
(imodel.VarAtom
VarAtom
p277
(dp278
g3
S'C4'
p279
sg21
I00
sg22
Nsg23
(imodel.Atom
Atom
p280
(dp281
g3
g279
sg13
g1
sg14
I4
sg15
S'C'
sg16
I00
sg17
g8
((lp282
g277
atRp283
sg37
I00
sbsg24
g25
sg38
g8
((lp284
g269
a(imodel.VarAtom
VarAtom
p285
(dp286
g3
S'N3'
p287
sg21
I00
sg22
Nsg23
(imodel.Atom
Atom
p288
(dp289
g3
g287
sg13
g1
sg14
I3
sg15
S'N'
sg16
I00
sg17
g8
((lp290
g285
atRp291
sg37
I00
sbsg24
g25
sg38
g8
((lp292
g277
a(imodel.VarAtom
VarAtom
p293
(dp294
g3
S'C2'
p295
sg21
I00
sg22
Nsg23
(imodel.Atom
Atom
p296
(dp297
g3
g295
sg13
g1
sg14
I4
sg15
S'C'
sg16
I00
sg17
g8
((lp298
g293
atRp299
sg37
I00
sbsg24
g25
sg38
g8
((lp300
(imodel.VarAtom
VarAtom
p301
(dp302
g3
S'N2'
p303
sg21
I00
sg22
Nsg23
(imodel.Atom
Atom
p304
(dp305
g3
g303
sg13
g1
sg14
I3
sg15
S'N'
sg16
I00
sg17
g8
((lp306
g301
atRp307
sg37
I00
sbsg24
g25
sg38
g8
((lp308
g293
a(imodel.VarAtom
VarAtom
p309
(dp310
g3
S'H21'
p311
sg21
I00
sg22
Nsg23
(imodel.Atom
Atom
p312
(dp313
g3
g311
sg13
g1
sg14
I1
sg15
S'H'
sg16
I00
sg17
g8
((lp314
g309
atRp315
sg37
I00
sbsg24
g25
sg38
g8
((lp316
g301
atRp317
sg15
S'H'
sg72
I0
sg16
I00
sg73
(F497.49718382642538
F362.20868687516122
F88.474007603552138
tp318
sg75
(lp319
sg13
g1
sg77
g8
((ltRp320
sg79
g8
((lp321
(imodel.Bond
Bond
p322
(dp323
g13
g1
sg83
g111
sg24
g25
sg17
g8
((lp324
g309
ag301
atRp325
sbatRp326
sg37
I00
sba(imodel.VarAtom
VarAtom
p327
(dp328
g3
S'H22'
p329
sg21
I00
sg22
Nsg23
(imodel.Atom
Atom
p330
(dp331
g3
g329
sg13
g1
sg14
I1
sg15
S'H'
sg16
I00
sg17
g8
((lp332
g327
atRp333
sg37
I00
sbsg24
g25
sg38
g8
((lp334
g301
atRp335
sg15
S'H'
sg72
I0
sg16
I00
sg73
(F546.32043419164802
F316.60665352178091
F52.07310316206982
tp336
sg75
(lp337
sg13
g1
sg77
g8
((ltRp338
sg79
g8
((lp339
(imodel.Bond
Bond
p340
(dp341
g13
g1
sg83
g111
sg24
g25
sg17
g8
((lp342
g327
ag301
atRp343
sbatRp344
sg37
I00
sbatRp345
sg15
S'N'
sg72
I0
sg16
I00
sg73
(F509.32073359038986
F325.86809218457472
F86.915756101433942
tp346
sg75
(lp347
sg13
g1
sg77
g8
((ltRp348
sg79
g8
((lp349
(imodel.Bond
Bond
p350
(dp351
g13
g1
sg83
g111
sg24
g25
sg17
g8
((lp352
g293
ag301
atRp353
sbag322
ag340
atRp354
sg37
I00
sbag285
a(imodel.VarAtom
VarAtom
p355
(dp356
g3
S'N1'
p357
sg21
I00
sg22
Nsg23
(imodel.Atom
Atom
p358
(dp359
g3
g357
sg13
g1
sg14
I3
sg15
S'N'
sg16
I00
sg17
g8
((lp360
g355
atRp361
sg37
I00
sbsg24
g25
sg38
g8
((lp362
(imodel.VarAtom
VarAtom
p363
(dp364
g3
S'C6'
p365
sg21
I00
sg22
Nsg23
(imodel.Atom
Atom
p366
(dp367
g3
g365
sg13
g1
sg14
I4
sg15
S'C'
sg16
I00
sg17
g8
((lp368
g363
atRp369
sg37
I00
sbsg24
g25
sg38
g8
((lp370
g355
ag269
a(imodel.VarAtom
VarAtom
p371
(dp372
g3
S'O6'
p373
sg21
I00
sg22
Nsg23
(imodel.Atom
Atom
p374
(dp375
g3
g373
sg13
g1
sg14
I2
sg15
S'O'
sg16
I00
sg17
g8
((lp376
g371
atRp377
sg37
I00
sbsg24
g25
sg38
g8
((lp378
g363
atRp379
sg15
S'O'
sg72
I0
sg16
I00
sg73
(F444.09958326464368
F163.657040533133
F66.299296794943402
tp380
sg75
(lp381
sg13
g1
sg77
g8
((ltRp382
sg79
g8
((lp383
(imodel.Bond
Bond
p384
(dp385
g13
g1
sg83
S'double'
p386
sg24
g25
sg17
g8
((lp387
g363
ag371
atRp388
sbatRp389
sg37
I00
sbatRp390
sg15
S'C'
sg72
I0
sg16
I00
sg73
(F442.86633509398553
F207.6123130620183
F67.177478444952854
tp391
sg75
(lp392
sg13
g1
sg77
g8
((lp393
(imodel.AtomGroup
AtomGroup
p394
(dp395
g263
g264
sg265
g8
((ltRp396
sg267
g8
((lp397
g269
ag363
ag285
ag355
ag277
ag293
atRp398
sS'variant'
p399
g25
sS'compound'
p400
g1
sbatRp401
sg79
g8
((lp402
(imodel.Bond
Bond
p403
(dp404
g13
g1
sg83
g264
sg24
g25
sg17
g8
((lp405
g363
ag355
atRp406
sbag384
a(imodel.Bond
Bond
p407
(dp408
g13
g1
sg83
g264
sg24
g25
sg17
g8
((lp409
g363
ag269
atRp410
sbatRp411
sg37
I00
sba(imodel.VarAtom
VarAtom
p412
(dp413
g3
S'H1'
p414
sg21
I00
sg22
Nsg23
(imodel.Atom
Atom
p415
(dp416
g3
g414
sg13
g1
sg14
I1
sg15
S'H'
sg16
I01
sg17
g8
((lp417
g412
atRp418
sg37
I00
sbsg24
g25
sg38
g8
((lp419
g355
atRp420
sg15
S'H'
sg72
I0
sg16
I01
sg73
(F516.65610484225476
F221.11417415947858
F81.825484133188141
tp421
sg75
(lp422
sg13
g1
sg77
g8
((ltRp423
sg79
g8
((lp424
(imodel.Bond
Bond
p425
(dp426
g13
g1
sg83
g111
sg24
g25
sg17
g8
((lp427
g412
ag355
atRp428
sbatRp429
sg37
I00
sbag293
atRp430
sg15
S'N'
sg72
I0
sg16
I00
sg73
(F482.56827608291553
F238.28372719080608
F75.715824336054766
tp431
sg75
(lp432
sg13
g1
sg77
g8
((lp433
g394
atRp434
sg79
g8
((lp435
g403
ag425
a(imodel.Bond
Bond
p436
(dp437
g13
g1
sg83
g264
sg24
g25
sg17
g8
((lp438
g355
ag293
atRp439
sbatRp440
sg37
I00
sbatRp441
sg15
S'C'
sg72
I0
sg16
I00
sg73
(F475.48973996117729
F287.98662732185392
F77.134926666984796
tp442
sg75
(lp443
sg13
g1
sg77
g8
((lp444
g394
atRp445
sg79
g8
((lp446
g350
ag436
a(imodel.Bond
Bond
p447
(dp448
g13
g1
sg83
g264
sg24
g25
sg17
g8
((lp449
g285
ag293
atRp450
sbatRp451
sg37
I00
sbatRp452
sg15
S'N'
sg72
I0
sg16
I00
sg73
(F429.2609429053291
F306.68159479686824
F69.058017102004129
tp453
sg75
(lp454
sg13
g1
sg77
g8
((lp455
g394
atRp456
sg79
g8
((lp457
(imodel.Bond
Bond
p458
(dp459
g13
g1
sg83
g264
sg24
g25
sg17
g8
((lp460
g285
ag277
atRp461
sbag447
atRp462
sg37
I00
sbag223
atRp463
sg15
S'C'
sg72
I0
sg16
I00
sg73
(F389.51174168812554
F275.9774430226048
F61.140562214181656
tp464
sg75
(lp465
sg13
g1
sg77
g8
((lp466
g261
ag394
atRp467
sg79
g8
((lp468
(imodel.Bond
Bond
p469
(dp470
g13
g1
sg83
g264
sg24
g25
sg17
g8
((lp471
g269
ag277
atRp472
sbag458
a(imodel.Bond
Bond
p473
(dp474
g13
g1
sg83
g264
sg24
g25
sg17
g8
((lp475
g277
ag223
atRp476
sbatRp477
sg37
I00
sbag363
ag19
atRp478
sg15
S'C'
sg72
I0
sg16
I00
sg73
(F396.57876278868014
F226.73190702962927
F58.146655872868081
tp479
sg75
(lp480
sg13
g1
sg77
g8
((lp481
g261
ag394
atRp482
sg79
g8
((lp483
g469
a(imodel.Bond
Bond
p484
(dp485
g13
g1
sg83
g264
sg24
g25
sg17
g8
((lp486
g269
ag19
atRp487
sbag407
atRp488
sg37
I00
sbag19
ag223
ag277
ag231
atRp489
sg399
g25
sg400
g1
sbatRp490
sg79
g8
((lp491
(imodel.Bond
Bond
p492
(dp493
g13
g1
sg83
g264
sg24
g25
sg17
g8
((lp494
g231
ag223
atRp495
sba(imodel.Bond
Bond
p496
(dp497
g13
g1
sg83
g264
sg24
g25
sg17
g8
((lp498
g231
ag19
atRp499
sbag252
atRp500
sg37
I00
sbag215
ag277
atRp501
sg15
S'N'
sg72
I0
sg16
I00
sg73
(F339.61837302707249
F284.61286594643866
F51.579627182029633
tp502
sg75
(lp503
sg13
g1
sg77
g8
((lp504
g261
atRp505
sg79
g8
((lp506
g492
a(imodel.Bond
Bond
p507
(dp508
g13
g1
sg83
g111
sg24
g25
sg17
g8
((lp509
g223
ag215
atRp510
sbag473
atRp511
sg37
I00
sba(imodel.VarAtom
VarAtom
p512
(dp513
g3
S"C2'"
p514
sg21
I00
sg22
S'R'
sg23
(imodel.Atom
Atom
p515
(dp516
g3
g514
sg13
g1
sg14
I4
sg15
S'C'
sg16
I00
sg17
g8
((lp517
g512
atRp518
sg37
I00
sbsg24
g25
sg38
g8
((lp519
g215
a(imodel.VarAtom
VarAtom
p520
(dp521
g3
S"C3'"
p522
sg21
I00
sg22
S'S'
sg23
(imodel.Atom
Atom
p523
(dp524
g3
g522
sg13
g1
sg14
I4
sg15
S'C'
sg16
I00
sg17
g8
((lp525
g520
atRp526
sg37
I00
sbsg24
g25
sg38
g8
((lp527
(imodel.VarAtom
VarAtom
p528
(dp529
g3
S"O3'"
p530
sg21
I00
sg22
Nsg23
(imodel.Atom
Atom
p531
(dp532
g3
g530
sg13
g1
sg14
I2
sg15
S'O'
sg16
I00
sg17
g8
((lp533
g528
atRp534
sg37
I00
sbsg24
g25
sg38
g8
((lp535
(imodel.VarAtom
VarAtom
p536
(dp537
g3
S"HO3'"
p538
sg21
I01
sg22
Nsg23
(imodel.Atom
Atom
p539
(dp540
g3
g538
sg13
g1
sg14
I1
sg15
S'H'
sg16
I00
sg17
g8
((lp541
g536
atRp542
sg37
I00
sbsg24
g25
sg38
g8
((lp543
g528
atRp544
sg15
S'H'
sg72
I0
sg16
I00
sg73
(F189.51178063932548
F457.43433845178401
F-126.74638155628098
tp545
sg75
(lp546
sg13
g1
sg77
g8
((ltRp547
sg79
g8
((lp548
(imodel.Bond
Bond
p549
(dp550
g13
g1
sg83
g111
sg24
g25
sg17
g8
((lp551
g536
ag528
atRp552
sbatRp553
sg37
I00
sbag520
atRp554
sg15
S'O'
sg72
I0
sg16
I00
sg73
(F211.10196696605794
F426.34245816807152
F-101.0149168277927
tp555
sg75
(lp556
sg13
g1
sg77
g8
((ltRp557
sg79
g8
((lp558
g549
a(imodel.Bond
Bond
p559
(dp560
g13
g1
sg83
g111
sg24
g25
sg17
g8
((lp561
g520
ag528
atRp562
sbatRp563
sg37
I00
sbag512
a(imodel.VarAtom
VarAtom
p564
(dp565
g3
S"H3'"
p566
sg21
I00
sg22
Nsg23
(imodel.Atom
Atom
p567
(dp568
g3
g566
sg13
g1
sg14
I1
sg15
S'H'
sg16
I00
sg17
g8
((lp569
g564
atRp570
sg37
I00
sbsg24
g25
sg38
g8
((lp571
g520
atRp572
sg15
S'H'
sg72
I0
sg16
I00
sg73
(F261.66506681726787
F355.56778484978668
F-87.037965647194838
tp573
sg75
(lp574
sg13
g1
sg77
g8
((ltRp575
sg79
g8
((lp576
(imodel.Bond
Bond
p577
(dp578
g13
g1
sg83
g111
sg24
g25
sg17
g8
((lp579
g564
ag520
atRp580
sbatRp581
sg37
I00
sbag199
atRp582
sg15
S'C'
sg72
I0
sg16
I00
sg73
(F240.07559606717973
F384.47593344217432
F-55.355033275211497
tp583
sg75
(lp584
sg13
g1
sg77
g8
((ltRp585
sg79
g8
((lp586
g559
a(imodel.Bond
Bond
p587
(dp588
g13
g1
sg83
g111
sg24
g25
sg17
g8
((lp589
g199
ag520
atRp590
sba(imodel.Bond
Bond
p591
(dp592
g13
g1
sg83
g111
sg24
g25
sg17
g8
((lp593
g512
ag520
atRp594
sbag577
atRp595
sg37
I00
sba(imodel.VarAtom
VarAtom
p596
(dp597
g3
S"O2'"
p598
sg21
I00
sg22
Nsg23
(imodel.Atom
Atom
p599
(dp600
g3
g598
sg13
g1
sg14
I2
sg15
S'O'
sg16
I00
sg17
g8
((lp601
g596
atRp602
sg37
I00
sbsg24
g25
sg38
g8
((lp603
g512
a(imodel.VarAtom
VarAtom
p604
(dp605
g3
S"HO2'"
p606
sg21
I01
sg22
Nsg23
(imodel.Atom
Atom
p607
(dp608
g3
g606
sg13
g1
sg14
I1
sg15
S'H'
sg16
I00
sg17
g8
((lp609
g604
atRp610
sg37
I00
sbsg24
g25
sg38
g8
((lp611
g596
atRp612
sg15
S'H'
sg72
I0
sg16
I00
sg73
(F297.00685616417127
F474.35038639533661
F57.759720178338306
tp613
sg75
(lp614
sg13
g1
sg77
g8
((ltRp615
sg79
g8
((lp616
(imodel.Bond
Bond
p617
(dp618
g13
g1
sg83
g111
sg24
g25
sg17
g8
((lp619
g604
ag596
atRp620
sbatRp621
sg37
I00
sbatRp622
sg15
S'O'
sg72
I0
sg16
I00
sg73
(F294.18816949522989
F436.48792700090746
F24.783932055546483
tp623
sg75
(lp624
sg13
g1
sg77
g8
((ltRp625
sg79
g8
((lp626
(imodel.Bond
Bond
p627
(dp628
g13
g1
sg83
g111
sg24
g25
sg17
g8
((lp629
g512
ag596
atRp630
sbag617
atRp631
sg37
I00
sba(imodel.VarAtom
VarAtom
p632
(dp633
g3
S"H2'"
p634
sg21
I00
sg22
Nsg23
(imodel.Atom
Atom
p635
(dp636
g3
g634
sg13
g1
sg14
I1
sg15
S'H'
sg16
I00
sg17
g8
((lp637
g632
atRp638
sg37
I00
sbsg24
g25
sg38
g8
((lp639
g512
atRp640
sg15
S'H'
sg72
I0
sg16
I00
sg73
(F331.34328024122919
F396.67430210518887
F-21.84833149498083
tp641
sg75
(lp642
sg13
g1
sg77
g8
((ltRp643
sg79
g8
((lp644
(imodel.Bond
Bond
p645
(dp646
g13
g1
sg83
g111
sg24
g25
sg17
g8
((lp647
g512
ag632
atRp648
sbatRp649
sg37
I00
sbatRp650
sg15
S'C'
sg72
I0
sg16
I00
sg73
(F294.56106427822556
F385.37134476156939
F-2.4399437324136866
tp651
sg75
(lp652
sg13
g1
sg77
g8
((ltRp653
sg79
g8
((lp654
g627
ag591
ag645
a(imodel.Bond
Bond
p655
(dp656
g13
g1
sg83
g111
sg24
g25
sg17
g8
((lp657
g512
ag215
atRp658
sbatRp659
sg37
I00
sbag207
a(imodel.VarAtom
VarAtom
p660
(dp661
g3
S"H1'"
p662
sg21
I00
sg22
Nsg23
(imodel.Atom
Atom
p663
(dp664
g3
g662
sg13
g1
sg14
I1
sg15
S'H'
sg16
I00
sg17
g8
((lp665
g660
atRp666
sg37
I00
sbsg24
g25
sg38
g8
((lp667
g215
atRp668
sg15
S'H'
sg72
I0
sg16
I00
sg73
(F344.83565943930125
F339.12960698632571
F95.212448525048657
tp669
sg75
(lp670
sg13
g1
sg77
g8
((ltRp671
sg79
g8
((lp672
(imodel.Bond
Bond
p673
(dp674
g13
g1
sg83
g111
sg24
g25
sg17
g8
((lp675
g660
ag215
atRp676
sbatRp677
sg37
I00
sbatRp678
sg15
S'C'
sg72
I0
sg16
I00
sg73
(F308.9112235079341
F326.46864504320752
F49.610888871184301
tp679
sg75
(lp680
sg13
g1
sg77
g8
((ltRp681
sg79
g8
((lp682
g507
ag673
ag655
a(imodel.Bond
Bond
p683
(dp684
g13
g1
sg83
g111
sg24
g25
sg17
g8
((lp685
g207
ag215
atRp686
sbatRp687
sg37
I00
sbatRp688
sg15
S'O'
sg72
I0
sg16
I00
sg73
(F259.12682900937216
F313.06424949525876
F47.606673921229401
tp689
sg75
(lp690
sg13
g1
sg77
g8
((ltRp691
sg79
g8
((lp692
(imodel.Bond
Bond
p693
(dp694
g13
g1
sg83
g111
sg24
g25
sg17
g8
((lp695
g207
ag199
atRp696
sbag683
atRp697
sg37
I00
sba(imodel.VarAtom
VarAtom
p698
(dp699
g3
S"H4'"
p700
sg21
I00
sg22
Nsg23
(imodel.Atom
Atom
p701
(dp702
g3
g700
sg13
g1
sg14
I1
sg15
S'H'
sg16
I00
sg17
g8
((lp703
g698
atRp704
sg37
I00
sbsg24
g25
sg38
g8
((lp705
g199
atRp706
sg15
S'H'
sg72
I0
sg16
I00
sg73
(F183.78006092351382
F362.2117611197225
F-6.6119541453305137
tp707
sg75
(lp708
sg13
g1
sg77
g8
((ltRp709
sg79
g8
((lp710
(imodel.Bond
Bond
p711
(dp712
g13
g1
sg83
g111
sg24
g25
sg17
g8
((lp713
g199
ag698
atRp714
sbatRp715
sg37
I00
sbag40
ag520
atRp716
sg15
S'C'
sg72
I0
sg16
I00
sg73
(F214.00730056072348
F338.43741577112087
F-14.536813363673909
tp717
sg75
(lp718
sg13
g1
sg77
g8
((ltRp719
sg79
g8
((lp720
g693
ag587
ag711
a(imodel.Bond
Bond
p721
(dp722
g13
g1
sg83
g111
sg24
g25
sg17
g8
((lp723
g40
ag199
atRp724
sbatRp725
sg37
I00
sbatRp726
sg15
S'C'
sg72
I0
sg16
I00
sg73
(F177.39644576711066
F301.6752201527238
F-48.652846669843974
tp727
sg75
(lp728
sg13
g1
sg77
g8
((ltRp729
sg79
g8
((lp730
g176
a(imodel.Bond
Bond
p731
(dp732
g13
g1
sg83
g111
sg24
g25
sg17
g8
((lp733
g40
ag30
atRp734
sbag721
ag194
atRp735
sg37
I00
sbatRp736
sg15
S'H'
sg72
I0
sg16
I00
sg73
(F203.75736736406498
F274.04174367455505
F-17.002168381961759
tp737
sg75
(lp738
sg13
g1
sg77
g8
((ltRp739
sg79
g8
((lp740
g731
atRp741
sg37
I00
sbag96
ag239
ag181
ag327
ag536
ag660
ag309
ag564
ag412
ag632
ag133
ag698
ag604
atRp742
sS'C'
g8
((lp743
g293
ag363
ag40
ag269
ag199
ag277
ag215
ag512
ag231
ag520
atRp744
sS'P'
g8
((lp745
g56
atRp746
sS'O'
g8
((lp747
g125
ag528
ag63
ag371
ag596
ag207
ag48
ag88
atRp748
sS'N'
g8
((lp749
g301
ag285
ag223
ag19
ag355
atRp750
ssg79
g8
((lp751
g577
ag322
ag693
ag156
ag384
ag484
ag507
ag655
ag721
ag469
ag176
ag340
ag627
ag492
ag496
ag81
ag407
ag194
ag120
ag559
ag591
ag731
ag549
ag645
ag458
ag473
ag683
ag447
ag425
ag673
ag252
ag109
ag146
ag711
ag350
ag587
ag403
ag436
ag617
ag166
atRp752
sg13
g1
sS'descriptor'
p753
(S'neutral'
p754
S'none'
p755
S'default'
p756
tp757
sS'atomDict'
p758
(dp759
g10
g19
sg66
g63
sg415
g412
sg218
g215
sg136
g133
sg51
g48
sg531
g528
sg607
g604
sg296
g293
sg358
g355
sg226
g223
sg184
g181
sg99
g96
sg280
g277
sg43
g40
sg33
g30
sg663
g660
sg366
g363
sg234
g231
sg599
g596
sg701
g698
sg58
g56
sg202
g199
sg374
g371
sg288
g285
sg567
g564
sg91
g88
sg539
g536
sg635
g632
sg210
g207
sg128
g125
sg523
g520
sg515
g512
sg330
g327
sg304
g301
sg242
g239
sg272
g269
sg312
g309
ssg17
g8
((lp760
g231
ag293
ag327
ag309
ag528
ag632
ag363
ag604
ag269
ag536
ag48
ag199
ag223
ag512
ag520
ag355
ag30
ag301
ag125
ag181
ag215
ag63
ag660
ag277
ag698
ag285
ag564
ag96
ag40
ag207
ag239
ag596
ag371
ag56
ag412
ag133
ag19
ag88
atRp761
sg77
g8
((lp762
g261
ag394
atRp763
sS'polyLink'
p764
S'none'
p765
sbsg38
g8
((lp766
g231
ag269
atRp767
sg15
S'N'
sg72
I0
sg16
I00
sg73
(F351.90961495531519
F204.33147612539733
F48.437627269172978
tp768
sg75
(lp769
sg13
g1
sg77
g8
((lp770
g261
atRp771
sg79
g8
((lp772
g496
ag484
atRp773
sg37
I00
sbatRp774
sg37
I00
sbag66
ag415
ag218
ag51
ag296
ag607
ag280
ag226
ag635
ag99
ag43
ag33
ag663
ag288
ag531
ag234
ag136
ag701
ag567
ag202
ag374
ag366
ag91
ag539
ag58
ag242
ag210
ag128
ag523
ag184
ag515
ag330
ag304
ag599
ag358
ag272
ag312
atRp775
sS'ccpMolType'
p776
S'RNA'
p777
sS'details'
p778
V
sg758
(dp779
g538
g539
sg65
g66
sg90
g91
sg127
g128
sg135
g136
sg98
g99
sg522
g523
sg217
g218
sg329
g330
sg42
g43
sg373
g374
sg634
g635
sg183
g184
sg566
g567
sg209
g210
sg233
g234
sg295
g296
sg662
g663
sg365
g366
sg271
g272
sg279
g280
sg32
g33
sg606
g607
sg311
g312
sS'P'
g58
sg201
g202
sg514
g515
sg598
g599
sg357
g358
sg303
g304
sg287
g288
sg12
g10
sg700
g701
sg241
g242
sg225
g226
sg414
g415
sg50
g51
sg530
g531
ssS'keywords'
p780
g8
((ltRp781
sg77
g8
((lp782
g261
ag394
atRp783
sS'variants'
p784
g8
((lp785
g25
atRp786
sS'defaultVars'
p787
g8
((ltRp788
sb.