(imodel.Compound
Compound
p1
(dp2
S'name'
p3
VINOSINIC ACID
p4
sS'isModified'
p5
I01
sS'ccpCode'
p6
VI
sS'atoms'
p7
c__builtin__
set
p8
((lp9
(imodel.Atom
Atom
p10
(dp11
g3
S'N7'
p12
sS'compound'
p13
g1
sS'baseValences'
p14
I3
sS'element'
p15
S'N'
sS'isVariable'
p16
I00
sS'varAtoms'
p17
g8
((lp18
(imodel.VarAtom
VarAtom
p19
(dp20
g3
g12
sS'isLabile'
p21
I00
sS'chirality'
p22
NsS'atom'
p23
g10
sS'variant'
p24
(imodel.Variant
Variant
p25
(dp26
S'elementDict'
p27
(dp28
S'H'
g8
((lp29
(imodel.VarAtom
VarAtom
p30
(dp31
g3
S"H2'"
p32
sg21
I00
sg22
Nsg23
(imodel.Atom
Atom
p33
(dp34
g3
g32
sg13
g1
sg14
I1
sg15
S'H'
sg16
I00
sg17
g8
((lp35
g30
atRp36
sS'isDeleted'
p37
I00
sbsg24
g25
sS'neighbours'
p38
g8
((lp39
(imodel.VarAtom
VarAtom
p40
(dp41
g3
S"C2'"
p42
sg21
I00
sg22
Nsg23
(imodel.Atom
Atom
p43
(dp44
g3
g42
sg13
g1
sg14
I4
sg15
S'C'
sg16
I00
sg17
g8
((lp45
g40
atRp46
sg37
I00
sbsg24
g25
sg38
g8
((lp47
g30
a(imodel.VarAtom
VarAtom
p48
(dp49
g3
S"C3'"
p50
sg21
I00
sg22
Nsg23
(imodel.Atom
Atom
p51
(dp52
g3
g50
sg13
g1
sg14
I4
sg15
S'C'
sg16
I00
sg17
g8
((lp53
g48
atRp54
sg37
I00
sbsg24
g25
sg38
g8
((lp55
g40
a(imodel.VarAtom
VarAtom
p56
(dp57
g3
S"O3'"
p58
sg21
I00
sg22
Nsg23
(imodel.Atom
Atom
p59
(dp60
g3
g58
sg13
g1
sg14
I2
sg15
S'O'
sg16
I00
sg17
g8
((lp61
g56
atRp62
sg37
I00
sbsg24
g25
sg38
g8
((lp63
g48
a(imodel.VarAtom
VarAtom
p64
(dp65
S'name'
p66
VHO3'
p67
sS'isLabile'
p68
I01
sS'chirality'
p69
NsS'atom'
p70
(imodel.Atom
Atom
p71
(dp72
g66
g67
sS'compound'
p73
g1
sg14
I1
sS'element'
p74
S'H'
sS'isVariable'
p75
I00
sS'varAtoms'
p76
g8
((lp77
g64
atRp78
sS'isDeleted'
p79
I00
sbsS'variant'
p80
g25
sS'neighbours'
p81
g8
((lp82
g56
atRp83
sg74
S'H'
sS'charge'
p84
I0
sg75
I00
sS'coords'
p85
(F116.90024858313609
F435.31019275593292
F0.88665583536631565
tp86
sS'freeValences'
p87
(lp88
sg73
g1
sS'atomGroups'
p89
g8
((ltRp90
sS'bonds'
p91
g8
((lp92
(imodel.Bond
Bond
p93
(dp94
g73
g1
sS'bondType'
p95
S'single'
p96
sg80
g25
sg76
g8
((lp97
g56
ag64
atRp98
sbatRp99
sg79
I00
sbatRp100
sg15
S'O'
sS'charge'
p101
I0
sg16
I00
sS'coords'
p102
(F153.88230194640005
F406.56246098643055
F-11.898389062493944
tp103
sS'freeValences'
p104
(lp105
sg13
g1
sS'atomGroups'
p106
g8
((ltRp107
sS'bonds'
p108
g8
((lp109
(imodel.Bond
Bond
p110
(dp111
g13
g1
sS'bondType'
p112
S'single'
p113
sg24
g25
sg17
g8
((lp114
g48
ag56
atRp115
sbag93
atRp116
sg37
I00
sba(imodel.VarAtom
VarAtom
p117
(dp118
g3
S"C4'"
p119
sg21
I00
sg22
Nsg23
(imodel.Atom
Atom
p120
(dp121
g3
g119
sg13
g1
sg14
I4
sg15
S'C'
sg16
I00
sg17
g8
((lp122
g117
atRp123
sg37
I00
sbsg24
g25
sg38
g8
((lp124
g48
a(imodel.VarAtom
VarAtom
p125
(dp126
g3
S"H4'"
p127
sg21
I00
sg22
Nsg23
(imodel.Atom
Atom
p128
(dp129
g3
g127
sg13
g1
sg14
I1
sg15
S'H'
sg16
I00
sg17
g8
((lp130
g125
atRp131
sg37
I00
sbsg24
g25
sg38
g8
((lp132
g117
atRp133
sg15
S'H'
sg101
I0
sg16
I00
sg102
(F183.36167739487541
F289.16879132925146
F-59.130180867508521
tp134
sg104
(lp135
sg13
g1
sg106
g8
((ltRp136
sg108
g8
((lp137
(imodel.Bond
Bond
p138
(dp139
g13
g1
sg112
g113
sg24
g25
sg17
g8
((lp140
g117
ag125
atRp141
sbatRp142
sg37
I00
sba(imodel.VarAtom
VarAtom
p143
(dp144
g3
S"C5'"
p145
sg21
I00
sg22
Nsg23
(imodel.Atom
Atom
p146
(dp147
g3
g145
sg13
g1
sg14
I4
sg15
S'C'
sg16
I00
sg17
g8
((lp148
g143
atRp149
sg37
I00
sbsg24
g25
sg38
g8
((lp150
(imodel.VarAtom
VarAtom
p151
(dp152
g3
S"O5'"
p153
sg21
I00
sg22
Nsg23
(imodel.Atom
Atom
p154
(dp155
g3
g153
sg13
g1
sg14
I2
sg15
S'O'
sg16
I00
sg17
g8
((lp156
g151
atRp157
sg37
I00
sbsg24
g25
sg38
g8
((lp158
g143
a(imodel.VarAtom
VarAtom
p159
(dp160
g3
S'P'
sg21
I00
sg22
Nsg23
(imodel.Atom
Atom
p161
(dp162
g3
S'P'
sg13
g1
sg14
I5
sg15
S'P'
sg16
I00
sg17
g8
((lp163
g159
atRp164
sg37
I00
sbsg24
g25
sg38
g8
((lp165
(imodel.VarAtom
VarAtom
p166
(dp167
g3
S'OP3'
p168
sg21
I00
sg22
Nsg23
(imodel.Atom
Atom
p169
(dp170
g3
g168
sg13
g1
sg14
I2
sg15
S'O'
sg16
I00
sg17
g8
((lp171
g166
atRp172
sg37
I00
sbsg24
g25
sg38
g8
((lp173
g159
a(imodel.VarAtom
VarAtom
p174
(dp175
g3
S'HOP3'
p176
sg21
I01
sg22
Nsg23
(imodel.Atom
Atom
p177
(dp178
g3
g176
sg13
g1
sg14
I1
sg15
S'H'
sg16
I00
sg17
g8
((lp179
g174
atRp180
sg37
I00
sbsg24
g25
sg38
g8
((lp181
g166
atRp182
sg15
S'H'
sg101
I0
sg16
I00
sg102
(F32.560663176858725
F174.41261439517928
F34.491685937365709
tp183
sg104
(lp184
sg13
g1
sg106
g8
((ltRp185
sg108
g8
((lp186
(imodel.Bond
Bond
p187
(dp188
g13
g1
sg112
g113
sg24
g25
sg17
g8
((lp189
g166
ag174
atRp190
sbatRp191
sg37
I00
sbatRp192
sg15
S'O'
sg101
I0
sg16
I00
sg102
(F44.527482186250154
F210.3879844226791
F29.449209520218421
tp193
sg104
(lp194
sg13
g1
sg106
g8
((ltRp195
sg108
g8
((lp196
(imodel.Bond
Bond
p197
(dp198
g13
g1
sg112
g113
sg24
g25
sg17
g8
((lp199
g166
ag159
atRp200
sbag187
atRp201
sg37
I00
sba(imodel.VarAtom
VarAtom
p202
(dp203
g3
S'OP1'
p204
sg21
I00
sg22
Nsg23
(imodel.Atom
Atom
p205
(dp206
g3
g204
sg13
g1
sg14
I2
sg15
S'O'
sg16
I00
sg17
g8
((lp207
g202
atRp208
sg37
I00
sbsg24
g25
sg38
g8
((lp209
g159
atRp210
sg15
S'O'
sg101
I0
sg16
I00
sg102
(F-2.9563698552764208
F246.90937003834267
F-48.635343483050704
tp211
sg104
(lp212
sg13
g1
sg106
g8
((ltRp213
sg108
g8
((lp214
(imodel.Bond
Bond
p215
(dp216
g13
g1
sg112
S'double'
p217
sg24
g25
sg17
g8
((lp218
g202
ag159
atRp219
sbatRp220
sg37
I00
sbag151
a(imodel.VarAtom
VarAtom
p221
(dp222
g3
S'OP2'
p223
sg21
I00
sg22
Nsg23
(imodel.Atom
Atom
p224
(dp225
g3
g223
sg13
g1
sg14
I2
sg15
S'O'
sg16
I00
sg17
g8
((lp226
g221
atRp227
sg37
I00
sbsg24
g25
sg38
g8
((lp228
(imodel.VarAtom
VarAtom
p229
(dp230
g3
S'HOP2'
p231
sg21
I01
sg22
Nsg23
(imodel.Atom
Atom
p232
(dp233
g3
g231
sg13
g1
sg14
I1
sg15
S'H'
sg16
I00
sg17
g8
((lp234
g229
atRp235
sg37
I00
sbsg24
g25
sg38
g8
((lp236
g221
atRp237
sg15
S'H'
sg101
I0
sg16
I00
sg102
(F-8.0025910392090509
F328.75039278579607
F114.10181497941478
tp238
sg104
(lp239
sg13
g1
sg106
g8
((ltRp240
sg108
g8
((lp241
(imodel.Bond
Bond
p242
(dp243
g13
g1
sg112
g113
sg24
g25
sg17
g8
((lp244
g221
ag229
atRp245
sbatRp246
sg37
I00
sbag159
atRp247
sg15
S'O'
sg101
I0
sg16
I00
sg102
(F20.622578715607801
F305.39440517819105
F75.207808597238738
tp248
sg104
(lp249
sg13
g1
sg106
g8
((ltRp250
sg108
g8
((lp251
g242
a(imodel.Bond
Bond
p252
(dp253
g73
g1
sg95
g96
sg80
g25
sg76
g8
((lp254
g159
ag221
atRp255
sbatRp256
sg37
I00
sbatRp257
sg15
S'P'
sg101
I0
sg16
I00
sg102
(F42.185957585231563
F259.97234965578207
F14.574001648918957
tp258
sg104
(lp259
sg13
g1
sg106
g8
((ltRp260
sg108
g8
((lp261
g197
ag215
a(imodel.Bond
Bond
p262
(dp263
g13
g1
sg112
g113
sg24
g25
sg17
g8
((lp264
g159
ag151
atRp265
sbag252
atRp266
sg37
I00
sbatRp267
sg15
S'O'
sg101
I0
sg16
I00
sg102
(F88.807481211454046
F274.40605724108264
F5.9515736068795331
tp268
sg104
(lp269
sg13
g1
sg106
g8
((ltRp270
sg108
g8
((lp271
(imodel.Bond
Bond
p272
(dp273
g13
g1
sg112
g113
sg24
g25
sg17
g8
((lp274
g143
ag151
atRp275
sbag262
atRp276
sg37
I00
sba(imodel.VarAtom
VarAtom
p277
(dp278
g3
S"H5''"
p279
sg21
I00
sg22
Nsg23
(imodel.Atom
Atom
p280
(dp281
g3
g279
sg13
g1
sg14
I1
sg15
S'H'
sg16
I00
sg17
g8
((lp282
g277
atRp283
sg37
I00
sbsg24
g25
sg38
g8
((lp284
g143
atRp285
sg15
S'H'
sg101
I0
sg16
I00
sg102
(F85.224104538763299
F323.60683761601229
F-60.782040518959661
tp286
sg104
(lp287
sg13
g1
sg106
g8
((ltRp288
sg108
g8
((lp289
(imodel.Bond
Bond
p290
(dp291
g13
g1
sg112
g113
sg24
g25
sg17
g8
((lp292
g143
ag277
atRp293
sbatRp294
sg37
I00
sba(imodel.VarAtom
VarAtom
p295
(dp296
g3
S"H5'"
p297
sg21
I00
sg22
Nsg23
(imodel.Atom
Atom
p298
(dp299
g3
g297
sg13
g1
sg14
I1
sg15
S'H'
sg16
I00
sg17
g8
((lp300
g295
atRp301
sg37
I00
sbsg24
g25
sg38
g8
((lp302
g143
atRp303
sg15
S'H'
sg101
I0
sg16
I00
sg102
(F118.55713842136777
F351.72835965185755
F24.600385090960962
tp304
sg104
(lp305
sg13
g1
sg106
g8
((ltRp306
sg108
g8
((lp307
(imodel.Bond
Bond
p308
(dp309
g13
g1
sg112
g113
sg24
g25
sg17
g8
((lp310
g143
ag295
atRp311
sbatRp312
sg37
I00
sbag117
atRp313
sg15
S'C'
sg101
I0
sg16
I00
sg102
(F122.34957729535449
F313.64848801004405
F-13.813357303422407
tp314
sg104
(lp315
sg13
g1
sg106
g8
((ltRp316
sg108
g8
((lp317
g272
ag308
ag290
a(imodel.Bond
Bond
p318
(dp319
g13
g1
sg112
g113
sg24
g25
sg17
g8
((lp320
g117
ag143
atRp321
sbatRp322
sg37
I00
sba(imodel.VarAtom
VarAtom
p323
(dp324
g3
S"O4'"
p325
sg21
I00
sg22
Nsg23
(imodel.Atom
Atom
p326
(dp327
g3
g325
sg13
g1
sg14
I2
sg15
S'O'
sg16
I00
sg17
g8
((lp328
g323
atRp329
sg37
I00
sbsg24
g25
sg38
g8
((lp330
(imodel.VarAtom
VarAtom
p331
(dp332
g3
S"C1'"
p333
sg21
I00
sg22
Nsg23
(imodel.Atom
Atom
p334
(dp335
g3
g333
sg13
g1
sg14
I4
sg15
S'C'
sg16
I00
sg17
g8
((lp336
g331
atRp337
sg37
I00
sbsg24
g25
sg38
g8
((lp338
g323
ag40
a(imodel.VarAtom
VarAtom
p339
(dp340
g3
S'N9'
p341
sg21
I00
sg22
Nsg23
(imodel.Atom
Atom
p342
(dp343
g3
g341
sg13
g1
sg14
I3
sg15
S'N'
sg16
I00
sg17
g8
((lp344
g339
atRp345
sg37
I00
sbsg24
g25
sg38
g8
((lp346
(imodel.VarAtom
VarAtom
p347
(dp348
g3
S'C4'
p349
sg21
I00
sg22
Nsg23
(imodel.Atom
Atom
p350
(dp351
g3
g349
sg13
g1
sg14
I4
sg15
S'C'
sg16
I00
sg17
g8
((lp352
g347
atRp353
sg37
I00
sbsg24
g25
sg38
g8
((lp354
(imodel.VarAtom
VarAtom
p355
(dp356
g3
S'C5'
p357
sg21
I00
sg22
Nsg23
(imodel.Atom
Atom
p358
(dp359
g3
g357
sg13
g1
sg14
I4
sg15
S'C'
sg16
I00
sg17
g8
((lp360
g355
atRp361
sg37
I00
sbsg24
g25
sg38
g8
((lp362
g347
a(imodel.VarAtom
VarAtom
p363
(dp364
g3
S'C6'
p365
sg21
I00
sg22
Nsg23
(imodel.Atom
Atom
p366
(dp367
g3
g365
sg13
g1
sg14
I4
sg15
S'C'
sg16
I00
sg17
g8
((lp368
g363
atRp369
sg37
I00
sbsg24
g25
sg38
g8
((lp370
g355
a(imodel.VarAtom
VarAtom
p371
(dp372
g3
S'O6'
p373
sg21
I00
sg22
Nsg23
(imodel.Atom
Atom
p374
(dp375
g3
g373
sg13
g1
sg14
I2
sg15
S'O'
sg16
I00
sg17
g8
((lp376
g371
atRp377
sg37
I00
sbsg24
g25
sg38
g8
((lp378
g363
atRp379
sg15
S'O'
sg101
I0
sg16
I00
sg102
(F443.32178021934658
F211.33008168350443
F-25.611226528561982
tp380
sg104
(lp381
sg13
g1
sg106
g8
((ltRp382
sg108
g8
((lp383
(imodel.Bond
Bond
p384
(dp385
g13
g1
sg112
S'double'
p386
sg24
g25
sg17
g8
((lp387
g363
ag371
atRp388
sbatRp389
sg37
I00
sba(imodel.VarAtom
VarAtom
p390
(dp391
g3
S'N1'
p392
sg21
I00
sg22
Nsg23
(imodel.Atom
Atom
p393
(dp394
g3
g392
sg13
g1
sg14
I3
sg15
S'N'
sg16
I00
sg17
g8
((lp395
g390
atRp396
sg37
I00
sbsg24
g25
sg38
g8
((lp397
(imodel.VarAtom
VarAtom
p398
(dp399
g3
S'C2'
p400
sg21
I00
sg22
Nsg23
(imodel.Atom
Atom
p401
(dp402
g3
g400
sg13
g1
sg14
I4
sg15
S'C'
sg16
I00
sg17
g8
((lp403
g398
atRp404
sg37
I00
sbsg24
g25
sg38
g8
((lp405
(imodel.VarAtom
VarAtom
p406
(dp407
g3
S'H2'
p408
sg21
I00
sg22
Nsg23
(imodel.Atom
Atom
p409
(dp410
g3
g408
sg13
g1
sg14
I1
sg15
S'H'
sg16
I00
sg17
g8
((lp411
g406
atRp412
sg37
I00
sbsg24
g25
sg38
g8
((lp413
g398
atRp414
sg15
S'H'
sg101
I0
sg16
I00
sg102
(F475.00376478049691
F365.93461820901564
F74.193648647974257
tp415
sg104
(lp416
sg13
g1
sg106
g8
((ltRp417
sg108
g8
((lp418
(imodel.Bond
Bond
p419
(dp420
g13
g1
sg112
g113
sg24
g25
sg17
g8
((lp421
g406
ag398
atRp422
sbatRp423
sg37
I00
sba(imodel.VarAtom
VarAtom
p424
(dp425
g3
S'N3'
p426
sg21
I00
sg22
Nsg23
(imodel.Atom
Atom
p427
(dp428
g3
g426
sg13
g1
sg14
I3
sg15
S'N'
sg16
I00
sg17
g8
((lp429
g424
atRp430
sg37
I00
sbsg24
g25
sg38
g8
((lp431
g398
ag347
atRp432
sg15
S'N'
sg101
I0
sg16
I00
sg102
(F399.61657266235227
F348.45011333990851
F49.402007739418877
tp433
sg104
(lp434
sg13
g1
sg106
g8
((lp435
(imodel.AtomGroup
AtomGroup
p436
(dp437
S'groupType'
p438
S'aromatic'
p439
sS'subGroups'
p440
g8
((ltRp441
sS'varAtoms'
p442
g8
((lp443
g355
ag347
ag390
ag363
ag398
ag424
atRp444
sS'variant'
p445
g25
sS'compound'
p446
g1
sbatRp447
sg108
g8
((lp448
(imodel.Bond
Bond
p449
(dp450
g13
g1
sg112
g439
sg24
g25
sg17
g8
((lp451
g424
ag398
atRp452
sba(imodel.Bond
Bond
p453
(dp454
g13
g1
sg112
g439
sg24
g25
sg17
g8
((lp455
g424
ag347
atRp456
sbatRp457
sg37
I00
sbag390
atRp458
sg15
S'C'
sg101
I0
sg16
I00
sg102
(F448.49002373474855
F338.54378099808832
F51.842905172594342
tp459
sg104
(lp460
sg13
g1
sg106
g8
((lp461
g436
atRp462
sg108
g8
((lp463
g419
a(imodel.Bond
Bond
p464
(dp465
g13
g1
sg112
g439
sg24
g25
sg17
g8
((lp466
g390
ag398
atRp467
sbag449
atRp468
sg37
I00
sba(imodel.VarAtom
VarAtom
p469
(dp470
g3
S'H1'
p471
sg21
I00
sg22
Nsg23
(imodel.Atom
Atom
p472
(dp473
g3
g471
sg13
g1
sg14
I1
sg15
S'H'
sg16
I01
sg17
g8
((lp474
g469
atRp475
sg37
I00
sbsg24
g25
sg38
g8
((lp476
g390
atRp477
sg15
S'H'
sg101
I0
sg16
I01
sg102
(F501.74159471229336
F281.98964236653796
F28.854451280975152
tp478
sg104
(lp479
sg13
g1
sg106
g8
((ltRp480
sg108
g8
((lp481
(imodel.Bond
Bond
p482
(dp483
g13
g1
sg112
g113
sg24
g25
sg17
g8
((lp484
g469
ag390
atRp485
sbatRp486
sg37
I00
sbag363
atRp487
sg15
S'N'
sg101
I0
sg16
I00
sg102
(F464.60866713406892
F290.98819996728344
F26.561819329615826
tp488
sg104
(lp489
sg13
g1
sg106
g8
((lp490
g436
atRp491
sg108
g8
((lp492
g464
a(imodel.Bond
Bond
p493
(dp494
g13
g1
sg112
g439
sg24
g25
sg17
g8
((lp495
g363
ag390
atRp496
sbag482
atRp497
sg37
I00
sbatRp498
sg15
S'C'
sg101
I0
sg16
I00
sg102
(F431.20438991754497
F253.57116443793518
F-2.6645891952762124
tp499
sg104
(lp500
sg13
g1
sg106
g8
((lp501
g436
atRp502
sg108
g8
((lp503
(imodel.Bond
Bond
p504
(dp505
g13
g1
sg112
g439
sg24
g25
sg17
g8
((lp506
g355
ag363
atRp507
sbag384
ag493
atRp508
sg37
I00
sbag19
atRp509
sg15
S'C'
sg101
I0
sg16
I00
sg102
(F382.24575829304194
F263.81277353674022
F-5.3572447621627095
tp510
sg104
(lp511
sg13
g1
sg106
g8
((lp512
(imodel.AtomGroup
AtomGroup
p513
(dp514
g438
g439
sg440
g8
((ltRp515
sg442
g8
((lp516
g355
ag19
a(imodel.VarAtom
VarAtom
p517
(dp518
g3
S'C8'
p519
sg21
I00
sg22
Nsg23
(imodel.Atom
Atom
p520
(dp521
g3
g519
sg13
g1
sg14
I4
sg15
S'C'
sg16
I00
sg17
g8
((lp522
g517
atRp523
sg37
I00
sbsg24
g25
sg38
g8
((lp524
g19
ag339
a(imodel.VarAtom
VarAtom
p525
(dp526
g3
S'H8'
p527
sg21
I00
sg22
Nsg23
(imodel.Atom
Atom
p528
(dp529
g3
g527
sg13
g1
sg14
I1
sg15
S'H'
sg16
I00
sg17
g8
((lp530
g525
atRp531
sg37
I00
sbsg24
g25
sg38
g8
((lp532
g517
atRp533
sg15
S'H'
sg101
I0
sg16
I00
sg102
(F264.57871845172644
F249.19163414696163
F-32.7770405428735
tp534
sg104
(lp535
sg13
g1
sg106
g8
((ltRp536
sg108
g8
((lp537
(imodel.Bond
Bond
p538
(dp539
g13
g1
sg112
g113
sg24
g25
sg17
g8
((lp540
g525
ag517
atRp541
sbatRp542
sg37
I00
sbatRp543
sg15
S'C'
sg101
I0
sg16
I00
sg102
(F301.50506417902193
F261.76943969720173
F-18.59947477307497
tp544
sg104
(lp545
sg13
g1
sg106
g8
((lp546
g513
atRp547
sg108
g8
((lp548
(imodel.Bond
Bond
p549
(dp550
g13
g1
sg112
g439
sg24
g25
sg17
g8
((lp551
g19
ag517
atRp552
sba(imodel.Bond
Bond
p553
(dp554
g13
g1
sg112
g439
sg24
g25
sg17
g8
((lp555
g517
ag339
atRp556
sbag538
atRp557
sg37
I00
sbag347
ag339
atRp558
sg445
g25
sg446
g1
sbag436
atRp559
sg108
g8
((lp560
(imodel.Bond
Bond
p561
(dp562
g13
g1
sg112
g439
sg24
g25
sg17
g8
((lp563
g355
ag347
atRp564
sbag504
a(imodel.Bond
Bond
p565
(dp566
g13
g1
sg112
g439
sg24
g25
sg17
g8
((lp567
g355
ag19
atRp568
sbatRp569
sg37
I00
sbag424
ag339
atRp570
sg15
S'C'
sg101
I0
sg16
I00
sg102
(F366.11947523646336
F310.93082245216874
F21.702177909636003
tp571
sg104
(lp572
sg13
g1
sg106
g8
((lp573
g513
ag436
atRp574
sg108
g8
((lp575
g561
a(imodel.Bond
Bond
p576
(dp577
g13
g1
sg112
g439
sg24
g25
sg17
g8
((lp578
g347
ag339
atRp579
sbag453
atRp580
sg37
I00
sbag331
ag517
atRp581
sg15
S'N'
sg101
I0
sg16
I00
sg102
(F315.39607669641236
F309.91083266000555
F13.281017934023877
tp582
sg104
(lp583
sg13
g1
sg106
g8
((lp584
g513
atRp585
sg108
g8
((lp586
g576
ag553
a(imodel.Bond
Bond
p587
(dp588
g13
g1
sg112
g113
sg24
g25
sg17
g8
((lp589
g331
ag339
atRp590
sbatRp591
sg37
I00
sba(imodel.VarAtom
VarAtom
p592
(dp593
g3
S"H1'"
p594
sg21
I00
sg22
Nsg23
(imodel.Atom
Atom
p595
(dp596
g3
g594
sg13
g1
sg14
I1
sg15
S'H'
sg16
I00
sg17
g8
((lp597
g592
atRp598
sg37
I00
sbsg24
g25
sg38
g8
((lp599
g331
atRp600
sg15
S'H'
sg101
I0
sg16
I00
sg102
(F309.22552329471
F362.10813185022516
F80.348630591276759
tp601
sg104
(lp602
sg13
g1
sg106
g8
((ltRp603
sg108
g8
((lp604
(imodel.Bond
Bond
p605
(dp606
g13
g1
sg112
g113
sg24
g25
sg17
g8
((lp607
g331
ag592
atRp608
sbatRp609
sg37
I00
sbatRp610
sg15
S'C'
sg101
I0
sg16
I00
sg102
(F275.91455871911751
F343.4895289457354
F33.543420034061818
tp611
sg104
(lp612
sg13
g1
sg106
g8
((ltRp613
sg108
g8
((lp614
(imodel.Bond
Bond
p615
(dp616
g13
g1
sg112
g113
sg24
g25
sg17
g8
((lp617
g323
ag331
atRp618
sbag587
ag605
a(imodel.Bond
Bond
p619
(dp620
g13
g1
sg112
g113
sg24
g25
sg17
g8
((lp621
g331
ag40
atRp622
sbatRp623
sg37
I00
sbag117
atRp624
sg15
S'O'
sg101
I0
sg16
I00
sg102
(F228.78235513073309
F324.0933623639304
F40.389479597371825
tp625
sg104
(lp626
sg13
g1
sg106
g8
((ltRp627
sg108
g8
((lp628
g615
a(imodel.Bond
Bond
p629
(dp630
g13
g1
sg112
g113
sg24
g25
sg17
g8
((lp631
g323
ag117
atRp632
sbatRp633
sg37
I00
sbatRp634
sg15
S'C'
sg101
I0
sg16
I00
sg102
(F177.84292849967369
F327.17502949041204
F-22.563739922386546
tp635
sg104
(lp636
sg13
g1
sg106
g8
((ltRp637
sg108
g8
((lp638
(imodel.Bond
Bond
p639
(dp640
g13
g1
sg112
g113
sg24
g25
sg17
g8
((lp641
g117
ag48
atRp642
sbag629
ag138
ag318
atRp643
sg37
I00
sba(imodel.VarAtom
VarAtom
p644
(dp645
g3
S"H3'"
p646
sg21
I00
sg22
Nsg23
(imodel.Atom
Atom
p647
(dp648
g3
g646
sg13
g1
sg14
I1
sg15
S'H'
sg16
I00
sg17
g8
((lp649
g644
atRp650
sg37
I00
sbsg24
g25
sg38
g8
((lp651
g48
atRp652
sg15
S'H'
sg101
I0
sg16
I00
sg102
(F192.44377141595282
F413.65668994617567
F-99.37413436463045
tp653
sg104
(lp654
sg13
g1
sg106
g8
((ltRp655
sg108
g8
((lp656
(imodel.Bond
Bond
p657
(dp658
g13
g1
sg112
g113
sg24
g25
sg17
g8
((lp659
g644
ag48
atRp660
sbatRp661
sg37
I00
sbatRp662
sg15
S'C'
sg101
I0
sg16
I00
sg102
(F196.43949376625324
F375.68976465129174
F-45.037629292335431
tp663
sg104
(lp664
sg13
g1
sg106
g8
((ltRp665
sg108
g8
((lp666
(imodel.Bond
Bond
p667
(dp668
g13
g1
sg112
g113
sg24
g25
sg17
g8
((lp669
g48
ag40
atRp670
sbag657
ag639
ag110
atRp671
sg37
I00
sbag331
a(imodel.VarAtom
VarAtom
p672
(dp673
g3
S"O2'"
p674
sg21
I00
sg22
Nsg23
(imodel.Atom
Atom
p675
(dp676
g3
g674
sg13
g1
sg14
I2
sg15
S'O'
sg16
I00
sg17
g8
((lp677
g672
atRp678
sg37
I00
sbsg24
g25
sg38
g8
((lp679
g40
a(imodel.VarAtom
VarAtom
p680
(dp681
g3
S"HO2'"
p682
sg21
I01
sg22
Nsg23
(imodel.Atom
Atom
p683
(dp684
g3
g682
sg13
g1
sg14
I1
sg15
S'H'
sg16
I00
sg17
g8
((lp685
g680
atRp686
sg37
I00
sbsg24
g25
sg38
g8
((lp687
g672
atRp688
sg15
S'H'
sg101
I0
sg16
I00
sg102
(F240.61658973306976
F476.06827527893927
F-28.60898343431916
tp689
sg104
(lp690
sg13
g1
sg106
g8
((ltRp691
sg108
g8
((lp692
(imodel.Bond
Bond
p693
(dp694
g13
g1
sg112
g113
sg24
g25
sg17
g8
((lp695
g672
ag680
atRp696
sbatRp697
sg37
I00
sbatRp698
sg15
S'O'
sg101
I0
sg16
I00
sg102
(F243.36160515550614
F438.05588471687736
F6.9068186679603079
tp699
sg104
(lp700
sg13
g1
sg106
g8
((ltRp701
sg108
g8
((lp702
(imodel.Bond
Bond
p703
(dp704
g13
g1
sg112
g113
sg24
g25
sg17
g8
((lp705
g672
ag40
atRp706
sbag693
atRp707
sg37
I00
sbatRp708
sg15
S'C'
sg101
I0
sg16
I00
sg102
(F247.467404712654
F386.83452461390368
F-20.427412416285787
tp709
sg104
(lp710
sg13
g1
sg106
g8
((ltRp711
sg108
g8
((lp712
(imodel.Bond
Bond
p713
(dp714
g13
g1
sg112
g113
sg24
g25
sg17
g8
((lp715
g30
ag40
atRp716
sbag667
ag703
ag619
atRp717
sg37
I00
sbatRp718
sg15
S'H'
sg101
I0
sg16
I00
sg102
(F280.7012534429299
F406.41152307039636
F-61.715596274137887
tp719
sg104
(lp720
sg13
g1
sg106
g8
((ltRp721
sg108
g8
((lp722
g713
atRp723
sg37
I00
sbag406
ag64
ag125
ag174
ag469
ag277
ag229
ag295
ag592
ag525
ag680
ag644
atRp724
sS'C'
g8
((lp725
g48
ag398
ag331
ag347
ag40
ag143
ag363
ag355
ag517
ag117
atRp726
sS'P'
g8
((lp727
g159
atRp728
sS'O'
g8
((lp729
g202
ag371
ag166
ag323
ag221
ag672
ag151
ag56
atRp730
sS'N'
g8
((lp731
g390
ag339
ag424
ag19
atRp732
ssg108
g8
((lp733
g419
ag549
ag187
ag561
ag693
ag464
ag93
ag252
ag453
ag639
ag629
ag713
ag667
ag272
ag504
ag482
ag553
ag605
ag318
ag449
ag262
ag619
ag576
ag290
ag242
ag587
ag138
ag493
ag538
ag384
ag110
ag197
ag615
ag308
ag565
ag215
ag657
ag703
atRp734
sg13
g1
sS'descriptor'
p735
(S'neutral'
p736
S'none'
p737
S'default'
p738
tp739
sS'atomDict'
p740
(dp741
g10
g19
sg224
g221
sg520
g517
sg169
g166
sg232
g229
sg647
g644
sg326
g323
sg409
g406
sg334
g331
sg43
g40
sg342
g339
sg393
g390
sg595
g592
sg177
g174
sg358
g355
sg128
g125
sg374
g371
sg298
g295
sg366
g363
sg161
g159
sg33
g30
sg528
g525
sg427
g424
sg51
g48
sg683
g680
sg120
g117
sg71
g64
sg205
g202
sg280
g277
sg59
g56
sg472
g469
sg675
g672
sg146
g143
sg401
g398
sg154
g151
sg350
g347
ssg17
g8
((lp742
g48
ag339
ag56
ag347
ag469
ag390
ag151
ag125
ag277
ag64
ag672
ag398
ag295
ag406
ag424
ag143
ag371
ag229
ag644
ag202
ag355
ag19
ag323
ag40
ag331
ag363
ag592
ag517
ag159
ag30
ag221
ag174
ag117
ag166
ag680
ag525
atRp743
sg106
g8
((lp744
g513
ag436
atRp745
sS'polyLink'
p746
S'none'
p747
sbsg38
g8
((lp748
g517
ag355
atRp749
sg15
S'N'
sg101
I0
sg16
I00
sg102
(F342.6721987551075
F233.55756600825862
F-29.562447135902055
tp750
sg104
(lp751
sg13
g1
sg106
g8
((lp752
g513
atRp753
sg108
g8
((lp754
g549
ag565
atRp755
sg37
I00
sbatRp756
sg37
I00
sbag280
ag169
ag161
ag647
ag326
ag177
ag334
ag409
ag342
ag393
ag675
ag427
ag358
ag128
ag51
ag120
ag528
ag520
ag595
ag374
ag224
ag683
ag366
ag205
ag43
ag472
ag59
ag232
ag146
ag298
ag71
ag33
ag401
ag154
ag350
atRp757
sS'ccpMolType'
p758
S'RNA'
p759
sS'details'
p760
V
sg740
(dp761
g67
g71
sg204
g205
sg223
g224
sg168
g169
sg176
g177
sg231
g232
sg50
g51
sg333
g334
sg145
g146
sg373
g374
sg32
g33
sg297
g298
sg646
g647
sg325
g326
sg519
g520
sg400
g401
sg594
g595
sg365
g366
sg357
g358
sg349
g350
sg279
g280
sg682
g683
sS'P'
g161
sg119
g120
sg42
g43
sg674
g675
sg392
g393
sg426
g427
sg12
g10
sg127
g128
sg527
g528
sg341
g342
sg408
g409
sg471
g472
sg153
g154
sg58
g59
ssS'keywords'
p762
g8
((ltRp763
sg106
g8
((lp764
g513
ag436
atRp765
sS'variants'
p766
g8
((lp767
g25
atRp768
sS'defaultVars'
p769
g8
((ltRp770
sb.