(imodel.Compound
Compound
p1
(dp2
S'name'
p3
VRIBOSYLTHYMINE-5'-MONOPHOSPHATE
p4
sS'isModified'
p5
I01
sS'ccpCode'
p6
VT
sS'atoms'
p7
c__builtin__
set
p8
((lp9
(imodel.Atom
Atom
p10
(dp11
g3
S"C2'"
p12
sS'compound'
p13
g1
sS'baseValences'
p14
I4
sS'element'
p15
S'C'
sS'isVariable'
p16
I00
sS'varAtoms'
p17
g8
((lp18
(imodel.VarAtom
VarAtom
p19
(dp20
g3
g12
sS'isLabile'
p21
I00
sS'chirality'
p22
NsS'atom'
p23
g10
sS'variant'
p24
(imodel.Variant
Variant
p25
(dp26
S'elementDict'
p27
(dp28
S'H'
g8
((lp29
(imodel.VarAtom
VarAtom
p30
(dp31
g3
S'H72'
p32
sg21
I00
sg22
Nsg23
(imodel.Atom
Atom
p33
(dp34
g3
g32
sg13
g1
sg14
I1
sg15
S'H'
sg16
I00
sg17
g8
((lp35
g30
atRp36
sS'isDeleted'
p37
I00
sbsg24
g25
sS'neighbours'
p38
g8
((lp39
(imodel.VarAtom
VarAtom
p40
(dp41
g3
S'C7'
p42
sg21
I00
sg22
Nsg23
(imodel.Atom
Atom
p43
(dp44
g3
g42
sg13
g1
sg14
I4
sg15
S'C'
sg16
I00
sg17
g8
((lp45
g40
atRp46
sg37
I00
sbsg24
g25
sg38
g8
((lp47
(imodel.VarAtom
VarAtom
p48
(dp49
g3
S'H71'
p50
sg21
I00
sg22
Nsg23
(imodel.Atom
Atom
p51
(dp52
g3
g50
sg13
g1
sg14
I1
sg15
S'H'
sg16
I00
sg17
g8
((lp53
g48
atRp54
sg37
I00
sbsg24
g25
sg38
g8
((lp55
g40
atRp56
sg15
S'H'
sS'charge'
p57
I0
sg16
I00
sS'coords'
p58
(F527.3836090294011
F197.56275719170878
F349.03230045838495
tp59
sS'freeValences'
p60
(lp61
sg13
g1
sS'atomGroups'
p62
g8
((ltRp63
sS'bonds'
p64
g8
((lp65
(imodel.Bond
Bond
p66
(dp67
g13
g1
sS'bondType'
p68
S'single'
p69
sg24
g25
sg17
g8
((lp70
g40
ag48
atRp71
sbatRp72
sg37
I00
sbag30
a(imodel.VarAtom
VarAtom
p73
(dp74
g3
S'H73'
p75
sg21
I00
sg22
Nsg23
(imodel.Atom
Atom
p76
(dp77
g3
g75
sg13
g1
sg14
I1
sg15
S'H'
sg16
I00
sg17
g8
((lp78
g73
atRp79
sg37
I00
sbsg24
g25
sg38
g8
((lp80
g40
atRp81
sg15
S'H'
sg57
I0
sg16
I00
sg58
(F570.20454083367315
F224.04772463637764
F342.45922619273665
tp82
sg60
(lp83
sg13
g1
sg62
g8
((ltRp84
sg64
g8
((lp85
(imodel.Bond
Bond
p86
(dp87
g13
g1
sg68
g69
sg24
g25
sg17
g8
((lp88
g40
ag73
atRp89
sbatRp90
sg37
I00
sba(imodel.VarAtom
VarAtom
p91
(dp92
g3
S'C5'
p93
sg21
I00
sg22
Nsg23
(imodel.Atom
Atom
p94
(dp95
g3
g93
sg13
g1
sg14
I4
sg15
S'C'
sg16
I00
sg17
g8
((lp96
g91
atRp97
sg37
I00
sbsg24
g25
sg38
g8
((lp98
(imodel.VarAtom
VarAtom
p99
(dp100
g3
S'C6'
p101
sg21
I00
sg22
Nsg23
(imodel.Atom
Atom
p102
(dp103
g3
g101
sg13
g1
sg14
I4
sg15
S'C'
sg16
I00
sg17
g8
((lp104
g99
atRp105
sg37
I00
sbsg24
g25
sg38
g8
((lp106
(imodel.VarAtom
VarAtom
p107
(dp108
g3
S'H6'
p109
sg21
I00
sg22
Nsg23
(imodel.Atom
Atom
p110
(dp111
g3
g109
sg13
g1
sg14
I1
sg15
S'H'
sg16
I00
sg17
g8
((lp112
g107
atRp113
sg37
I00
sbsg24
g25
sg38
g8
((lp114
g99
atRp115
sg15
S'H'
sg57
I0
sg16
I00
sg58
(F466.67566779690458
F308.96191478228684
F203.10594394017909
tp116
sg60
(lp117
sg13
g1
sg62
g8
((ltRp118
sg64
g8
((lp119
(imodel.Bond
Bond
p120
(dp121
g13
g1
sg68
g69
sg24
g25
sg17
g8
((lp122
g99
ag107
atRp123
sbatRp124
sg37
I00
sbag91
a(imodel.VarAtom
VarAtom
p125
(dp126
g3
S'N1'
p127
sg21
I00
sg22
Nsg23
(imodel.Atom
Atom
p128
(dp129
g3
g127
sg13
g1
sg14
I3
sg15
S'N'
sg16
I00
sg17
g8
((lp130
g125
atRp131
sg37
I00
sbsg24
g25
sg38
g8
((lp132
(imodel.VarAtom
VarAtom
p133
(dp134
g3
S'C2'
p135
sg21
I00
sg22
Nsg23
(imodel.Atom
Atom
p136
(dp137
g3
g135
sg13
g1
sg14
I4
sg15
S'C'
sg16
I00
sg17
g8
((lp138
g133
atRp139
sg37
I00
sbsg24
g25
sg38
g8
((lp140
g125
a(imodel.VarAtom
VarAtom
p141
(dp142
g3
S'O2'
p143
sg21
I00
sg22
Nsg23
(imodel.Atom
Atom
p144
(dp145
g3
g143
sg13
g1
sg14
I2
sg15
S'O'
sg16
I00
sg17
g8
((lp146
g141
atRp147
sg37
I00
sbsg24
g25
sg38
g8
((lp148
g133
atRp149
sg15
S'O'
sg57
I0
sg16
I00
sg58
(F579.82563379787609
F425.22447631281221
F62.720093813340569
tp150
sg60
(lp151
sg13
g1
sg62
g8
((ltRp152
sg64
g8
((lp153
(imodel.Bond
Bond
p154
(dp155
g13
g1
sg68
S'double'
p156
sg24
g25
sg17
g8
((lp157
g133
ag141
atRp158
sbatRp159
sg37
I00
sba(imodel.VarAtom
VarAtom
p160
(dp161
g3
S'N3'
p162
sg21
I00
sg22
Nsg23
(imodel.Atom
Atom
p163
(dp164
g3
g162
sg13
g1
sg14
I3
sg15
S'N'
sg16
I00
sg17
g8
((lp165
g160
atRp166
sg37
I00
sbsg24
g25
sg38
g8
((lp167
(imodel.VarAtom
VarAtom
p168
(dp169
g3
S'C4'
p170
sg21
I00
sg22
Nsg23
(imodel.Atom
Atom
p171
(dp172
g3
g170
sg13
g1
sg14
I4
sg15
S'C'
sg16
I00
sg17
g8
((lp173
g168
atRp174
sg37
I00
sbsg24
g25
sg38
g8
((lp175
g160
a(imodel.VarAtom
VarAtom
p176
(dp177
g3
S'O4'
p178
sg21
I00
sg22
Nsg23
(imodel.Atom
Atom
p179
(dp180
g3
g178
sg13
g1
sg14
I2
sg15
S'O'
sg16
I00
sg17
g8
((lp181
g176
atRp182
sg37
I00
sbsg24
g25
sg38
g8
((lp183
g168
atRp184
sg15
S'O'
sg57
I0
sg16
I00
sg58
(F624.82933303279026
F280.18593651990784
F286.74323849673613
tp185
sg60
(lp186
sg13
g1
sg62
g8
((ltRp187
sg64
g8
((lp188
(imodel.Bond
Bond
p189
(dp190
g13
g1
sg68
S'double'
p191
sg24
g25
sg17
g8
((lp192
g176
ag168
atRp193
sbatRp194
sg37
I00
sbag91
atRp195
sg15
S'C'
sg57
I0
sg16
I00
sg58
(F587.0019760801656
F302.79637800433886
F238.90756919043881
tp196
sg60
(lp197
sg13
g1
sg62
g8
((lp198
(imodel.AtomGroup
AtomGroup
p199
(dp200
S'groupType'
p201
S'aromatic'
p202
sS'subGroups'
p203
g8
((ltRp204
sS'varAtoms'
p205
g8
((lp206
g99
ag91
ag125
ag160
ag168
ag133
atRp207
sS'variant'
p208
g25
sS'compound'
p209
g1
sbatRp210
sg64
g8
((lp211
(imodel.Bond
Bond
p212
(dp213
g13
g1
sg68
g202
sg24
g25
sg17
g8
((lp214
g168
ag160
atRp215
sbag189
a(imodel.Bond
Bond
p216
(dp217
g13
g1
sg68
g202
sg24
g25
sg17
g8
((lp218
g168
ag91
atRp219
sbatRp220
sg37
I00
sba(imodel.VarAtom
VarAtom
p221
(dp222
g3
S'H3'
p223
sg21
I00
sg22
Nsg23
(imodel.Atom
Atom
p224
(dp225
g3
g223
sg13
g1
sg14
I1
sg15
S'H'
sg16
I01
sg17
g8
((lp226
g221
atRp227
sg37
I00
sbsg24
g25
sg38
g8
((lp228
g160
atRp229
sg15
S'H'
sg57
I0
sg16
I01
sg58
(F633.9896225624841
F363.2227605168614
F166.84408627625101
tp230
sg60
(lp231
sg13
g1
sg62
g8
((ltRp232
sg64
g8
((lp233
(imodel.Bond
Bond
p234
(dp235
g13
g1
sg68
g69
sg24
g25
sg17
g8
((lp236
g221
ag160
atRp237
sbatRp238
sg37
I00
sbag133
atRp239
sg15
S'N'
sg57
I0
sg16
I00
sg58
(F597.5777776801707
F351.67696333431729
F173.89691492848317
tp240
sg60
(lp241
sg13
g1
sg62
g8
((lp242
g199
atRp243
sg64
g8
((lp244
g212
a(imodel.Bond
Bond
p245
(dp246
g13
g1
sg68
g202
sg24
g25
sg17
g8
((lp247
g133
ag160
atRp248
sbag234
atRp249
sg37
I00
sbatRp250
sg15
S'C'
sg57
I0
sg16
I00
sg58
(F560.90209479493376
F385.47709446701811
F117.90820214979547
tp251
sg60
(lp252
sg13
g1
sg62
g8
((lp253
g199
atRp254
sg64
g8
((lp255
(imodel.Bond
Bond
p256
(dp257
g13
g1
sg68
g202
sg24
g25
sg17
g8
((lp258
g133
ag125
atRp259
sbag245
ag154
atRp260
sg37
I00
sbag99
a(imodel.VarAtom
VarAtom
p261
(dp262
g3
S"C1'"
p263
sg21
I00
sg22
Nsg23
(imodel.Atom
Atom
p264
(dp265
g3
g263
sg13
g1
sg14
I4
sg15
S'C'
sg16
I00
sg17
g8
((lp266
g261
atRp267
sg37
I00
sbsg24
g25
sg38
g8
((lp268
g19
a(imodel.VarAtom
VarAtom
p269
(dp270
g3
S"H1'"
p271
sg21
I00
sg22
Nsg23
(imodel.Atom
Atom
p272
(dp273
g3
g271
sg13
g1
sg14
I1
sg15
S'H'
sg16
I00
sg17
g8
((lp274
g269
atRp275
sg37
I00
sbsg24
g25
sg38
g8
((lp276
g261
atRp277
sg15
S'H'
sg57
I0
sg16
I00
sg58
(F509.68331147589419
F431.91482835108854
F32.539628062373701
tp278
sg60
(lp279
sg13
g1
sg62
g8
((ltRp280
sg64
g8
((lp281
(imodel.Bond
Bond
p282
(dp283
g13
g1
sg68
g69
sg24
g25
sg17
g8
((lp284
g269
ag261
atRp285
sbatRp286
sg37
I00
sbag125
a(imodel.VarAtom
VarAtom
p287
(dp288
g3
S"O4'"
p289
sg21
I00
sg22
Nsg23
(imodel.Atom
Atom
p290
(dp291
g3
g289
sg13
g1
sg14
I2
sg15
S'O'
sg16
I00
sg17
g8
((lp292
g287
atRp293
sg37
I00
sbsg24
g25
sg38
g8
((lp294
(imodel.VarAtom
VarAtom
p295
(dp296
g3
S"C4'"
p297
sg21
I00
sg22
Nsg23
(imodel.Atom
Atom
p298
(dp299
g3
g297
sg13
g1
sg14
I4
sg15
S'C'
sg16
I00
sg17
g8
((lp300
g295
atRp301
sg37
I00
sbsg24
g25
sg38
g8
((lp302
(imodel.VarAtom
VarAtom
p303
(dp304
g3
S"H4'"
p305
sg21
I00
sg22
Nsg23
(imodel.Atom
Atom
p306
(dp307
g3
g305
sg13
g1
sg14
I1
sg15
S'H'
sg16
I00
sg17
g8
((lp308
g303
atRp309
sg37
I00
sbsg24
g25
sg38
g8
((lp310
g295
atRp311
sg15
S'H'
sg57
I0
sg16
I00
sg58
(F402.60778529085798
F357.75347208809268
F38.007624286218473
tp312
sg60
(lp313
sg13
g1
sg62
g8
((ltRp314
sg64
g8
((lp315
(imodel.Bond
Bond
p316
(dp317
g13
g1
sg68
g69
sg24
g25
sg17
g8
((lp318
g303
ag295
atRp319
sbatRp320
sg37
I00
sbag287
a(imodel.VarAtom
VarAtom
p321
(dp322
g3
S"C5'"
p323
sg21
I00
sg22
Nsg23
(imodel.Atom
Atom
p324
(dp325
g3
g323
sg13
g1
sg14
I4
sg15
S'C'
sg16
I00
sg17
g8
((lp326
g321
atRp327
sg37
I00
sbsg24
g25
sg38
g8
((lp328
(imodel.VarAtom
VarAtom
p329
(dp330
g3
S"H5'"
p331
sg21
I00
sg22
Nsg23
(imodel.Atom
Atom
p332
(dp333
g3
g331
sg13
g1
sg14
I1
sg15
S'H'
sg16
I00
sg17
g8
((lp334
g329
atRp335
sg37
I00
sbsg24
g25
sg38
g8
((lp336
g321
atRp337
sg15
S'H'
sg57
I0
sg16
I00
sg58
(F362.55452689930286
F326.78018820258956
F141.03228748778977
tp338
sg60
(lp339
sg13
g1
sg62
g8
((ltRp340
sg64
g8
((lp341
(imodel.Bond
Bond
p342
(dp343
g13
g1
sg68
g69
sg24
g25
sg17
g8
((lp344
g329
ag321
atRp345
sbatRp346
sg37
I00
sbag295
a(imodel.VarAtom
VarAtom
p347
(dp348
g3
S"O5'"
p349
sg21
I00
sg22
Nsg23
(imodel.Atom
Atom
p350
(dp351
g3
g349
sg13
g1
sg14
I2
sg15
S'O'
sg16
I00
sg17
g8
((lp352
g347
atRp353
sg37
I00
sbsg24
g25
sg38
g8
((lp354
(imodel.VarAtom
VarAtom
p355
(dp356
g3
S'P'
sg21
I00
sg22
Nsg23
(imodel.Atom
Atom
p357
(dp358
g3
S'P'
sg13
g1
sg14
I5
sg15
S'P'
sg16
I00
sg17
g8
((lp359
g355
atRp360
sg37
I00
sbsg24
g25
sg38
g8
((lp361
(imodel.VarAtom
VarAtom
p362
(dp363
g3
S'OP2'
p364
sg21
I00
sg22
Nsg23
(imodel.Atom
Atom
p365
(dp366
g3
g364
sg13
g1
sg14
I2
sg15
S'O'
sg16
I00
sg17
g8
((lp367
g362
atRp368
sg37
I00
sbsg24
g25
sg38
g8
((lp369
g355
a(imodel.VarAtom
VarAtom
p370
(dp371
g3
S'HOP2'
p372
sg21
I01
sg22
Nsg23
(imodel.Atom
Atom
p373
(dp374
g3
g372
sg13
g1
sg14
I1
sg15
S'H'
sg16
I00
sg17
g8
((lp375
g370
atRp376
sg37
I00
sbsg24
g25
sg38
g8
((lp377
g362
atRp378
sg15
S'H'
sg57
I0
sg16
I00
sg58
(F359.56902507605707
F179.8227470703078
F-1001.58158016577
tp379
sg60
(lp380
sg13
g1
sg62
g8
((ltRp381
sg64
g8
((lp382
(imodel.Bond
Bond
p383
(dp384
g13
g1
sg68
g69
sg24
g25
sg17
g8
((lp385
g362
ag370
atRp386
sbatRp387
sg37
I00
sbatRp388
sg15
S'O'
sg57
I0
sg16
I00
sg58
(F340.34281272641209
F212.41530828850642
F-1014.1214391381928
tp389
sg60
(lp390
sg13
g1
sg62
g8
((ltRp391
sg64
g8
((lp392
(imodel.Bond
Bond
p393
(dp394
g13
g1
sg68
g69
sg24
g25
sg17
g8
((lp395
g355
ag362
atRp396
sbag383
atRp397
sg37
I00
sba(imodel.VarAtom
VarAtom
p398
(dp399
g3
S'OP3'
p400
sg21
I00
sg22
Nsg23
(imodel.Atom
Atom
p401
(dp402
g3
g400
sg13
g1
sg14
I2
sg15
S'O'
sg16
I00
sg17
g8
((lp403
g398
atRp404
sg37
I00
sbsg24
g25
sg38
g8
((lp405
g355
a(imodel.VarAtom
VarAtom
p406
(dp407
g3
S'HOP3'
p408
sg21
I01
sg22
Nsg23
(imodel.Atom
Atom
p409
(dp410
g3
g408
sg13
g1
sg14
I1
sg15
S'H'
sg16
I00
sg17
g8
((lp411
g406
atRp412
sg37
I00
sbsg24
g25
sg38
g8
((lp413
g398
atRp414
sg15
S'H'
sg57
I0
sg16
I00
sg58
(F244.56503589624961
F221.38480582223195
F245.49785495895705
tp415
sg60
(lp416
sg13
g1
sg62
g8
((ltRp417
sg64
g8
((lp418
(imodel.Bond
Bond
p419
(dp420
g13
g1
sg68
g69
sg24
g25
sg17
g8
((lp421
g398
ag406
atRp422
sbatRp423
sg37
I00
sbatRp424
sg15
S'O'
sg57
I0
sg16
I00
sg58
(F275.54028815008485
F243.07527091745857
F250.68284242214679
tp425
sg60
(lp426
sg13
g1
sg62
g8
((ltRp427
sg64
g8
((lp428
(imodel.Bond
Bond
p429
(dp430
g13
g1
sg68
g69
sg24
g25
sg17
g8
((lp431
g355
ag398
atRp432
sbag419
atRp433
sg37
I00
sbag347
a(imodel.VarAtom
VarAtom
p434
(dp435
g3
S'OP1'
p436
sg21
I00
sg22
Nsg23
(imodel.Atom
Atom
p437
(dp438
g3
g436
sg13
g1
sg14
I2
sg15
S'O'
sg16
I00
sg17
g8
((lp439
g434
atRp440
sg37
I00
sbsg24
g25
sg38
g8
((lp441
g355
atRp442
sg15
S'O'
sg57
I0
sg16
I00
sg58
(F367.35824720443219
F263.21017490347117
F323.89350863787422
tp443
sg60
(lp444
sg13
g1
sg62
g8
((ltRp445
sg64
g8
((lp446
(imodel.Bond
Bond
p447
(dp448
g13
g1
sg68
S'double'
p449
sg24
g25
sg17
g8
((lp450
g355
ag434
atRp451
sbatRp452
sg37
I00
sbatRp453
sg15
S'P'
sg57
I0
sg16
I00
sg58
(F323.23805000122252
F260.2510558142389
F267.20480526644781
tp454
sg60
(lp455
sg13
g1
sg62
g8
((ltRp456
sg64
g8
((lp457
g393
a(imodel.Bond
Bond
p458
(dp459
g13
g1
sg68
g69
sg24
g25
sg17
g8
((lp460
g347
ag355
atRp461
sbag429
ag447
atRp462
sg37
I00
sbag321
atRp463
sg15
S'O'
sg57
I0
sg16
I00
sg58
(F314.62229819278468
F310.54545630139131
F205.11616820344111
tp464
sg60
(lp465
sg13
g1
sg62
g8
((ltRp466
sg64
g8
((lp467
g458
a(imodel.Bond
Bond
p468
(dp469
g13
g1
sg68
g69
sg24
g25
sg17
g8
((lp470
g347
ag321
atRp471
sbatRp472
sg37
I00
sba(imodel.VarAtom
VarAtom
p473
(dp474
g3
S"H5''"
p475
sg21
I00
sg22
Nsg23
(imodel.Atom
Atom
p476
(dp477
g3
g475
sg13
g1
sg14
I1
sg15
S'H'
sg16
I00
sg17
g8
((lp478
g473
atRp479
sg37
I00
sbsg24
g25
sg38
g8
((lp480
g321
atRp481
sg15
S'H'
sg57
I0
sg16
I00
sg58
(F303.59603424991752
F371.76550823977044
F133.3205927718395
tp482
sg60
(lp483
sg13
g1
sg62
g8
((ltRp484
sg64
g8
((lp485
(imodel.Bond
Bond
p486
(dp487
g13
g1
sg68
g69
sg24
g25
sg17
g8
((lp488
g473
ag321
atRp489
sbatRp490
sg37
I00
sbatRp491
sg15
S'C'
sg57
I0
sg16
I00
sg58
(F338.59490842510536
F356.0965156369968
F141.42520388907622
tp492
sg60
(lp493
sg13
g1
sg62
g8
((ltRp494
sg64
g8
((lp495
g342
ag486
ag468
a(imodel.Bond
Bond
p496
(dp497
g13
g1
sg68
g69
sg24
g25
sg17
g8
((lp498
g321
ag295
atRp499
sbatRp500
sg37
I00
sba(imodel.VarAtom
VarAtom
p501
(dp502
g3
S"C3'"
p503
sg21
I00
sg22
Nsg23
(imodel.Atom
Atom
p504
(dp505
g3
g503
sg13
g1
sg14
I4
sg15
S'C'
sg16
I00
sg17
g8
((lp506
g501
atRp507
sg37
I00
sbsg24
g25
sg38
g8
((lp508
g19
a(imodel.VarAtom
VarAtom
p509
(dp510
g3
S"O3'"
p511
sg21
I00
sg22
Nsg23
(imodel.Atom
Atom
p512
(dp513
g3
g511
sg13
g1
sg14
I2
sg15
S'O'
sg16
I00
sg17
g8
((lp514
g509
atRp515
sg37
I00
sbsg24
g25
sg38
g8
((lp516
(imodel.VarAtom
VarAtom
p517
(dp518
g3
S"HO3'"
p519
sg21
I01
sg22
Nsg23
(imodel.Atom
Atom
p520
(dp521
g3
g519
sg13
g1
sg14
I1
sg15
S'H'
sg16
I00
sg17
g8
((lp522
g517
atRp523
sg37
I00
sbsg24
g25
sg38
g8
((lp524
g509
atRp525
sg15
S'H'
sg57
I0
sg16
I00
sg58
(F303.70709370360157
F462.81482416042923
F87.455884257740365
tp526
sg60
(lp527
sg13
g1
sg62
g8
((ltRp528
sg64
g8
((lp529
(imodel.Bond
Bond
p530
(dp531
g13
g1
sg68
g69
sg24
g25
sg17
g8
((lp532
g509
ag517
atRp533
sbatRp534
sg37
I00
sbag501
atRp535
sg15
S'O'
sg57
I0
sg16
I00
sg58
(F339.00704815104825
F448.64155661446677
F55.157388064905945
tp536
sg60
(lp537
sg13
g1
sg62
g8
((ltRp538
sg64
g8
((lp539
g530
a(imodel.Bond
Bond
p540
(dp541
g13
g1
sg68
g69
sg24
g25
sg17
g8
((lp542
g501
ag509
atRp543
sbatRp544
sg37
I00
sba(imodel.VarAtom
VarAtom
p545
(dp546
g3
S"H3'"
p547
sg21
I00
sg22
Nsg23
(imodel.Atom
Atom
p548
(dp549
g3
g547
sg13
g1
sg14
I1
sg15
S'H'
sg16
I00
sg17
g8
((lp550
g545
atRp551
sg37
I00
sbsg24
g25
sg38
g8
((lp552
g501
atRp553
sg15
S'H'
sg57
I0
sg16
I00
sg58
(F379.82771398507697
F476.73899157040466
F139.0882973793839
tp554
sg60
(lp555
sg13
g1
sg62
g8
((ltRp556
sg64
g8
((lp557
(imodel.Bond
Bond
p558
(dp559
g13
g1
sg68
g69
sg24
g25
sg17
g8
((lp560
g501
ag545
atRp561
sbatRp562
sg37
I00
sbag295
atRp563
sg15
S'C'
sg57
I0
sg16
I00
sg58
(F389.36524708057163
F439.68436765089484
F87.683452474079431
tp564
sg60
(lp565
sg13
g1
sg62
g8
((ltRp566
sg64
g8
((lp567
(imodel.Bond
Bond
p568
(dp569
g13
g1
sg68
g69
sg24
g25
sg17
g8
((lp570
g501
ag19
atRp571
sbag540
a(imodel.Bond
Bond
p572
(dp573
g13
g1
sg68
g69
sg24
g25
sg17
g8
((lp574
g501
ag295
atRp575
sbag558
atRp576
sg37
I00
sbatRp577
sg15
S'C'
sg57
I0
sg16
I00
sg58
(F380.5205767511813
F388.8252263874287
F84.734202321402719
tp578
sg60
(lp579
sg13
g1
sg62
g8
((ltRp580
sg64
g8
((lp581
g316
a(imodel.Bond
Bond
p582
(dp583
g13
g1
sg68
g69
sg24
g25
sg17
g8
((lp584
g287
ag295
atRp585
sbag572
ag496
atRp586
sg37
I00
sbag261
atRp587
sg15
S'O'
sg57
I0
sg16
I00
sg58
(F431.01617525857807
F394.28669994887139
F92.036674917122753
tp588
sg60
(lp589
sg13
g1
sg62
g8
((ltRp590
sg64
g8
((lp591
g582
a(imodel.Bond
Bond
p592
(dp593
g13
g1
sg68
g69
sg24
g25
sg17
g8
((lp594
g287
ag261
atRp595
sbatRp596
sg37
I00
sbatRp597
sg15
S'C'
sg57
I0
sg16
I00
sg58
(F478.63479404953813
F410.17430509892654
F73.213384319867217
tp598
sg60
(lp599
sg13
g1
sg62
g8
((ltRp600
sg64
g8
((lp601
(imodel.Bond
Bond
p602
(dp603
g13
g1
sg68
g69
sg24
g25
sg17
g8
((lp604
g19
ag261
atRp605
sbag282
a(imodel.Bond
Bond
p606
(dp607
g13
g1
sg68
g69
sg24
g25
sg17
g8
((lp608
g261
ag125
atRp609
sbag592
atRp610
sg37
I00
sbatRp611
sg15
S'N'
sg57
I0
sg16
I00
sg58
(F512.76809191549876
F370.7041520750854
F132.07626327321637
tp612
sg60
(lp613
sg13
g1
sg62
g8
((lp614
g199
atRp615
sg64
g8
((lp616
g256
a(imodel.Bond
Bond
p617
(dp618
g13
g1
sg68
g202
sg24
g25
sg17
g8
((lp619
g99
ag125
atRp620
sbag606
atRp621
sg37
I00
sbatRp622
sg15
S'C'
sg57
I0
sg16
I00
sg58
(F501.35589076507722
F320.65621096992572
F196.12087845912899
tp623
sg60
(lp624
sg13
g1
sg62
g8
((lp625
g199
atRp626
sg64
g8
((lp627
g120
a(imodel.Bond
Bond
p628
(dp629
g13
g1
sg68
g202
sg24
g25
sg17
g8
((lp630
g91
ag99
atRp631
sbag617
atRp632
sg37
I00
sbag40
ag168
atRp633
sg15
S'C'
sg57
I0
sg16
I00
sg58
(F539.12435784364334
F287.59331155422484
F249.96503662600188
tp634
sg60
(lp635
sg13
g1
sg62
g8
((lp636
g199
atRp637
sg64
g8
((lp638
g628
a(imodel.Bond
Bond
p639
(dp640
g13
g1
sg68
g69
sg24
g25
sg17
g8
((lp641
g40
ag91
atRp642
sbag216
atRp643
sg37
I00
sbatRp644
sg15
S'C'
sg57
I0
sg16
I00
sg58
(F533.50654045311603
F236.11899328034545
F-1014.0336822990542
tp645
sg60
(lp646
sg13
g1
sg62
g8
((ltRp647
sg64
g8
((lp648
(imodel.Bond
Bond
p649
(dp650
g13
g1
sg68
g69
sg24
g25
sg17
g8
((lp651
g40
ag30
atRp652
sbag66
ag639
ag86
atRp653
sg37
I00
sbatRp654
sg15
S'H'
sg57
I0
sg16
I00
sg58
(F494.88548725328951
F236.0299691697646
F318.32925404117242
tp655
sg60
(lp656
sg13
g1
sg62
g8
((ltRp657
sg64
g8
((lp658
g649
atRp659
sg37
I00
sbag473
ag107
ag221
a(imodel.VarAtom
VarAtom
p660
(dp661
g3
S"HO2'"
p662
sg21
I01
sg22
Nsg23
(imodel.Atom
Atom
p663
(dp664
g3
g662
sg13
g1
sg14
I1
sg15
S'H'
sg16
I00
sg17
g8
((lp665
g660
atRp666
sg37
I00
sbsg24
g25
sg38
g8
((lp667
(imodel.VarAtom
VarAtom
p668
(dp669
g3
S"O2'"
p670
sg21
I00
sg22
Nsg23
(imodel.Atom
Atom
p671
(dp672
g3
g670
sg13
g1
sg14
I2
sg15
S'O'
sg16
I00
sg17
g8
((lp673
g668
atRp674
sg37
I00
sbsg24
g25
sg38
g8
((lp675
g19
ag660
atRp676
sg15
S'O'
sg57
I0
sg16
I00
sg58
(F434.52633170300777
F502.93481359415074
F-20.248211069426102
tp677
sg60
(lp678
sg13
g1
sg62
g8
((ltRp679
sg64
g8
((lp680
(imodel.Bond
Bond
p681
(dp682
g13
g1
sg68
g69
sg24
g25
sg17
g8
((lp683
g668
ag19
atRp684
sba(imodel.Bond
Bond
p685
(dp686
g13
g1
sg68
g69
sg24
g25
sg17
g8
((lp687
g660
ag668
atRp688
sbatRp689
sg37
I00
sbatRp690
sg15
S'H'
sg57
I0
sg16
I00
sg58
(F431.66985446052053
F540.94502708336063
F-33.421417898829972
tp691
sg60
(lp692
sg13
g1
sg62
g8
((ltRp693
sg64
g8
((lp694
g685
atRp695
sg37
I00
sbag48
ag269
ag329
ag545
ag517
ag370
a(imodel.VarAtom
VarAtom
p696
(dp697
g3
S"H2'"
p698
sg21
I00
sg22
Nsg23
(imodel.Atom
Atom
p699
(dp700
g3
g698
sg13
g1
sg14
I1
sg15
S'H'
sg16
I00
sg17
g8
((lp701
g696
atRp702
sg37
I00
sbsg24
g25
sg38
g8
((lp703
g19
atRp704
sg15
S'H'
sg57
I0
sg16
I00
sg58
(F474.07984880499151
F473.14691463697631
F60.781894678641223
tp705
sg60
(lp706
sg13
g1
sg62
g8
((ltRp707
sg64
g8
((lp708
(imodel.Bond
Bond
p709
(dp710
g13
g1
sg68
g69
sg24
g25
sg17
g8
((lp711
g19
ag696
atRp712
sbatRp713
sg37
I00
sbag406
ag303
ag73
atRp714
sS'C'
g8
((lp715
g99
ag91
ag295
ag168
ag261
ag321
ag501
ag133
ag19
ag40
atRp716
sS'P'
g8
((lp717
g355
atRp718
sS'O'
g8
((lp719
g398
ag141
ag287
ag362
ag434
ag176
ag347
ag668
ag509
atRp720
sS'N'
g8
((lp721
g125
ag160
atRp722
ssg64
g8
((lp723
g572
ag709
ag212
ag639
ag393
ag458
ag540
ag602
ag189
ag447
ag245
ag582
ag154
ag606
ag617
ag530
ag66
ag256
ag685
ag429
ag558
ag592
ag342
ag120
ag486
ag468
ag86
ag681
ag316
ag234
ag383
ag496
ag568
ag649
ag419
ag628
ag282
ag216
atRp724
sg13
g1
sS'descriptor'
p725
(S'neutral'
p726
S'none'
p727
S'default'
p728
tp729
sS'atomDict'
p730
(dp731
g10
g19
sg357
g355
sg136
g133
sg332
g329
sg128
g125
sg663
g660
sg179
g176
sg290
g287
sg76
g73
sg401
g398
sg171
g168
sg409
g406
sg350
g347
sg373
g370
sg671
g668
sg224
g221
sg102
g99
sg298
g295
sg51
g48
sg365
g362
sg324
g321
sg110
g107
sg504
g501
sg94
g91
sg512
g509
sg163
g160
sg520
g517
sg476
g473
sg144
g141
sg43
g40
sg699
g696
sg272
g269
sg548
g545
sg33
g30
sg437
g434
sg264
g261
sg306
g303
ssg17
g8
((lp732
g30
ag501
ag545
ag221
ag48
ag295
ag160
ag370
ag176
ag509
ag668
ag321
ag355
ag168
ag19
ag99
ag133
ag473
ag141
ag434
ag91
ag329
ag107
ag269
ag696
ag406
ag125
ag347
ag362
ag287
ag303
ag660
ag73
ag261
ag398
ag517
ag40
atRp733
sg62
g8
((lp734
g199
atRp735
sS'polyLink'
p736
S'none'
p737
sbsg38
g8
((lp738
g261
ag668
ag696
ag501
atRp739
sg15
S'C'
sg57
I0
sg16
I00
sg58
(F441.88990938498193
F452.13466997165477
F49.832612854055384
tp740
sg60
(lp741
sg13
g1
sg62
g8
((ltRp742
sg64
g8
((lp743
g568
ag602
ag709
ag681
atRp744
sg37
I00
sbatRp745
sg37
I00
sbag324
ag357
ag136
ag332
ag128
ag663
ag179
ag290
ag76
ag144
ag699
ag476
ag409
ag350
ag373
ag671
ag102
ag298
ag51
ag365
ag504
ag171
ag43
ag110
ag33
ag163
ag520
ag548
ag224
ag94
ag401
ag512
ag272
ag437
ag264
ag306
atRp746
sS'ccpMolType'
p747
S'RNA'
p748
sS'details'
p749
V
sg730
(dp750
g519
g520
sg436
g437
sg364
g365
sg400
g401
sg408
g409
sg372
g373
sg503
g504
sg263
g264
sg323
g324
sg698
g699
sg178
g179
sg143
g144
sg331
g332
sg547
g548
sg289
g290
sg135
g136
sg42
g43
sg75
g76
sg93
g94
sg170
g171
sg475
g476
sg662
g663
sS'P'
g357
sg297
g298
sg12
g10
sg670
g671
sg127
g128
sg162
g163
sg271
g272
sg305
g306
sg32
g33
sg109
g110
sg101
g102
sg349
g350
sg223
g224
sg50
g51
sg511
g512
ssS'keywords'
p751
g8
((ltRp752
sg62
g8
((lp753
g199
atRp754
sS'variants'
p755
g8
((lp756
g25
atRp757
sS'defaultVars'
p758
g8
((ltRp759
sb.