(imodel.Compound
Compound
p1
(dp2
S'name'
p3
VURIDINE-5'-MONOPHOSPHATE
p4
sS'isModified'
p5
I01
sS'ccpCode'
p6
VU
sS'atoms'
p7
c__builtin__
set
p8
((lp9
(imodel.Atom
Atom
p10
(dp11
g3
S'OP3'
p12
sS'compound'
p13
g1
sS'baseValences'
p14
I2
sS'element'
p15
S'O'
sS'isVariable'
p16
I00
sS'varAtoms'
p17
g8
((lp18
(imodel.VarAtom
VarAtom
p19
(dp20
g3
g12
sS'isLabile'
p21
I00
sS'chirality'
p22
NsS'atom'
p23
g10
sS'variant'
p24
(imodel.Variant
Variant
p25
(dp26
S'elementDict'
p27
(dp28
S'H'
g8
((lp29
(imodel.VarAtom
VarAtom
p30
(dp31
g3
S"H4'"
p32
sg21
I00
sg22
Nsg23
(imodel.Atom
Atom
p33
(dp34
g3
g32
sg13
g1
sg14
I1
sg15
S'H'
sg16
I00
sg17
g8
((lp35
g30
atRp36
sS'isDeleted'
p37
I00
sbsg24
g25
sS'neighbours'
p38
g8
((lp39
(imodel.VarAtom
VarAtom
p40
(dp41
g3
S"C4'"
p42
sg21
I00
sg22
Nsg23
(imodel.Atom
Atom
p43
(dp44
g3
g42
sg13
g1
sg14
I4
sg15
S'C'
sg16
I00
sg17
g8
((lp45
g40
atRp46
sg37
I00
sbsg24
g25
sg38
g8
((lp47
g30
a(imodel.VarAtom
VarAtom
p48
(dp49
g3
S"O4'"
p50
sg21
I00
sg22
Nsg23
(imodel.Atom
Atom
p51
(dp52
g3
g50
sg13
g1
sg14
I2
sg15
S'O'
sg16
I00
sg17
g8
((lp53
g48
atRp54
sg37
I00
sbsg24
g25
sg38
g8
((lp55
g40
a(imodel.VarAtom
VarAtom
p56
(dp57
g3
S"C1'"
p58
sg21
I00
sg22
Nsg23
(imodel.Atom
Atom
p59
(dp60
g3
g58
sg13
g1
sg14
I4
sg15
S'C'
sg16
I00
sg17
g8
((lp61
g56
atRp62
sg37
I00
sbsg24
g25
sg38
g8
((lp63
(imodel.VarAtom
VarAtom
p64
(dp65
g3
S"C2'"
p66
sg21
I00
sg22
Nsg23
(imodel.Atom
Atom
p67
(dp68
g3
g66
sg13
g1
sg14
I4
sg15
S'C'
sg16
I00
sg17
g8
((lp69
g64
atRp70
sg37
I00
sbsg24
g25
sg38
g8
((lp71
g56
a(imodel.VarAtom
VarAtom
p72
(dp73
g3
S"O2'"
p74
sg21
I00
sg22
Nsg23
(imodel.Atom
Atom
p75
(dp76
g3
g74
sg13
g1
sg14
I2
sg15
S'O'
sg16
I00
sg17
g8
((lp77
g72
atRp78
sg37
I00
sbsg24
g25
sg38
g8
((lp79
g64
a(imodel.VarAtom
VarAtom
p80
(dp81
g3
S"HO2'"
p82
sg21
I01
sg22
Nsg23
(imodel.Atom
Atom
p83
(dp84
g3
g82
sg13
g1
sg14
I1
sg15
S'H'
sg16
I00
sg17
g8
((lp85
g80
atRp86
sg37
I00
sbsg24
g25
sg38
g8
((lp87
g72
atRp88
sg15
S'H'
sS'charge'
p89
I0
sg16
I00
sS'coords'
p90
(F431.66985446052053
F540.94502708336063
F-33.421417898829972
tp91
sS'freeValences'
p92
(lp93
sg13
g1
sS'atomGroups'
p94
g8
((ltRp95
sS'bonds'
p96
g8
((lp97
(imodel.Bond
Bond
p98
(dp99
g13
g1
sS'bondType'
p100
S'single'
p101
sg24
g25
sg17
g8
((lp102
g80
ag72
atRp103
sbatRp104
sg37
I00
sbatRp105
sg15
S'O'
sg89
I0
sg16
I00
sg90
(F434.52633170300777
F502.93481359415074
F-20.248211069426102
tp106
sg92
(lp107
sg13
g1
sg94
g8
((ltRp108
sg96
g8
((lp109
(imodel.Bond
Bond
p110
(dp111
g13
g1
sg100
g101
sg24
g25
sg17
g8
((lp112
g72
ag64
atRp113
sbag98
atRp114
sg37
I00
sba(imodel.VarAtom
VarAtom
p115
(dp116
g3
S"H2'"
p117
sg21
I00
sg22
Nsg23
(imodel.Atom
Atom
p118
(dp119
g3
g117
sg13
g1
sg14
I1
sg15
S'H'
sg16
I00
sg17
g8
((lp120
g115
atRp121
sg37
I00
sbsg24
g25
sg38
g8
((lp122
g64
atRp123
sg15
S'H'
sg89
I0
sg16
I00
sg90
(F474.07984880499151
F473.14691463697631
F60.781894678641223
tp124
sg92
(lp125
sg13
g1
sg94
g8
((ltRp126
sg96
g8
((lp127
(imodel.Bond
Bond
p128
(dp129
g13
g1
sg100
g101
sg24
g25
sg17
g8
((lp130
g64
ag115
atRp131
sbatRp132
sg37
I00
sba(imodel.VarAtom
VarAtom
p133
(dp134
g3
S"C3'"
p135
sg21
I00
sg22
Nsg23
(imodel.Atom
Atom
p136
(dp137
g3
g135
sg13
g1
sg14
I4
sg15
S'C'
sg16
I00
sg17
g8
((lp138
g133
atRp139
sg37
I00
sbsg24
g25
sg38
g8
((lp140
g64
a(imodel.VarAtom
VarAtom
p141
(dp142
g3
S"O3'"
p143
sg21
I00
sg22
Nsg23
(imodel.Atom
Atom
p144
(dp145
g3
g143
sg13
g1
sg14
I2
sg15
S'O'
sg16
I00
sg17
g8
((lp146
g141
atRp147
sg37
I00
sbsg24
g25
sg38
g8
((lp148
(imodel.VarAtom
VarAtom
p149
(dp150
g3
S"HO3'"
p151
sg21
I01
sg22
Nsg23
(imodel.Atom
Atom
p152
(dp153
g3
g151
sg13
g1
sg14
I1
sg15
S'H'
sg16
I00
sg17
g8
((lp154
g149
atRp155
sg37
I00
sbsg24
g25
sg38
g8
((lp156
g141
atRp157
sg15
S'H'
sg89
I0
sg16
I00
sg90
(F303.70709370360157
F462.81482416042923
F87.455884257740365
tp158
sg92
(lp159
sg13
g1
sg94
g8
((ltRp160
sg96
g8
((lp161
(imodel.Bond
Bond
p162
(dp163
g13
g1
sg100
g101
sg24
g25
sg17
g8
((lp164
g141
ag149
atRp165
sbatRp166
sg37
I00
sbag133
atRp167
sg15
S'O'
sg89
I0
sg16
I00
sg90
(F339.00704815104825
F448.64155661446677
F55.157388064905945
tp168
sg92
(lp169
sg13
g1
sg94
g8
((ltRp170
sg96
g8
((lp171
g162
a(imodel.Bond
Bond
p172
(dp173
g13
g1
sg100
g101
sg24
g25
sg17
g8
((lp174
g133
ag141
atRp175
sbatRp176
sg37
I00
sbag40
a(imodel.VarAtom
VarAtom
p177
(dp178
g3
S"H3'"
p179
sg21
I00
sg22
Nsg23
(imodel.Atom
Atom
p180
(dp181
g3
g179
sg13
g1
sg14
I1
sg15
S'H'
sg16
I00
sg17
g8
((lp182
g177
atRp183
sg37
I00
sbsg24
g25
sg38
g8
((lp184
g133
atRp185
sg15
S'H'
sg89
I0
sg16
I00
sg90
(F379.82771398507697
F476.73899157040466
F139.0882973793839
tp186
sg92
(lp187
sg13
g1
sg94
g8
((ltRp188
sg96
g8
((lp189
(imodel.Bond
Bond
p190
(dp191
g13
g1
sg100
g101
sg24
g25
sg17
g8
((lp192
g133
ag177
atRp193
sbatRp194
sg37
I00
sbatRp195
sg15
S'C'
sg89
I0
sg16
I00
sg90
(F389.36524708057163
F439.68436765089484
F87.683452474079431
tp196
sg92
(lp197
sg13
g1
sg94
g8
((ltRp198
sg96
g8
((lp199
(imodel.Bond
Bond
p200
(dp201
g13
g1
sg100
g101
sg24
g25
sg17
g8
((lp202
g133
ag64
atRp203
sbag172
a(imodel.Bond
Bond
p204
(dp205
g13
g1
sg100
g101
sg24
g25
sg17
g8
((lp206
g133
ag40
atRp207
sbag190
atRp208
sg37
I00
sbatRp209
sg15
S'C'
sg89
I0
sg16
I00
sg90
(F441.88990938498193
F452.13466997165477
F49.832612854055384
tp210
sg92
(lp211
sg13
g1
sg94
g8
((ltRp212
sg96
g8
((lp213
g200
a(imodel.Bond
Bond
p214
(dp215
g13
g1
sg100
g101
sg24
g25
sg17
g8
((lp216
g64
ag56
atRp217
sbag128
ag110
atRp218
sg37
I00
sba(imodel.VarAtom
VarAtom
p219
(dp220
g3
S"H1'"
p221
sg21
I00
sg22
Nsg23
(imodel.Atom
Atom
p222
(dp223
g3
g221
sg13
g1
sg14
I1
sg15
S'H'
sg16
I00
sg17
g8
((lp224
g219
atRp225
sg37
I00
sbsg24
g25
sg38
g8
((lp226
g56
atRp227
sg15
S'H'
sg89
I0
sg16
I00
sg90
(F509.68331147589419
F431.91482835108854
F32.539628062373701
tp228
sg92
(lp229
sg13
g1
sg94
g8
((ltRp230
sg96
g8
((lp231
(imodel.Bond
Bond
p232
(dp233
g13
g1
sg100
g101
sg24
g25
sg17
g8
((lp234
g219
ag56
atRp235
sbatRp236
sg37
I00
sba(imodel.VarAtom
VarAtom
p237
(dp238
g3
S'N1'
p239
sg21
I00
sg22
Nsg23
(imodel.Atom
Atom
p240
(dp241
g3
g239
sg13
g1
sg14
I3
sg15
S'N'
sg16
I00
sg17
g8
((lp242
g237
atRp243
sg37
I00
sbsg24
g25
sg38
g8
((lp244
(imodel.VarAtom
VarAtom
p245
(dp246
g3
S'C2'
p247
sg21
I00
sg22
Nsg23
(imodel.Atom
Atom
p248
(dp249
g3
g247
sg13
g1
sg14
I4
sg15
S'C'
sg16
I00
sg17
g8
((lp250
g245
atRp251
sg37
I00
sbsg24
g25
sg38
g8
((lp252
g237
a(imodel.VarAtom
VarAtom
p253
(dp254
g3
S'O2'
p255
sg21
I00
sg22
Nsg23
(imodel.Atom
Atom
p256
(dp257
g3
g255
sg13
g1
sg14
I2
sg15
S'O'
sg16
I00
sg17
g8
((lp258
g253
atRp259
sg37
I00
sbsg24
g25
sg38
g8
((lp260
g245
atRp261
sg15
S'O'
sg89
I0
sg16
I00
sg90
(F579.82563379787609
F425.22447631281221
F62.720093813340569
tp262
sg92
(lp263
sg13
g1
sg94
g8
((ltRp264
sg96
g8
((lp265
(imodel.Bond
Bond
p266
(dp267
g13
g1
sg100
S'double'
p268
sg24
g25
sg17
g8
((lp269
g245
ag253
atRp270
sbatRp271
sg37
I00
sba(imodel.VarAtom
VarAtom
p272
(dp273
g3
S'N3'
p274
sg21
I00
sg22
Nsg23
(imodel.Atom
Atom
p275
(dp276
g3
g274
sg13
g1
sg14
I3
sg15
S'N'
sg16
I00
sg17
g8
((lp277
g272
atRp278
sg37
I00
sbsg24
g25
sg38
g8
((lp279
(imodel.VarAtom
VarAtom
p280
(dp281
g3
S'C4'
p282
sg21
I00
sg22
Nsg23
(imodel.Atom
Atom
p283
(dp284
g3
g282
sg13
g1
sg14
I4
sg15
S'C'
sg16
I00
sg17
g8
((lp285
g280
atRp286
sg37
I00
sbsg24
g25
sg38
g8
((lp287
g272
a(imodel.VarAtom
VarAtom
p288
(dp289
g3
S'O4'
p290
sg21
I00
sg22
Nsg23
(imodel.Atom
Atom
p291
(dp292
g3
g290
sg13
g1
sg14
I2
sg15
S'O'
sg16
I00
sg17
g8
((lp293
g288
atRp294
sg37
I00
sbsg24
g25
sg38
g8
((lp295
g280
atRp296
sg15
S'O'
sg89
I0
sg16
I00
sg90
(F624.82933303279026
F280.18593651990784
F286.74323849673613
tp297
sg92
(lp298
sg13
g1
sg94
g8
((ltRp299
sg96
g8
((lp300
(imodel.Bond
Bond
p301
(dp302
g13
g1
sg100
S'double'
p303
sg24
g25
sg17
g8
((lp304
g288
ag280
atRp305
sbatRp306
sg37
I00
sba(imodel.VarAtom
VarAtom
p307
(dp308
g3
S'C5'
p309
sg21
I00
sg22
Nsg23
(imodel.Atom
Atom
p310
(dp311
g3
g309
sg13
g1
sg14
I4
sg15
S'C'
sg16
I00
sg17
g8
((lp312
g307
atRp313
sg37
I00
sbsg24
g25
sg38
g8
((lp314
(imodel.VarAtom
VarAtom
p315
(dp316
g3
S'C6'
p317
sg21
I00
sg22
Nsg23
(imodel.Atom
Atom
p318
(dp319
g3
g317
sg13
g1
sg14
I4
sg15
S'C'
sg16
I00
sg17
g8
((lp320
g315
atRp321
sg37
I00
sbsg24
g25
sg38
g8
((lp322
(imodel.VarAtom
VarAtom
p323
(dp324
g3
S'H6'
p325
sg21
I00
sg22
Nsg23
(imodel.Atom
Atom
p326
(dp327
g3
g325
sg13
g1
sg14
I1
sg15
S'H'
sg16
I00
sg17
g8
((lp328
g323
atRp329
sg37
I00
sbsg24
g25
sg38
g8
((lp330
g315
atRp331
sg15
S'H'
sg89
I0
sg16
I00
sg90
(F466.67566779690458
F308.96191478228684
F203.10594394017909
tp332
sg92
(lp333
sg13
g1
sg94
g8
((ltRp334
sg96
g8
((lp335
(imodel.Bond
Bond
p336
(dp337
g13
g1
sg100
g101
sg24
g25
sg17
g8
((lp338
g315
ag323
atRp339
sbatRp340
sg37
I00
sbag307
ag237
atRp341
sg15
S'C'
sg89
I0
sg16
I00
sg90
(F502.35589076507722
F321.65621096992572
F196.12087845912899
tp342
sg92
(lp343
sg13
g1
sg94
g8
((lp344
(imodel.AtomGroup
AtomGroup
p345
(dp346
S'groupType'
p347
S'aromatic'
p348
sS'subGroups'
p349
g8
((ltRp350
sS'varAtoms'
p351
g8
((lp352
g245
ag237
ag307
ag315
ag272
ag280
atRp353
sS'variant'
p354
g25
sS'compound'
p355
g1
sbatRp356
sg96
g8
((lp357
g336
a(imodel.Bond
Bond
p358
(dp359
g13
g1
sg100
g348
sg24
g25
sg17
g8
((lp360
g307
ag315
atRp361
sba(imodel.Bond
Bond
p362
(dp363
g13
g1
sg100
g348
sg24
g25
sg17
g8
((lp364
g315
ag237
atRp365
sbatRp366
sg37
I00
sbag280
a(imodel.VarAtom
VarAtom
p367
(dp368
S'name'
p369
VH5
p370
sS'isLabile'
p371
I00
sS'chirality'
p372
NsS'atom'
p373
(imodel.Atom
Atom
p374
(dp375
g369
g370
sS'compound'
p376
g1
sg14
I1
sS'element'
p377
S'H'
sS'isVariable'
p378
I00
sS'varAtoms'
p379
g8
((lp380
g367
atRp381
sS'isDeleted'
p382
I00
sbsS'variant'
p383
g25
sS'neighbours'
p384
g8
((lp385
g307
atRp386
sg377
S'H'
sS'charge'
p387
I0
sg378
I00
sS'coords'
p388
(F534.40836656662327
F249.73358817873145
F0.69704470334571622
tp389
sS'freeValences'
p390
(lp391
sg376
g1
sS'atomGroups'
p392
g8
((ltRp393
sS'bonds'
p394
g8
((lp395
(imodel.Bond
Bond
p396
(dp397
g376
g1
sS'bondType'
p398
S'single'
p399
sg383
g25
sg379
g8
((lp400
g307
ag367
atRp401
sbatRp402
sg382
I00
sbatRp403
sg15
S'C'
sg89
I0
sg16
I00
sg90
(F539.12435784364334
F287.59331155422484
F249.96503662600188
tp404
sg92
(lp405
sg13
g1
sg94
g8
((lp406
g345
atRp407
sg96
g8
((lp408
g358
ag396
a(imodel.Bond
Bond
p409
(dp410
g13
g1
sg100
g348
sg24
g25
sg17
g8
((lp411
g280
ag307
atRp412
sbatRp413
sg37
I00
sbatRp414
sg15
S'C'
sg89
I0
sg16
I00
sg90
(F587.0019760801656
F302.79637800433886
F238.90756919043881
tp415
sg92
(lp416
sg13
g1
sg94
g8
((lp417
g345
atRp418
sg96
g8
((lp419
(imodel.Bond
Bond
p420
(dp421
g13
g1
sg100
g348
sg24
g25
sg17
g8
((lp422
g280
ag272
atRp423
sbag301
ag409
atRp424
sg37
I00
sba(imodel.VarAtom
VarAtom
p425
(dp426
g3
S'H3'
p427
sg21
I00
sg22
Nsg23
(imodel.Atom
Atom
p428
(dp429
g3
g427
sg13
g1
sg14
I1
sg15
S'H'
sg16
I01
sg17
g8
((lp430
g425
atRp431
sg37
I00
sbsg24
g25
sg38
g8
((lp432
g272
atRp433
sg15
S'H'
sg89
I0
sg16
I01
sg90
(F633.9896225624841
F363.2227605168614
F166.84408627625101
tp434
sg92
(lp435
sg13
g1
sg94
g8
((ltRp436
sg96
g8
((lp437
(imodel.Bond
Bond
p438
(dp439
g13
g1
sg100
g101
sg24
g25
sg17
g8
((lp440
g425
ag272
atRp441
sbatRp442
sg37
I00
sbag245
atRp443
sg15
S'N'
sg89
I0
sg16
I00
sg90
(F597.5777776801707
F351.67696333431729
F173.89691492848317
tp444
sg92
(lp445
sg13
g1
sg94
g8
((lp446
g345
atRp447
sg96
g8
((lp448
g420
a(imodel.Bond
Bond
p449
(dp450
g13
g1
sg100
g348
sg24
g25
sg17
g8
((lp451
g245
ag272
atRp452
sbag438
atRp453
sg37
I00
sbatRp454
sg15
S'C'
sg89
I0
sg16
I00
sg90
(F560.90209479493376
F385.47709446701811
F117.90820214979547
tp455
sg92
(lp456
sg13
g1
sg94
g8
((lp457
g345
atRp458
sg96
g8
((lp459
(imodel.Bond
Bond
p460
(dp461
g13
g1
sg100
g348
sg24
g25
sg17
g8
((lp462
g245
ag237
atRp463
sbag449
ag266
atRp464
sg37
I00
sbag315
ag56
atRp465
sg15
S'N'
sg89
I0
sg16
I00
sg90
(F512.76809191549876
F370.7041520750854
F132.07626327321637
tp466
sg92
(lp467
sg13
g1
sg94
g8
((lp468
g345
atRp469
sg96
g8
((lp470
g460
ag362
a(imodel.Bond
Bond
p471
(dp472
g13
g1
sg100
g101
sg24
g25
sg17
g8
((lp473
g56
ag237
atRp474
sbatRp475
sg37
I00
sbag48
atRp476
sg15
S'C'
sg89
I0
sg16
I00
sg90
(F478.63479404953813
F410.17430509892654
F73.213384319867217
tp477
sg92
(lp478
sg13
g1
sg94
g8
((ltRp479
sg96
g8
((lp480
g214
ag232
a(imodel.Bond
Bond
p481
(dp482
g13
g1
sg100
g101
sg24
g25
sg17
g8
((lp483
g48
ag56
atRp484
sbag471
atRp485
sg37
I00
sbatRp486
sg15
S'O'
sg89
I0
sg16
I00
sg90
(F431.01617525857807
F394.28669994887139
F92.036674917122753
tp487
sg92
(lp488
sg13
g1
sg94
g8
((ltRp489
sg96
g8
((lp490
(imodel.Bond
Bond
p491
(dp492
g13
g1
sg100
g101
sg24
g25
sg17
g8
((lp493
g48
ag40
atRp494
sbag481
atRp495
sg37
I00
sbag133
a(imodel.VarAtom
VarAtom
p496
(dp497
g3
S"C5'"
p498
sg21
I00
sg22
Nsg23
(imodel.Atom
Atom
p499
(dp500
g3
g498
sg13
g1
sg14
I4
sg15
S'C'
sg16
I00
sg17
g8
((lp501
g496
atRp502
sg37
I00
sbsg24
g25
sg38
g8
((lp503
(imodel.VarAtom
VarAtom
p504
(dp505
g3
S"H5'"
p506
sg21
I00
sg22
Nsg23
(imodel.Atom
Atom
p507
(dp508
g3
g506
sg13
g1
sg14
I1
sg15
S'H'
sg16
I00
sg17
g8
((lp509
g504
atRp510
sg37
I00
sbsg24
g25
sg38
g8
((lp511
g496
atRp512
sg15
S'H'
sg89
I0
sg16
I00
sg90
(F362.55452689930286
F326.78018820258956
F141.03228748778977
tp513
sg92
(lp514
sg13
g1
sg94
g8
((ltRp515
sg96
g8
((lp516
(imodel.Bond
Bond
p517
(dp518
g13
g1
sg100
g101
sg24
g25
sg17
g8
((lp519
g504
ag496
atRp520
sbatRp521
sg37
I00
sbag40
a(imodel.VarAtom
VarAtom
p522
(dp523
g3
S"H5''"
p524
sg21
I00
sg22
Nsg23
(imodel.Atom
Atom
p525
(dp526
g3
g524
sg13
g1
sg14
I1
sg15
S'H'
sg16
I00
sg17
g8
((lp527
g522
atRp528
sg37
I00
sbsg24
g25
sg38
g8
((lp529
g496
atRp530
sg15
S'H'
sg89
I0
sg16
I00
sg90
(F303.59603424991752
F371.76550823977044
F133.3205927718395
tp531
sg92
(lp532
sg13
g1
sg94
g8
((ltRp533
sg96
g8
((lp534
(imodel.Bond
Bond
p535
(dp536
g13
g1
sg100
g101
sg24
g25
sg17
g8
((lp537
g522
ag496
atRp538
sbatRp539
sg37
I00
sba(imodel.VarAtom
VarAtom
p540
(dp541
g3
S"O5'"
p542
sg21
I00
sg22
Nsg23
(imodel.Atom
Atom
p543
(dp544
g3
g542
sg13
g1
sg14
I2
sg15
S'O'
sg16
I00
sg17
g8
((lp545
g540
atRp546
sg37
I00
sbsg24
g25
sg38
g8
((lp547
(imodel.VarAtom
VarAtom
p548
(dp549
g3
S'P'
sg21
I00
sg22
Nsg23
(imodel.Atom
Atom
p550
(dp551
g3
S'P'
sg13
g1
sg14
I5
sg15
S'P'
sg16
I00
sg17
g8
((lp552
g548
atRp553
sg37
I00
sbsg24
g25
sg38
g8
((lp554
(imodel.VarAtom
VarAtom
p555
(dp556
g3
S'OP2'
p557
sg21
I00
sg22
Nsg23
(imodel.Atom
Atom
p558
(dp559
g3
g557
sg13
g1
sg14
I2
sg15
S'O'
sg16
I00
sg17
g8
((lp560
g555
atRp561
sg37
I00
sbsg24
g25
sg38
g8
((lp562
g548
a(imodel.VarAtom
VarAtom
p563
(dp564
g3
S'HOP2'
p565
sg21
I01
sg22
Nsg23
(imodel.Atom
Atom
p566
(dp567
g3
g565
sg13
g1
sg14
I1
sg15
S'H'
sg16
I00
sg17
g8
((lp568
g563
atRp569
sg37
I00
sbsg24
g25
sg38
g8
((lp570
g555
atRp571
sg15
S'H'
sg89
I0
sg16
I00
sg90
(F359.56902507605707
F179.8227470703078
F-1001.58158016577
tp572
sg92
(lp573
sg13
g1
sg94
g8
((ltRp574
sg96
g8
((lp575
(imodel.Bond
Bond
p576
(dp577
g13
g1
sg100
g101
sg24
g25
sg17
g8
((lp578
g555
ag563
atRp579
sbatRp580
sg37
I00
sbatRp581
sg15
S'O'
sg89
I0
sg16
I00
sg90
(F340.34281272641209
F212.41530828850642
F-1014.1214391381928
tp582
sg92
(lp583
sg13
g1
sg94
g8
((ltRp584
sg96
g8
((lp585
(imodel.Bond
Bond
p586
(dp587
g13
g1
sg100
g101
sg24
g25
sg17
g8
((lp588
g548
ag555
atRp589
sbag576
atRp590
sg37
I00
sbag19
a(imodel.VarAtom
VarAtom
p591
(dp592
g3
S'OP1'
p593
sg21
I00
sg22
Nsg23
(imodel.Atom
Atom
p594
(dp595
g3
g593
sg13
g1
sg14
I2
sg15
S'O'
sg16
I00
sg17
g8
((lp596
g591
atRp597
sg37
I00
sbsg24
g25
sg38
g8
((lp598
g548
atRp599
sg15
S'O'
sg89
I0
sg16
I00
sg90
(F367.35824720443219
F263.21017490347117
F323.89350863787422
tp600
sg92
(lp601
sg13
g1
sg94
g8
((ltRp602
sg96
g8
((lp603
(imodel.Bond
Bond
p604
(dp605
g13
g1
sg100
S'double'
p606
sg24
g25
sg17
g8
((lp607
g548
ag591
atRp608
sbatRp609
sg37
I00
sbag540
atRp610
sg15
S'P'
sg89
I0
sg16
I00
sg90
(F323.23805000122252
F260.2510558142389
F267.20480526644781
tp611
sg92
(lp612
sg13
g1
sg94
g8
((ltRp613
sg96
g8
((lp614
g586
a(imodel.Bond
Bond
p615
(dp616
g13
g1
sg100
g101
sg24
g25
sg17
g8
((lp617
g540
ag548
atRp618
sbag604
a(imodel.Bond
Bond
p619
(dp620
g13
g1
sg100
g101
sg24
g25
sg17
g8
((lp621
g548
ag19
atRp622
sbatRp623
sg37
I00
sbag496
atRp624
sg15
S'O'
sg89
I0
sg16
I00
sg90
(F314.62229819278468
F310.54545630139131
F205.11616820344111
tp625
sg92
(lp626
sg13
g1
sg94
g8
((ltRp627
sg96
g8
((lp628
g615
a(imodel.Bond
Bond
p629
(dp630
g13
g1
sg100
g101
sg24
g25
sg17
g8
((lp631
g540
ag496
atRp632
sbatRp633
sg37
I00
sbatRp634
sg15
S'C'
sg89
I0
sg16
I00
sg90
(F338.59490842510536
F356.0965156369968
F141.42520388907622
tp635
sg92
(lp636
sg13
g1
sg94
g8
((ltRp637
sg96
g8
((lp638
g517
ag535
ag629
a(imodel.Bond
Bond
p639
(dp640
g13
g1
sg100
g101
sg24
g25
sg17
g8
((lp641
g496
ag40
atRp642
sbatRp643
sg37
I00
sbatRp644
sg15
S'C'
sg89
I0
sg16
I00
sg90
(F380.5205767511813
F388.8252263874287
F84.734202321402719
tp645
sg92
(lp646
sg13
g1
sg94
g8
((ltRp647
sg96
g8
((lp648
(imodel.Bond
Bond
p649
(dp650
g13
g1
sg100
g101
sg24
g25
sg17
g8
((lp651
g30
ag40
atRp652
sbag491
ag204
ag639
atRp653
sg37
I00
sbatRp654
sg15
S'H'
sg89
I0
sg16
I00
sg90
(F402.60778529085798
F357.75347208809268
F38.007624286218473
tp655
sg92
(lp656
sg13
g1
sg94
g8
((ltRp657
sg96
g8
((lp658
g649
atRp659
sg37
I00
sbag115
ag522
ag425
a(imodel.VarAtom
VarAtom
p660
(dp661
g3
S'HOP3'
p662
sg21
I01
sg22
Nsg23
(imodel.Atom
Atom
p663
(dp664
g3
g662
sg13
g1
sg14
I1
sg15
S'H'
sg16
I00
sg17
g8
((lp665
g660
atRp666
sg37
I00
sbsg24
g25
sg38
g8
((lp667
g19
atRp668
sg15
S'H'
sg89
I0
sg16
I00
sg90
(F244.56503589624961
F221.38480582223195
F245.49785495895705
tp669
sg92
(lp670
sg13
g1
sg94
g8
((ltRp671
sg96
g8
((lp672
(imodel.Bond
Bond
p673
(dp674
g13
g1
sg100
g101
sg24
g25
sg17
g8
((lp675
g19
ag660
atRp676
sbatRp677
sg37
I00
sbag219
ag177
ag504
ag563
ag80
ag367
ag149
ag323
atRp678
sS'C'
g8
((lp679
g245
ag40
ag315
ag496
ag56
ag307
ag133
ag64
ag280
atRp680
sS'N'
g8
((lp681
g237
ag272
atRp682
sS'O'
g8
((lp683
g141
ag253
ag48
ag540
ag72
ag19
ag555
ag288
ag591
atRp684
sS'P'
g8
((lp685
g548
atRp686
ssg96
g8
((lp687
g336
ag535
ag615
ag204
ag200
ag409
ag649
ag517
ag396
ag266
ag438
ag491
ag576
ag301
ag98
ag619
ag214
ag110
ag639
ag586
ag190
ag460
ag471
ag232
ag673
ag604
ag128
ag172
ag420
ag358
ag362
ag629
ag481
ag162
ag449
atRp688
sg13
g1
sS'descriptor'
p689
(S'neutral'
p690
S'none'
p691
S'default'
p692
tp693
sS'atomDict'
p694
(dp695
g10
g19
sg144
g141
sg51
g48
sg310
g307
sg75
g72
sg428
g425
sg43
g40
sg67
g64
sg550
g548
sg566
g563
sg180
g177
sg326
g323
sg507
g504
sg59
g56
sg33
g30
sg118
g115
sg83
g80
sg543
g540
sg283
g280
sg594
g591
sg152
g149
sg374
g367
sg663
g660
sg275
g272
sg248
g245
sg291
g288
sg256
g253
sg240
g237
sg318
g315
sg525
g522
sg499
g496
sg222
g219
sg136
g133
sg558
g555
ssg17
g8
((lp696
g367
ag555
ag19
ag237
ag64
ag522
ag149
ag307
ag245
ag253
ag80
ag177
ag56
ag272
ag133
ag540
ag141
ag115
ag48
ag425
ag548
ag496
ag40
ag563
ag660
ag30
ag323
ag288
ag315
ag72
ag504
ag591
ag219
ag280
atRp697
sg94
g8
((lp698
g345
atRp699
sS'polyLink'
p700
S'none'
p701
sbsg38
g8
((lp702
g548
ag660
atRp703
sg15
S'O'
sg89
I0
sg16
I00
sg90
(F275.54028815008485
F243.07527091745857
F250.68284242214679
tp704
sg92
(lp705
sg13
g1
sg94
g8
((ltRp706
sg96
g8
((lp707
g619
ag673
atRp708
sg37
I00
sbatRp709
sg37
I00
sbag144
ag51
ag75
ag428
ag550
ag525
ag326
ag566
ag291
ag507
ag59
ag33
ag118
ag180
ag83
ag67
ag543
ag594
ag310
ag374
ag663
ag275
ag248
ag43
ag240
ag318
ag152
ag283
ag499
ag222
ag136
ag256
ag558
atRp710
sS'ccpMolType'
p711
S'RNA'
p712
sS'details'
p713
V
sg694
(dp714
g151
g152
sg593
g594
sg557
g558
sg12
g10
sg662
g663
sg565
g566
sg135
g136
sg58
g59
sg498
g499
sg117
g118
sg290
g291
sg255
g256
sg506
g507
sg179
g180
sg50
g51
sg247
g248
sg317
g318
sg309
g310
sg282
g283
sg524
g525
sg82
g83
sS'P'
g550
sg42
g43
sg66
g67
sg74
g75
sg239
g240
sg274
g275
sg221
g222
sg32
g33
sg427
g428
sg325
g326
sg370
g374
sg542
g543
sg143
g144
ssS'keywords'
p715
g8
((ltRp716
sg94
g8
((lp717
g345
atRp718
sS'variants'
p719
g8
((lp720
g25
atRp721
sS'defaultVars'
p722
g8
((ltRp723
sb.