(imodel.Compound
Compound
p1
(dp2
S'name'
p3
V2'-DEOXYADENOSINE-5'-MONOPHOSPHATE
p4
sS'isModified'
p5
I01
sS'ccpCode'
p6
VA
sS'atoms'
p7
c__builtin__
set
p8
((lp9
(imodel.Atom
Atom
p10
(dp11
g3
S'H2'
p12
sS'compound'
p13
g1
sS'baseValences'
p14
I1
sS'element'
p15
S'H'
sS'isVariable'
p16
I00
sS'varAtoms'
p17
g8
((lp18
(imodel.VarAtom
VarAtom
p19
(dp20
g3
g12
sS'isLabile'
p21
I00
sS'chirality'
p22
NsS'atom'
p23
g10
sS'variant'
p24
(imodel.Variant
Variant
p25
(dp26
S'elementDict'
p27
(dp28
S'H'
g8
((lp29
(imodel.VarAtom
VarAtom
p30
(dp31
g3
S'H8'
p32
sg21
I00
sg22
Nsg23
(imodel.Atom
Atom
p33
(dp34
g3
g32
sg13
g1
sg14
I1
sg15
S'H'
sg16
I00
sg17
g8
((lp35
(imodel.VarAtom
VarAtom
p36
(dp37
g3
g32
sg21
I00
sg22
Nsg23
g33
sg24
(imodel.Variant
Variant
p38
(dp39
g27
(dp40
S'H'
g8
((lp41
(imodel.VarAtom
VarAtom
p42
(dp43
g3
S"H4'"
p44
sg21
I00
sg22
Nsg23
(imodel.Atom
Atom
p45
(dp46
g3
g44
sg13
g1
sg14
I1
sg15
S'H'
sg16
I00
sg17
g8
((lp47
g42
a(imodel.VarAtom
VarAtom
p48
(dp49
g3
g44
sg21
I00
sg22
Nsg23
g45
sg24
g25
sS'neighbours'
p50
g8
((lp51
(imodel.VarAtom
VarAtom
p52
(dp53
g3
S"C4'"
p54
sg21
I00
sg22
S'R'
sg23
(imodel.Atom
Atom
p55
(dp56
g3
g54
sg13
g1
sg14
I4
sg15
S'C'
sg16
I00
sg17
g8
((lp57
g52
a(imodel.VarAtom
VarAtom
p58
(dp59
g3
g54
sg21
I00
sg22
S'R'
sg23
g55
sg24
g38
sg50
g8
((lp60
(imodel.VarAtom
VarAtom
p61
(dp62
g3
S"O4'"
p63
sg21
I00
sg22
Nsg23
(imodel.Atom
Atom
p64
(dp65
g3
g63
sg13
g1
sg14
I2
sg15
S'O'
sg16
I00
sg17
g8
((lp66
(imodel.VarAtom
VarAtom
p67
(dp68
g3
g63
sg21
I00
sg22
Nsg23
g64
sg24
g25
sg50
g8
((lp69
(imodel.VarAtom
VarAtom
p70
(dp71
g3
S"C1'"
p72
sg21
I00
sg22
S'R'
sg23
(imodel.Atom
Atom
p73
(dp74
g3
g72
sg13
g1
sg14
I4
sg15
S'C'
sg16
I00
sg17
g8
((lp75
g70
a(imodel.VarAtom
VarAtom
p76
(dp77
g3
g72
sg21
I00
sg22
S'R'
sg23
g73
sg24
g38
sg50
g8
((lp78
g61
a(imodel.VarAtom
VarAtom
p79
(dp80
g3
S"H1'"
p81
sg21
I00
sg22
Nsg23
(imodel.Atom
Atom
p82
(dp83
g3
g81
sg13
g1
sg14
I1
sg15
S'H'
sg16
I00
sg17
g8
((lp84
(imodel.VarAtom
VarAtom
p85
(dp86
g3
g81
sg21
I00
sg22
Nsg23
g82
sg24
g25
sg50
g8
((lp87
g70
atRp88
sg15
S'H'
sS'charge'
p89
I0
sg16
I00
sS'coords'
p90
(F335.80351799624549
F285.17015783911387
F28.566646524566075
tp91
sS'freeValences'
p92
(lp93
sg13
g1
sS'atomGroups'
p94
g8
((ltRp95
sS'bonds'
p96
g8
((lp97
(imodel.Bond
Bond
p98
(dp99
g13
g1
sS'bondType'
p100
S'single'
p101
sg24
g25
sg17
g8
((lp102
g70
ag85
atRp103
sbatRp104
sS'isDeleted'
p105
I00
sbag79
atRp106
sg105
I00
sbsg24
g38
sg50
g8
((lp107
g76
atRp108
sg15
S'H'
sg89
I0
sg16
I00
sg90
(F335.80351799624549
F285.17015783911387
F28.566646524566075
tp109
sg92
(lp110
sg13
g1
sg94
g8
((ltRp111
sg96
g8
((lp112
(imodel.Bond
Bond
p113
(dp114
g13
g1
sg100
g101
sg24
g38
sg17
g8
((lp115
g76
ag79
atRp116
sbatRp117
sg105
I00
sba(imodel.VarAtom
VarAtom
p118
(dp119
g3
S'N9'
p120
sg21
I00
sg22
Nsg23
(imodel.Atom
Atom
p121
(dp122
g3
g120
sg13
g1
sg14
I3
sg15
S'N'
sg16
I00
sg17
g8
((lp123
(imodel.VarAtom
VarAtom
p124
(dp125
g3
g120
sg21
I00
sg22
Nsg23
g121
sg24
g25
sg50
g8
((lp126
(imodel.VarAtom
VarAtom
p127
(dp128
g3
S'C8'
p129
sg21
I00
sg22
Nsg23
(imodel.Atom
Atom
p130
(dp131
g3
g129
sg13
g1
sg14
I4
sg15
S'C'
sg16
I00
sg17
g8
((lp132
g127
a(imodel.VarAtom
VarAtom
p133
(dp134
g3
g129
sg21
I00
sg22
Nsg23
g130
sg24
g38
sg50
g8
((lp135
g118
a(imodel.VarAtom
VarAtom
p136
(dp137
g3
S'N7'
p138
sg21
I00
sg22
Nsg23
(imodel.Atom
Atom
p139
(dp140
g3
g138
sg13
g1
sg14
I3
sg15
S'N'
sg16
I00
sg17
g8
((lp141
g136
a(imodel.VarAtom
VarAtom
p142
(dp143
g3
g138
sg21
I00
sg22
Nsg23
g139
sg24
g25
sg50
g8
((lp144
(imodel.VarAtom
VarAtom
p145
(dp146
g3
S'C5'
p147
sg21
I00
sg22
Nsg23
(imodel.Atom
Atom
p148
(dp149
g3
g147
sg13
g1
sg14
I4
sg15
S'C'
sg16
I00
sg17
g8
((lp150
g145
a(imodel.VarAtom
VarAtom
p151
(dp152
g3
g147
sg21
I00
sg22
Nsg23
g148
sg24
g38
sg50
g8
((lp153
g136
a(imodel.VarAtom
VarAtom
p154
(dp155
g3
S'C4'
p156
sg21
I00
sg22
Nsg23
(imodel.Atom
Atom
p157
(dp158
g3
g156
sg13
g1
sg14
I4
sg15
S'C'
sg16
I00
sg17
g8
((lp159
g154
a(imodel.VarAtom
VarAtom
p160
(dp161
g3
g156
sg21
I00
sg22
Nsg23
g157
sg24
g25
sg50
g8
((lp162
(imodel.VarAtom
VarAtom
p163
(dp164
g3
S'N3'
p165
sg21
I00
sg22
Nsg23
(imodel.Atom
Atom
p166
(dp167
g3
g165
sg13
g1
sg14
I3
sg15
S'N'
sg16
I00
sg17
g8
((lp168
g163
a(imodel.VarAtom
VarAtom
p169
(dp170
g3
g165
sg21
I00
sg22
Nsg23
g166
sg24
g38
sg50
g8
((lp171
g154
a(imodel.VarAtom
VarAtom
p172
(dp173
g3
S'C2'
p174
sg21
I00
sg22
Nsg23
(imodel.Atom
Atom
p175
(dp176
g3
g174
sg13
g1
sg14
I4
sg15
S'C'
sg16
I00
sg17
g8
((lp177
g172
a(imodel.VarAtom
VarAtom
p178
(dp179
g3
g174
sg21
I00
sg22
Nsg23
g175
sg24
g25
sg50
g8
((lp180
g19
ag163
a(imodel.VarAtom
VarAtom
p181
(dp182
g3
S'N1'
p183
sg21
I00
sg22
Nsg23
(imodel.Atom
Atom
p184
(dp185
g3
g183
sg13
g1
sg14
I3
sg15
S'N'
sg16
I00
sg17
g8
((lp186
g181
a(imodel.VarAtom
VarAtom
p187
(dp188
g3
g183
sg21
I00
sg22
Nsg23
g184
sg24
g38
sg50
g8
((lp189
(imodel.VarAtom
VarAtom
p190
(dp191
g3
S'C6'
p192
sg21
I00
sg22
Nsg23
(imodel.Atom
Atom
p193
(dp194
g3
g192
sg13
g1
sg14
I4
sg15
S'C'
sg16
I00
sg17
g8
((lp195
g190
a(imodel.VarAtom
VarAtom
p196
(dp197
g3
g192
sg21
I00
sg22
Nsg23
g193
sg24
g25
sg50
g8
((lp198
g181
a(imodel.VarAtom
VarAtom
p199
(dp200
g3
S'N6'
p201
sg21
I00
sg22
Nsg23
(imodel.Atom
Atom
p202
(dp203
g3
g201
sg13
g1
sg14
I3
sg15
S'N'
sg16
I00
sg17
g8
((lp204
g199
a(imodel.VarAtom
VarAtom
p205
(dp206
g3
g201
sg21
I00
sg22
Nsg23
g202
sg24
g38
sg50
g8
((lp207
(imodel.VarAtom
VarAtom
p208
(dp209
g3
S'H61'
p210
sg21
I00
sg22
Nsg23
(imodel.Atom
Atom
p211
(dp212
g3
g210
sg13
g1
sg14
I1
sg15
S'H'
sg16
I00
sg17
g8
((lp213
(imodel.VarAtom
VarAtom
p214
(dp215
g3
g210
sg21
I00
sg22
Nsg23
g211
sg24
g25
sg50
g8
((lp216
g199
atRp217
sg15
S'H'
sg89
I0
sg16
I00
sg90
(F532.02192652142912
F161.82791581136851
F315.46736568137322
tp218
sg92
(lp219
sg13
g1
sg94
g8
((ltRp220
sg96
g8
((lp221
(imodel.Bond
Bond
p222
(dp223
g13
g1
sg100
g101
sg24
g25
sg17
g8
((lp224
g199
ag214
atRp225
sbatRp226
sg105
I00
sbag208
atRp227
sg105
I00
sbsg24
g38
sg50
g8
((lp228
g205
atRp229
sg15
S'H'
sg89
I0
sg16
I00
sg90
(F532.02192652142912
F161.82791581136851
F315.46736568137322
tp230
sg92
(lp231
sg13
g1
sg94
g8
((ltRp232
sg96
g8
((lp233
(imodel.Bond
Bond
p234
(dp235
g13
g1
sg100
g101
sg24
g38
sg17
g8
((lp236
g205
ag208
atRp237
sbatRp238
sg105
I00
sbag190
a(imodel.VarAtom
VarAtom
p239
(dp240
g3
S'H62'
p241
sg21
I00
sg22
Nsg23
(imodel.Atom
Atom
p242
(dp243
g3
g241
sg13
g1
sg14
I1
sg15
S'H'
sg16
I00
sg17
g8
((lp244
g239
a(imodel.VarAtom
VarAtom
p245
(dp246
g3
g241
sg21
I00
sg22
Nsg23
g242
sg24
g25
sg50
g8
((lp247
g199
atRp248
sg15
S'H'
sg89
I0
sg16
I00
sg90
(F555.04118904291647
F221.65825958494645
F243.87251170832891
tp249
sg92
(lp250
sg13
g1
sg94
g8
((ltRp251
sg96
g8
((lp252
(imodel.Bond
Bond
p253
(dp254
g13
g1
sg100
g101
sg24
g25
sg17
g8
((lp255
g199
ag245
atRp256
sbatRp257
sg105
I00
sbatRp258
sg105
I00
sbsg24
g38
sg50
g8
((lp259
g205
atRp260
sg15
S'H'
sg89
I0
sg16
I00
sg90
(F555.04118904291647
F221.65825958494645
F243.87251170832891
tp261
sg92
(lp262
sg13
g1
sg94
g8
((ltRp263
sg96
g8
((lp264
(imodel.Bond
Bond
p265
(dp266
g13
g1
sg100
g101
sg24
g38
sg17
g8
((lp267
g205
ag239
atRp268
sbatRp269
sg105
I00
sbatRp270
sg15
S'N'
sg89
I0
sg16
I00
sg90
(F524.21071321598583
F199.27665023329698
F268.30859750081169
tp271
sg92
(lp272
sg13
g1
sg94
g8
((ltRp273
sg96
g8
((lp274
g234
a(imodel.Bond
Bond
p275
(dp276
g13
g1
sg100
g101
sg24
g38
sg17
g8
((lp277
g205
ag190
atRp278
sbag265
atRp279
sg105
I00
sbatRp280
sg105
I00
sbsg24
g25
sg50
g8
((lp281
g214
ag196
ag245
atRp282
sg15
S'N'
sg89
I0
sg16
I00
sg90
(F524.21071321598583
F199.27665023329698
F268.30859750081169
tp283
sg92
(lp284
sg13
g1
sg94
g8
((ltRp285
sg96
g8
((lp286
g222
a(imodel.Bond
Bond
p287
(dp288
g13
g1
sg100
g101
sg24
g25
sg17
g8
((lp289
g199
ag196
atRp290
sbag253
atRp291
sg105
I00
sbag145
atRp292
sg15
S'C'
sg89
I0
sg16
I00
sg90
(F477.69611751435195
F219.73413470755258
F235.07193699756775
tp293
sg92
(lp294
sg13
g1
sg94
g8
((lp295
(imodel.AtomGroup
AtomGroup
p296
(dp297
S'groupType'
p298
S'aromatic'
p299
sS'subGroups'
p300
g8
((ltRp301
sg17
g8
((lp302
g178
ag145
ag196
ag160
ag163
ag181
atRp303
sg24
g25
sg13
g1
sbatRp304
sg96
g8
((lp305
(imodel.Bond
Bond
p306
(dp307
g13
g1
sg100
g299
sg24
g25
sg17
g8
((lp308
g181
ag196
atRp309
sbag287
a(imodel.Bond
Bond
p310
(dp311
g13
g1
sg100
g299
sg24
g25
sg17
g8
((lp312
g145
ag196
atRp313
sbatRp314
sg105
I00
sbatRp315
sg105
I00
sbsg24
g38
sg50
g8
((lp316
g187
ag205
ag151
atRp317
sg15
S'C'
sg89
I0
sg16
I00
sg90
(F477.69611751435195
F219.73413470755258
F235.07193699756775
tp318
sg92
(lp319
sg13
g1
sg94
g8
((lp320
(imodel.AtomGroup
AtomGroup
p321
(dp322
g298
g299
sg300
g8
((ltRp323
sg17
g8
((lp324
g187
ag151
ag169
ag154
ag172
ag190
atRp325
sg24
g38
sg13
g1
sbatRp326
sg96
g8
((lp327
(imodel.Bond
Bond
p328
(dp329
g13
g1
sg100
g299
sg24
g38
sg17
g8
((lp330
g187
ag190
atRp331
sbag275
a(imodel.Bond
Bond
p332
(dp333
g13
g1
sg100
g299
sg24
g38
sg17
g8
((lp334
g151
ag190
atRp335
sbatRp336
sg105
I00
sbag172
a(imodel.VarAtom
VarAtom
p337
(dp338
g3
S'H1'
p339
sg21
I00
sg22
Nsg23
(imodel.Atom
Atom
p340
(dp341
g3
g339
sg13
g1
sg14
I1
sg15
S'H'
sg16
I01
sg17
g8
((lp342
g337
atRp343
sg105
I00
sbsg24
g38
sg50
g8
((lp344
g187
atRp345
sg15
S'H'
sg89
I0
sg16
I01
sg90
(F461.52302470286202
F140.00123172560629
F-24.362828239097581
tp346
sg92
(lp347
sg13
g1
sg94
g8
((ltRp348
sg96
g8
((lp349
(imodel.Bond
Bond
p350
(dp351
g13
g1
sg100
g101
sg24
g38
sg17
g8
((lp352
g337
ag187
atRp353
sbatRp354
sg105
I00
sbatRp355
sg15
S'N'
sg89
I0
sg16
I00
sg90
(F451.87910972654987
F176.96809158965161
F268.76752950350226
tp356
sg92
(lp357
sg13
g1
sg94
g8
((lp358
g321
atRp359
sg96
g8
((lp360
g328
a(imodel.Bond
Bond
p361
(dp362
g13
g1
sg100
g299
sg24
g38
sg17
g8
((lp363
g187
ag172
atRp364
sbag350
atRp365
sg105
I00
sbatRp366
sg105
I00
sbsg24
g25
sg50
g8
((lp367
g196
ag178
atRp368
sg15
S'N'
sg89
I0
sg16
I00
sg90
(F451.87910972654987
F176.96809158965161
F268.76752950350226
tp369
sg92
(lp370
sg13
g1
sg94
g8
((lp371
g296
atRp372
sg96
g8
((lp373
g306
a(imodel.Bond
Bond
p374
(dp375
g13
g1
sg100
g299
sg24
g25
sg17
g8
((lp376
g181
ag178
atRp377
sbatRp378
sg105
I00
sbatRp379
sg15
S'C'
sg89
I0
sg16
I00
sg90
(F401.92143142379672
F177.60336769368536
F237.31056437031813
tp380
sg92
(lp381
sg13
g1
sg94
g8
((lp382
g296
atRp383
sg96
g8
((lp384
(imodel.Bond
Bond
p385
(dp386
g13
g1
sg100
g101
sg24
g25
sg17
g8
((lp387
g19
ag178
atRp388
sbag374
a(imodel.Bond
Bond
p389
(dp390
g13
g1
sg100
g299
sg24
g25
sg17
g8
((lp391
g178
ag163
atRp392
sbatRp393
sg105
I00
sbatRp394
sg105
I00
sbsg24
g38
sg50
g8
((lp395
(imodel.VarAtom
VarAtom
p396
(dp397
g3
g12
sg21
I00
sg22
Nsg23
g10
sg24
g38
sg50
g8
((lp398
g172
atRp399
sg15
S'H'
sg89
I0
sg16
I00
sg90
(F390.77100681411986
F141.37498002011372
F266.03776327166958
tp400
sg92
(lp401
sg13
g1
sg94
g8
((ltRp402
sg96
g8
((lp403
(imodel.Bond
Bond
p404
(dp405
g13
g1
sg100
g101
sg24
g38
sg17
g8
((lp406
g396
ag172
atRp407
sbatRp408
sg105
I00
sbag169
ag187
atRp409
sg15
S'C'
sg89
I0
sg16
I00
sg90
(F401.92143142379672
F177.60336769368536
F237.31056437031813
tp410
sg92
(lp411
sg13
g1
sg94
g8
((lp412
g321
atRp413
sg96
g8
((lp414
g404
ag361
a(imodel.Bond
Bond
p415
(dp416
g13
g1
sg100
g299
sg24
g38
sg17
g8
((lp417
g172
ag169
atRp418
sbatRp419
sg105
I00
sbatRp420
sg15
S'N'
sg89
I0
sg16
I00
sg90
(F377.56303254305652
F221.3001047274368
F172.32981022452012
tp421
sg92
(lp422
sg13
g1
sg94
g8
((lp423
g321
atRp424
sg96
g8
((lp425
(imodel.Bond
Bond
p426
(dp427
g13
g1
sg100
g299
sg24
g38
sg17
g8
((lp428
g169
ag154
atRp429
sbag415
atRp430
sg105
I00
sbatRp431
sg105
I00
sbsg24
g25
sg50
g8
((lp432
g160
ag178
atRp433
sg15
S'N'
sg89
I0
sg16
I00
sg90
(F377.56303254305652
F221.3001047274368
F172.32981022452012
tp434
sg92
(lp435
sg13
g1
sg94
g8
((lp436
g296
atRp437
sg96
g8
((lp438
(imodel.Bond
Bond
p439
(dp440
g13
g1
sg100
g299
sg24
g25
sg17
g8
((lp441
g163
ag160
atRp442
sbag389
atRp443
sg105
I00
sbag145
ag124
atRp444
sg15
S'C'
sg89
I0
sg16
I00
sg90
(F403.32046330233385
F264.29103897697502
F134.88635932950871
tp445
sg92
(lp446
sg13
g1
sg94
g8
((lp447
g296
a(imodel.AtomGroup
AtomGroup
p448
(dp449
S'groupType'
p450
S'aromatic'
p451
sS'subGroups'
p452
g8
((ltRp453
sS'varAtoms'
p454
g8
((lp455
g124
ag160
ag127
ag145
ag142
atRp456
sS'variant'
p457
g25
sS'compound'
p458
g1
sbatRp459
sg96
g8
((lp460
g439
a(imodel.Bond
Bond
p461
(dp462
g13
g1
sg100
g451
sg24
g25
sg17
g8
((lp463
g124
ag160
atRp464
sba(imodel.Bond
Bond
p465
(dp466
g13
g1
sg100
g451
sg24
g25
sg17
g8
((lp467
g145
ag160
atRp468
sbatRp469
sg105
I00
sbatRp470
sg105
I00
sbsg24
g38
sg50
g8
((lp471
g169
ag151
ag118
atRp472
sg15
S'C'
sg89
I0
sg16
I00
sg90
(F403.32046330233385
F264.29103897697502
F134.88635932950871
tp473
sg92
(lp474
sg13
g1
sg94
g8
((lp475
g321
a(imodel.AtomGroup
AtomGroup
p476
(dp477
g450
g451
sg452
g8
((ltRp478
sg454
g8
((lp479
g118
ag154
ag151
ag133
ag136
atRp480
sg457
g38
sg458
g1
sbatRp481
sg96
g8
((lp482
g426
a(imodel.Bond
Bond
p483
(dp484
g13
g1
sg100
g451
sg24
g38
sg17
g8
((lp485
g118
ag154
atRp486
sba(imodel.Bond
Bond
p487
(dp488
g13
g1
sg100
g451
sg24
g38
sg17
g8
((lp489
g151
ag154
atRp490
sbatRp491
sg105
I00
sbag190
atRp492
sg15
S'C'
sg89
I0
sg16
I00
sg90
(F453.10372125124724
F263.59431614220358
F166.52680584678387
tp493
sg92
(lp494
sg13
g1
sg94
g8
((lp495
g321
ag476
atRp496
sg96
g8
((lp497
(imodel.Bond
Bond
p498
(dp499
g13
g1
sg100
g451
sg24
g38
sg17
g8
((lp500
g151
ag136
atRp501
sbag487
ag332
atRp502
sg105
I00
sbatRp503
sg105
I00
sbsg24
g25
sg50
g8
((lp504
g142
ag160
ag196
atRp505
sg15
S'C'
sg89
I0
sg16
I00
sg90
(F453.10372125124724
F263.59431614220358
F166.52680584678387
tp506
sg92
(lp507
sg13
g1
sg94
g8
((lp508
g296
ag448
atRp509
sg96
g8
((lp510
(imodel.Bond
Bond
p511
(dp512
g13
g1
sg100
g451
sg24
g25
sg17
g8
((lp513
g145
ag142
atRp514
sbag465
ag310
atRp515
sg105
I00
sbag127
atRp516
sg15
S'N'
sg89
I0
sg16
I00
sg90
(F469.32046154164789
F310.84789327306055
F117.44762923350932
tp517
sg92
(lp518
sg13
g1
sg94
g8
((lp519
g448
atRp520
sg96
g8
((lp521
g511
a(imodel.Bond
Bond
p522
(dp523
g13
g1
sg100
g451
sg24
g25
sg17
g8
((lp524
g127
ag142
atRp525
sbatRp526
sg105
I00
sbatRp527
sg105
I00
sbsg24
g38
sg50
g8
((lp528
g151
ag133
atRp529
sg15
S'N'
sg89
I0
sg16
I00
sg90
(F469.32046154164789
F310.84789327306055
F117.44762923350932
tp530
sg92
(lp531
sg13
g1
sg94
g8
((lp532
g476
atRp533
sg96
g8
((lp534
g498
a(imodel.Bond
Bond
p535
(dp536
g13
g1
sg100
g451
sg24
g38
sg17
g8
((lp537
g133
ag136
atRp538
sbatRp539
sg105
I00
sbag36
atRp540
sg15
S'C'
sg89
I0
sg16
I00
sg90
(F429.53254877760901
F340.99557599632567
F59.60290217965882
tp541
sg92
(lp542
sg13
g1
sg94
g8
((lp543
g476
atRp544
sg96
g8
((lp545
(imodel.Bond
Bond
p546
(dp547
g13
g1
sg100
g451
sg24
g38
sg17
g8
((lp548
g133
ag118
atRp549
sbag535
a(imodel.Bond
Bond
p550
(dp551
g13
g1
sg100
g101
sg24
g38
sg17
g8
((lp552
g133
ag36
atRp553
sbatRp554
sg105
I00
sbatRp555
sg105
I00
sbsg24
g25
sg50
g8
((lp556
g124
ag142
ag30
atRp557
sg15
S'C'
sg89
I0
sg16
I00
sg90
(F429.53254877760901
F340.99557599632567
F59.60290217965882
tp558
sg92
(lp559
sg13
g1
sg94
g8
((lp560
g448
atRp561
sg96
g8
((lp562
(imodel.Bond
Bond
p563
(dp564
g13
g1
sg100
g451
sg24
g25
sg17
g8
((lp565
g127
ag124
atRp566
sbag522
a(imodel.Bond
Bond
p567
(dp568
g13
g1
sg100
g101
sg24
g25
sg17
g8
((lp569
g127
ag30
atRp570
sbatRp571
sg105
I00
sbag160
ag70
atRp572
sg15
S'N'
sg89
I0
sg16
I00
sg90
(F388.22743899704687
F312.29184978865862
F68.463766352368083
tp573
sg92
(lp574
sg13
g1
sg94
g8
((lp575
g448
atRp576
sg96
g8
((lp577
g563
ag461
a(imodel.Bond
Bond
p578
(dp579
g13
g1
sg100
g101
sg24
g25
sg17
g8
((lp580
g70
ag124
atRp581
sbatRp582
sg105
I00
sbag118
atRp583
sg105
I00
sbsg24
g38
sg50
g8
((lp584
g133
ag154
ag76
atRp585
sg15
S'N'
sg89
I0
sg16
I00
sg90
(F388.22743899704687
F312.29184978865862
F68.463766352368083
tp586
sg92
(lp587
sg13
g1
sg94
g8
((lp588
g476
atRp589
sg96
g8
((lp590
g546
ag483
a(imodel.Bond
Bond
p591
(dp592
g13
g1
sg100
g101
sg24
g38
sg17
g8
((lp593
g76
ag118
atRp594
sbatRp595
sg105
I00
sba(imodel.VarAtom
VarAtom
p596
(dp597
g3
S"C2'"
p598
sg21
I00
sg22
Nsg23
(imodel.Atom
Atom
p599
(dp600
g3
g598
sg13
g1
sg14
I4
sg15
S'C'
sg16
I00
sg17
g8
((lp601
g596
a(imodel.VarAtom
VarAtom
p602
(dp603
g3
g598
sg21
I00
sg22
Nsg23
g599
sg24
g25
sg50
g8
((lp604
(imodel.VarAtom
VarAtom
p605
(dp606
g3
S"C3'"
p607
sg21
I00
sg22
S'S'
sg23
(imodel.Atom
Atom
p608
(dp609
g3
g607
sg13
g1
sg14
I4
sg15
S'C'
sg16
I00
sg17
g8
((lp610
(imodel.VarAtom
VarAtom
p611
(dp612
g3
g607
sg21
I00
sg22
S'S'
sg23
g608
sg24
g38
sg50
g8
((lp613
g596
a(imodel.VarAtom
VarAtom
p614
(dp615
g3
S"H3'"
p616
sg21
I00
sg22
Nsg23
(imodel.Atom
Atom
p617
(dp618
g3
g616
sg13
g1
sg14
I1
sg15
S'H'
sg16
I00
sg17
g8
((lp619
g614
a(imodel.VarAtom
VarAtom
p620
(dp621
g3
g616
sg21
I00
sg22
Nsg23
g617
sg24
g25
sg50
g8
((lp622
g605
atRp623
sg15
S'H'
sg89
I0
sg16
I00
sg90
(F221.14897457732587
F371.73014074951209
F-70.352050626020869
tp624
sg92
(lp625
sg13
g1
sg94
g8
((ltRp626
sg96
g8
((lp627
(imodel.Bond
Bond
p628
(dp629
g13
g1
sg100
g101
sg24
g25
sg17
g8
((lp630
g605
ag620
atRp631
sbatRp632
sg105
I00
sbatRp633
sg105
I00
sbsg24
g38
sg50
g8
((lp634
g611
atRp635
sg15
S'H'
sg89
I0
sg16
I00
sg90
(F221.14897457732587
F371.73014074951209
F-70.352050626020869
tp636
sg92
(lp637
sg13
g1
sg94
g8
((ltRp638
sg96
g8
((lp639
(imodel.Bond
Bond
p640
(dp641
g13
g1
sg100
g101
sg24
g38
sg17
g8
((lp642
g611
ag614
atRp643
sbatRp644
sg105
I00
sbag58
a(imodel.VarAtom
VarAtom
p645
(dp646
g3
S"O3'"
p647
sg21
I00
sg22
Nsg23
(imodel.Atom
Atom
p648
(dp649
g3
g647
sg13
g1
sg14
I2
sg15
S'O'
sg16
I00
sg17
g8
((lp650
(imodel.VarAtom
VarAtom
p651
(dp652
g3
g647
sg21
I00
sg22
Nsg23
g648
sg24
g25
sg50
g8
((lp653
g605
a(imodel.VarAtom
VarAtom
p654
(dp655
g3
S"HO3'"
p656
sg21
I01
sg22
Nsg23
(imodel.Atom
Atom
p657
(dp658
g3
g656
sg13
g1
sg14
I1
sg15
S'H'
sg16
I00
sg17
g8
((lp659
g654
a(imodel.VarAtom
VarAtom
p660
(dp661
g3
g656
sg21
I01
sg22
Nsg23
g657
sg24
g38
sg50
g8
((lp662
g645
atRp663
sg15
S'H'
sg89
I0
sg16
I00
sg90
(F243.45641363166388
F449.9433597430255
F-69.143757694176145
tp664
sg92
(lp665
sg13
g1
sg94
g8
((ltRp666
sg96
g8
((lp667
(imodel.Bond
Bond
p668
(dp669
g13
g1
sg100
g101
sg24
g38
sg17
g8
((lp670
g645
ag660
atRp671
sbatRp672
sg105
I00
sbatRp673
sg105
I00
sbsg24
g25
sg50
g8
((lp674
g651
atRp675
sg15
S'H'
sg89
I0
sg16
I00
sg90
(F243.45641363166388
F449.9433597430255
F-69.143757694176145
tp676
sg92
(lp677
sg13
g1
sg94
g8
((ltRp678
sg96
g8
((lp679
(imodel.Bond
Bond
p680
(dp681
g13
g1
sg100
g101
sg24
g25
sg17
g8
((lp682
g651
ag654
atRp683
sbatRp684
sg105
I00
sbatRp685
sg15
S'O'
sg89
I0
sg16
I00
sg90
(F250.47369925667789
F412.51401572502198
F-94.180952196603386
tp686
sg92
(lp687
sg13
g1
sg94
g8
((ltRp688
sg96
g8
((lp689
(imodel.Bond
Bond
p690
(dp691
g13
g1
sg100
g101
sg24
g25
sg17
g8
((lp692
g651
ag605
atRp693
sbag680
atRp694
sg105
I00
sbag645
atRp695
sg105
I00
sbsg24
g38
sg50
g8
((lp696
g611
ag660
atRp697
sg15
S'O'
sg89
I0
sg16
I00
sg90
(F250.47369925667789
F412.51401572502198
F-94.180952196603386
tp698
sg92
(lp699
sg13
g1
sg94
g8
((ltRp700
sg96
g8
((lp701
(imodel.Bond
Bond
p702
(dp703
g13
g1
sg100
g101
sg24
g38
sg17
g8
((lp704
g645
ag611
atRp705
sbag668
atRp706
sg105
I00
sbatRp707
sg15
S'C'
sg89
I0
sg16
I00
sg90
(F258.3608237484795
F361.87780007655476
F-65.633421048725808
tp708
sg92
(lp709
sg13
g1
sg94
g8
((ltRp710
sg96
g8
((lp711
g702
ag640
a(imodel.Bond
Bond
p712
(dp713
g13
g1
sg100
g101
sg24
g38
sg17
g8
((lp714
g611
ag58
atRp715
sba(imodel.Bond
Bond
p716
(dp717
g13
g1
sg100
g101
sg24
g38
sg17
g8
((lp718
g596
ag611
atRp719
sbatRp720
sg105
I00
sbag605
atRp721
sg105
I00
sbsg24
g25
sg50
g8
((lp722
g620
ag52
ag602
ag651
atRp723
sg15
S'C'
sg89
I0
sg16
I00
sg90
(F258.3608237484795
F361.87780007655476
F-65.633421048725808
tp724
sg92
(lp725
sg13
g1
sg94
g8
((ltRp726
sg96
g8
((lp727
g690
ag628
a(imodel.Bond
Bond
p728
(dp729
g13
g1
sg100
g101
sg24
g25
sg17
g8
((lp730
g605
ag52
atRp731
sba(imodel.Bond
Bond
p732
(dp733
g13
g1
sg100
g101
sg24
g25
sg17
g8
((lp734
g602
ag605
atRp735
sbatRp736
sg105
I00
sba(imodel.VarAtom
VarAtom
p737
(dp738
g3
S"H2''"
p739
sg21
I00
sg22
Nsg23
(imodel.Atom
Atom
p740
(dp741
g3
g739
sg13
g1
sg14
I1
sg15
S'H'
sg16
I00
sg17
g8
((lp742
(imodel.VarAtom
VarAtom
p743
(dp744
g3
g739
sg21
I00
sg22
Nsg23
g740
sg24
g38
sg50
g8
((lp745
g596
atRp746
sg15
S'H'
sg89
I0
sg16
I00
sg90
(F311.96682660309284
F406.77132386383266
F40.642195148354496
tp747
sg92
(lp748
sg13
g1
sg94
g8
((ltRp749
sg96
g8
((lp750
(imodel.Bond
Bond
p751
(dp752
g13
g1
sg100
g101
sg24
g38
sg17
g8
((lp753
g596
ag743
atRp754
sbatRp755
sg105
I00
sbag737
atRp756
sg105
I00
sbsg24
g25
sg50
g8
((lp757
g602
atRp758
sg15
S'H'
sg89
I0
sg16
I00
sg90
(F311.96682660309284
F406.77132386383266
F40.642195148354496
tp759
sg92
(lp760
sg13
g1
sg94
g8
((ltRp761
sg96
g8
((lp762
(imodel.Bond
Bond
p763
(dp764
g13
g1
sg100
g101
sg24
g25
sg17
g8
((lp765
g602
ag737
atRp766
sbatRp767
sg105
I00
sbag70
a(imodel.VarAtom
VarAtom
p768
(dp769
g3
S"H2'"
p770
sg21
I00
sg22
Nsg23
(imodel.Atom
Atom
p771
(dp772
g3
g770
sg13
g1
sg14
I1
sg15
S'H'
sg16
I00
sg17
g8
((lp773
g768
a(imodel.VarAtom
VarAtom
p774
(dp775
g3
g770
sg21
I00
sg22
Nsg23
g771
sg24
g38
sg50
g8
((lp776
g596
atRp777
sg15
S'H'
sg89
I0
sg16
I00
sg90
(F348.73872790295212
F381.12056062796842
F16.637775810247636
tp778
sg92
(lp779
sg13
g1
sg94
g8
((ltRp780
sg96
g8
((lp781
(imodel.Bond
Bond
p782
(dp783
g13
g1
sg100
g101
sg24
g38
sg17
g8
((lp784
g596
ag774
atRp785
sbatRp786
sg105
I00
sbatRp787
sg105
I00
sbsg24
g25
sg50
g8
((lp788
g602
atRp789
sg15
S'H'
sg89
I0
sg16
I00
sg90
(F348.73872790295212
F381.12056062796842
F16.637775810247636
tp790
sg92
(lp791
sg13
g1
sg94
g8
((ltRp792
sg96
g8
((lp793
(imodel.Bond
Bond
p794
(dp795
g13
g1
sg100
g101
sg24
g25
sg17
g8
((lp796
g602
ag768
atRp797
sbatRp798
sg105
I00
sbatRp799
sg15
S'C'
sg89
I0
sg16
I00
sg90
(F312.27886100052598
F368.10712388135642
F7.0608839587114378
tp800
sg92
(lp801
sg13
g1
sg94
g8
((ltRp802
sg96
g8
((lp803
g763
ag794
a(imodel.Bond
Bond
p804
(dp805
g13
g1
sg100
g101
sg24
g25
sg17
g8
((lp806
g70
ag602
atRp807
sbag732
atRp808
sg105
I00
sbatRp809
sg105
I00
sbsg24
g38
sg50
g8
((lp810
g743
ag76
ag611
ag774
atRp811
sg15
S'C'
sg89
I0
sg16
I00
sg90
(F312.27886100052598
F368.10712388135642
F7.0608839587114378
tp812
sg92
(lp813
sg13
g1
sg94
g8
((ltRp814
sg96
g8
((lp815
g751
ag782
a(imodel.Bond
Bond
p816
(dp817
g13
g1
sg100
g101
sg24
g38
sg17
g8
((lp818
g76
ag596
atRp819
sbag716
atRp820
sg105
I00
sbatRp821
sg15
S'C'
sg89
I0
sg16
I00
sg90
(F337.82190616753968
F323.16753097816314
F15.195413725414371
tp822
sg92
(lp823
sg13
g1
sg94
g8
((ltRp824
sg96
g8
((lp825
(imodel.Bond
Bond
p826
(dp827
g13
g1
sg100
g101
sg24
g38
sg17
g8
((lp828
g76
ag61
atRp829
sbag591
ag816
ag113
atRp830
sg105
I00
sbatRp831
sg105
I00
sbsg24
g25
sg50
g8
((lp832
g85
ag67
ag124
ag602
atRp833
sg15
S'C'
sg89
I0
sg16
I00
sg90
(F337.82190616753968
F323.16753097816314
F15.195413725414371
tp834
sg92
(lp835
sg13
g1
sg94
g8
((ltRp836
sg96
g8
((lp837
(imodel.Bond
Bond
p838
(dp839
g13
g1
sg100
g101
sg24
g25
sg17
g8
((lp840
g70
ag67
atRp841
sbag578
ag98
ag804
atRp842
sg105
I00
sbag52
atRp843
sg15
S'O'
sg89
I0
sg16
I00
sg90
(F289.18443932383991
F309.06880847077645
F-46.770117972465144
tp844
sg92
(lp845
sg13
g1
sg94
g8
((ltRp846
sg96
g8
((lp847
g838
a(imodel.Bond
Bond
p848
(dp849
g13
g1
sg100
g101
sg24
g25
sg17
g8
((lp850
g67
ag52
atRp851
sbatRp852
sg105
I00
sbag61
atRp853
sg105
I00
sbsg24
g38
sg50
g8
((lp854
g76
ag58
atRp855
sg15
S'O'
sg89
I0
sg16
I00
sg90
(F289.18443932383991
F309.06880847077645
F-46.770117972465144
tp856
sg92
(lp857
sg13
g1
sg94
g8
((ltRp858
sg96
g8
((lp859
g826
a(imodel.Bond
Bond
p860
(dp861
g13
g1
sg100
g101
sg24
g38
sg17
g8
((lp862
g61
ag58
atRp863
sbatRp864
sg105
I00
sbag42
ag611
a(imodel.VarAtom
VarAtom
p865
(dp866
g3
S"C5'"
p867
sg21
I00
sg22
Nsg23
(imodel.Atom
Atom
p868
(dp869
g3
g867
sg13
g1
sg14
I4
sg15
S'C'
sg16
I00
sg17
g8
((lp870
g865
a(imodel.VarAtom
VarAtom
p871
(dp872
g3
g867
sg21
I00
sg22
Nsg23
g868
sg24
g25
sg50
g8
((lp873
(imodel.VarAtom
VarAtom
p874
(dp875
g3
S"H5''"
p876
sg21
I00
sg22
Nsg23
(imodel.Atom
Atom
p877
(dp878
g3
g876
sg13
g1
sg14
I1
sg15
S'H'
sg16
I00
sg17
g8
((lp879
(imodel.VarAtom
VarAtom
p880
(dp881
g3
g876
sg21
I00
sg22
Nsg23
g877
sg24
g38
sg50
g8
((lp882
g865
atRp883
sg15
S'H'
sg89
I0
sg16
I00
sg90
(F190.27610655382773
F257.86951405431211
F-149.01944950574875
tp884
sg92
(lp885
sg13
g1
sg94
g8
((ltRp886
sg96
g8
((lp887
(imodel.Bond
Bond
p888
(dp889
g13
g1
sg100
g101
sg24
g38
sg17
g8
((lp890
g865
ag880
atRp891
sbatRp892
sg105
I00
sbag874
atRp893
sg105
I00
sbsg24
g25
sg50
g8
((lp894
g871
atRp895
sg15
S'H'
sg89
I0
sg16
I00
sg90
(F190.27610655382773
F257.86951405431211
F-149.01944950574875
tp896
sg92
(lp897
sg13
g1
sg94
g8
((ltRp898
sg96
g8
((lp899
(imodel.Bond
Bond
p900
(dp901
g13
g1
sg100
g101
sg24
g25
sg17
g8
((lp902
g871
ag874
atRp903
sbatRp904
sg105
I00
sba(imodel.VarAtom
VarAtom
p905
(dp906
g3
S"O5'"
p907
sg21
I00
sg22
Nsg23
(imodel.Atom
Atom
p908
(dp909
g3
g907
sg13
g1
sg14
I2
sg15
S'O'
sg16
I00
sg17
g8
((lp910
g905
a(imodel.VarAtom
VarAtom
p911
(dp912
g3
g907
sg21
I00
sg22
Nsg23
g908
sg24
g38
sg50
g8
((lp913
(imodel.VarAtom
VarAtom
p914
(dp915
g3
S'P'
sg21
I00
sg22
Nsg23
(imodel.Atom
Atom
p916
(dp917
g3
S'P'
sg13
g1
sg14
I5
sg15
S'P'
sg16
I00
sg17
g8
((lp918
g914
a(imodel.VarAtom
VarAtom
p919
(dp920
g3
S'P'
sg21
I00
sg22
Nsg23
g916
sg24
g25
sg50
g8
((lp921
g905
a(imodel.VarAtom
VarAtom
p922
(dp923
g3
S'OP1'
p924
sg21
I00
sg22
Nsg23
(imodel.Atom
Atom
p925
(dp926
g3
g924
sg13
g1
sg14
I2
sg15
S'O'
sg16
I00
sg17
g8
((lp927
(imodel.VarAtom
VarAtom
p928
(dp929
g3
g924
sg21
I00
sg22
Nsg23
g925
sg24
g38
sg50
g8
((lp930
g914
atRp931
sg15
S'O'
sg89
I0
sg16
I00
sg90
(F209.20453193268904
F116.37269874266755
F-237.03688539051205
tp932
sg92
(lp933
sg13
g1
sg94
g8
((ltRp934
sg96
g8
((lp935
(imodel.Bond
Bond
p936
(dp937
g13
g1
sg100
S'double'
p938
sg24
g38
sg17
g8
((lp939
g914
ag928
atRp940
sbatRp941
sg105
I00
sbag922
atRp942
sg105
I00
sbsg24
g25
sg50
g8
((lp943
g919
atRp944
sg15
S'O'
sg89
I0
sg16
I00
sg90
(F209.20453193268904
F116.37269874266755
F-237.03688539051205
tp945
sg92
(lp946
sg13
g1
sg94
g8
((ltRp947
sg96
g8
((lp948
(imodel.Bond
Bond
p949
(dp950
g13
g1
sg100
g938
sg24
g25
sg17
g8
((lp951
g919
ag922
atRp952
sbatRp953
sg105
I00
sba(imodel.VarAtom
VarAtom
p954
(dp955
g3
S'OP3'
p956
sg21
I00
sg22
Nsg23
(imodel.Atom
Atom
p957
(dp958
g3
g956
sg13
g1
sg14
I2
sg15
S'O'
sg16
I00
sg17
g8
((lp959
g954
a(imodel.VarAtom
VarAtom
p960
(dp961
g3
g956
sg21
I00
sg22
Nsg23
g957
sg24
g38
sg50
g8
((lp962
(imodel.VarAtom
VarAtom
p963
(dp964
g3
S'HOP3'
p965
sg21
I01
sg22
Nsg23
(imodel.Atom
Atom
p966
(dp967
g3
g965
sg13
g1
sg14
I1
sg15
S'H'
sg16
I00
sg17
g8
((lp968
(imodel.VarAtom
VarAtom
p969
(dp970
g3
g965
sg21
I01
sg22
Nsg23
g966
sg24
g25
sg50
g8
((lp971
g954
atRp972
sg15
S'H'
sg89
I0
sg16
I00
sg90
(F126.27218172657905
F148.35670709972933
F-330.4424696398691
tp973
sg92
(lp974
sg13
g1
sg94
g8
((ltRp975
sg96
g8
((lp976
(imodel.Bond
Bond
p977
(dp978
g13
g1
sg100
g101
sg24
g25
sg17
g8
((lp979
g954
ag969
atRp980
sbatRp981
sg105
I00
sbag963
atRp982
sg105
I00
sbsg24
g38
sg50
g8
((lp983
g960
atRp984
sg15
S'H'
sg89
I0
sg16
I00
sg90
(F126.27218172657905
F148.35670709972933
F-330.4424696398691
tp985
sg92
(lp986
sg13
g1
sg94
g8
((ltRp987
sg96
g8
((lp988
(imodel.Bond
Bond
p989
(dp990
g13
g1
sg100
g101
sg24
g38
sg17
g8
((lp991
g960
ag963
atRp992
sbatRp993
sg105
I00
sbag914
atRp994
sg15
S'O'
sg89
I0
sg16
I00
sg90
(F162.36289195132716
F159.75556464857078
F-291.15422113985193
tp995
sg92
(lp996
sg13
g1
sg94
g8
((ltRp997
sg96
g8
((lp998
g989
a(imodel.Bond
Bond
p999
(dp1000
g13
g1
sg100
g101
sg24
g38
sg17
g8
((lp1001
g960
ag914
atRp1002
sbatRp1003
sg105
I00
sbatRp1004
sg105
I00
sbsg24
g25
sg50
g8
((lp1005
g969
ag919
atRp1006
sg15
S'O'
sg89
I0
sg16
I00
sg90
(F162.36289195132716
F159.75556464857078
F-291.15422113985193
tp1007
sg92
(lp1008
sg13
g1
sg94
g8
((ltRp1009
sg96
g8
((lp1010
g977
a(imodel.Bond
Bond
p1011
(dp1012
g13
g1
sg100
g101
sg24
g25
sg17
g8
((lp1013
g954
ag919
atRp1014
sbatRp1015
sg105
I00
sba(imodel.VarAtom
VarAtom
p1016
(dp1017
g3
S'OP2'
p1018
sg21
I00
sg22
Nsg23
(imodel.Atom
Atom
p1019
(dp1020
g3
g1018
sg13
g1
sg14
I2
sg15
S'O'
sg16
I00
sg17
g8
((lp1021
(imodel.VarAtom
VarAtom
p1022
(dp1023
g3
g1018
sg21
I00
sg22
Nsg23
g1019
sg24
g38
sg50
g8
((lp1024
(imodel.VarAtom
VarAtom
p1025
(dp1026
g3
S'HOP2'
p1027
sg21
I01
sg22
Nsg23
(imodel.Atom
Atom
p1028
(dp1029
g3
g1027
sg13
g1
sg14
I1
sg15
S'H'
sg16
I00
sg17
g8
((lp1030
(imodel.VarAtom
VarAtom
p1031
(dp1032
g3
g1027
sg21
I01
sg22
Nsg23
g1028
sg24
g25
sg50
g8
((lp1033
g1016
atRp1034
sg15
S'H'
sg89
I0
sg16
I00
sg90
(F298.06252886947016
F136.75467597312627
F-319.38824637249741
tp1035
sg92
(lp1036
sg13
g1
sg94
g8
((ltRp1037
sg96
g8
((lp1038
(imodel.Bond
Bond
p1039
(dp1040
g13
g1
sg100
g101
sg24
g25
sg17
g8
((lp1041
g1016
ag1031
atRp1042
sbatRp1043
sg105
I00
sbag1025
atRp1044
sg105
I00
sbsg24
g38
sg50
g8
((lp1045
g1022
atRp1046
sg15
S'H'
sg89
I0
sg16
I00
sg90
(F298.06252886947016
F136.75467597312627
F-319.38824637249741
tp1047
sg92
(lp1048
sg13
g1
sg94
g8
((ltRp1049
sg96
g8
((lp1050
(imodel.Bond
Bond
p1051
(dp1052
g13
g1
sg100
g101
sg24
g38
sg17
g8
((lp1053
g1022
ag1025
atRp1054
sbatRp1055
sg105
I00
sbag914
atRp1056
sg15
S'O'
sg89
I0
sg16
I00
sg90
(F262.28434982387319
F148.65374322262966
F-307.64044435543474
tp1057
sg92
(lp1058
sg13
g1
sg94
g8
((ltRp1059
sg96
g8
((lp1060
g1051
a(imodel.Bond
Bond
p1061
(dp1062
g13
g1
sg100
g101
sg24
g38
sg17
g8
((lp1063
g1022
ag914
atRp1064
sbatRp1065
sg105
I00
sbag1016
atRp1066
sg105
I00
sbsg24
g25
sg50
g8
((lp1067
g1031
ag919
atRp1068
sg15
S'O'
sg89
I0
sg16
I00
sg90
(F262.28434982387319
F148.65374322262966
F-307.64044435543474
tp1069
sg92
(lp1070
sg13
g1
sg94
g8
((ltRp1071
sg96
g8
((lp1072
g1039
a(imodel.Bond
Bond
p1073
(dp1074
g13
g1
sg100
g101
sg24
g25
sg17
g8
((lp1075
g1016
ag919
atRp1076
sbatRp1077
sg105
I00
sbatRp1078
sg15
S'P'
sg89
I0
sg16
I00
sg90
(F213.03857012985196
F160.48995725713382
F-256.73172215715306
tp1079
sg92
(lp1080
sg13
g1
sg94
g8
((ltRp1081
sg96
g8
((lp1082
(imodel.Bond
Bond
p1083
(dp1084
g13
g1
sg100
g101
sg24
g25
sg17
g8
((lp1085
g905
ag919
atRp1086
sbag949
ag1011
ag1073
atRp1087
sg105
I00
sbatRp1088
sg105
I00
sbsg24
g38
sg50
g8
((lp1089
g911
ag960
ag928
ag1022
atRp1090
sg15
S'P'
sg89
I0
sg16
I00
sg90
(F213.03857012985196
F160.48995725713382
F-256.73172215715306
tp1091
sg92
(lp1092
sg13
g1
sg94
g8
((ltRp1093
sg96
g8
((lp1094
(imodel.Bond
Bond
p1095
(dp1096
g13
g1
sg100
g101
sg24
g38
sg17
g8
((lp1097
g911
ag914
atRp1098
sbag936
ag1061
ag999
atRp1099
sg105
I00
sbag865
atRp1100
sg15
S'O'
sg89
I0
sg16
I00
sg90
(F220.43617167707038
F210.79660795157611
F-189.79906972037469
tp1101
sg92
(lp1102
sg13
g1
sg94
g8
((ltRp1103
sg96
g8
((lp1104
g1095
a(imodel.Bond
Bond
p1105
(dp1106
g13
g1
sg100
g101
sg24
g38
sg17
g8
((lp1107
g911
ag865
atRp1108
sbatRp1109
sg105
I00
sbatRp1110
sg105
I00
sbsg24
g25
sg50
g8
((lp1111
g919
ag871
atRp1112
sg15
S'O'
sg89
I0
sg16
I00
sg90
(F220.43617167707038
F210.79660795157611
F-189.79906972037469
tp1113
sg92
(lp1114
sg13
g1
sg94
g8
((ltRp1115
sg96
g8
((lp1116
g1083
a(imodel.Bond
Bond
p1117
(dp1118
g13
g1
sg100
g101
sg24
g25
sg17
g8
((lp1119
g905
ag871
atRp1120
sbatRp1121
sg105
I00
sba(imodel.VarAtom
VarAtom
p1122
(dp1123
g3
S"H5'"
p1124
sg21
I00
sg22
Nsg23
(imodel.Atom
Atom
p1125
(dp1126
g3
g1124
sg13
g1
sg14
I1
sg15
S'H'
sg16
I00
sg17
g8
((lp1127
(imodel.VarAtom
VarAtom
p1128
(dp1129
g3
g1124
sg21
I00
sg22
Nsg23
g1125
sg24
g38
sg50
g8
((lp1130
g865
atRp1131
sg15
S'H'
sg89
I0
sg16
I00
sg90
(F264.00524456741437
F246.52363615823631
F-197.73564682257953
tp1132
sg92
(lp1133
sg13
g1
sg94
g8
((ltRp1134
sg96
g8
((lp1135
(imodel.Bond
Bond
p1136
(dp1137
g13
g1
sg100
g101
sg24
g38
sg17
g8
((lp1138
g865
ag1128
atRp1139
sbatRp1140
sg105
I00
sbag1122
atRp1141
sg105
I00
sbsg24
g25
sg50
g8
((lp1142
g871
atRp1143
sg15
S'H'
sg89
I0
sg16
I00
sg90
(F264.00524456741437
F246.52363615823631
F-197.73564682257953
tp1144
sg92
(lp1145
sg13
g1
sg94
g8
((ltRp1146
sg96
g8
((lp1147
(imodel.Bond
Bond
p1148
(dp1149
g13
g1
sg100
g101
sg24
g25
sg17
g8
((lp1150
g871
ag1122
atRp1151
sbatRp1152
sg105
I00
sbag52
atRp1153
sg15
S'C'
sg89
I0
sg16
I00
sg90
(F228.64619871483458
F261.3663192167171
F-161.31349351825207
tp1154
sg92
(lp1155
sg13
g1
sg94
g8
((ltRp1156
sg96
g8
((lp1157
g900
ag1117
ag1148
a(imodel.Bond
Bond
p1158
(dp1159
g13
g1
sg100
g101
sg24
g25
sg17
g8
((lp1160
g871
ag52
atRp1161
sbatRp1162
sg105
I00
sbatRp1163
sg105
I00
sbsg24
g38
sg50
g8
((lp1164
g880
ag911
ag58
ag1128
atRp1165
sg15
S'C'
sg89
I0
sg16
I00
sg90
(F228.64619871483458
F261.3663192167171
F-161.31349351825207
tp1166
sg92
(lp1167
sg13
g1
sg94
g8
((ltRp1168
sg96
g8
((lp1169
g888
ag1105
a(imodel.Bond
Bond
p1170
(dp1171
g13
g1
sg100
g101
sg24
g38
sg17
g8
((lp1172
g865
ag58
atRp1173
sbag1136
atRp1174
sg105
I00
sbatRp1175
sg15
S'C'
sg89
I0
sg16
I00
sg90
(F238.89435131410562
F312.57454888754745
F-97.672744957497841
tp1176
sg92
(lp1177
sg13
g1
sg94
g8
((ltRp1178
sg96
g8
((lp1179
g860
ag712
a(imodel.Bond
Bond
p1180
(dp1181
g13
g1
sg100
g101
sg24
g38
sg17
g8
((lp1182
g58
ag42
atRp1183
sbag1170
atRp1184
sg105
I00
sbatRp1185
sg105
I00
sbsg24
g25
sg50
g8
((lp1186
g605
ag871
ag48
ag67
atRp1187
sg15
S'C'
sg89
I0
sg16
I00
sg90
(F238.89435131410562
F312.57454888754745
F-97.672744957497841
tp1188
sg92
(lp1189
sg13
g1
sg94
g8
((ltRp1190
sg96
g8
((lp1191
g848
ag728
a(imodel.Bond
Bond
p1192
(dp1193
g13
g1
sg100
g101
sg24
g25
sg17
g8
((lp1194
g52
ag48
atRp1195
sbag1158
atRp1196
sg105
I00
sbatRp1197
sg15
S'H'
sg89
I0
sg16
I00
sg90
(F201.0710403925828
F319.73697478933747
F-109.90125860863051
tp1198
sg92
(lp1199
sg13
g1
sg94
g8
((ltRp1200
sg96
g8
((lp1201
g1192
atRp1202
sg105
I00
sbatRp1203
sg105
I00
sbsg24
g38
sg50
g8
((lp1204
g58
atRp1205
sg15
S'H'
sg89
I0
sg16
I00
sg90
(F201.0710403925828
F319.73697478933747
F-109.90125860863051
tp1206
sg92
(lp1207
sg13
g1
sg94
g8
((ltRp1208
sg96
g8
((lp1209
g1180
atRp1210
sg105
I00
sbag208
ag614
ag337
ag1025
ag743
ag396
ag880
ag1128
ag36
ag239
ag963
ag774
ag660
ag79
atRp1211
sS'C'
g8
((lp1212
g76
ag154
ag611
ag151
ag865
ag172
ag190
ag596
ag58
ag133
atRp1213
sS'P'
g8
((lp1214
g914
atRp1215
sS'O'
g8
((lp1216
g645
ag1022
ag960
ag61
ag928
ag911
atRp1217
sS'N'
g8
((lp1218
g205
ag118
ag187
ag169
ag136
atRp1219
ssg96
g8
((lp1220
g1061
ag591
ag350
ag546
ag751
ag275
ag1170
ag426
ag1180
ag113
ag234
ag999
ag361
ag1051
ag782
ag1095
ag487
ag483
ag702
ag888
ag989
ag332
ag328
ag816
ag860
ag640
ag712
ag936
ag415
ag498
ag716
ag1136
ag550
ag404
ag1105
ag668
ag535
ag826
ag265
atRp1221
sg13
g1
sS'descriptor'
p1222
(S'neutral'
p1223
S'none'
p1224
S'default'
p1225
tp1226
sS'atomDict'
p1227
(dp1228
g10
g396
sg908
g911
sg916
g914
sg148
g151
sg73
g76
sg617
g614
sg1125
g1128
sg242
g239
sg121
g118
sg175
g172
sg771
g774
sg64
g61
sg193
g190
sg925
g928
sg202
g205
sg55
g58
sg1028
g1025
sg868
g865
sg957
g960
sg340
g337
sg966
g963
sg33
g36
sg877
g880
sg166
g169
sg130
g133
sg139
g136
sg211
g208
sg157
g154
sg1019
g1022
sg599
g596
sg657
g660
sg82
g79
sg740
g743
sg184
g187
sg45
g42
sg608
g611
sg648
g645
ssg17
g8
((lp1229
g79
ag151
ag42
ag660
ag743
ag169
ag911
ag914
ag963
ag596
ag58
ag645
ag76
ag172
ag928
ag614
ag208
ag205
ag136
ag774
ag154
ag1128
ag611
ag337
ag1025
ag118
ag865
ag960
ag396
ag239
ag190
ag187
ag133
ag61
ag880
ag36
ag1022
atRp1230
sg94
g8
((lp1231
g321
ag476
atRp1232
sS'polyLink'
p1233
S'none'
p1234
sbsg50
g8
((lp1235
g133
atRp1236
sg15
S'H'
sg89
I0
sg16
I00
sg90
(F436.01258629118388
F382.92151440652788
F13.644041434974911
tp1237
sg92
(lp1238
sg13
g1
sg94
g8
((ltRp1239
sg96
g8
((lp1240
g550
atRp1241
sg105
I00
sbag30
atRp1242
sg105
I00
sbsg24
g25
sg50
g8
((lp1243
g127
atRp1244
sg15
S'H'
sg89
I0
sg16
I00
sg90
(F436.01258629118388
F382.92151440652788
F13.644041434974911
tp1245
sg92
(lp1246
sg13
g1
sg94
g8
((ltRp1247
sg96
g8
((lp1248
g567
atRp1249
sg105
I00
sbag1031
ag85
ag654
ag737
ag19
ag620
ag1122
ag245
ag874
ag48
ag214
ag969
ag768
atRp1250
sS'C'
g8
((lp1251
g178
ag160
ag127
ag871
ag196
ag605
ag145
ag70
ag52
ag602
atRp1252
sS'P'
g8
((lp1253
g919
atRp1254
sS'O'
g8
((lp1255
g67
ag905
ag922
ag954
ag651
ag1016
atRp1256
sS'N'
g8
((lp1257
g199
ag124
ag163
ag142
ag181
atRp1258
ssg96
g8
((lp1259
g563
ag374
ag848
ag1011
ag306
ag1192
ag732
ag1073
ag389
ag680
ag385
ag628
ag949
ag439
ag98
ag567
ag1117
ag578
ag1083
ag465
ag287
ag690
ag838
ag794
ag461
ag222
ag1148
ag253
ag977
ag804
ag1039
ag1158
ag522
ag763
ag310
ag728
ag900
ag511
atRp1260
sg13
g1
sg1222
(g1223
g1224
g1225
tp1261
sg1227
(dp1262
g10
g19
sg1028
g1031
sg916
g919
sg148
g145
sg73
g70
sg617
g620
sg1125
g1122
sg82
g85
sg242
g245
sg121
g124
sg175
g178
sg771
g768
sg64
g67
sg193
g196
sg202
g199
sg966
g969
sg908
g905
sg868
g871
sg957
g954
sg55
g52
sg33
g30
sg877
g874
sg925
g922
sg608
g605
sg139
g142
sg211
g214
sg157
g160
sg1019
g1016
sg599
g602
sg657
g654
sg166
g163
sg740
g737
sg184
g181
sg45
g48
sg130
g127
sg648
g651
ssg17
g8
((lp1263
g874
ag199
ag196
ag922
ag19
ag85
ag48
ag163
ag605
ag969
ag1031
ag768
ag70
ag905
ag245
ag654
ag602
ag871
ag30
ag127
ag142
ag67
ag52
ag651
ag737
ag620
ag954
ag145
ag178
ag1122
ag160
ag124
ag181
ag919
ag214
ag1016
atRp1264
sg94
g8
((lp1265
g296
ag448
atRp1266
sg1233
g1234
sbsg50
g8
((lp1267
g178
atRp1268
sg15
S'H'
sg89
I0
sg16
I00
sg90
(F390.77100681411986
F141.37498002011372
F266.03776327166958
tp1269
sg92
(lp1270
sg13
g1
sg94
g8
((ltRp1271
sg96
g8
((lp1272
g385
atRp1273
sg105
I00
sbag396
atRp1274
sg105
I00
sbag1028
ag916
ag148
ag73
ag1125
ag617
ag82
ag242
ag121
ag175
ag184
ag64
ag193
ag202
ag55
ag908
ag868
ag957
ag340
ag966
ag33
ag877
ag599
ag130
ag139
ag211
ag157
ag1019
ag925
ag657
ag166
ag740
ag771
ag45
ag608
ag648
atRp1275
sS'ccpMolType'
p1276
S'DNA'
p1277
sS'details'
p1278
V
sg1227
(dp1279
g656
g657
sg924
g925
sg1018
g1019
sg956
g957
sg965
g966
sg1027
g1028
sg607
g608
sg72
g73
sg867
g868
sg770
g771
sg1124
g1125
sg616
g617
sg739
g740
sg63
g64
sg129
g130
sg174
g175
sg138
g139
sg192
g193
sg147
g148
sg156
g157
sg876
g877
sS'P'
g916
sg54
g55
sg598
g599
sg183
g184
sg165
g166
sg201
g202
sg81
g82
sg44
g45
sg32
g33
sg120
g121
sg12
g10
sg339
g340
sg907
g908
sg210
g211
sg241
g242
sg647
g648
ssS'keywords'
p1280
g8
((ltRp1281
sg94
g8
((lp1282
g296
ag321
ag476
ag448
atRp1283
sS'variants'
p1284
g8
((lp1285
g38
ag25
atRp1286
sS'defaultVars'
p1287
g8
((ltRp1288
sb.