(imodel.Compound
Compound
p1
(dp2
S'name'
p3
V2'-DEOXYCYTIDINE-5'-MONOPHOSPHATE
p4
sS'isModified'
p5
I01
sS'ccpCode'
p6
VC
sS'atoms'
p7
c__builtin__
set
p8
((lp9
(imodel.Atom
Atom
p10
(dp11
g3
S"H1'"
p12
sS'compound'
p13
g1
sS'baseValences'
p14
I1
sS'element'
p15
S'H'
sS'isVariable'
p16
I00
sS'varAtoms'
p17
g8
((lp18
(imodel.VarAtom
VarAtom
p19
(dp20
g3
g12
sS'isLabile'
p21
I00
sS'chirality'
p22
NsS'atom'
p23
g10
sS'variant'
p24
(imodel.Variant
Variant
p25
(dp26
S'elementDict'
p27
(dp28
S'H'
g8
((lp29
(imodel.VarAtom
VarAtom
p30
(dp31
g3
S"H5''"
p32
sg21
I00
sg22
Nsg23
(imodel.Atom
Atom
p33
(dp34
g3
g32
sg13
g1
sg14
I1
sg15
S'H'
sg16
I00
sg17
g8
((lp35
g30
atRp36
sS'isDeleted'
p37
I00
sbsg24
g25
sS'neighbours'
p38
g8
((lp39
(imodel.VarAtom
VarAtom
p40
(dp41
g3
S"C5'"
p42
sg21
I00
sg22
Nsg23
(imodel.Atom
Atom
p43
(dp44
g3
g42
sg13
g1
sg14
I4
sg15
S'C'
sg16
I00
sg17
g8
((lp45
g40
atRp46
sg37
I00
sbsg24
g25
sg38
g8
((lp47
(imodel.VarAtom
VarAtom
p48
(dp49
g3
S"O5'"
p50
sg21
I00
sg22
Nsg23
(imodel.Atom
Atom
p51
(dp52
g3
g50
sg13
g1
sg14
I2
sg15
S'O'
sg16
I00
sg17
g8
((lp53
g48
atRp54
sg37
I00
sbsg24
g25
sg38
g8
((lp55
g40
a(imodel.VarAtom
VarAtom
p56
(dp57
g3
S'P'
sg21
I00
sg22
Nsg23
(imodel.Atom
Atom
p58
(dp59
g3
S'P'
sg13
g1
sg14
I5
sg15
S'P'
sg16
I00
sg17
g8
((lp60
g56
atRp61
sg37
I00
sbsg24
g25
sg38
g8
((lp62
(imodel.VarAtom
VarAtom
p63
(dp64
g3
S'OP1'
p65
sg21
I00
sg22
Nsg23
(imodel.Atom
Atom
p66
(dp67
g3
g65
sg13
g1
sg14
I2
sg15
S'O'
sg16
I00
sg17
g8
((lp68
g63
atRp69
sg37
I00
sbsg24
g25
sg38
g8
((lp70
g56
atRp71
sg15
S'O'
sS'charge'
p72
I0
sg16
I00
sS'coords'
p73
(F84.973225848821215
F256.79764143730716
F174.81125818141126
tp74
sS'freeValences'
p75
(lp76
sg13
g1
sS'atomGroups'
p77
g8
((ltRp78
sS'bonds'
p79
g8
((lp80
(imodel.Bond
Bond
p81
(dp82
g13
g1
sS'bondType'
p83
S'double'
p84
sg24
g25
sg17
g8
((lp85
g56
ag63
atRp86
sbatRp87
sg37
I00
sba(imodel.VarAtom
VarAtom
p88
(dp89
g3
S'OP3'
p90
sg21
I00
sg22
Nsg23
(imodel.Atom
Atom
p91
(dp92
g3
g90
sg13
g1
sg14
I2
sg15
S'O'
sg16
I00
sg17
g8
((lp93
g88
atRp94
sg37
I00
sbsg24
g25
sg38
g8
((lp95
(imodel.VarAtom
VarAtom
p96
(dp97
g3
S'HOP3'
p98
sg21
I01
sg22
Nsg23
(imodel.Atom
Atom
p99
(dp100
g3
g98
sg13
g1
sg14
I1
sg15
S'H'
sg16
I00
sg17
g8
((lp101
g96
atRp102
sg37
I00
sbsg24
g25
sg38
g8
((lp103
g88
atRp104
sg15
S'H'
sg72
I0
sg16
I00
sg73
(F210.52847091054201
F220.97718107155885
F184.25634123612141
tp105
sg75
(lp106
sg13
g1
sg77
g8
((ltRp107
sg79
g8
((lp108
(imodel.Bond
Bond
p109
(dp110
g13
g1
sg83
S'single'
p111
sg24
g25
sg17
g8
((lp112
g96
ag88
atRp113
sbatRp114
sg37
I00
sbag56
atRp115
sg15
S'O'
sg72
I0
sg16
I00
sg73
(F174.79247853791352
F234.55779815707149
F199.30894918695694
tp116
sg75
(lp117
sg13
g1
sg77
g8
((ltRp118
sg79
g8
((lp119
g109
a(imodel.Bond
Bond
p120
(dp121
g13
g1
sg83
g111
sg24
g25
sg17
g8
((lp122
g56
ag88
atRp123
sbatRp124
sg37
I00
sbag48
a(imodel.VarAtom
VarAtom
p125
(dp126
g3
S'OP2'
p127
sg21
I00
sg22
Nsg23
(imodel.Atom
Atom
p128
(dp129
g3
g127
sg13
g1
sg14
I2
sg15
S'O'
sg16
I00
sg17
g8
((lp130
g125
atRp131
sg37
I00
sbsg24
g25
sg38
g8
((lp132
g56
a(imodel.VarAtom
VarAtom
p133
(dp134
g3
S'HOP2'
p135
sg21
I01
sg22
Nsg23
(imodel.Atom
Atom
p136
(dp137
g3
g135
sg13
g1
sg14
I1
sg15
S'H'
sg16
I00
sg17
g8
((lp138
g133
atRp139
sg37
I00
sbsg24
g25
sg38
g8
((lp140
g125
atRp141
sg15
S'H'
sg72
I0
sg16
I00
sg73
(F134.07244302454467
F169.95530877598139
F126.26566013137479
tp142
sg75
(lp143
sg13
g1
sg77
g8
((ltRp144
sg79
g8
((lp145
(imodel.Bond
Bond
p146
(dp147
g13
g1
sg83
g111
sg24
g25
sg17
g8
((lp148
g133
ag125
atRp149
sbatRp150
sg37
I00
sbatRp151
sg15
S'O'
sg72
I0
sg16
I00
sg73
(F124.87434751389642
F207.00959206380372
F141.1540767252605
tp152
sg75
(lp153
sg13
g1
sg77
g8
((ltRp154
sg79
g8
((lp155
(imodel.Bond
Bond
p156
(dp157
g13
g1
sg83
g111
sg24
g25
sg17
g8
((lp158
g56
ag125
atRp159
sbag146
atRp160
sg37
I00
sbatRp161
sg15
S'P'
sg72
I0
sg16
I00
sg73
(F129.12085492720959
F257.93309615585639
F151.96562646514789
tp162
sg75
(lp163
sg13
g1
sg77
g8
((ltRp164
sg79
g8
((lp165
g120
ag81
a(imodel.Bond
Bond
p166
(dp167
g13
g1
sg83
g111
sg24
g25
sg17
g8
((lp168
g56
ag48
atRp169
sbag156
atRp170
sg37
I00
sbatRp171
sg15
S'O'
sg72
I0
sg16
I00
sg73
(F130.84341916589798
F309.70705423794669
F79.765837413114298
tp172
sg75
(lp173
sg13
g1
sg77
g8
((ltRp174
sg79
g8
((lp175
(imodel.Bond
Bond
p176
(dp177
g13
g1
sg83
g111
sg24
g25
sg17
g8
((lp178
g40
ag48
atRp179
sbag166
atRp180
sg37
I00
sbag30
a(imodel.VarAtom
VarAtom
p181
(dp182
g3
S"H5'"
p183
sg21
I00
sg22
Nsg23
(imodel.Atom
Atom
p184
(dp185
g3
g183
sg13
g1
sg14
I1
sg15
S'H'
sg16
I00
sg17
g8
((lp186
g181
atRp187
sg37
I00
sbsg24
g25
sg38
g8
((lp188
g40
atRp189
sg15
S'H'
sg72
I0
sg16
I00
sg73
(F110.69017470759906
F362.34846519810037
F70.930169623021726
tp190
sg75
(lp191
sg13
g1
sg77
g8
((ltRp192
sg79
g8
((lp193
(imodel.Bond
Bond
p194
(dp195
g13
g1
sg83
g111
sg24
g25
sg17
g8
((lp196
g40
ag181
atRp197
sbatRp198
sg37
I00
sba(imodel.VarAtom
VarAtom
p199
(dp200
g3
S"C4'"
p201
sg21
I00
sg22
S'R'
sg23
(imodel.Atom
Atom
p202
(dp203
g3
g201
sg13
g1
sg14
I4
sg15
S'C'
sg16
I00
sg17
g8
((lp204
g199
atRp205
sg37
I00
sbsg24
g25
sg38
g8
((lp206
(imodel.VarAtom
VarAtom
p207
(dp208
g3
S"H4'"
p209
sg21
I00
sg22
Nsg23
(imodel.Atom
Atom
p210
(dp211
g3
g209
sg13
g1
sg14
I1
sg15
S'H'
sg16
I00
sg17
g8
((lp212
g207
atRp213
sg37
I00
sbsg24
g25
sg38
g8
((lp214
g199
atRp215
sg15
S'H'
sg72
I0
sg16
I00
sg73
(F209.1493040131316
F417.91735854685095
F-5.4932003963750908
tp216
sg75
(lp217
sg13
g1
sg77
g8
((ltRp218
sg79
g8
((lp219
(imodel.Bond
Bond
p220
(dp221
g13
g1
sg83
g111
sg24
g25
sg17
g8
((lp222
g199
ag207
atRp223
sbatRp224
sg37
I00
sbag40
a(imodel.VarAtom
VarAtom
p225
(dp226
g3
S"C3'"
p227
sg21
I00
sg22
S'S'
sg23
(imodel.Atom
Atom
p228
(dp229
g3
g227
sg13
g1
sg14
I4
sg15
S'C'
sg16
I00
sg17
g8
((lp230
g225
atRp231
sg37
I00
sbsg24
g25
sg38
g8
((lp232
(imodel.VarAtom
VarAtom
p233
(dp234
g3
S"O3'"
p235
sg21
I00
sg22
Nsg23
(imodel.Atom
Atom
p236
(dp237
g3
g235
sg13
g1
sg14
I2
sg15
S'O'
sg16
I00
sg17
g8
((lp238
g233
atRp239
sg37
I00
sbsg24
g25
sg38
g8
((lp240
g225
a(imodel.VarAtom
VarAtom
p241
(dp242
g3
S"HO3'"
p243
sg21
I01
sg22
Nsg23
(imodel.Atom
Atom
p244
(dp245
g3
g243
sg13
g1
sg14
I1
sg15
S'H'
sg16
I00
sg17
g8
((lp246
g241
atRp247
sg37
I00
sbsg24
g25
sg38
g8
((lp248
g233
atRp249
sg15
S'H'
sg72
I0
sg16
I00
sg73
(F182.39594129254039
F288.97495391102154
F-124.19604398994547
tp250
sg75
(lp251
sg13
g1
sg77
g8
((ltRp252
sg79
g8
((lp253
(imodel.Bond
Bond
p254
(dp255
g13
g1
sg83
g111
sg24
g25
sg17
g8
((lp256
g233
ag241
atRp257
sbatRp258
sg37
I00
sbatRp259
sg15
S'O'
sg72
I0
sg16
I00
sg73
(F196.15134787486392
F323.13277745670547
F-86.651768288430745
tp260
sg75
(lp261
sg13
g1
sg77
g8
((ltRp262
sg79
g8
((lp263
(imodel.Bond
Bond
p264
(dp265
g13
g1
sg83
g111
sg24
g25
sg17
g8
((lp266
g225
ag233
atRp267
sbag254
atRp268
sg37
I00
sbag199
a(imodel.VarAtom
VarAtom
p269
(dp270
g3
S"H3'"
p271
sg21
I00
sg22
Nsg23
(imodel.Atom
Atom
p272
(dp273
g3
g271
sg13
g1
sg14
I1
sg15
S'H'
sg16
I00
sg17
g8
((lp274
g269
atRp275
sg37
I00
sbsg24
g25
sg38
g8
((lp276
g225
atRp277
sg15
S'H'
sg72
I0
sg16
I00
sg73
(F241.52834593432902
F301.60369139369027
F-44.608119126729449
tp278
sg75
(lp279
sg13
g1
sg77
g8
((ltRp280
sg79
g8
((lp281
(imodel.Bond
Bond
p282
(dp283
g13
g1
sg83
g111
sg24
g25
sg17
g8
((lp284
g225
ag269
atRp285
sbatRp286
sg37
I00
sba(imodel.VarAtom
VarAtom
p287
(dp288
g3
S"C2'"
p289
sg21
I00
sg22
Nsg23
(imodel.Atom
Atom
p290
(dp291
g3
g289
sg13
g1
sg14
I4
sg15
S'C'
sg16
I00
sg17
g8
((lp292
g287
atRp293
sg37
I00
sbsg24
g25
sg38
g8
((lp294
(imodel.VarAtom
VarAtom
p295
(dp296
g3
S"H2''"
p297
sg21
I00
sg22
Nsg23
(imodel.Atom
Atom
p298
(dp299
g3
g297
sg13
g1
sg14
I1
sg15
S'H'
sg16
I00
sg17
g8
((lp300
g295
atRp301
sg37
I00
sbsg24
g25
sg38
g8
((lp302
g287
atRp303
sg15
S'H'
sg72
I0
sg16
I00
sg73
(F291.44936816377856
F291.3976776309928
F-150.41982341037379
tp304
sg75
(lp305
sg13
g1
sg77
g8
((ltRp306
sg79
g8
((lp307
(imodel.Bond
Bond
p308
(dp309
g13
g1
sg83
g111
sg24
g25
sg17
g8
((lp310
g295
ag287
atRp311
sbatRp312
sg37
I00
sba(imodel.VarAtom
VarAtom
p313
(dp314
g3
S"H2'"
p315
sg21
I00
sg22
Nsg23
(imodel.Atom
Atom
p316
(dp317
g3
g315
sg13
g1
sg14
I1
sg15
S'H'
sg16
I00
sg17
g8
((lp318
g313
atRp319
sg37
I00
sbsg24
g25
sg38
g8
((lp320
g287
atRp321
sg15
S'H'
sg72
I0
sg16
I00
sg73
(F329.36308668519706
F317.66461361182229
F-113.48890867383693
tp322
sg75
(lp323
sg13
g1
sg77
g8
((ltRp324
sg79
g8
((lp325
(imodel.Bond
Bond
p326
(dp327
g13
g1
sg83
g111
sg24
g25
sg17
g8
((lp328
g287
ag313
atRp329
sbatRp330
sg37
I00
sbag225
a(imodel.VarAtom
VarAtom
p331
(dp332
g3
S"C1'"
p333
sg21
I00
sg22
S'R'
sg23
(imodel.Atom
Atom
p334
(dp335
g3
g333
sg13
g1
sg14
I4
sg15
S'C'
sg16
I00
sg17
g8
((lp336
g331
atRp337
sg37
I00
sbsg24
g25
sg38
g8
((lp338
g287
a(imodel.VarAtom
VarAtom
p339
(dp340
g3
S'N1'
p341
sg21
I00
sg22
Nsg23
(imodel.Atom
Atom
p342
(dp343
g3
g341
sg13
g1
sg14
I3
sg15
S'N'
sg16
I00
sg17
g8
((lp344
g339
atRp345
sg37
I00
sbsg24
g25
sg38
g8
((lp346
g331
a(imodel.VarAtom
VarAtom
p347
(dp348
g3
S'C6'
p349
sg21
I00
sg22
Nsg23
(imodel.Atom
Atom
p350
(dp351
g3
g349
sg13
g1
sg14
I4
sg15
S'C'
sg16
I00
sg17
g8
((lp352
g347
atRp353
sg37
I00
sbsg24
g25
sg38
g8
((lp354
(imodel.VarAtom
VarAtom
p355
(dp356
g3
S'C5'
p357
sg21
I00
sg22
Nsg23
(imodel.Atom
Atom
p358
(dp359
g3
g357
sg13
g1
sg14
I4
sg15
S'C'
sg16
I00
sg17
g8
((lp360
g355
atRp361
sg37
I00
sbsg24
g25
sg38
g8
((lp362
g347
a(imodel.VarAtom
VarAtom
p363
(dp364
g3
S'C4'
p365
sg21
I00
sg22
Nsg23
(imodel.Atom
Atom
p366
(dp367
g3
g365
sg13
g1
sg14
I4
sg15
S'C'
sg16
I00
sg17
g8
((lp368
g363
atRp369
sg37
I00
sbsg24
g25
sg38
g8
((lp370
g355
a(imodel.VarAtom
VarAtom
p371
(dp372
g3
S'N4'
p373
sg21
I00
sg22
Nsg23
(imodel.Atom
Atom
p374
(dp375
g3
g373
sg13
g1
sg14
I3
sg15
S'N'
sg16
I00
sg17
g8
((lp376
g371
atRp377
sg37
I00
sbsg24
g25
sg38
g8
((lp378
(imodel.VarAtom
VarAtom
p379
(dp380
g3
S'H41'
p381
sg21
I00
sg22
Nsg23
(imodel.Atom
Atom
p382
(dp383
g3
g381
sg13
g1
sg14
I1
sg15
S'H'
sg16
I00
sg17
g8
((lp384
g379
atRp385
sg37
I00
sbsg24
g25
sg38
g8
((lp386
g371
atRp387
sg15
S'H'
sg72
I0
sg16
I00
sg73
(F543.62125863507231
F382.29055937536424
F-54.83495231957729
tp388
sg75
(lp389
sg13
g1
sg77
g8
((ltRp390
sg79
g8
((lp391
(imodel.Bond
Bond
p392
(dp393
g13
g1
sg83
g111
sg24
g25
sg17
g8
((lp394
g379
ag371
atRp395
sbatRp396
sg37
I00
sba(imodel.VarAtom
VarAtom
p397
(dp398
g3
S'H42'
p399
sg21
I00
sg22
Nsg23
(imodel.Atom
Atom
p400
(dp401
g3
g399
sg13
g1
sg14
I1
sg15
S'H'
sg16
I00
sg17
g8
((lp402
g397
atRp403
sg37
I00
sbsg24
g25
sg38
g8
((lp404
g371
atRp405
sg15
S'H'
sg72
I0
sg16
I00
sg73
(F541.20999712101059
F320.37226153002229
F-57.694239129165702
tp406
sg75
(lp407
sg13
g1
sg77
g8
((ltRp408
sg79
g8
((lp409
(imodel.Bond
Bond
p410
(dp411
g13
g1
sg83
g111
sg24
g25
sg17
g8
((lp412
g397
ag371
atRp413
sbatRp414
sg37
I00
sbag363
atRp415
sg15
S'N'
sg72
I0
sg16
I00
sg73
(F520.06693785765071
F352.25175606799291
F-37.785732430660779
tp416
sg75
(lp417
sg13
g1
sg77
g8
((ltRp418
sg79
g8
((lp419
g392
ag410
a(imodel.Bond
Bond
p420
(dp421
g13
g1
sg83
g111
sg24
g25
sg17
g8
((lp422
g363
ag371
atRp423
sbatRp424
sg37
I00
sba(imodel.VarAtom
VarAtom
p425
(dp426
g3
S'N3'
p427
sg21
I00
sg22
Nsg23
(imodel.Atom
Atom
p428
(dp429
g3
g427
sg13
g1
sg14
I3
sg15
S'N'
sg16
I00
sg17
g8
((lp430
g425
atRp431
sg37
I00
sbsg24
g25
sg38
g8
((lp432
g363
a(imodel.VarAtom
VarAtom
p433
(dp434
g3
S'C2'
p435
sg21
I00
sg22
Nsg23
(imodel.Atom
Atom
p436
(dp437
g3
g435
sg13
g1
sg14
I4
sg15
S'C'
sg16
I00
sg17
g8
((lp438
g433
atRp439
sg37
I00
sbsg24
g25
sg38
g8
((lp440
g339
a(imodel.VarAtom
VarAtom
p441
(dp442
g3
S'O2'
p443
sg21
I00
sg22
Nsg23
(imodel.Atom
Atom
p444
(dp445
g3
g443
sg13
g1
sg14
I2
sg15
S'O'
sg16
I00
sg17
g8
((lp446
g441
atRp447
sg37
I00
sbsg24
g25
sg38
g8
((lp448
g433
atRp449
sg15
S'O'
sg72
I0
sg16
I00
sg73
(F380.90605814680663
F447.59913941812675
F-113.06298362322383
tp450
sg75
(lp451
sg13
g1
sg77
g8
((ltRp452
sg79
g8
((lp453
(imodel.Bond
Bond
p454
(dp455
g13
g1
sg83
S'double'
p456
sg24
g25
sg17
g8
((lp457
g433
ag441
atRp458
sbatRp459
sg37
I00
sbag425
atRp460
sg15
S'C'
sg72
I0
sg16
I00
sg73
(F397.8223636833709
F405.00069449166978
F-83.655287465999805
tp461
sg75
(lp462
sg13
g1
sg77
g8
((lp463
(imodel.AtomGroup
AtomGroup
p464
(dp465
S'groupType'
p466
S'aromatic'
p467
sS'subGroups'
p468
g8
((ltRp469
sS'varAtoms'
p470
g8
((lp471
g433
ag425
ag347
ag339
ag363
ag355
atRp472
sS'variant'
p473
g25
sS'compound'
p474
g1
sbatRp475
sg79
g8
((lp476
(imodel.Bond
Bond
p477
(dp478
g13
g1
sg83
g467
sg24
g25
sg17
g8
((lp479
g433
ag339
atRp480
sba(imodel.Bond
Bond
p481
(dp482
g13
g1
sg83
g467
sg24
g25
sg17
g8
((lp483
g433
ag425
atRp484
sbag454
atRp485
sg37
I00
sbatRp486
sg15
S'N'
sg72
I0
sg16
I00
sg73
(F447.32159812121245
F400.69578792801963
F-76.490514861845952
tp487
sg75
(lp488
sg13
g1
sg77
g8
((lp489
g464
atRp490
sg79
g8
((lp491
(imodel.Bond
Bond
p492
(dp493
g13
g1
sg83
g467
sg24
g25
sg17
g8
((lp494
g425
ag363
atRp495
sbag481
atRp496
sg37
I00
sbatRp497
sg15
S'C'
sg72
I0
sg16
I00
sg73
(F469.22314051202932
F355.69946466963552
F-44.534753640148281
tp498
sg75
(lp499
sg13
g1
sg77
g8
((lp500
g464
atRp501
sg79
g8
((lp502
(imodel.Bond
Bond
p503
(dp504
g13
g1
sg83
g467
sg24
g25
sg17
g8
((lp505
g363
ag355
atRp506
sbag492
ag420
atRp507
sg37
I00
sba(imodel.VarAtom
VarAtom
p508
(dp509
g3
S'H5'
p510
sg21
I00
sg22
Nsg23
(imodel.Atom
Atom
p511
(dp512
g3
g510
sg13
g1
sg14
I1
sg15
S'H'
sg16
I00
sg17
g8
((lp513
g508
atRp514
sg37
I00
sbsg24
g25
sg38
g8
((lp515
g355
atRp516
sg15
S'H'
sg72
I0
sg16
I00
sg73
(F458.42768216174784
F280.86038160034332
F1.2763489201723308
tp517
sg75
(lp518
sg13
g1
sg77
g8
((ltRp519
sg79
g8
((lp520
(imodel.Bond
Bond
p521
(dp522
g13
g1
sg83
g111
sg24
g25
sg17
g8
((lp523
g508
ag355
atRp524
sbatRp525
sg37
I00
sbatRp526
sg15
S'C'
sg72
I0
sg16
I00
sg73
(F440.31827811789685
F314.57182651293294
F-21.721751374343583
tp527
sg75
(lp528
sg13
g1
sg77
g8
((lp529
g464
atRp530
sg79
g8
((lp531
(imodel.Bond
Bond
p532
(dp533
g13
g1
sg83
g467
sg24
g25
sg17
g8
((lp534
g347
ag355
atRp535
sbag503
ag521
atRp536
sg37
I00
sba(imodel.VarAtom
VarAtom
p537
(dp538
g3
S'H6'
p539
sg21
I00
sg22
Nsg23
(imodel.Atom
Atom
p540
(dp541
g3
g539
sg13
g1
sg14
I1
sg15
S'H'
sg16
I00
sg17
g8
((lp542
g537
atRp543
sg37
I00
sbsg24
g25
sg38
g8
((lp544
g347
atRp545
sg15
S'H'
sg72
I0
sg16
I00
sg73
(F373.7952067726427
F283.70667787543761
F-7.1612542721661736
tp546
sg75
(lp547
sg13
g1
sg77
g8
((ltRp548
sg79
g8
((lp549
(imodel.Bond
Bond
p550
(dp551
g13
g1
sg83
g111
sg24
g25
sg17
g8
((lp552
g537
ag347
atRp553
sbatRp554
sg37
I00
sbag339
atRp555
sg15
S'C'
sg72
I0
sg16
I00
sg73
(F390.76456551493595
F318.67387948458628
F-27.012213486112614
tp556
sg75
(lp557
sg13
g1
sg77
g8
((lp558
g464
atRp559
sg79
g8
((lp560
g532
ag550
a(imodel.Bond
Bond
p561
(dp562
g13
g1
sg83
g467
sg24
g25
sg17
g8
((lp563
g339
ag347
atRp564
sbatRp565
sg37
I00
sbag433
atRp566
sg15
S'N'
sg72
I0
sg16
I00
sg73
(F368.52540390760538
F364.14939111216398
F-56.98170504875128
tp567
sg75
(lp568
sg13
g1
sg77
g8
((lp569
g464
atRp570
sg79
g8
((lp571
(imodel.Bond
Bond
p572
(dp573
g13
g1
sg83
g111
sg24
g25
sg17
g8
((lp574
g331
ag339
atRp575
sbag477
ag561
atRp576
sg37
I00
sba(imodel.VarAtom
VarAtom
p577
(dp578
g3
S"O4'"
p579
sg21
I00
sg22
Nsg23
(imodel.Atom
Atom
p580
(dp581
g3
g579
sg13
g1
sg14
I2
sg15
S'O'
sg16
I00
sg17
g8
((lp582
g577
atRp583
sg37
I00
sbsg24
g25
sg38
g8
((lp584
g331
ag199
atRp585
sg15
S'O'
sg72
I0
sg16
I00
sg73
(F261.22624294073273
F390.85545569107052
F11.077680611040899
tp586
sg75
(lp587
sg13
g1
sg77
g8
((ltRp588
sg79
g8
((lp589
(imodel.Bond
Bond
p590
(dp591
g13
g1
sg83
g111
sg24
g25
sg17
g8
((lp592
g331
ag577
atRp593
sba(imodel.Bond
Bond
p594
(dp595
g13
g1
sg83
g111
sg24
g25
sg17
g8
((lp596
g577
ag199
atRp597
sbatRp598
sg37
I00
sbag19
atRp599
sg15
S'C'
sg72
I0
sg16
I00
sg73
(F311.07600555919646
F378.51886637100563
F-56.151285247196718
tp600
sg75
(lp601
sg13
g1
sg77
g8
((ltRp602
sg79
g8
((lp603
(imodel.Bond
Bond
p604
(dp605
g13
g1
sg83
g111
sg24
g25
sg17
g8
((lp606
g331
ag287
atRp607
sbag572
a(imodel.Bond
Bond
p608
(dp609
g13
g1
sg83
g111
sg24
g25
sg17
g8
((lp610
g19
ag331
atRp611
sbag590
atRp612
sg37
I00
sbatRp613
sg15
S'C'
sg72
I0
sg16
I00
sg73
(F293.58118892961875
F330.25474086476419
F-98.774491893675503
tp614
sg75
(lp615
sg13
g1
sg77
g8
((ltRp616
sg79
g8
((lp617
g308
ag604
ag326
a(imodel.Bond
Bond
p618
(dp619
g13
g1
sg83
g111
sg24
g25
sg17
g8
((lp620
g225
ag287
atRp621
sbatRp622
sg37
I00
sbatRp623
sg15
S'C'
sg72
I0
sg16
I00
sg73
(F243.26176307945326
F339.57630393098742
F-56.126600109532639
tp624
sg75
(lp625
sg13
g1
sg77
g8
((ltRp626
sg79
g8
((lp627
g264
a(imodel.Bond
Bond
p628
(dp629
g13
g1
sg83
g111
sg24
g25
sg17
g8
((lp630
g225
ag199
atRp631
sbag618
ag282
atRp632
sg37
I00
sbag577
atRp633
sg15
S'C'
sg72
I0
sg16
I00
sg73
(F211.080914367665
F379.52526147078538
F3.9686830990551143
tp634
sg75
(lp635
sg13
g1
sg77
g8
((ltRp636
sg79
g8
((lp637
g220
a(imodel.Bond
Bond
p638
(dp639
g13
g1
sg83
g111
sg24
g25
sg17
g8
((lp640
g40
ag199
atRp641
sbag594
ag628
atRp642
sg37
I00
sbatRp643
sg15
S'C'
sg72
I0
sg16
I00
sg73
(F149.31444644208514
F360.68236457223338
F69.448213226396618
tp644
sg75
(lp645
sg13
g1
sg77
g8
((ltRp646
sg79
g8
((lp647
(imodel.Bond
Bond
p648
(dp649
g13
g1
sg83
g111
sg24
g25
sg17
g8
((lp650
g40
ag30
atRp651
sbag638
ag194
ag176
atRp652
sg37
I00
sbatRp653
sg15
S'H'
sg72
I0
sg16
I00
sg73
(F144.45590572440148
F398.98542011720207
F112.04302493168508
tp654
sg75
(lp655
sg13
g1
sg77
g8
((ltRp656
sg79
g8
((lp657
g648
atRp658
sg37
I00
sbag537
ag397
ag508
ag19
ag313
ag207
ag295
ag96
ag379
ag181
ag133
ag241
ag269
atRp659
sS'C'
g8
((lp660
g355
ag40
ag225
ag199
ag347
ag287
ag331
ag363
ag433
atRp661
sS'P'
g8
((lp662
g56
atRp663
sS'O'
g8
((lp664
g577
ag441
ag88
ag125
ag233
ag63
ag48
atRp665
sS'N'
g8
((lp666
g339
ag425
ag371
atRp667
ssg79
g8
((lp668
g410
ag572
ag618
ag392
ag326
ag561
ag608
ag521
ag109
ag477
ag648
ag628
ag308
ag146
ag81
ag638
ag220
ag503
ag481
ag254
ag420
ag282
ag194
ag590
ag176
ag532
ag594
ag604
ag120
ag550
ag492
ag166
ag454
ag156
ag264
atRp669
sg13
g1
sS'descriptor'
p670
(S'neutral'
p671
S'none'
p672
S'default'
p673
tp674
sS'atomDict'
p675
(dp676
g10
g19
sg99
g96
sg58
g56
sg290
g287
sg244
g241
sg128
g125
sg444
g441
sg43
g40
sg350
g347
sg184
g181
sg374
g371
sg210
g207
sg228
g225
sg334
g331
sg580
g577
sg236
g233
sg382
g379
sg358
g355
sg436
g433
sg428
g425
sg316
g313
sg272
g269
sg366
g363
sg66
g63
sg51
g48
sg136
g133
sg540
g537
sg342
g339
sg298
g295
sg202
g199
sg33
g30
sg91
g88
sg511
g508
sg400
g397
ssg17
g8
((lp677
g425
ag56
ag88
ag199
ag508
ag241
ag379
ag331
ag63
ag40
ag355
ag363
ag125
ag397
ag269
ag207
ag295
ag577
ag433
ag347
ag233
ag537
ag96
ag313
ag371
ag48
ag19
ag30
ag181
ag225
ag287
ag133
ag339
ag441
atRp678
sg77
g8
((lp679
g464
atRp680
sS'polyLink'
p681
S'none'
p682
sbsg38
g8
((lp683
g331
atRp684
sg15
S'H'
sg72
I0
sg16
I00
sg73
(F311.4679087663032
F416.74716765879083
F-78.282895128420222
tp685
sg75
(lp686
sg13
g1
sg77
g8
((ltRp687
sg79
g8
((lp688
g608
atRp689
sg37
I00
sbatRp690
sg37
I00
sbag244
ag444
ag400
ag290
ag128
ag58
ag43
ag350
ag382
ag374
ag298
ag228
ag33
ag334
ag580
ag236
ag316
ag66
ag436
ag428
ag99
ag210
ag358
ag51
ag136
ag184
ag540
ag342
ag202
ag366
ag91
ag272
ag511
atRp691
sS'ccpMolType'
p692
S'DNA'
p693
sS'details'
p694
V
sg675
(dp695
g243
g244
sg65
g66
sg127
g128
sg90
g91
sg98
g99
sg135
g136
sg227
g228
sg333
g334
sg42
g43
sg315
g316
sg443
g444
sg183
g184
sg271
g272
sg297
g298
sg579
g580
sg435
g436
sg349
g350
sg357
g358
sg365
g366
sg32
g33
sS'P'
g58
sg201
g202
sg289
g290
sg341
g342
sg427
g428
sg373
g374
sg12
g10
sg209
g210
sg539
g540
sg510
g511
sg50
g51
sg399
g400
sg381
g382
sg235
g236
ssS'keywords'
p696
g8
((ltRp697
sg77
g8
((lp698
g464
atRp699
sS'variants'
p700
g8
((lp701
g25
atRp702
sS'defaultVars'
p703
g8
((ltRp704
sb.