(imodel.Compound
Compound
p1
(dp2
S'name'
p3
V2'-DEOXYGUANOSINE-5'-MONOPHOSPHATE
p4
sS'isModified'
p5
I01
sS'ccpCode'
p6
VG
sS'atoms'
p7
c__builtin__
set
p8
((lp9
(imodel.Atom
Atom
p10
(dp11
g3
S'H21'
p12
sS'compound'
p13
g1
sS'baseValences'
p14
I1
sS'element'
p15
S'H'
sS'isVariable'
p16
I00
sS'varAtoms'
p17
g8
((lp18
(imodel.VarAtom
VarAtom
p19
(dp20
g3
g12
sS'isLabile'
p21
I00
sS'chirality'
p22
NsS'atom'
p23
g10
sS'variant'
p24
(imodel.Variant
Variant
p25
(dp26
S'elementDict'
p27
(dp28
S'H'
g8
((lp29
(imodel.VarAtom
VarAtom
p30
(dp31
g3
S'H1'
p32
sg21
I00
sg22
Nsg23
(imodel.Atom
Atom
p33
(dp34
g3
g32
sg13
g1
sg14
I1
sg15
S'H'
sg16
I01
sg17
g8
((lp35
(imodel.VarAtom
VarAtom
p36
(dp37
g3
g32
sg21
I00
sg22
Nsg23
g33
sg24
(imodel.Variant
Variant
p38
(dp39
g27
(dp40
S'H'
g8
((lp41
(imodel.VarAtom
VarAtom
p42
(dp43
g3
S'HOP2'
p44
sg21
I01
sg22
Nsg23
(imodel.Atom
Atom
p45
(dp46
g3
g44
sg13
g1
sg14
I1
sg15
S'H'
sg16
I00
sg17
g8
((lp47
g42
a(imodel.VarAtom
VarAtom
p48
(dp49
g3
g44
sg21
I01
sg22
Nsg23
g45
sg24
g25
sS'neighbours'
p50
g8
((lp51
(imodel.VarAtom
VarAtom
p52
(dp53
g3
S'OP2'
p54
sg21
I00
sg22
Nsg23
(imodel.Atom
Atom
p55
(dp56
g3
g54
sg13
g1
sg14
I2
sg15
S'O'
sg16
I00
sg17
g8
((lp57
g52
a(imodel.VarAtom
VarAtom
p58
(dp59
g3
g54
sg21
I00
sg22
Nsg23
g55
sg24
g38
sg50
g8
((lp60
g42
a(imodel.VarAtom
VarAtom
p61
(dp62
g3
S'P'
sg21
I00
sg22
Nsg23
(imodel.Atom
Atom
p63
(dp64
g3
S'P'
sg13
g1
sg14
I5
sg15
S'P'
sg16
I00
sg17
g8
((lp65
(imodel.VarAtom
VarAtom
p66
(dp67
g3
S'P'
sg21
I00
sg22
Nsg23
g63
sg24
g25
sg50
g8
((lp68
(imodel.VarAtom
VarAtom
p69
(dp70
g3
S'OP1'
p71
sg21
I00
sg22
Nsg23
(imodel.Atom
Atom
p72
(dp73
g3
g71
sg13
g1
sg14
I2
sg15
S'O'
sg16
I00
sg17
g8
((lp74
(imodel.VarAtom
VarAtom
p75
(dp76
g3
g71
sg21
I00
sg22
Nsg23
g72
sg24
g38
sg50
g8
((lp77
g61
atRp78
sg15
S'O'
sS'charge'
p79
I0
sg16
I00
sS'coords'
p80
(F155.81456029365452
F102.67174858685468
F79.716145239384474
tp81
sS'freeValences'
p82
(lp83
sg13
g1
sS'atomGroups'
p84
g8
((ltRp85
sS'bonds'
p86
g8
((lp87
(imodel.Bond
Bond
p88
(dp89
g13
g1
sS'bondType'
p90
S'double'
p91
sg24
g38
sg17
g8
((lp92
g75
ag61
atRp93
sbatRp94
sS'isDeleted'
p95
I00
sbag69
atRp96
sg95
I00
sbsg24
g25
sg50
g8
((lp97
g66
atRp98
sg15
S'O'
sg79
I0
sg16
I00
sg80
(F155.81456029365452
F102.67174858685468
F79.716145239384474
tp99
sg82
(lp100
sg13
g1
sg84
g8
((ltRp101
sg86
g8
((lp102
(imodel.Bond
Bond
p103
(dp104
g13
g1
sg90
g91
sg24
g25
sg17
g8
((lp105
g69
ag66
atRp106
sbatRp107
sg95
I00
sba(imodel.VarAtom
VarAtom
p108
(dp109
g3
S'OP3'
p110
sg21
I00
sg22
Nsg23
(imodel.Atom
Atom
p111
(dp112
g3
g110
sg13
g1
sg14
I2
sg15
S'O'
sg16
I00
sg17
g8
((lp113
(imodel.VarAtom
VarAtom
p114
(dp115
g3
g110
sg21
I00
sg22
Nsg23
g111
sg24
g38
sg50
g8
((lp116
g61
a(imodel.VarAtom
VarAtom
p117
(dp118
g3
S'HOP3'
p119
sg21
I01
sg22
Nsg23
(imodel.Atom
Atom
p120
(dp121
g3
g119
sg13
g1
sg14
I1
sg15
S'H'
sg16
I00
sg17
g8
((lp122
g117
a(imodel.VarAtom
VarAtom
p123
(dp124
g3
g119
sg21
I01
sg22
Nsg23
g120
sg24
g25
sg50
g8
((lp125
g108
atRp126
sg15
S'H'
sg79
I0
sg16
I00
sg80
(F288.13170006431437
F105.2873050914357
F33.569846999498985
tp127
sg82
(lp128
sg13
g1
sg84
g8
((ltRp129
sg86
g8
((lp130
(imodel.Bond
Bond
p131
(dp132
g13
g1
sg90
S'single'
p133
sg24
g25
sg17
g8
((lp134
g108
ag123
atRp135
sbatRp136
sg95
I00
sbatRp137
sg95
I00
sbsg24
g38
sg50
g8
((lp138
g114
atRp139
sg15
S'H'
sg79
I0
sg16
I00
sg80
(F288.13170006431437
F105.2873050914357
F33.569846999498985
tp140
sg82
(lp141
sg13
g1
sg84
g8
((ltRp142
sg86
g8
((lp143
(imodel.Bond
Bond
p144
(dp145
g13
g1
sg90
g133
sg24
g38
sg17
g8
((lp146
g114
ag117
atRp147
sbatRp148
sg95
I00
sbatRp149
sg15
S'O'
sg79
I0
sg16
I00
sg80
(F250.33604533629648
F108.25739399067709
F66.511802393982975
tp150
sg82
(lp151
sg13
g1
sg84
g8
((ltRp152
sg86
g8
((lp153
(imodel.Bond
Bond
p154
(dp155
g13
g1
sg90
g133
sg24
g38
sg17
g8
((lp156
g61
ag114
atRp157
sbag144
atRp158
sg95
I00
sbag108
atRp159
sg95
I00
sbsg24
g25
sg50
g8
((lp160
g66
ag123
atRp161
sg15
S'O'
sg79
I0
sg16
I00
sg80
(F250.33604533629648
F108.25739399067709
F66.511802393982975
tp162
sg82
(lp163
sg13
g1
sg84
g8
((ltRp164
sg86
g8
((lp165
(imodel.Bond
Bond
p166
(dp167
g13
g1
sg90
g133
sg24
g25
sg17
g8
((lp168
g66
ag108
atRp169
sbag131
atRp170
sg95
I00
sba(imodel.VarAtom
VarAtom
p171
(dp172
g3
S"O5'"
p173
sg21
I00
sg22
Nsg23
(imodel.Atom
Atom
p174
(dp175
g3
g173
sg13
g1
sg14
I2
sg15
S'O'
sg16
I00
sg17
g8
((lp176
g171
a(imodel.VarAtom
VarAtom
p177
(dp178
g3
g173
sg21
I00
sg22
Nsg23
g174
sg24
g38
sg50
g8
((lp179
g61
a(imodel.VarAtom
VarAtom
p180
(dp181
g3
S"C5'"
p182
sg21
I00
sg22
Nsg23
(imodel.Atom
Atom
p183
(dp184
g3
g182
sg13
g1
sg14
I4
sg15
S'C'
sg16
I00
sg17
g8
((lp185
(imodel.VarAtom
VarAtom
p186
(dp187
g3
g182
sg21
I00
sg22
Nsg23
g183
sg24
g25
sg50
g8
((lp188
(imodel.VarAtom
VarAtom
p189
(dp190
g3
S"H5''"
p191
sg21
I00
sg22
Nsg23
(imodel.Atom
Atom
p192
(dp193
g3
g191
sg13
g1
sg14
I1
sg15
S'H'
sg16
I00
sg17
g8
((lp194
(imodel.VarAtom
VarAtom
p195
(dp196
g3
g191
sg21
I00
sg22
Nsg23
g192
sg24
g38
sg50
g8
((lp197
g180
atRp198
sg15
S'H'
sg79
I0
sg16
I00
sg80
(F243.97001893657637
F227.43194975685307
F65.435351922299773
tp199
sg82
(lp200
sg13
g1
sg84
g8
((ltRp201
sg86
g8
((lp202
(imodel.Bond
Bond
p203
(dp204
g13
g1
sg90
g133
sg24
g38
sg17
g8
((lp205
g180
ag195
atRp206
sbatRp207
sg95
I00
sbag189
atRp208
sg95
I00
sbsg24
g25
sg50
g8
((lp209
g186
atRp210
sg15
S'H'
sg79
I0
sg16
I00
sg80
(F243.97001893657637
F227.43194975685307
F65.435351922299773
tp211
sg82
(lp212
sg13
g1
sg84
g8
((ltRp213
sg86
g8
((lp214
(imodel.Bond
Bond
p215
(dp216
g13
g1
sg90
g133
sg24
g25
sg17
g8
((lp217
g186
ag189
atRp218
sbatRp219
sg95
I00
sba(imodel.VarAtom
VarAtom
p220
(dp221
g3
S"C4'"
p222
sg21
I00
sg22
S'R'
sg23
(imodel.Atom
Atom
p223
(dp224
g3
g222
sg13
g1
sg14
I4
sg15
S'C'
sg16
I00
sg17
g8
((lp225
(imodel.VarAtom
VarAtom
p226
(dp227
g3
g222
sg21
I00
sg22
S'R'
sg23
g223
sg24
g38
sg50
g8
((lp228
(imodel.VarAtom
VarAtom
p229
(dp230
g3
S"H4'"
p231
sg21
I00
sg22
Nsg23
(imodel.Atom
Atom
p232
(dp233
g3
g231
sg13
g1
sg14
I1
sg15
S'H'
sg16
I00
sg17
g8
((lp234
(imodel.VarAtom
VarAtom
p235
(dp236
g3
g231
sg21
I00
sg22
Nsg23
g232
sg24
g25
sg50
g8
((lp237
g220
atRp238
sg15
S'H'
sg79
I0
sg16
I00
sg80
(F156.54827804737471
F231.15140373681425
F-14.625531409152444
tp239
sg82
(lp240
sg13
g1
sg84
g8
((ltRp241
sg86
g8
((lp242
(imodel.Bond
Bond
p243
(dp244
g13
g1
sg90
g133
sg24
g25
sg17
g8
((lp245
g235
ag220
atRp246
sbatRp247
sg95
I00
sbag229
atRp248
sg95
I00
sbsg24
g38
sg50
g8
((lp249
g226
atRp250
sg15
S'H'
sg79
I0
sg16
I00
sg80
(F156.54827804737471
F231.15140373681425
F-14.625531409152444
tp251
sg82
(lp252
sg13
g1
sg84
g8
((ltRp253
sg86
g8
((lp254
(imodel.Bond
Bond
p255
(dp256
g13
g1
sg90
g133
sg24
g38
sg17
g8
((lp257
g229
ag226
atRp258
sbatRp259
sg95
I00
sba(imodel.VarAtom
VarAtom
p260
(dp261
g3
S"O4'"
p262
sg21
I00
sg22
Nsg23
(imodel.Atom
Atom
p263
(dp264
g3
g262
sg13
g1
sg14
I2
sg15
S'O'
sg16
I00
sg17
g8
((lp265
(imodel.VarAtom
VarAtom
p266
(dp267
g3
g262
sg21
I00
sg22
Nsg23
g263
sg24
g25
sg50
g8
((lp268
(imodel.VarAtom
VarAtom
p269
(dp270
g3
S"C1'"
p271
sg21
I00
sg22
S'R'
sg23
(imodel.Atom
Atom
p272
(dp273
g3
g271
sg13
g1
sg14
I4
sg15
S'C'
sg16
I00
sg17
g8
((lp274
(imodel.VarAtom
VarAtom
p275
(dp276
g3
g271
sg21
I00
sg22
S'R'
sg23
g272
sg24
g38
sg50
g8
((lp277
(imodel.VarAtom
VarAtom
p278
(dp279
g3
S'N9'
p280
sg21
I00
sg22
Nsg23
(imodel.Atom
Atom
p281
(dp282
g3
g280
sg13
g1
sg14
I3
sg15
S'N'
sg16
I00
sg17
g8
((lp283
(imodel.VarAtom
VarAtom
p284
(dp285
g3
g280
sg21
I00
sg22
Nsg23
g281
sg24
g25
sg50
g8
((lp286
(imodel.VarAtom
VarAtom
p287
(dp288
g3
S'C8'
p289
sg21
I00
sg22
Nsg23
(imodel.Atom
Atom
p290
(dp291
g3
g289
sg13
g1
sg14
I4
sg15
S'C'
sg16
I00
sg17
g8
((lp292
(imodel.VarAtom
VarAtom
p293
(dp294
g3
g289
sg21
I00
sg22
Nsg23
g290
sg24
g38
sg50
g8
((lp295
g278
a(imodel.VarAtom
VarAtom
p296
(dp297
g3
S'N7'
p298
sg21
I00
sg22
Nsg23
(imodel.Atom
Atom
p299
(dp300
g3
g298
sg13
g1
sg14
I3
sg15
S'N'
sg16
I00
sg17
g8
((lp301
(imodel.VarAtom
VarAtom
p302
(dp303
g3
g298
sg21
I00
sg22
Nsg23
g299
sg24
g25
sg50
g8
((lp304
(imodel.VarAtom
VarAtom
p305
(dp306
g3
S'C5'
p307
sg21
I00
sg22
Nsg23
(imodel.Atom
Atom
p308
(dp309
g3
g307
sg13
g1
sg14
I4
sg15
S'C'
sg16
I00
sg17
g8
((lp310
(imodel.VarAtom
VarAtom
p311
(dp312
g3
g307
sg21
I00
sg22
Nsg23
g308
sg24
g38
sg50
g8
((lp313
g296
a(imodel.VarAtom
VarAtom
p314
(dp315
g3
S'C4'
p316
sg21
I00
sg22
Nsg23
(imodel.Atom
Atom
p317
(dp318
g3
g316
sg13
g1
sg14
I4
sg15
S'C'
sg16
I00
sg17
g8
((lp319
g314
a(imodel.VarAtom
VarAtom
p320
(dp321
g3
g316
sg21
I00
sg22
Nsg23
g317
sg24
g25
sg50
g8
((lp322
g284
ag305
a(imodel.VarAtom
VarAtom
p323
(dp324
g3
S'N3'
p325
sg21
I00
sg22
Nsg23
(imodel.Atom
Atom
p326
(dp327
g3
g325
sg13
g1
sg14
I3
sg15
S'N'
sg16
I00
sg17
g8
((lp328
g323
a(imodel.VarAtom
VarAtom
p329
(dp330
g3
g325
sg21
I00
sg22
Nsg23
g326
sg24
g38
sg50
g8
((lp331
(imodel.VarAtom
VarAtom
p332
(dp333
g3
S'C2'
p334
sg21
I00
sg22
Nsg23
(imodel.Atom
Atom
p335
(dp336
g3
g334
sg13
g1
sg14
I4
sg15
S'C'
sg16
I00
sg17
g8
((lp337
(imodel.VarAtom
VarAtom
p338
(dp339
g3
g334
sg21
I00
sg22
Nsg23
g335
sg24
g25
sg50
g8
((lp340
(imodel.VarAtom
VarAtom
p341
(dp342
g3
S'N1'
p343
sg21
I00
sg22
Nsg23
(imodel.Atom
Atom
p344
(dp345
g3
g343
sg13
g1
sg14
I3
sg15
S'N'
sg16
I00
sg17
g8
((lp346
g341
a(imodel.VarAtom
VarAtom
p347
(dp348
g3
g343
sg21
I00
sg22
Nsg23
g344
sg24
g38
sg50
g8
((lp349
g332
ag36
a(imodel.VarAtom
VarAtom
p350
(dp351
g3
S'C6'
p352
sg21
I00
sg22
Nsg23
(imodel.Atom
Atom
p353
(dp354
g3
g352
sg13
g1
sg14
I4
sg15
S'C'
sg16
I00
sg17
g8
((lp355
(imodel.VarAtom
VarAtom
p356
(dp357
g3
g352
sg21
I00
sg22
Nsg23
g353
sg24
g25
sg50
g8
((lp358
(imodel.VarAtom
VarAtom
p359
(dp360
g3
S'O6'
p361
sg21
I00
sg22
Nsg23
(imodel.Atom
Atom
p362
(dp363
g3
g361
sg13
g1
sg14
I2
sg15
S'O'
sg16
I00
sg17
g8
((lp364
g359
a(imodel.VarAtom
VarAtom
p365
(dp366
g3
g361
sg21
I00
sg22
Nsg23
g362
sg24
g38
sg50
g8
((lp367
g350
atRp368
sg15
S'O'
sg79
I0
sg16
I00
sg80
(F468.54281019611159
F311.8100715129691
F43.640240972267669
tp369
sg82
(lp370
sg13
g1
sg84
g8
((ltRp371
sg86
g8
((lp372
(imodel.Bond
Bond
p373
(dp374
g13
g1
sg90
S'double'
p375
sg24
g38
sg17
g8
((lp376
g350
ag365
atRp377
sbatRp378
sg95
I00
sbatRp379
sg95
I00
sbsg24
g25
sg50
g8
((lp380
g356
atRp381
sg15
S'O'
sg79
I0
sg16
I00
sg80
(F468.54281019611159
F311.8100715129691
F43.640240972267669
tp382
sg82
(lp383
sg13
g1
sg84
g8
((ltRp384
sg86
g8
((lp385
(imodel.Bond
Bond
p386
(dp387
g13
g1
sg90
g375
sg24
g25
sg17
g8
((lp388
g356
ag359
atRp389
sbatRp390
sg95
I00
sbag305
ag341
atRp391
sg15
S'C'
sg79
I0
sg16
I00
sg80
(F434.38578463711895
F338.26214151177675
F20.284452001353593
tp392
sg82
(lp393
sg13
g1
sg84
g8
((lp394
(imodel.AtomGroup
AtomGroup
p395
(dp396
S'groupType'
p397
S'aromatic'
p398
sS'subGroups'
p399
g8
((ltRp400
sS'varAtoms'
p401
g8
((lp402
g305
ag341
ag356
ag323
ag338
ag320
atRp403
sS'variant'
p404
g25
sS'compound'
p405
g1
sbatRp406
sg86
g8
((lp407
g386
a(imodel.Bond
Bond
p408
(dp409
g13
g1
sg90
g398
sg24
g25
sg17
g8
((lp410
g341
ag356
atRp411
sba(imodel.Bond
Bond
p412
(dp413
g13
g1
sg90
g398
sg24
g25
sg17
g8
((lp414
g305
ag356
atRp415
sbatRp416
sg95
I00
sbag350
atRp417
sg95
I00
sbsg24
g38
sg50
g8
((lp418
g365
ag311
ag347
atRp419
sg15
S'C'
sg79
I0
sg16
I00
sg80
(F434.38578463711895
F338.26214151177675
F20.284452001353593
tp420
sg82
(lp421
sg13
g1
sg84
g8
((lp422
(imodel.AtomGroup
AtomGroup
p423
(dp424
g397
g398
sg399
g8
((ltRp425
sg401
g8
((lp426
g347
ag332
ag350
ag311
ag329
ag314
atRp427
sg404
g38
sg405
g1
sbatRp428
sg86
g8
((lp429
g373
a(imodel.Bond
Bond
p430
(dp431
g13
g1
sg90
g398
sg24
g38
sg17
g8
((lp432
g347
ag350
atRp433
sba(imodel.Bond
Bond
p434
(dp435
g13
g1
sg90
g398
sg24
g38
sg17
g8
((lp436
g311
ag350
atRp437
sbatRp438
sg95
I00
sbatRp439
sg15
S'N'
sg79
I0
sg16
I00
sg80
(F441.04604109472984
F387.80892879160524
F26.824372257589999
tp440
sg82
(lp441
sg13
g1
sg84
g8
((lp442
g423
atRp443
sg86
g8
((lp444
(imodel.Bond
Bond
p445
(dp446
g13
g1
sg90
g398
sg24
g38
sg17
g8
((lp447
g347
ag332
atRp448
sbag430
a(imodel.Bond
Bond
p449
(dp450
g13
g1
sg90
g133
sg24
g38
sg17
g8
((lp451
g347
ag36
atRp452
sbatRp453
sg95
I00
sbatRp454
sg95
I00
sbsg24
g25
sg50
g8
((lp455
g338
ag30
ag356
atRp456
sg15
S'N'
sg79
I0
sg16
I00
sg80
(F441.04604109472984
F387.80892879160524
F26.824372257589999
tp457
sg82
(lp458
sg13
g1
sg84
g8
((lp459
g395
atRp460
sg86
g8
((lp461
(imodel.Bond
Bond
p462
(dp463
g13
g1
sg90
g398
sg24
g25
sg17
g8
((lp464
g341
ag338
atRp465
sbag408
a(imodel.Bond
Bond
p466
(dp467
g13
g1
sg90
g133
sg24
g25
sg17
g8
((lp468
g341
ag30
atRp469
sbatRp470
sg95
I00
sba(imodel.VarAtom
VarAtom
p471
(dp472
g3
S'N2'
p473
sg21
I00
sg22
Nsg23
(imodel.Atom
Atom
p474
(dp475
g3
g473
sg13
g1
sg14
I3
sg15
S'N'
sg16
I00
sg17
g8
((lp476
(imodel.VarAtom
VarAtom
p477
(dp478
g3
g473
sg21
I00
sg22
Nsg23
g474
sg24
g38
sg50
g8
((lp479
(imodel.VarAtom
VarAtom
p480
(dp481
g3
g12
sg21
I00
sg22
Nsg23
g10
sg24
g38
sg50
g8
((lp482
g477
atRp483
sg15
S'H'
sg79
I0
sg16
I00
sg80
(F357.13930540471654
F484.4703237004299
F-1.9429509107898664
tp484
sg82
(lp485
sg13
g1
sg84
g8
((ltRp486
sg86
g8
((lp487
(imodel.Bond
Bond
p488
(dp489
g13
g1
sg90
g133
sg24
g38
sg17
g8
((lp490
g477
ag480
atRp491
sbatRp492
sg95
I00
sba(imodel.VarAtom
VarAtom
p493
(dp494
g3
S'H22'
p495
sg21
I00
sg22
Nsg23
(imodel.Atom
Atom
p496
(dp497
g3
g495
sg13
g1
sg14
I1
sg15
S'H'
sg16
I00
sg17
g8
((lp498
(imodel.VarAtom
VarAtom
p499
(dp500
g3
g495
sg21
I00
sg22
Nsg23
g496
sg24
g25
sg50
g8
((lp501
g471
atRp502
sg15
S'H'
sg79
I0
sg16
I00
sg80
(F422.32344693630711
F491.98375213191548
F-6.183342490946095
tp503
sg82
(lp504
sg13
g1
sg84
g8
((ltRp505
sg86
g8
((lp506
(imodel.Bond
Bond
p507
(dp508
g13
g1
sg90
g133
sg24
g25
sg17
g8
((lp509
g499
ag471
atRp510
sbatRp511
sg95
I00
sbag493
atRp512
sg95
I00
sbsg24
g38
sg50
g8
((lp513
g477
atRp514
sg15
S'H'
sg79
I0
sg16
I00
sg80
(F422.32344693630711
F491.98375213191548
F-6.183342490946095
tp515
sg82
(lp516
sg13
g1
sg84
g8
((ltRp517
sg86
g8
((lp518
(imodel.Bond
Bond
p519
(dp520
g13
g1
sg90
g133
sg24
g38
sg17
g8
((lp521
g493
ag477
atRp522
sbatRp523
sg95
I00
sbag332
atRp524
sg15
S'N'
sg79
I0
sg16
I00
sg80
(F392.00416570787377
F468.86521848059914
F14.959380738810472
tp525
sg82
(lp526
sg13
g1
sg84
g8
((ltRp527
sg86
g8
((lp528
g488
a(imodel.Bond
Bond
p529
(dp530
g13
g1
sg90
g133
sg24
g38
sg17
g8
((lp531
g332
ag477
atRp532
sbag519
atRp533
sg95
I00
sbag471
atRp534
sg95
I00
sbsg24
g25
sg50
g8
((lp535
g19
ag338
ag499
atRp536
sg15
S'N'
sg79
I0
sg16
I00
sg80
(F392.00416570787377
F468.86521848059914
F14.959380738810472
tp537
sg82
(lp538
sg13
g1
sg84
g8
((ltRp539
sg86
g8
((lp540
(imodel.Bond
Bond
p541
(dp542
g13
g1
sg90
g133
sg24
g25
sg17
g8
((lp543
g471
ag19
atRp544
sba(imodel.Bond
Bond
p545
(dp546
g13
g1
sg90
g133
sg24
g25
sg17
g8
((lp547
g338
ag471
atRp548
sbag507
atRp549
sg95
I00
sbag323
atRp550
sg15
S'C'
sg79
I0
sg16
I00
sg80
(F400.47998970562128
F417.84014339960441
F5.5453156600080051
tp551
sg82
(lp552
sg13
g1
sg84
g8
((lp553
g395
atRp554
sg86
g8
((lp555
g462
a(imodel.Bond
Bond
p556
(dp557
g13
g1
sg90
g398
sg24
g25
sg17
g8
((lp558
g323
ag338
atRp559
sbag545
atRp560
sg95
I00
sbag332
atRp561
sg95
I00
sbsg24
g38
sg50
g8
((lp562
g347
ag477
ag329
atRp563
sg15
S'C'
sg79
I0
sg16
I00
sg80
(F400.47998970562128
F417.84014339960441
F5.5453156600080051
tp564
sg82
(lp565
sg13
g1
sg84
g8
((lp566
g423
atRp567
sg86
g8
((lp568
g445
a(imodel.Bond
Bond
p569
(dp570
g13
g1
sg90
g398
sg24
g38
sg17
g8
((lp571
g329
ag332
atRp572
sbag529
atRp573
sg95
I00
sbag314
atRp574
sg15
S'N'
sg79
I0
sg16
I00
sg80
(F353.98543298643631
F398.12171456819578
F-21.801962354113364
tp575
sg82
(lp576
sg13
g1
sg84
g8
((lp577
g423
atRp578
sg86
g8
((lp579
g569
a(imodel.Bond
Bond
p580
(dp581
g13
g1
sg90
g398
sg24
g38
sg17
g8
((lp582
g329
ag314
atRp583
sbatRp584
sg95
I00
sbatRp585
sg95
I00
sbsg24
g25
sg50
g8
((lp586
g338
ag320
atRp587
sg15
S'N'
sg79
I0
sg16
I00
sg80
(F353.98543298643631
F398.12171456819578
F-21.801962354113364
tp588
sg82
(lp589
sg13
g1
sg84
g8
((lp590
g395
atRp591
sg86
g8
((lp592
g556
a(imodel.Bond
Bond
p593
(dp594
g13
g1
sg90
g398
sg24
g25
sg17
g8
((lp595
g323
ag320
atRp596
sbatRp597
sg95
I00
sbatRp598
sg15
S'C'
sg79
I0
sg16
I00
sg80
(F347.87702666988616
F347.52554732411733
F-29.72521210302396
tp599
sg82
(lp600
sg13
g1
sg84
g8
((lp601
g395
a(imodel.AtomGroup
AtomGroup
p602
(dp603
g397
g398
sg399
g8
((ltRp604
sg401
g8
((lp605
g305
ag320
ag284
ag302
ag287
atRp606
sg404
g25
sg405
g1
sbatRp607
sg86
g8
((lp608
(imodel.Bond
Bond
p609
(dp610
g13
g1
sg90
g398
sg24
g25
sg17
g8
((lp611
g284
ag320
atRp612
sbag593
a(imodel.Bond
Bond
p613
(dp614
g13
g1
sg90
g398
sg24
g25
sg17
g8
((lp615
g305
ag320
atRp616
sbatRp617
sg95
I00
sbatRp618
sg95
I00
sbsg24
g38
sg50
g8
((lp619
g278
ag311
ag329
atRp620
sg15
S'C'
sg79
I0
sg16
I00
sg80
(F347.87702666988616
F347.52554732411733
F-29.72521210302396
tp621
sg82
(lp622
sg13
g1
sg84
g8
((lp623
g423
a(imodel.AtomGroup
AtomGroup
p624
(dp625
g397
g398
sg399
g8
((ltRp626
sg401
g8
((lp627
g311
ag314
ag278
ag293
ag296
atRp628
sg404
g38
sg405
g1
sbatRp629
sg86
g8
((lp630
(imodel.Bond
Bond
p631
(dp632
g13
g1
sg90
g398
sg24
g38
sg17
g8
((lp633
g278
ag314
atRp634
sbag580
a(imodel.Bond
Bond
p635
(dp636
g13
g1
sg90
g398
sg24
g38
sg17
g8
((lp637
g311
ag314
atRp638
sbatRp639
sg95
I00
sbag350
atRp640
sg15
S'C'
sg79
I0
sg16
I00
sg80
(F387.75682263291657
F318.85096458018535
F-13.513453606602257
tp641
sg82
(lp642
sg13
g1
sg84
g8
((lp643
g423
ag624
atRp644
sg86
g8
((lp645
(imodel.Bond
Bond
p646
(dp647
g13
g1
sg90
g398
sg24
g38
sg17
g8
((lp648
g296
ag311
atRp649
sbag434
ag635
atRp650
sg95
I00
sbag305
atRp651
sg95
I00
sbsg24
g25
sg50
g8
((lp652
g302
ag320
ag356
atRp653
sg15
S'C'
sg79
I0
sg16
I00
sg80
(F387.75682263291657
F318.85096458018535
F-13.513453606602257
tp654
sg82
(lp655
sg13
g1
sg84
g8
((lp656
g395
ag602
atRp657
sg86
g8
((lp658
(imodel.Bond
Bond
p659
(dp660
g13
g1
sg90
g398
sg24
g25
sg17
g8
((lp661
g302
ag305
atRp662
sbag412
ag613
atRp663
sg95
I00
sbag287
a(imodel.VarAtom
VarAtom
p664
(dp665
g3
S'H7'
p666
sg21
I00
sg22
Nsg23
(imodel.Atom
Atom
p667
(dp668
g3
g666
sg13
g1
sg14
I1
sg15
S'H'
sg16
I01
sg17
g8
((lp669
g664
atRp670
sg95
I00
sbsg24
g25
sg50
g8
((lp671
g302
atRp672
sg15
S'H'
sg79
I0
sg16
I01
sg80
(F399.81290094455989
F243.60413342888626
F586.19190472599439
tp673
sg82
(lp674
sg13
g1
sg84
g8
((ltRp675
sg86
g8
((lp676
(imodel.Bond
Bond
p677
(dp678
g13
g1
sg90
g133
sg24
g25
sg17
g8
((lp679
g664
ag302
atRp680
sbatRp681
sg95
I00
sbatRp682
sg15
S'N'
sg79
I0
sg16
I00
sg80
(F374.25648591938722
F271.83210881671658
F-32.437054706248929
tp683
sg82
(lp684
sg13
g1
sg84
g8
((lp685
g602
atRp686
sg86
g8
((lp687
g659
ag677
a(imodel.Bond
Bond
p688
(dp689
g13
g1
sg90
g398
sg24
g25
sg17
g8
((lp690
g302
ag287
atRp691
sbatRp692
sg95
I00
sbag296
atRp693
sg95
I00
sbsg24
g38
sg50
g8
((lp694
g311
ag293
atRp695
sg15
S'N'
sg79
I0
sg16
I00
sg80
(F374.25648591938722
F271.83210881671658
F-32.437054706248929
tp696
sg82
(lp697
sg13
g1
sg84
g8
((lp698
g624
atRp699
sg86
g8
((lp700
g646
a(imodel.Bond
Bond
p701
(dp702
g13
g1
sg90
g398
sg24
g38
sg17
g8
((lp703
g296
ag293
atRp704
sbatRp705
sg95
I00
sba(imodel.VarAtom
VarAtom
p706
(dp707
g3
S'H8'
p708
sg21
I00
sg22
Nsg23
(imodel.Atom
Atom
p709
(dp710
g3
g708
sg13
g1
sg14
I1
sg15
S'H'
sg16
I00
sg17
g8
((lp711
(imodel.VarAtom
VarAtom
p712
(dp713
g3
g708
sg21
I00
sg22
Nsg23
g709
sg24
g25
sg50
g8
((lp714
g287
atRp715
sg15
S'H'
sg79
I0
sg16
I00
sg80
(F302.44155220135895
F233.75870381553841
F-79.308176585128962
tp716
sg82
(lp717
sg13
g1
sg84
g8
((ltRp718
sg86
g8
((lp719
(imodel.Bond
Bond
p720
(dp721
g13
g1
sg90
g133
sg24
g25
sg17
g8
((lp722
g712
ag287
atRp723
sbatRp724
sg95
I00
sbag706
atRp725
sg95
I00
sbsg24
g38
sg50
g8
((lp726
g293
atRp727
sg15
S'H'
sg79
I0
sg16
I00
sg80
(F302.44155220135895
F233.75870381553841
F-79.308176585128962
tp728
sg82
(lp729
sg13
g1
sg84
g8
((ltRp730
sg86
g8
((lp731
(imodel.Bond
Bond
p732
(dp733
g13
g1
sg90
g133
sg24
g38
sg17
g8
((lp734
g706
ag293
atRp735
sbatRp736
sg95
I00
sbatRp737
sg15
S'C'
sg79
I0
sg16
I00
sg80
(F324.42099413328469
F267.96079782142931
F-60.831626559735341
tp738
sg82
(lp739
sg13
g1
sg84
g8
((lp740
g624
atRp741
sg86
g8
((lp742
(imodel.Bond
Bond
p743
(dp744
g13
g1
sg90
g398
sg24
g38
sg17
g8
((lp745
g278
ag293
atRp746
sbag732
ag701
atRp747
sg95
I00
sbag287
atRp748
sg95
I00
sbsg24
g25
sg50
g8
((lp749
g284
ag712
ag302
atRp750
sg15
S'C'
sg79
I0
sg16
I00
sg80
(F324.42099413328469
F267.96079782142931
F-60.831626559735341
tp751
sg82
(lp752
sg13
g1
sg84
g8
((lp753
g602
atRp754
sg86
g8
((lp755
(imodel.Bond
Bond
p756
(dp757
g13
g1
sg90
g398
sg24
g25
sg17
g8
((lp758
g284
ag287
atRp759
sbag720
ag688
atRp760
sg95
I00
sbag320
ag269
atRp761
sg15
S'N'
sg79
I0
sg16
I00
sg80
(F304.97289448685638
F314.19689857030357
F-61.294603462782568
tp762
sg82
(lp763
sg13
g1
sg84
g8
((lp764
g602
atRp765
sg86
g8
((lp766
g756
ag609
a(imodel.Bond
Bond
p767
(dp768
g13
g1
sg90
g133
sg24
g25
sg17
g8
((lp769
g269
ag284
atRp770
sbatRp771
sg95
I00
sbag278
atRp772
sg95
I00
sbsg24
g38
sg50
g8
((lp773
g293
ag275
ag314
atRp774
sg15
S'N'
sg79
I0
sg16
I00
sg80
(F304.97289448685638
F314.19689857030357
F-61.294603462782568
tp775
sg82
(lp776
sg13
g1
sg84
g8
((lp777
g624
atRp778
sg86
g8
((lp779
g743
ag631
a(imodel.Bond
Bond
p780
(dp781
g13
g1
sg90
g133
sg24
g38
sg17
g8
((lp782
g275
ag278
atRp783
sbatRp784
sg95
I00
sba(imodel.VarAtom
VarAtom
p785
(dp786
g3
S"C2'"
p787
sg21
I00
sg22
Nsg23
(imodel.Atom
Atom
p788
(dp789
g3
g787
sg13
g1
sg14
I4
sg15
S'C'
sg16
I00
sg17
g8
((lp790
(imodel.VarAtom
VarAtom
p791
(dp792
g3
g787
sg21
I00
sg22
Nsg23
g788
sg24
g25
sg50
g8
((lp793
g269
a(imodel.VarAtom
VarAtom
p794
(dp795
g3
S"H2'"
p796
sg21
I00
sg22
Nsg23
(imodel.Atom
Atom
p797
(dp798
g3
g796
sg13
g1
sg14
I1
sg15
S'H'
sg16
I00
sg17
g8
((lp799
g794
a(imodel.VarAtom
VarAtom
p800
(dp801
g3
g796
sg21
I00
sg22
Nsg23
g797
sg24
g38
sg50
g8
((lp802
g785
atRp803
sg15
S'H'
sg79
I0
sg16
I00
sg80
(F175.03469371594457
F365.91814345714965
F-135.6474341091162
tp804
sg82
(lp805
sg13
g1
sg84
g8
((ltRp806
sg86
g8
((lp807
(imodel.Bond
Bond
p808
(dp809
g13
g1
sg90
g133
sg24
g38
sg17
g8
((lp810
g785
ag800
atRp811
sbatRp812
sg95
I00
sbatRp813
sg95
I00
sbsg24
g25
sg50
g8
((lp814
g791
atRp815
sg15
S'H'
sg79
I0
sg16
I00
sg80
(F175.03469371594457
F365.91814345714965
F-135.6474341091162
tp816
sg82
(lp817
sg13
g1
sg84
g8
((ltRp818
sg86
g8
((lp819
(imodel.Bond
Bond
p820
(dp821
g13
g1
sg90
g133
sg24
g25
sg17
g8
((lp822
g791
ag794
atRp823
sbatRp824
sg95
I00
sba(imodel.VarAtom
VarAtom
p825
(dp826
g3
S"C3'"
p827
sg21
I00
sg22
S'S'
sg23
(imodel.Atom
Atom
p828
(dp829
g3
g827
sg13
g1
sg14
I4
sg15
S'C'
sg16
I00
sg17
g8
((lp830
(imodel.VarAtom
VarAtom
p831
(dp832
g3
g827
sg21
I00
sg22
S'S'
sg23
g828
sg24
g38
sg50
g8
((lp833
g785
a(imodel.VarAtom
VarAtom
p834
(dp835
g3
S"O3'"
p836
sg21
I00
sg22
Nsg23
(imodel.Atom
Atom
p837
(dp838
g3
g836
sg13
g1
sg14
I2
sg15
S'O'
sg16
I00
sg17
g8
((lp839
g834
a(imodel.VarAtom
VarAtom
p840
(dp841
g3
g836
sg21
I00
sg22
Nsg23
g837
sg24
g25
sg50
g8
((lp842
(imodel.VarAtom
VarAtom
p843
(dp844
g3
S"HO3'"
p845
sg21
I01
sg22
Nsg23
(imodel.Atom
Atom
p846
(dp847
g3
g845
sg13
g1
sg14
I1
sg15
S'H'
sg16
I00
sg17
g8
((lp848
(imodel.VarAtom
VarAtom
p849
(dp850
g3
g845
sg21
I01
sg22
Nsg23
g846
sg24
g38
sg50
g8
((lp851
g834
atRp852
sg15
S'H'
sg79
I0
sg16
I00
sg80
(F92.265562600775652
F349.15814660294905
F-179.70493756732054
tp853
sg82
(lp854
sg13
g1
sg84
g8
((ltRp855
sg86
g8
((lp856
(imodel.Bond
Bond
p857
(dp858
g13
g1
sg90
g133
sg24
g38
sg17
g8
((lp859
g849
ag834
atRp860
sbatRp861
sg95
I00
sbag843
atRp862
sg95
I00
sbsg24
g25
sg50
g8
((lp863
g840
atRp864
sg15
S'H'
sg79
I0
sg16
I00
sg80
(F92.265562600775652
F349.15814660294905
F-179.70493756732054
tp865
sg82
(lp866
sg13
g1
sg84
g8
((ltRp867
sg86
g8
((lp868
(imodel.Bond
Bond
p869
(dp870
g13
g1
sg90
g133
sg24
g25
sg17
g8
((lp871
g843
ag840
atRp872
sbatRp873
sg95
I00
sbag825
atRp874
sg15
S'O'
sg79
I0
sg16
I00
sg80
(F125.51360526548781
F330.58533003671948
F-132.38897969808946
tp875
sg82
(lp876
sg13
g1
sg84
g8
((ltRp877
sg86
g8
((lp878
g869
a(imodel.Bond
Bond
p879
(dp880
g13
g1
sg90
g133
sg24
g25
sg17
g8
((lp881
g825
ag840
atRp882
sbatRp883
sg95
I00
sbatRp884
sg95
I00
sbsg24
g38
sg50
g8
((lp885
g849
ag831
atRp886
sg15
S'O'
sg79
I0
sg16
I00
sg80
(F125.51360526548781
F330.58533003671948
F-132.38897969808946
tp887
sg82
(lp888
sg13
g1
sg84
g8
((ltRp889
sg86
g8
((lp890
g857
a(imodel.Bond
Bond
p891
(dp892
g13
g1
sg90
g133
sg24
g38
sg17
g8
((lp893
g831
ag834
atRp894
sbatRp895
sg95
I00
sbag226
a(imodel.VarAtom
VarAtom
p896
(dp897
g3
S"H3'"
p898
sg21
I00
sg22
Nsg23
(imodel.Atom
Atom
p899
(dp900
g3
g898
sg13
g1
sg14
I1
sg15
S'H'
sg16
I00
sg17
g8
((lp901
(imodel.VarAtom
VarAtom
p902
(dp903
g3
g898
sg21
I00
sg22
Nsg23
g899
sg24
g25
sg50
g8
((lp904
g825
atRp905
sg15
S'H'
sg79
I0
sg16
I00
sg80
(F134.42566282565551
F281.53616721160336
F-122.03513864773559
tp906
sg82
(lp907
sg13
g1
sg84
g8
((ltRp908
sg86
g8
((lp909
(imodel.Bond
Bond
p910
(dp911
g13
g1
sg90
g133
sg24
g25
sg17
g8
((lp912
g825
ag902
atRp913
sbatRp914
sg95
I00
sbag896
atRp915
sg95
I00
sbsg24
g38
sg50
g8
((lp916
g831
atRp917
sg15
S'H'
sg79
I0
sg16
I00
sg80
(F134.42566282565551
F281.53616721160336
F-122.03513864773559
tp918
sg82
(lp919
sg13
g1
sg84
g8
((ltRp920
sg86
g8
((lp921
(imodel.Bond
Bond
p922
(dp923
g13
g1
sg90
g133
sg24
g38
sg17
g8
((lp924
g831
ag896
atRp925
sbatRp926
sg95
I00
sbatRp927
sg15
S'C'
sg79
I0
sg16
I00
sg80
(F167.58656005252314
F301.10308439693443
F-107.09189575080343
tp928
sg82
(lp929
sg13
g1
sg84
g8
((ltRp930
sg86
g8
((lp931
(imodel.Bond
Bond
p932
(dp933
g13
g1
sg90
g133
sg24
g38
sg17
g8
((lp934
g226
ag831
atRp935
sbag922
a(imodel.Bond
Bond
p936
(dp937
g13
g1
sg90
g133
sg24
g38
sg17
g8
((lp938
g785
ag831
atRp939
sbag891
atRp940
sg95
I00
sbag825
atRp941
sg95
I00
sbsg24
g25
sg50
g8
((lp942
g220
ag840
ag902
ag791
atRp943
sg15
S'C'
sg79
I0
sg16
I00
sg80
(F167.58656005252314
F301.10308439693443
F-107.09189575080343
tp944
sg82
(lp945
sg13
g1
sg84
g8
((ltRp946
sg86
g8
((lp947
(imodel.Bond
Bond
p948
(dp949
g13
g1
sg90
g133
sg24
g25
sg17
g8
((lp950
g220
ag825
atRp951
sbag910
ag879
a(imodel.Bond
Bond
p952
(dp953
g13
g1
sg90
g133
sg24
g25
sg17
g8
((lp954
g791
ag825
atRp955
sbatRp956
sg95
I00
sba(imodel.VarAtom
VarAtom
p957
(dp958
g3
S"H2''"
p959
sg21
I00
sg22
Nsg23
(imodel.Atom
Atom
p960
(dp961
g3
g959
sg13
g1
sg14
I1
sg15
S'H'
sg16
I00
sg17
g8
((lp962
(imodel.VarAtom
VarAtom
p963
(dp964
g3
g959
sg21
I00
sg22
Nsg23
g960
sg24
g38
sg50
g8
((lp965
g785
atRp966
sg15
S'H'
sg79
I0
sg16
I00
sg80
(F218.34989534841358
F377.2958520987205
F-182.94204630542529
tp967
sg82
(lp968
sg13
g1
sg84
g8
((ltRp969
sg86
g8
((lp970
(imodel.Bond
Bond
p971
(dp972
g13
g1
sg90
g133
sg24
g38
sg17
g8
((lp973
g963
ag785
atRp974
sbatRp975
sg95
I00
sbag957
atRp976
sg95
I00
sbsg24
g25
sg50
g8
((lp977
g791
atRp978
sg15
S'H'
sg79
I0
sg16
I00
sg80
(F218.34989534841358
F377.2958520987205
F-182.94204630542529
tp979
sg82
(lp980
sg13
g1
sg84
g8
((ltRp981
sg86
g8
((lp982
(imodel.Bond
Bond
p983
(dp984
g13
g1
sg90
g133
sg24
g25
sg17
g8
((lp985
g957
ag791
atRp986
sbatRp987
sg95
I00
sbatRp988
sg15
S'C'
sg79
I0
sg16
I00
sg80
(F204.68309197365517
F340.91681632450172
F-128.84739001998568
tp989
sg82
(lp990
sg13
g1
sg84
g8
((ltRp991
sg86
g8
((lp992
g820
a(imodel.Bond
Bond
p993
(dp994
g13
g1
sg90
g133
sg24
g25
sg17
g8
((lp995
g269
ag791
atRp996
sbag983
ag952
atRp997
sg95
I00
sbag785
atRp998
sg95
I00
sbsg24
g38
sg50
g8
((lp999
g831
ag800
ag275
ag963
atRp1000
sg15
S'C'
sg79
I0
sg16
I00
sg80
(F204.68309197365517
F340.91681632450172
F-128.84739001998568
tp1001
sg82
(lp1002
sg13
g1
sg84
g8
((ltRp1003
sg86
g8
((lp1004
g808
a(imodel.Bond
Bond
p1005
(dp1006
g13
g1
sg90
g133
sg24
g38
sg17
g8
((lp1007
g275
ag785
atRp1008
sbag936
ag971
atRp1009
sg95
I00
sba(imodel.VarAtom
VarAtom
p1010
(dp1011
g3
S"H1'"
p1012
sg21
I00
sg22
Nsg23
(imodel.Atom
Atom
p1013
(dp1014
g3
g1012
sg13
g1
sg14
I1
sg15
S'H'
sg16
I00
sg17
g8
((lp1015
g1010
a(imodel.VarAtom
VarAtom
p1016
(dp1017
g3
g1012
sg21
I00
sg22
Nsg23
g1013
sg24
g25
sg50
g8
((lp1018
g269
atRp1019
sg15
S'H'
sg79
I0
sg16
I00
sg80
(F272.71501260667856
F360.44696320059427
F-104.167497854318
tp1020
sg82
(lp1021
sg13
g1
sg84
g8
((ltRp1022
sg86
g8
((lp1023
(imodel.Bond
Bond
p1024
(dp1025
g13
g1
sg90
g133
sg24
g25
sg17
g8
((lp1026
g269
ag1016
atRp1027
sbatRp1028
sg95
I00
sbatRp1029
sg95
I00
sbsg24
g38
sg50
g8
((lp1030
g275
atRp1031
sg15
S'H'
sg79
I0
sg16
I00
sg80
(F272.71501260667856
F360.44696320059427
F-104.167497854318
tp1032
sg82
(lp1033
sg13
g1
sg84
g8
((ltRp1034
sg86
g8
((lp1035
(imodel.Bond
Bond
p1036
(dp1037
g13
g1
sg90
g133
sg24
g38
sg17
g8
((lp1038
g275
ag1010
atRp1039
sbatRp1040
sg95
I00
sbag260
atRp1041
sg15
S'C'
sg79
I0
sg16
I00
sg80
(F254.79631414163771
F326.6524032439072
F-79.84159329548433
tp1042
sg82
(lp1043
sg13
g1
sg84
g8
((ltRp1044
sg86
g8
((lp1045
g1036
ag1005
ag780
a(imodel.Bond
Bond
p1046
(dp1047
g13
g1
sg90
g133
sg24
g38
sg17
g8
((lp1048
g275
ag260
atRp1049
sbatRp1050
sg95
I00
sbag269
atRp1051
sg95
I00
sbsg24
g25
sg50
g8
((lp1052
g284
ag1016
ag791
ag266
atRp1053
sg15
S'C'
sg79
I0
sg16
I00
sg80
(F254.79631414163771
F326.6524032439072
F-79.84159329548433
tp1054
sg82
(lp1055
sg13
g1
sg84
g8
((ltRp1056
sg86
g8
((lp1057
g1024
ag993
a(imodel.Bond
Bond
p1058
(dp1059
g13
g1
sg90
g133
sg24
g25
sg17
g8
((lp1060
g269
ag266
atRp1061
sbag767
atRp1062
sg95
I00
sbag220
atRp1063
sg15
S'O'
sg79
I0
sg16
I00
sg80
(F229.50842188254487
F282.81782261881705
F-20.707509884135494
tp1064
sg82
(lp1065
sg13
g1
sg84
g8
((ltRp1066
sg86
g8
((lp1067
g1058
a(imodel.Bond
Bond
p1068
(dp1069
g13
g1
sg90
g133
sg24
g25
sg17
g8
((lp1070
g266
ag220
atRp1071
sbatRp1072
sg95
I00
sbag260
atRp1073
sg95
I00
sbsg24
g38
sg50
g8
((lp1074
g275
ag226
atRp1075
sg15
S'O'
sg79
I0
sg16
I00
sg80
(F229.50842188254487
F282.81782261881705
F-20.707509884135494
tp1076
sg82
(lp1077
sg13
g1
sg84
g8
((ltRp1078
sg86
g8
((lp1079
g1046
a(imodel.Bond
Bond
p1080
(dp1081
g13
g1
sg90
g133
sg24
g38
sg17
g8
((lp1082
g260
ag226
atRp1083
sbatRp1084
sg95
I00
sbag831
ag180
atRp1085
sg15
S'C'
sg79
I0
sg16
I00
sg80
(F188.05706218284411
F253.40575060478903
F-30.528095280594883
tp1086
sg82
(lp1087
sg13
g1
sg84
g8
((ltRp1088
sg86
g8
((lp1089
g255
ag932
ag1080
a(imodel.Bond
Bond
p1090
(dp1091
g13
g1
sg90
g133
sg24
g38
sg17
g8
((lp1092
g226
ag180
atRp1093
sbatRp1094
sg95
I00
sbag220
atRp1095
sg95
I00
sbsg24
g25
sg50
g8
((lp1096
g235
ag266
ag825
ag186
atRp1097
sg15
S'C'
sg79
I0
sg16
I00
sg80
(F188.05706218284411
F253.40575060478903
F-30.528095280594883
tp1098
sg82
(lp1099
sg13
g1
sg84
g8
((ltRp1100
sg86
g8
((lp1101
g243
ag948
a(imodel.Bond
Bond
p1102
(dp1103
g13
g1
sg90
g133
sg24
g25
sg17
g8
((lp1104
g220
ag186
atRp1105
sbag1068
atRp1106
sg95
I00
sbag171
a(imodel.VarAtom
VarAtom
p1107
(dp1108
g3
S"H5'"
p1109
sg21
I00
sg22
Nsg23
(imodel.Atom
Atom
p1110
(dp1111
g3
g1109
sg13
g1
sg14
I1
sg15
S'H'
sg16
I00
sg17
g8
((lp1112
(imodel.VarAtom
VarAtom
p1113
(dp1114
g3
g1109
sg21
I00
sg22
Nsg23
g1110
sg24
g38
sg50
g8
((lp1115
g180
atRp1116
sg15
S'H'
sg79
I0
sg16
I00
sg80
(F240.44956974324467
F181.73385472657395
F18.311067126527281
tp1117
sg82
(lp1118
sg13
g1
sg84
g8
((ltRp1119
sg86
g8
((lp1120
(imodel.Bond
Bond
p1121
(dp1122
g13
g1
sg90
g133
sg24
g38
sg17
g8
((lp1123
g180
ag1113
atRp1124
sbatRp1125
sg95
I00
sbag1107
atRp1126
sg95
I00
sbsg24
g25
sg50
g8
((lp1127
g186
atRp1128
sg15
S'H'
sg79
I0
sg16
I00
sg80
(F240.44956974324467
F181.73385472657395
F18.311067126527281
tp1129
sg82
(lp1130
sg13
g1
sg84
g8
((ltRp1131
sg86
g8
((lp1132
(imodel.Bond
Bond
p1133
(dp1134
g13
g1
sg90
g133
sg24
g25
sg17
g8
((lp1135
g186
ag1107
atRp1136
sbatRp1137
sg95
I00
sbatRp1138
sg15
S'C'
sg79
I0
sg16
I00
sg80
(F211.58842482134941
F207.16846231916622
F10.638644878221848
tp1139
sg82
(lp1140
sg13
g1
sg84
g8
((ltRp1141
sg86
g8
((lp1142
g215
ag1133
a(imodel.Bond
Bond
p1143
(dp1144
g13
g1
sg90
g133
sg24
g25
sg17
g8
((lp1145
g186
ag171
atRp1146
sbag1102
atRp1147
sg95
I00
sbag180
atRp1148
sg95
I00
sbsg24
g38
sg50
g8
((lp1149
g1113
ag195
ag226
ag177
atRp1150
sg15
S'C'
sg79
I0
sg16
I00
sg80
(F211.58842482134941
F207.16846231916622
F10.638644878221848
tp1151
sg82
(lp1152
sg13
g1
sg84
g8
((ltRp1153
sg86
g8
((lp1154
g203
ag1121
a(imodel.Bond
Bond
p1155
(dp1156
g13
g1
sg90
g133
sg24
g38
sg17
g8
((lp1157
g180
ag177
atRp1158
sbag1090
atRp1159
sg95
I00
sbatRp1160
sg15
S'O'
sg79
I0
sg16
I00
sg80
(F192.41242839403259
F159.58564162784342
F-18.287945371538161
tp1161
sg82
(lp1162
sg13
g1
sg84
g8
((ltRp1163
sg86
g8
((lp1164
(imodel.Bond
Bond
p1165
(dp1166
g13
g1
sg90
g133
sg24
g38
sg17
g8
((lp1167
g61
ag177
atRp1168
sbag1155
atRp1169
sg95
I00
sbatRp1170
sg95
I00
sbsg24
g25
sg50
g8
((lp1171
g66
ag186
atRp1172
sg15
S'O'
sg79
I0
sg16
I00
sg80
(F192.41242839403259
F159.58564162784342
F-18.287945371538161
tp1173
sg82
(lp1174
sg13
g1
sg84
g8
((ltRp1175
sg86
g8
((lp1176
(imodel.Bond
Bond
p1177
(dp1178
g13
g1
sg90
g133
sg24
g25
sg17
g8
((lp1179
g66
ag171
atRp1180
sbag1143
atRp1181
sg95
I00
sbag52
atRp1182
sg15
S'P'
sg79
I0
sg16
I00
sg80
(F199.47144646009622
F109.13626043533377
F30.11396634335717
tp1183
sg82
(lp1184
sg13
g1
sg84
g8
((ltRp1185
sg86
g8
((lp1186
g103
ag166
ag1177
a(imodel.Bond
Bond
p1187
(dp1188
g13
g1
sg90
g133
sg24
g25
sg17
g8
((lp1189
g52
ag66
atRp1190
sbatRp1191
sg95
I00
sbag61
atRp1192
sg95
I00
sbsg24
g38
sg50
g8
((lp1193
g114
ag58
ag75
ag177
atRp1194
sg15
S'P'
sg79
I0
sg16
I00
sg80
(F199.47144646009622
F109.13626043533377
F30.11396634335717
tp1195
sg82
(lp1196
sg13
g1
sg84
g8
((ltRp1197
sg86
g8
((lp1198
g88
ag154
ag1165
a(imodel.Bond
Bond
p1199
(dp1200
g13
g1
sg90
g133
sg24
g38
sg17
g8
((lp1201
g58
ag61
atRp1202
sbatRp1203
sg95
I00
sbatRp1204
sg15
S'O'
sg79
I0
sg16
I00
sg80
(F204.277300380822
F58.617160524113366
F-17.306118696747127
tp1205
sg82
(lp1206
sg13
g1
sg84
g8
((ltRp1207
sg86
g8
((lp1208
(imodel.Bond
Bond
p1209
(dp1210
g13
g1
sg90
g133
sg24
g38
sg17
g8
((lp1211
g58
ag42
atRp1212
sbag1199
atRp1213
sg95
I00
sbatRp1214
sg95
I00
sbsg24
g25
sg50
g8
((lp1215
g48
ag66
atRp1216
sg15
S'O'
sg79
I0
sg16
I00
sg80
(F204.277300380822
F58.617160524113366
F-17.306118696747127
tp1217
sg82
(lp1218
sg13
g1
sg84
g8
((ltRp1219
sg86
g8
((lp1220
(imodel.Bond
Bond
p1221
(dp1222
g13
g1
sg90
g133
sg24
g25
sg17
g8
((lp1223
g52
ag48
atRp1224
sbag1187
atRp1225
sg95
I00
sbatRp1226
sg15
S'H'
sg79
I0
sg16
I00
sg80
(F217.03820092552868
F23.006167625775909
F-49.364985832439956
tp1227
sg82
(lp1228
sg13
g1
sg84
g8
((ltRp1229
sg86
g8
((lp1230
g1221
atRp1231
sg95
I00
sbatRp1232
sg95
I00
sbsg24
g38
sg50
g8
((lp1233
g58
atRp1234
sg15
S'H'
sg79
I0
sg16
I00
sg80
(F217.03820092552868
F23.006167625775909
F-49.364985832439956
tp1235
sg82
(lp1236
sg13
g1
sg84
g8
((ltRp1237
sg86
g8
((lp1238
g1209
atRp1239
sg95
I00
sbag229
ag706
ag849
ag117
ag963
ag195
ag896
ag493
ag1010
ag36
ag1113
ag480
ag800
atRp1240
sS'C'
g8
((lp1241
g226
ag311
ag275
ag314
ag785
ag180
ag332
ag293
ag350
ag831
atRp1242
sS'N'
g8
((lp1243
g296
ag278
ag329
ag347
ag477
atRp1244
sS'O'
g8
((lp1245
g365
ag75
ag114
ag58
ag834
ag260
ag177
atRp1246
sS'P'
g8
((lp1247
g61
atRp1248
ssg86
g8
((lp1249
g203
ag144
ag936
ag529
ag646
ag430
ag1080
ag932
ag569
ag1209
ag1036
ag449
ag743
ag434
ag631
ag701
ag519
ag780
ag445
ag1199
ag1046
ag971
ag1155
ag255
ag922
ag580
ag732
ag857
ag154
ag635
ag808
ag488
ag1090
ag1121
ag373
ag891
ag1005
ag1165
ag88
atRp1250
sg13
g1
sS'descriptor'
p1251
(S'neutral'
p1252
S'none'
p1253
S'default'
p1254
tp1255
sS'atomDict'
p1256
(dp1257
g10
g480
sg474
g477
sg353
g350
sg174
g177
sg192
g195
sg120
g117
sg281
g278
sg290
g293
sg111
g114
sg45
g42
sg960
g963
sg72
g75
sg308
g311
sg496
g493
sg272
g275
sg232
g229
sg899
g896
sg33
g36
sg709
g706
sg788
g785
sg344
g347
sg223
g226
sg797
g800
sg362
g365
sg837
g834
sg1013
g1010
sg299
g296
sg828
g831
sg335
g332
sg263
g260
sg317
g314
sg63
g61
sg55
g58
sg183
g180
sg1110
g1113
sg846
g849
sg326
g329
ssg17
g8
((lp1258
g706
ag42
ag849
ag329
ag493
ag332
ag177
ag1113
ag800
ag834
ag75
ag275
ag260
ag311
ag785
ag350
ag1010
ag58
ag61
ag896
ag963
ag36
ag229
ag314
ag296
ag195
ag226
ag480
ag278
ag365
ag114
ag117
ag347
ag180
ag293
ag477
ag831
atRp1259
sg84
g8
((lp1260
g423
ag624
atRp1261
sS'polyLink'
p1262
S'none'
p1263
sbsg50
g8
((lp1264
g347
atRp1265
sg15
S'H'
sg79
I0
sg16
I01
sg80
(F473.60491509630452
F406.13246585782969
F47.719107512962211
tp1266
sg82
(lp1267
sg13
g1
sg84
g8
((ltRp1268
sg86
g8
((lp1269
g449
atRp1270
sg95
I00
sbag30
atRp1271
sg95
I00
sbsg24
g25
sg50
g8
((lp1272
g341
atRp1273
sg15
S'H'
sg79
I0
sg16
I01
sg80
(F473.60491509630452
F406.13246585782969
F47.719107512962211
tp1274
sg82
(lp1275
sg13
g1
sg84
g8
((ltRp1276
sg86
g8
((lp1277
g466
atRp1278
sg95
I00
sbag957
ag48
ag189
ag235
ag1107
ag712
ag843
ag1016
ag19
ag794
ag123
ag499
ag664
ag902
atRp1279
sS'C'
g8
((lp1280
g305
ag320
ag287
ag269
ag791
ag186
ag825
ag338
ag220
ag356
atRp1281
sS'N'
g8
((lp1282
g302
ag284
ag323
ag341
ag471
atRp1283
sS'O'
g8
((lp1284
g840
ag171
ag266
ag69
ag359
ag108
ag52
atRp1285
sS'P'
g8
((lp1286
g66
atRp1287
ssg86
g8
((lp1288
g1143
ag462
ag386
ag556
ag659
ag1058
ag1177
ag408
ag609
ag1024
ag993
ag952
ag1102
ag869
ag545
ag688
ag593
ag820
ag466
ag720
ag910
ag767
ag507
ag1068
ag983
ag131
ag1221
ag166
ag677
ag541
ag412
ag948
ag243
ag1133
ag879
ag215
ag613
ag756
ag103
ag1187
atRp1289
sg13
g1
sg1251
(g1252
g1253
g1254
tp1290
sg1256
(dp1291
g10
g19
sg223
g220
sg353
g356
sg174
g171
sg120
g123
sg72
g69
sg828
g825
sg111
g108
sg263
g266
sg960
g957
sg335
g338
sg496
g499
sg308
g305
sg899
g902
sg33
g30
sg45
g48
sg788
g791
sg344
g341
sg1013
g1016
sg474
g471
sg667
g664
sg362
g359
sg837
g840
sg192
g189
sg55
g52
sg290
g287
sg299
g302
sg797
g794
sg281
g284
sg63
g66
sg846
g843
sg1110
g1107
sg183
g186
sg232
g235
sg709
g712
sg326
g323
sg317
g320
sg272
g269
ssg17
g8
((lp1292
g840
ag305
ag30
ag269
ag19
ag664
ag957
ag356
ag341
ag320
ag825
ag794
ag69
ag323
ag791
ag186
ag902
ag171
ag1016
ag284
ag66
ag302
ag843
ag471
ag287
ag235
ag48
ag338
ag108
ag52
ag359
ag712
ag1107
ag123
ag266
ag189
ag499
ag220
atRp1293
sg84
g8
((lp1294
g395
ag602
atRp1295
sg1262
g1263
sbsg50
g8
((lp1296
g471
atRp1297
sg15
S'H'
sg79
I0
sg16
I00
sg80
(F357.13930540471654
F484.4703237004299
F-1.9429509107898664
tp1298
sg82
(lp1299
sg13
g1
sg84
g8
((ltRp1300
sg86
g8
((lp1301
g541
atRp1302
sg95
I00
sbag480
atRp1303
sg95
I00
sbag223
ag1110
ag45
ag192
ag120
ag72
ag828
ag111
ag263
ag174
ag667
ag496
ag272
ag353
ag362
ag709
ag788
ag344
ag63
ag1013
ag474
ag308
ag837
ag960
ag55
ag290
ag299
ag335
ag797
ag281
ag232
ag33
ag846
ag183
ag899
ag326
ag317
atRp1304
sS'ccpMolType'
p1305
S'DNA'
p1306
sS'details'
p1307
V
sg1256
(dp1308
g845
g846
sg71
g72
sg54
g55
sg110
g111
sg119
g120
sg44
g45
sg827
g828
sg271
g272
sg495
g496
sg182
g183
sg361
g362
sg796
g797
sg1109
g1110
sg898
g899
sg959
g960
sg262
g263
sg289
g290
sg334
g335
sg1012
g1013
sg352
g353
sg307
g308
sg316
g317
sg191
g192
sg12
g10
sS'P'
g63
sg222
g223
sg787
g788
sg343
g344
sg473
g474
sg325
g326
sg298
g299
sg231
g232
sg708
g709
sg280
g281
sg32
g33
sg173
g174
sg666
g667
sg836
g837
ssS'keywords'
p1309
g8
((ltRp1310
sg84
g8
((lp1311
g423
ag624
ag395
ag602
atRp1312
sS'variants'
p1313
g8
((lp1314
g38
ag25
atRp1315
sS'defaultVars'
p1316
g8
((ltRp1317
sb.