(imodel.Compound
Compound
p1
(dp2
S'name'
p3
V2'-DEOXYINOSINE-5'-MONOPHOSPHATE
p4
sS'isModified'
p5
I01
sS'ccpCode'
p6
VI
sS'atoms'
p7
c__builtin__
set
p8
((lp9
(imodel.Atom
Atom
p10
(dp11
g3
S'H8'
p12
sS'compound'
p13
g1
sS'baseValences'
p14
I1
sS'element'
p15
S'H'
sS'isVariable'
p16
I00
sS'varAtoms'
p17
g8
((lp18
(imodel.VarAtom
VarAtom
p19
(dp20
g3
g12
sS'isLabile'
p21
I00
sS'chirality'
p22
NsS'atom'
p23
g10
sS'variant'
p24
(imodel.Variant
Variant
p25
(dp26
S'elementDict'
p27
(dp28
S'H'
g8
((lp29
(imodel.VarAtom
VarAtom
p30
(dp31
g3
S"H5'"
p32
sg21
I00
sg22
Nsg23
(imodel.Atom
Atom
p33
(dp34
g3
g32
sg13
g1
sg14
I1
sg15
S'H'
sg16
I00
sg17
g8
((lp35
g30
atRp36
sS'isDeleted'
p37
I00
sbsg24
g25
sS'neighbours'
p38
g8
((lp39
(imodel.VarAtom
VarAtom
p40
(dp41
g3
S"C5'"
p42
sg21
I00
sg22
Nsg23
(imodel.Atom
Atom
p43
(dp44
g3
g42
sg13
g1
sg14
I4
sg15
S'C'
sg16
I00
sg17
g8
((lp45
g40
atRp46
sg37
I00
sbsg24
g25
sg38
g8
((lp47
(imodel.VarAtom
VarAtom
p48
(dp49
g3
S"C4'"
p50
sg21
I00
sg22
Nsg23
(imodel.Atom
Atom
p51
(dp52
g3
g50
sg13
g1
sg14
I4
sg15
S'C'
sg16
I00
sg17
g8
((lp53
g48
atRp54
sg37
I00
sbsg24
g25
sg38
g8
((lp55
(imodel.VarAtom
VarAtom
p56
(dp57
g3
S"C3'"
p58
sg21
I00
sg22
Nsg23
(imodel.Atom
Atom
p59
(dp60
g3
g58
sg13
g1
sg14
I4
sg15
S'C'
sg16
I00
sg17
g8
((lp61
g56
atRp62
sg37
I00
sbsg24
g25
sg38
g8
((lp63
g48
a(imodel.VarAtom
VarAtom
p64
(dp65
g3
S"C2'"
p66
sg21
I00
sg22
Nsg23
(imodel.Atom
Atom
p67
(dp68
g3
g66
sg13
g1
sg14
I4
sg15
S'C'
sg16
I00
sg17
g8
((lp69
g64
atRp70
sg37
I00
sbsg24
g25
sg38
g8
((lp71
(imodel.VarAtom
VarAtom
p72
(dp73
g3
S"H2''"
p74
sg21
I00
sg22
Nsg23
(imodel.Atom
Atom
p75
(dp76
g3
g74
sg13
g1
sg14
I1
sg15
S'H'
sg16
I00
sg17
g8
((lp77
g72
atRp78
sg37
I00
sbsg24
g25
sg38
g8
((lp79
g64
atRp80
sg15
S'H'
sS'charge'
p81
I0
sg16
I00
sS'coords'
p82
(F113.70179104328714
F354.31736003875437
F-32.443216947133664
tp83
sS'freeValences'
p84
(lp85
sg13
g1
sS'atomGroups'
p86
g8
((ltRp87
sS'bonds'
p88
g8
((lp89
(imodel.Bond
Bond
p90
(dp91
g13
g1
sS'bondType'
p92
S'single'
p93
sg24
g25
sg17
g8
((lp94
g64
ag72
atRp95
sbatRp96
sg37
I00
sbag56
a(imodel.VarAtom
VarAtom
p97
(dp98
g3
S"H2'"
p99
sg21
I00
sg22
Nsg23
(imodel.Atom
Atom
p100
(dp101
g3
g99
sg13
g1
sg14
I1
sg15
S'H'
sg16
I00
sg17
g8
((lp102
g97
atRp103
sg37
I00
sbsg24
g25
sg38
g8
((lp104
g64
atRp105
sg15
S'H'
sg81
I0
sg16
I00
sg82
(F131.21026602790434
F426.9553998741826
F-9.8166265813413247
tp106
sg84
(lp107
sg13
g1
sg86
g8
((ltRp108
sg88
g8
((lp109
(imodel.Bond
Bond
p110
(dp111
g13
g1
sg92
g93
sg24
g25
sg17
g8
((lp112
g64
ag97
atRp113
sbatRp114
sg37
I00
sba(imodel.VarAtom
VarAtom
p115
(dp116
g3
S"C1'"
p117
sg21
I00
sg22
Nsg23
(imodel.Atom
Atom
p118
(dp119
g3
g117
sg13
g1
sg14
I4
sg15
S'C'
sg16
I00
sg17
g8
((lp120
g115
atRp121
sg37
I00
sbsg24
g25
sg38
g8
((lp122
(imodel.VarAtom
VarAtom
p123
(dp124
g3
S'N9'
p125
sg21
I00
sg22
Nsg23
(imodel.Atom
Atom
p126
(dp127
g3
g125
sg13
g1
sg14
I3
sg15
S'N'
sg16
I00
sg17
g8
((lp128
g123
atRp129
sg37
I00
sbsg24
g25
sg38
g8
((lp130
g115
a(imodel.VarAtom
VarAtom
p131
(dp132
g3
S'C4'
p133
sg21
I00
sg22
Nsg23
(imodel.Atom
Atom
p134
(dp135
g3
g133
sg13
g1
sg14
I4
sg15
S'C'
sg16
I00
sg17
g8
((lp136
g131
atRp137
sg37
I00
sbsg24
g25
sg38
g8
((lp138
(imodel.VarAtom
VarAtom
p139
(dp140
g3
S'C5'
p141
sg21
I00
sg22
Nsg23
(imodel.Atom
Atom
p142
(dp143
g3
g141
sg13
g1
sg14
I4
sg15
S'C'
sg16
I00
sg17
g8
((lp144
g139
atRp145
sg37
I00
sbsg24
g25
sg38
g8
((lp146
(imodel.VarAtom
VarAtom
p147
(dp148
g3
S'N7'
p149
sg21
I00
sg22
Nsg23
(imodel.Atom
Atom
p150
(dp151
g3
g149
sg13
g1
sg14
I3
sg15
S'N'
sg16
I00
sg17
g8
((lp152
g147
atRp153
sg37
I00
sbsg24
g25
sg38
g8
((lp154
g139
a(imodel.VarAtom
VarAtom
p155
(dp156
g3
S'C8'
p157
sg21
I00
sg22
Nsg23
(imodel.Atom
Atom
p158
(dp159
g3
g157
sg13
g1
sg14
I4
sg15
S'C'
sg16
I00
sg17
g8
((lp160
g155
atRp161
sg37
I00
sbsg24
g25
sg38
g8
((lp162
g19
ag147
ag123
atRp163
sg15
S'C'
sg81
I0
sg16
I00
sg82
(F244.03223331819879
F391.38307732155471
F55.381525944581064
tp164
sg84
(lp165
sg13
g1
sg86
g8
((lp166
(imodel.AtomGroup
AtomGroup
p167
(dp168
S'groupType'
p169
S'aromatic'
p170
sS'subGroups'
p171
g8
((ltRp172
sS'varAtoms'
p173
g8
((lp174
g123
ag155
ag147
ag131
ag139
atRp175
sS'variant'
p176
g25
sS'compound'
p177
g1
sbatRp178
sg88
g8
((lp179
(imodel.Bond
Bond
p180
(dp181
g13
g1
sg92
g93
sg24
g25
sg17
g8
((lp182
g155
ag19
atRp183
sba(imodel.Bond
Bond
p184
(dp185
g13
g1
sg92
g170
sg24
g25
sg17
g8
((lp186
g123
ag155
atRp187
sba(imodel.Bond
Bond
p188
(dp189
g13
g1
sg92
g170
sg24
g25
sg17
g8
((lp190
g155
ag147
atRp191
sbatRp192
sg37
I00
sbatRp193
sg15
S'N'
sg81
I0
sg16
I00
sg82
(F293.65351054886497
F379.15270600855678
F28.172877853750876
tp194
sg84
(lp195
sg13
g1
sg86
g8
((lp196
g167
atRp197
sg88
g8
((lp198
(imodel.Bond
Bond
p199
(dp200
g13
g1
sg92
g170
sg24
g25
sg17
g8
((lp201
g139
ag147
atRp202
sbag188
atRp203
sg37
I00
sbag131
a(imodel.VarAtom
VarAtom
p204
(dp205
g3
S'C6'
p206
sg21
I00
sg22
Nsg23
(imodel.Atom
Atom
p207
(dp208
g3
g206
sg13
g1
sg14
I4
sg15
S'C'
sg16
I00
sg17
g8
((lp209
g204
atRp210
sg37
I00
sbsg24
g25
sg38
g8
((lp211
(imodel.VarAtom
VarAtom
p212
(dp213
g3
S'O6'
p214
sg21
I00
sg22
Nsg23
(imodel.Atom
Atom
p215
(dp216
g3
g214
sg13
g1
sg14
I2
sg15
S'O'
sg16
I00
sg17
g8
((lp217
g212
atRp218
sg37
I00
sbsg24
g25
sg38
g8
((lp219
g204
atRp220
sg15
S'O'
sg81
I0
sg16
I00
sg82
(F374.6225695747932
F322.7139147553649
F-53.230202684124095
tp221
sg84
(lp222
sg13
g1
sg86
g8
((ltRp223
sg88
g8
((lp224
(imodel.Bond
Bond
p225
(dp226
g13
g1
sg92
S'double'
p227
sg24
g25
sg17
g8
((lp228
g212
ag204
atRp229
sbatRp230
sg37
I00
sba(imodel.VarAtom
VarAtom
p231
(dp232
g3
S'N1'
p233
sg21
I00
sg22
Nsg23
(imodel.Atom
Atom
p234
(dp235
g3
g233
sg13
g1
sg14
I3
sg15
S'N'
sg16
I00
sg17
g8
((lp236
g231
atRp237
sg37
I00
sbsg24
g25
sg38
g8
((lp238
(imodel.VarAtom
VarAtom
p239
(dp240
g3
S'C2'
p241
sg21
I00
sg22
Nsg23
(imodel.Atom
Atom
p242
(dp243
g3
g241
sg13
g1
sg14
I4
sg15
S'C'
sg16
I00
sg17
g8
((lp244
g239
atRp245
sg37
I00
sbsg24
g25
sg38
g8
((lp246
(imodel.VarAtom
VarAtom
p247
(dp248
g3
S'H2'
p249
sg21
I00
sg22
Nsg23
(imodel.Atom
Atom
p250
(dp251
g3
g249
sg13
g1
sg14
I1
sg15
S'H'
sg16
I00
sg17
g8
((lp252
g247
atRp253
sg37
I00
sbsg24
g25
sg38
g8
((lp254
g239
atRp255
sg15
S'H'
sg81
I0
sg16
I00
sg82
(F279.86422399589787
F193.13452606950568
F-96.560958995877257
tp256
sg84
(lp257
sg13
g1
sg86
g8
((ltRp258
sg88
g8
((lp259
(imodel.Bond
Bond
p260
(dp261
g13
g1
sg92
g93
sg24
g25
sg17
g8
((lp262
g239
ag247
atRp263
sbatRp264
sg37
I00
sbag231
a(imodel.VarAtom
VarAtom
p265
(dp266
g3
S'N3'
p267
sg21
I00
sg22
Nsg23
(imodel.Atom
Atom
p268
(dp269
g3
g267
sg13
g1
sg14
I3
sg15
S'N'
sg16
I00
sg17
g8
((lp270
g265
atRp271
sg37
I00
sbsg24
g25
sg38
g8
((lp272
g131
ag239
atRp273
sg15
S'N'
sg81
I0
sg16
I00
sg82
(F244.97301117259724
F260.41834185613669
F-32.998270080893327
tp274
sg84
(lp275
sg13
g1
sg86
g8
((lp276
(imodel.AtomGroup
AtomGroup
p277
(dp278
S'groupType'
p279
S'aromatic'
p280
sS'subGroups'
p281
g8
((ltRp282
sS'varAtoms'
p283
g8
((lp284
g265
ag131
ag139
ag231
ag239
ag204
atRp285
sS'variant'
p286
g25
sS'compound'
p287
g1
sbatRp288
sg88
g8
((lp289
(imodel.Bond
Bond
p290
(dp291
g13
g1
sg92
g280
sg24
g25
sg17
g8
((lp292
g131
ag265
atRp293
sba(imodel.Bond
Bond
p294
(dp295
g13
g1
sg92
g280
sg24
g25
sg17
g8
((lp296
g239
ag265
atRp297
sbatRp298
sg37
I00
sbatRp299
sg15
S'C'
sg81
I0
sg16
I00
sg82
(F285.11308757327106
F230.82810251776147
F-71.675955279444182
tp300
sg84
(lp301
sg13
g1
sg86
g8
((lp302
g277
atRp303
sg88
g8
((lp304
g260
a(imodel.Bond
Bond
p305
(dp306
g13
g1
sg92
g280
sg24
g25
sg17
g8
((lp307
g239
ag231
atRp308
sbag294
atRp309
sg37
I00
sba(imodel.VarAtom
VarAtom
p310
(dp311
g3
S'H1'
p312
sg21
I00
sg22
Nsg23
(imodel.Atom
Atom
p313
(dp314
g3
g312
sg13
g1
sg14
I1
sg15
S'H'
sg16
I01
sg17
g8
((lp315
g310
atRp316
sg37
I00
sbsg24
g25
sg38
g8
((lp317
g231
atRp318
sg15
S'H'
sg81
I0
sg16
I01
sg82
(F364.44255870252692
F231.74438494073081
F-106.60017369512988
tp319
sg84
(lp320
sg13
g1
sg86
g8
((ltRp321
sg88
g8
((lp322
(imodel.Bond
Bond
p323
(dp324
g13
g1
sg92
g93
sg24
g25
sg17
g8
((lp325
g310
ag231
atRp326
sbatRp327
sg37
I00
sbag204
atRp328
sg15
S'N'
sg81
I0
sg16
I00
sg82
(F331.24407106048523
F250.6582331041111
F-76.48399762220842
tp329
sg84
(lp330
sg13
g1
sg86
g8
((lp331
g277
atRp332
sg88
g8
((lp333
g305
ag323
a(imodel.Bond
Bond
p334
(dp335
g13
g1
sg92
g280
sg24
g25
sg17
g8
((lp336
g204
ag231
atRp337
sbatRp338
sg37
I00
sbag139
atRp339
sg15
S'C'
sg81
I0
sg16
I00
sg82
(F336.56927037824084
F300.58671845569813
F-46.701723995021489
tp340
sg84
(lp341
sg13
g1
sg86
g8
((lp342
g277
atRp343
sg88
g8
((lp344
g225
a(imodel.Bond
Bond
p345
(dp346
g13
g1
sg92
g280
sg24
g25
sg17
g8
((lp347
g139
ag204
atRp348
sbag334
atRp349
sg37
I00
sbatRp350
sg15
S'C'
sg81
I0
sg16
I00
sg82
(F296.19892149001959
F329.90651652795776
F-8.6331682844637854
tp351
sg84
(lp352
sg13
g1
sg86
g8
((lp353
g167
ag277
atRp354
sg88
g8
((lp355
g199
a(imodel.Bond
Bond
p356
(dp357
g13
g1
sg92
g280
sg24
g25
sg17
g8
((lp358
g139
ag131
atRp359
sbag345
atRp360
sg37
I00
sbag265
ag123
atRp361
sg15
S'C'
sg81
I0
sg16
I00
sg82
(F250.29748932961519
F310.40091871358931
F-4.9998243467285848
tp362
sg84
(lp363
sg13
g1
sg86
g8
((lp364
g167
ag277
atRp365
sg88
g8
((lp366
g356
ag290
a(imodel.Bond
Bond
p367
(dp368
g13
g1
sg92
g170
sg24
g25
sg17
g8
((lp369
g123
ag131
atRp370
sbatRp371
sg37
I00
sbag155
atRp372
sg15
S'N'
sg81
I0
sg16
I00
sg82
(F217.13735934156384
F348.50027527205123
F37.855098123140657
tp373
sg84
(lp374
sg13
g1
sg86
g8
((lp375
g167
atRp376
sg88
g8
((lp377
(imodel.Bond
Bond
p378
(dp379
g13
g1
sg92
g93
sg24
g25
sg17
g8
((lp380
g123
ag115
atRp381
sbag367
ag184
atRp382
sg37
I00
sbag64
a(imodel.VarAtom
VarAtom
p383
(dp384
g3
S"H1'"
p385
sg21
I00
sg22
Nsg23
(imodel.Atom
Atom
p386
(dp387
g3
g385
sg13
g1
sg14
I1
sg15
S'H'
sg16
I00
sg17
g8
((lp388
g383
atRp389
sg37
I00
sbsg24
g25
sg38
g8
((lp390
g115
atRp391
sg15
S'H'
sg81
I0
sg16
I00
sg82
(F173.743941282896
F390.48861858411965
F83.103966320436271
tp392
sg84
(lp393
sg13
g1
sg86
g8
((ltRp394
sg88
g8
((lp395
(imodel.Bond
Bond
p396
(dp397
g13
g1
sg92
g93
sg24
g25
sg17
g8
((lp398
g383
ag115
atRp399
sbatRp400
sg37
I00
sba(imodel.VarAtom
VarAtom
p401
(dp402
g3
S"O4'"
p403
sg21
I00
sg22
Nsg23
(imodel.Atom
Atom
p404
(dp405
g3
g403
sg13
g1
sg14
I2
sg15
S'O'
sg16
I00
sg17
g8
((lp406
g401
atRp407
sg37
I00
sbsg24
g25
sg38
g8
((lp408
g115
ag48
atRp409
sg15
S'O'
sg81
I0
sg16
I00
sg82
(F123.98829958177956
F313.98911756761345
F106.31868096070329
tp410
sg84
(lp411
sg13
g1
sg86
g8
((ltRp412
sg88
g8
((lp413
(imodel.Bond
Bond
p414
(dp415
g13
g1
sg92
g93
sg24
g25
sg17
g8
((lp416
g401
ag115
atRp417
sba(imodel.Bond
Bond
p418
(dp419
g13
g1
sg92
g93
sg24
g25
sg17
g8
((lp420
g48
ag401
atRp421
sbatRp422
sg37
I00
sbatRp423
sg15
S'C'
sg81
I0
sg16
I00
sg82
(F164.07633636662453
F351.23376587113364
F61.220686348903271
tp424
sg84
(lp425
sg13
g1
sg86
g8
((ltRp426
sg88
g8
((lp427
g396
a(imodel.Bond
Bond
p428
(dp429
g13
g1
sg92
g93
sg24
g25
sg17
g8
((lp430
g64
ag115
atRp431
sbag414
ag378
atRp432
sg37
I00
sbatRp433
sg15
S'C'
sg81
I0
sg16
I00
sg82
(F124.38698469434945
F389.09024899947804
F12.414557166988802
tp434
sg84
(lp435
sg13
g1
sg86
g8
((ltRp436
sg88
g8
((lp437
g90
ag428
a(imodel.Bond
Bond
p438
(dp439
g13
g1
sg92
g93
sg24
g25
sg17
g8
((lp440
g64
ag56
atRp441
sbag110
atRp442
sg37
I00
sba(imodel.VarAtom
VarAtom
p443
(dp444
g3
S"H3'"
p445
sg21
I00
sg22
Nsg23
(imodel.Atom
Atom
p446
(dp447
g3
g445
sg13
g1
sg14
I1
sg15
S'H'
sg16
I00
sg17
g8
((lp448
g443
atRp449
sg37
I00
sbsg24
g25
sg38
g8
((lp450
g56
atRp451
sg15
S'H'
sg81
I0
sg16
I00
sg82
(F36.497414866322288
F394.86033676589176
F23.814620948470797
tp452
sg84
(lp453
sg13
g1
sg86
g8
((ltRp454
sg88
g8
((lp455
(imodel.Bond
Bond
p456
(dp457
g13
g1
sg92
g93
sg24
g25
sg17
g8
((lp458
g56
ag443
atRp459
sbatRp460
sg37
I00
sba(imodel.VarAtom
VarAtom
p461
(dp462
g3
S"O3'"
p463
sg21
I00
sg22
Nsg23
(imodel.Atom
Atom
p464
(dp465
g3
g463
sg13
g1
sg14
I2
sg15
S'O'
sg16
I00
sg17
g8
((lp466
g461
atRp467
sg37
I00
sbsg24
g25
sg38
g8
((lp468
g56
a(imodel.VarAtom
VarAtom
p469
(dp470
S'name'
p471
VHO3'
p472
sS'isLabile'
p473
I01
sS'chirality'
p474
NsS'atom'
p475
(imodel.Atom
Atom
p476
(dp477
g471
g472
sS'compound'
p478
g1
sg14
I1
sS'element'
p479
S'H'
sS'isVariable'
p480
I00
sS'varAtoms'
p481
g8
((lp482
g469
atRp483
sS'isDeleted'
p484
I00
sbsS'variant'
p485
g25
sS'neighbours'
p486
g8
((lp487
g461
atRp488
sg479
S'H'
sS'charge'
p489
I0
sg480
I00
sS'coords'
p490
(F62.059703215293702
F470.91776327770384
F0.17409139661336615
tp491
sS'freeValences'
p492
(lp493
sg478
g1
sS'atomGroups'
p494
g8
((ltRp495
sS'bonds'
p496
g8
((lp497
(imodel.Bond
Bond
p498
(dp499
g478
g1
sS'bondType'
p500
S'single'
p501
sg485
g25
sg481
g8
((lp502
g461
ag469
atRp503
sbatRp504
sg484
I00
sbatRp505
sg15
S'O'
sg81
I0
sg16
I00
sg82
(F68.144263741864535
F433.33761293181033
F100.1976968011183
tp506
sg84
(lp507
sg13
g1
sg86
g8
((ltRp508
sg88
g8
((lp509
(imodel.Bond
Bond
p510
(dp511
g13
g1
sg92
g93
sg24
g25
sg17
g8
((lp512
g461
ag56
atRp513
sbag498
atRp514
sg37
I00
sbatRp515
sg15
S'C'
sg81
I0
sg16
I00
sg82
(F73.129759387212601
F382.58176504964683
F52.687189158090376
tp516
sg84
(lp517
sg13
g1
sg86
g8
((ltRp518
sg88
g8
((lp519
(imodel.Bond
Bond
p520
(dp521
g13
g1
sg92
g93
sg24
g25
sg17
g8
((lp522
g48
ag56
atRp523
sbag510
ag438
ag456
atRp524
sg37
I00
sbag40
a(imodel.VarAtom
VarAtom
p525
(dp526
g3
S"H4'"
p527
sg21
I00
sg22
Nsg23
(imodel.Atom
Atom
p528
(dp529
g3
g527
sg13
g1
sg14
I1
sg15
S'H'
sg16
I00
sg17
g8
((lp530
g525
atRp531
sg37
I00
sbsg24
g25
sg38
g8
((lp532
g48
atRp533
sg15
S'H'
sg81
I0
sg16
I00
sg82
(F37.139473057054062
F339.28543464044475
F139.88405074730858
tp534
sg84
(lp535
sg13
g1
sg86
g8
((ltRp536
sg88
g8
((lp537
(imodel.Bond
Bond
p538
(dp539
g13
g1
sg92
g93
sg24
g25
sg17
g8
((lp540
g48
ag525
atRp541
sbatRp542
sg37
I00
sbag401
atRp543
sg15
S'C'
sg81
I0
sg16
I00
sg82
(F70.968712591865895
F322.76373748457797
F94.468574787092038
tp544
sg84
(lp545
sg13
g1
sg86
g8
((ltRp546
sg88
g8
((lp547
(imodel.Bond
Bond
p548
(dp549
g13
g1
sg92
g93
sg24
g25
sg17
g8
((lp550
g48
ag40
atRp551
sbag520
ag418
ag538
atRp552
sg37
I00
sbag30
a(imodel.VarAtom
VarAtom
p553
(dp554
g3
S"H5''"
p555
sg21
I00
sg22
Nsg23
(imodel.Atom
Atom
p556
(dp557
g3
g555
sg13
g1
sg14
I1
sg15
S'H'
sg16
I00
sg17
g8
((lp558
g553
atRp559
sg37
I00
sbsg24
g25
sg38
g8
((lp560
g40
atRp561
sg15
S'H'
sg81
I0
sg16
I00
sg82
(F47.454899677525617
F249.63402984192959
F106.23666179674514
tp562
sg84
(lp563
sg13
g1
sg86
g8
((ltRp564
sg88
g8
((lp565
(imodel.Bond
Bond
p566
(dp567
g13
g1
sg92
g93
sg24
g25
sg17
g8
((lp568
g40
ag553
atRp569
sbatRp570
sg37
I00
sba(imodel.VarAtom
VarAtom
p571
(dp572
g3
S"O5'"
p573
sg21
I00
sg22
Nsg23
(imodel.Atom
Atom
p574
(dp575
g3
g573
sg13
g1
sg14
I2
sg15
S'O'
sg16
I00
sg17
g8
((lp576
g571
atRp577
sg37
I00
sbsg24
g25
sg38
g8
((lp578
g40
a(imodel.VarAtom
VarAtom
p579
(dp580
g3
S'P'
sg21
I00
sg22
Nsg23
(imodel.Atom
Atom
p581
(dp582
g3
S'P'
sg13
g1
sg14
I5
sg15
S'P'
sg16
I00
sg17
g8
((lp583
g579
atRp584
sg37
I00
sbsg24
g25
sg38
g8
((lp585
(imodel.VarAtom
VarAtom
p586
(dp587
g3
S'OP2'
p588
sg21
I00
sg22
Nsg23
(imodel.Atom
Atom
p589
(dp590
g3
g588
sg13
g1
sg14
I2
sg15
S'O'
sg16
I00
sg17
g8
((lp591
g586
atRp592
sg37
I00
sbsg24
g25
sg38
g8
((lp593
g579
a(imodel.VarAtom
VarAtom
p594
(dp595
g3
S'HOP2'
p596
sg21
I01
sg22
Nsg23
(imodel.Atom
Atom
p597
(dp598
g3
g596
sg13
g1
sg14
I1
sg15
S'H'
sg16
I00
sg17
g8
((lp599
g594
atRp600
sg37
I00
sbsg24
g25
sg38
g8
((lp601
g586
atRp602
sg15
S'H'
sg81
I0
sg16
I00
sg82
(F-122.48063403080684
F299.58049464766663
F61.620170913625046
tp603
sg84
(lp604
sg13
g1
sg86
g8
((ltRp605
sg88
g8
((lp606
(imodel.Bond
Bond
p607
(dp608
g13
g1
sg92
g93
sg24
g25
sg17
g8
((lp609
g594
ag586
atRp610
sbatRp611
sg37
I00
sbatRp612
sg15
S'O'
sg81
I0
sg16
I00
sg82
(F-93.008706991629595
F275.76439102488712
F55.781840266881296
tp613
sg84
(lp614
sg13
g1
sg86
g8
((ltRp615
sg88
g8
((lp616
(imodel.Bond
Bond
p617
(dp618
g13
g1
sg92
g93
sg24
g25
sg17
g8
((lp619
g579
ag586
atRp620
sbag607
atRp621
sg37
I00
sba(imodel.VarAtom
VarAtom
p622
(dp623
g3
S'OP1'
p624
sg21
I00
sg22
Nsg23
(imodel.Atom
Atom
p625
(dp626
g3
g624
sg13
g1
sg14
I2
sg15
S'O'
sg16
I00
sg17
g8
((lp627
g622
atRp628
sg37
I00
sbsg24
g25
sg38
g8
((lp629
g579
atRp630
sg15
S'O'
sg81
I0
sg16
I00
sg82
(F-42.609574435459848
F195.65424468668863
F-40.320471257630018
tp631
sg84
(lp632
sg13
g1
sg86
g8
((ltRp633
sg88
g8
((lp634
(imodel.Bond
Bond
p635
(dp636
g13
g1
sg92
S'double'
p637
sg24
g25
sg17
g8
((lp638
g579
ag622
atRp639
sbatRp640
sg37
I00
sba(imodel.VarAtom
VarAtom
p641
(dp642
g3
S'OP3'
p643
sg21
I00
sg22
Nsg23
(imodel.Atom
Atom
p644
(dp645
g3
g643
sg13
g1
sg14
I2
sg15
S'O'
sg16
I00
sg17
g8
((lp646
g641
atRp647
sg37
I00
sbsg24
g25
sg38
g8
((lp648
(imodel.VarAtom
VarAtom
p649
(dp650
g3
S'HOP3'
p651
sg21
I01
sg22
Nsg23
(imodel.Atom
Atom
p652
(dp653
g3
g651
sg13
g1
sg14
I1
sg15
S'H'
sg16
I00
sg17
g8
((lp654
g649
atRp655
sg37
I00
sbsg24
g25
sg38
g8
((lp656
g641
atRp657
sg15
S'H'
sg81
I0
sg16
I00
sg82
(F-142.26045468244999
F196.87688010573726
F-184.64764363304215
tp658
sg84
(lp659
sg13
g1
sg86
g8
((ltRp660
sg88
g8
((lp661
(imodel.Bond
Bond
p662
(dp663
g13
g1
sg92
g93
sg24
g25
sg17
g8
((lp664
g641
ag649
atRp665
sbatRp666
sg37
I00
sbag579
atRp667
sg15
S'O'
sg81
I0
sg16
I00
sg82
(F-106.48637499072584
F209.71270087054017
F-226.49839726838499
tp668
sg84
(lp669
sg13
g1
sg86
g8
((ltRp670
sg88
g8
((lp671
g662
a(imodel.Bond
Bond
p672
(dp673
g13
g1
sg92
g93
sg24
g25
sg17
g8
((lp674
g579
ag641
atRp675
sbatRp676
sg37
I00
sbag571
atRp677
sg15
S'P'
sg81
I0
sg16
I00
sg82
(F-62.364407920650081
F235.14703464324839
F24.106114888123912
tp678
sg84
(lp679
sg13
g1
sg86
g8
((ltRp680
sg88
g8
((lp681
g617
a(imodel.Bond
Bond
p682
(dp683
g13
g1
sg92
g93
sg24
g25
sg17
g8
((lp684
g579
ag571
atRp685
sbag672
ag635
atRp686
sg37
I00
sbatRp687
sg15
S'O'
sg81
I0
sg16
I00
sg82
(F-15.179078799572324
F254.67462506400281
F74.912368275515007
tp688
sg84
(lp689
sg13
g1
sg86
g8
((ltRp690
sg88
g8
((lp691
(imodel.Bond
Bond
p692
(dp693
g13
g1
sg92
g93
sg24
g25
sg17
g8
((lp694
g571
ag40
atRp695
sbag682
atRp696
sg37
I00
sbatRp697
sg15
S'C'
sg81
I0
sg16
I00
sg82
(F28.020914052773733
F282.80847100526967
F71.898468763009689
tp698
sg84
(lp699
sg13
g1
sg86
g8
((ltRp700
sg88
g8
((lp701
g548
ag566
ag692
a(imodel.Bond
Bond
p702
(dp703
g13
g1
sg92
g93
sg24
g25
sg17
g8
((lp704
g40
ag30
atRp705
sbatRp706
sg37
I00
sbatRp707
sg15
S'H'
sg81
I0
sg16
I00
sg82
(F-3.3461570619559211
F305.08867244277536
F21.839239487433304
tp708
sg84
(lp709
sg13
g1
sg86
g8
((ltRp710
sg88
g8
((lp711
g702
atRp712
sg37
I00
sbag97
ag72
ag310
ag525
ag553
ag383
ag594
ag247
ag443
ag19
ag469
ag649
atRp713
sS'C'
g8
((lp714
g56
ag48
ag131
ag139
ag115
ag155
ag64
ag239
ag40
ag204
atRp715
sS'P'
g8
((lp716
g579
atRp717
sS'O'
g8
((lp718
g212
ag461
ag401
ag571
ag641
ag622
ag586
atRp719
sS'N'
g8
((lp720
g265
ag123
ag231
ag147
atRp721
ssg88
g8
((lp722
g635
ag225
ag607
ag378
ag418
ag260
ag692
ag498
ag334
ag199
ag188
ag682
ag294
ag367
ag456
ag290
ag520
ag566
ag548
ag323
ag396
ag538
ag110
ag438
ag180
ag184
ag702
ag356
ag345
ag617
ag672
ag510
ag662
ag428
ag305
ag90
ag414
atRp723
sg13
g1
sS'descriptor'
p724
(S'neutral'
p725
S'none'
p726
S'default'
p727
tp728
sS'atomDict'
p729
(dp730
g10
g19
sg386
g383
sg574
g571
sg75
g72
sg67
g64
sg476
g469
sg404
g401
sg625
g622
sg597
g594
sg242
g239
sg581
g579
sg652
g649
sg51
g48
sg556
g553
sg250
g247
sg100
g97
sg142
g139
sg215
g212
sg644
g641
sg158
g155
sg234
g231
sg126
g123
sg59
g56
sg446
g443
sg134
g131
sg589
g586
sg118
g115
sg43
g40
sg313
g310
sg268
g265
sg207
g204
sg33
g30
sg528
g525
sg150
g147
sg464
g461
ssg17
g8
((lp731
g72
ag30
ag401
ag139
ag155
ag586
ag48
ag204
ag469
ag579
ag212
ag231
ag40
ag123
ag147
ag571
ag19
ag97
ag115
ag265
ag131
ag553
ag461
ag525
ag239
ag56
ag310
ag641
ag247
ag383
ag64
ag622
ag594
ag649
ag443
atRp732
sg86
g8
((lp733
g167
ag277
atRp734
sS'polyLink'
p735
S'none'
p736
sbsg38
g8
((lp737
g155
atRp738
sg15
S'H'
sg81
I0
sg16
I00
sg82
(F228.05742556974243
F423.87401391683551
F89.317788927236776
tp739
sg84
(lp740
sg13
g1
sg86
g8
((ltRp741
sg88
g8
((lp742
g180
atRp743
sg37
I00
sbatRp744
sg37
I00
sbag644
ag404
ag75
ag67
ag476
ag625
ag597
ag242
ag581
ag652
ag51
ag118
ag556
ag250
ag100
ag142
ag215
ag158
ag234
ag126
ag59
ag446
ag134
ag386
ag589
ag574
ag43
ag313
ag268
ag207
ag33
ag528
ag150
ag464
atRp745
sS'ccpMolType'
p746
S'DNA'
p747
sS'details'
p748
V
sg729
(dp749
g472
g476
sg624
g625
sg588
g589
sg643
g644
sg651
g652
sg596
g597
sg58
g59
sg117
g118
sg42
g43
sg214
g215
sg99
g100
sg32
g33
sg445
g446
sg74
g75
sg403
g404
sg157
g158
sg241
g242
sg385
g386
sg206
g207
sg141
g142
sg133
g134
sg555
g556
sS'P'
g581
sg50
g51
sg66
g67
sg233
g234
sg267
g268
sg149
g150
sg527
g528
sg12
g10
sg125
g126
sg249
g250
sg312
g313
sg573
g574
sg463
g464
ssS'keywords'
p750
g8
((ltRp751
sg86
g8
((lp752
g167
ag277
atRp753
sS'variants'
p754
g8
((lp755
g25
atRp756
sS'defaultVars'
p757
g8
((ltRp758
sb.