(imodel.Compound
Compound
p1
(dp2
S'name'
p3
VTHYMIDINE-5'-MONOPHOSPHATE
p4
sS'isModified'
p5
I01
sS'ccpCode'
p6
VT
sS'atoms'
p7
c__builtin__
set
p8
((lp9
(imodel.Atom
Atom
p10
(dp11
g3
S"C3'"
p12
sS'compound'
p13
g1
sS'baseValences'
p14
I4
sS'element'
p15
S'C'
sS'isVariable'
p16
I00
sS'varAtoms'
p17
g8
((lp18
(imodel.VarAtom
VarAtom
p19
(dp20
g3
g12
sS'isLabile'
p21
I00
sS'chirality'
p22
NsS'atom'
p23
g10
sS'variant'
p24
(imodel.Variant
Variant
p25
(dp26
S'elementDict'
p27
(dp28
S'P'
g8
((lp29
(imodel.VarAtom
VarAtom
p30
(dp31
g3
S'P'
sg21
I00
sg22
Nsg23
(imodel.Atom
Atom
p32
(dp33
g3
S'P'
sg13
g1
sg14
I5
sg15
S'P'
sg16
I00
sg17
g8
((lp34
g30
atRp35
sS'isDeleted'
p36
I00
sbsg24
g25
sS'neighbours'
p37
g8
((lp38
(imodel.VarAtom
VarAtom
p39
(dp40
g3
S'OP2'
p41
sg21
I00
sg22
Nsg23
(imodel.Atom
Atom
p42
(dp43
g3
g41
sg13
g1
sg14
I2
sg15
S'O'
sg16
I00
sg17
g8
((lp44
g39
atRp45
sg36
I00
sbsg24
g25
sg37
g8
((lp46
g30
a(imodel.VarAtom
VarAtom
p47
(dp48
g3
S'HOP2'
p49
sg21
I01
sg22
Nsg23
(imodel.Atom
Atom
p50
(dp51
g3
g49
sg13
g1
sg14
I1
sg15
S'H'
sg16
I00
sg17
g8
((lp52
g47
atRp53
sg36
I00
sbsg24
g25
sg37
g8
((lp54
g39
atRp55
sg15
S'H'
sS'charge'
p56
I0
sg16
I00
sS'coords'
p57
(F76.739278156237205
F467.34053516237725
F77.808962299749936
tp58
sS'freeValences'
p59
(lp60
sg13
g1
sS'atomGroups'
p61
g8
((ltRp62
sS'bonds'
p63
g8
((lp64
(imodel.Bond
Bond
p65
(dp66
g13
g1
sS'bondType'
p67
S'single'
p68
sg24
g25
sg17
g8
((lp69
g39
ag47
atRp70
sbatRp71
sg36
I00
sbatRp72
sg15
S'O'
sg56
I0
sg16
I00
sg57
(F93.401836920296432
F433.34967318977743
F80.842906030953856
tp73
sg59
(lp74
sg13
g1
sg61
g8
((ltRp75
sg63
g8
((lp76
(imodel.Bond
Bond
p77
(dp78
g13
g1
sg67
g68
sg24
g25
sg17
g8
((lp79
g30
ag39
atRp80
sbag65
atRp81
sg36
I00
sba(imodel.VarAtom
VarAtom
p82
(dp83
g3
S'OP3'
p84
sg21
I00
sg22
Nsg23
(imodel.Atom
Atom
p85
(dp86
g3
g84
sg13
g1
sg14
I2
sg15
S'O'
sg16
I00
sg17
g8
((lp87
g82
atRp88
sg36
I00
sbsg24
g25
sg37
g8
((lp89
g30
a(imodel.VarAtom
VarAtom
p90
(dp91
g3
S'HOP3'
p92
sg21
I01
sg22
Nsg23
(imodel.Atom
Atom
p93
(dp94
g3
g92
sg13
g1
sg14
I1
sg15
S'H'
sg16
I00
sg17
g8
((lp95
g90
atRp96
sg36
I00
sbsg24
g25
sg37
g8
((lp97
g82
atRp98
sg15
S'H'
sg56
I0
sg16
I00
sg57
(F124.66223870710105
F298.23634544349403
F0.47584312088143987
tp99
sg59
(lp100
sg13
g1
sg61
g8
((ltRp101
sg63
g8
((lp102
(imodel.Bond
Bond
p103
(dp104
g13
g1
sg67
g68
sg24
g25
sg17
g8
((lp105
g82
ag90
atRp106
sbatRp107
sg36
I00
sbatRp108
sg15
S'O'
sg56
I0
sg16
I00
sg57
(F115.02502718610863
F334.78914635274339
F15.485563864670674
tp109
sg59
(lp110
sg13
g1
sg61
g8
((ltRp111
sg63
g8
((lp112
(imodel.Bond
Bond
p113
(dp114
g13
g1
sg67
g68
sg24
g25
sg17
g8
((lp115
g30
ag82
atRp116
sbag103
atRp117
sg36
I00
sba(imodel.VarAtom
VarAtom
p118
(dp119
g3
S'OP1'
p120
sg21
I00
sg22
Nsg23
(imodel.Atom
Atom
p121
(dp122
g3
g120
sg13
g1
sg14
I2
sg15
S'O'
sg16
I00
sg17
g8
((lp123
g118
atRp124
sg36
I00
sbsg24
g25
sg37
g8
((lp125
g30
atRp126
sg15
S'O'
sg56
I0
sg16
I00
sg57
(F65.905194726469432
F375.88930714956331
F144.20616057659785
tp127
sg59
(lp128
sg13
g1
sg61
g8
((ltRp129
sg63
g8
((lp130
(imodel.Bond
Bond
p131
(dp132
g13
g1
sg67
S'double'
p133
sg24
g25
sg17
g8
((lp134
g118
ag30
atRp135
sbatRp136
sg36
I00
sba(imodel.VarAtom
VarAtom
p137
(dp138
g3
S"O5'"
p139
sg21
I00
sg22
Nsg23
(imodel.Atom
Atom
p140
(dp141
g3
g139
sg13
g1
sg14
I2
sg15
S'O'
sg16
I00
sg17
g8
((lp142
g137
atRp143
sg36
I00
sbsg24
g25
sg37
g8
((lp144
g30
a(imodel.VarAtom
VarAtom
p145
(dp146
g3
S"C5'"
p147
sg21
I00
sg22
Nsg23
(imodel.Atom
Atom
p148
(dp149
g3
g147
sg13
g1
sg14
I4
sg15
S'C'
sg16
I00
sg17
g8
((lp150
g145
atRp151
sg36
I00
sbsg24
g25
sg37
g8
((lp152
(imodel.VarAtom
VarAtom
p153
(dp154
g3
S"H5''"
p155
sg21
I00
sg22
Nsg23
(imodel.Atom
Atom
p156
(dp157
g3
g155
sg13
g1
sg14
I1
sg15
S'H'
sg16
I00
sg17
g8
((lp158
g153
atRp159
sg36
I00
sbsg24
g25
sg37
g8
((lp160
g145
atRp161
sg15
S'H'
sg56
I0
sg16
I00
sg57
(F193.32147128838852
F437.25526095055784
F46.529930304661889
tp162
sg59
(lp163
sg13
g1
sg61
g8
((ltRp164
sg63
g8
((lp165
(imodel.Bond
Bond
p166
(dp167
g13
g1
sg67
g68
sg24
g25
sg17
g8
((lp168
g153
ag145
atRp169
sbatRp170
sg36
I00
sba(imodel.VarAtom
VarAtom
p171
(dp172
g3
S"C4'"
p173
sg21
I00
sg22
Nsg23
(imodel.Atom
Atom
p174
(dp175
g3
g173
sg13
g1
sg14
I4
sg15
S'C'
sg16
I00
sg17
g8
((lp176
g171
atRp177
sg36
I00
sbsg24
g25
sg37
g8
((lp178
g19
ag145
a(imodel.VarAtom
VarAtom
p179
(dp180
g3
S"H4'"
p181
sg21
I00
sg22
Nsg23
(imodel.Atom
Atom
p182
(dp183
g3
g181
sg13
g1
sg14
I1
sg15
S'H'
sg16
I00
sg17
g8
((lp184
g179
atRp185
sg36
I00
sbsg24
g25
sg37
g8
((lp186
g171
atRp187
sg15
S'H'
sg56
I0
sg16
I00
sg57
(F247.4751802592944
F448.83797433392135
F122.00122977889509
tp188
sg59
(lp189
sg13
g1
sg61
g8
((ltRp190
sg63
g8
((lp191
(imodel.Bond
Bond
p192
(dp193
g13
g1
sg67
g68
sg24
g25
sg17
g8
((lp194
g171
ag179
atRp195
sbatRp196
sg36
I00
sba(imodel.VarAtom
VarAtom
p197
(dp198
g3
S"O4'"
p199
sg21
I00
sg22
Nsg23
(imodel.Atom
Atom
p200
(dp201
g3
g199
sg13
g1
sg14
I2
sg15
S'O'
sg16
I00
sg17
g8
((lp202
g197
atRp203
sg36
I00
sbsg24
g25
sg37
g8
((lp204
g171
a(imodel.VarAtom
VarAtom
p205
(dp206
g3
S"C1'"
p207
sg21
I00
sg22
Nsg23
(imodel.Atom
Atom
p208
(dp209
g3
g207
sg13
g1
sg14
I4
sg15
S'C'
sg16
I00
sg17
g8
((lp210
g205
atRp211
sg36
I00
sbsg24
g25
sg37
g8
((lp212
(imodel.VarAtom
VarAtom
p213
(dp214
g3
S"H1'"
p215
sg21
I00
sg22
Nsg23
(imodel.Atom
Atom
p216
(dp217
g3
g215
sg13
g1
sg14
I1
sg15
S'H'
sg16
I00
sg17
g8
((lp218
g213
atRp219
sg36
I00
sbsg24
g25
sg37
g8
((lp220
g205
atRp221
sg15
S'H'
sg56
I0
sg16
I00
sg57
(F373.74522237239199
F351.51330861793849
F37.234816898480304
tp222
sg59
(lp223
sg13
g1
sg61
g8
((ltRp224
sg63
g8
((lp225
(imodel.Bond
Bond
p226
(dp227
g13
g1
sg67
g68
sg24
g25
sg17
g8
((lp228
g205
ag213
atRp229
sbatRp230
sg36
I00
sba(imodel.VarAtom
VarAtom
p231
(dp232
g3
S"C2'"
p233
sg21
I00
sg22
Nsg23
(imodel.Atom
Atom
p234
(dp235
g3
g233
sg13
g1
sg14
I4
sg15
S'C'
sg16
I00
sg17
g8
((lp236
g231
atRp237
sg36
I00
sbsg24
g25
sg37
g8
((lp238
g205
a(imodel.VarAtom
VarAtom
p239
(dp240
g3
S"H2'"
p241
sg21
I00
sg22
Nsg23
(imodel.Atom
Atom
p242
(dp243
g3
g241
sg13
g1
sg14
I1
sg15
S'H'
sg16
I00
sg17
g8
((lp244
g239
atRp245
sg36
I00
sbsg24
g25
sg37
g8
((lp246
g231
atRp247
sg15
S'H'
sg56
I0
sg16
I00
sg57
(F312.34535875275822
F399.99414328463496
F-65.154758097442112
tp248
sg59
(lp249
sg13
g1
sg61
g8
((ltRp250
sg63
g8
((lp251
(imodel.Bond
Bond
p252
(dp253
g13
g1
sg67
g68
sg24
g25
sg17
g8
((lp254
g231
ag239
atRp255
sbatRp256
sg36
I00
sbag19
a(imodel.VarAtom
VarAtom
p257
(dp258
g3
S"H2''"
p259
sg21
I00
sg22
Nsg23
(imodel.Atom
Atom
p260
(dp261
g3
g259
sg13
g1
sg14
I1
sg15
S'H'
sg16
I00
sg17
g8
((lp262
g257
atRp263
sg36
I00
sbsg24
g25
sg37
g8
((lp264
g231
atRp265
sg15
S'H'
sg56
I0
sg16
I00
sg57
(F384.52732628334309
F418.59732740350404
F-54.111615383175227
tp266
sg59
(lp267
sg13
g1
sg61
g8
((ltRp268
sg63
g8
((lp269
(imodel.Bond
Bond
p270
(dp271
g13
g1
sg67
g68
sg24
g25
sg17
g8
((lp272
g231
ag257
atRp273
sbatRp274
sg36
I00
sbatRp275
sg15
S'C'
sg56
I0
sg16
I00
sg57
(F347.5642527508241
F407.98877192086138
F-27.33761390893601
tp276
sg59
(lp277
sg13
g1
sg61
g8
((ltRp278
sg63
g8
((lp279
(imodel.Bond
Bond
p280
(dp281
g13
g1
sg67
g68
sg24
g25
sg17
g8
((lp282
g231
ag205
atRp283
sba(imodel.Bond
Bond
p284
(dp285
g13
g1
sg67
g68
sg24
g25
sg17
g8
((lp286
g231
ag19
atRp287
sbag270
ag252
atRp288
sg36
I00
sba(imodel.VarAtom
VarAtom
p289
(dp290
g3
S'N1'
p291
sg21
I00
sg22
Nsg23
(imodel.Atom
Atom
p292
(dp293
g3
g291
sg13
g1
sg14
I3
sg15
S'N'
sg16
I00
sg17
g8
((lp294
g289
atRp295
sg36
I00
sbsg24
g25
sg37
g8
((lp296
g205
a(imodel.VarAtom
VarAtom
p297
(dp298
g3
S'C2'
p299
sg21
I00
sg22
Nsg23
(imodel.Atom
Atom
p300
(dp301
g3
g299
sg13
g1
sg14
I4
sg15
S'C'
sg16
I00
sg17
g8
((lp302
g297
atRp303
sg36
I00
sbsg24
g25
sg37
g8
((lp304
(imodel.VarAtom
VarAtom
p305
(dp306
g3
S'N3'
p307
sg21
I00
sg22
Nsg23
(imodel.Atom
Atom
p308
(dp309
g3
g307
sg13
g1
sg14
I3
sg15
S'N'
sg16
I00
sg17
g8
((lp310
g305
atRp311
sg36
I00
sbsg24
g25
sg37
g8
((lp312
g297
a(imodel.VarAtom
VarAtom
p313
(dp314
g3
S'C4'
p315
sg21
I00
sg22
Nsg23
(imodel.Atom
Atom
p316
(dp317
g3
g315
sg13
g1
sg14
I4
sg15
S'C'
sg16
I00
sg17
g8
((lp318
g313
atRp319
sg36
I00
sbsg24
g25
sg37
g8
((lp320
(imodel.VarAtom
VarAtom
p321
(dp322
g3
S'O4'
p323
sg21
I00
sg22
Nsg23
(imodel.Atom
Atom
p324
(dp325
g3
g323
sg13
g1
sg14
I2
sg15
S'O'
sg16
I00
sg17
g8
((lp326
g321
atRp327
sg36
I00
sbsg24
g25
sg37
g8
((lp328
g313
atRp329
sg15
S'O'
sg56
I0
sg16
I00
sg57
(F347.84734756860576
F158.23148977843701
F-108.16926834846545
tp330
sg59
(lp331
sg13
g1
sg61
g8
((ltRp332
sg63
g8
((lp333
(imodel.Bond
Bond
p334
(dp335
g13
g1
sg67
S'double'
p336
sg24
g25
sg17
g8
((lp337
g321
ag313
atRp338
sbatRp339
sg36
I00
sbag305
a(imodel.VarAtom
VarAtom
p340
(dp341
g3
S'C5'
p342
sg21
I00
sg22
Nsg23
(imodel.Atom
Atom
p343
(dp344
g3
g342
sg13
g1
sg14
I4
sg15
S'C'
sg16
I00
sg17
g8
((lp345
g340
atRp346
sg36
I00
sbsg24
g25
sg37
g8
((lp347
(imodel.VarAtom
VarAtom
p348
(dp349
g3
S'C6'
p350
sg21
I00
sg22
Nsg23
(imodel.Atom
Atom
p351
(dp352
g3
g350
sg13
g1
sg14
I4
sg15
S'C'
sg16
I00
sg17
g8
((lp353
g348
atRp354
sg36
I00
sbsg24
g25
sg37
g8
((lp355
(imodel.VarAtom
VarAtom
p356
(dp357
g3
S'H6'
p358
sg21
I00
sg22
Nsg23
(imodel.Atom
Atom
p359
(dp360
g3
g358
sg13
g1
sg14
I1
sg15
S'H'
sg16
I00
sg17
g8
((lp361
g356
atRp362
sg36
I00
sbsg24
g25
sg37
g8
((lp363
g348
atRp364
sg15
S'H'
sg56
I0
sg16
I00
sg57
(F266.05674665854718
F294.28208153963021
F7.2144894066227376
tp365
sg59
(lp366
sg13
g1
sg61
g8
((ltRp367
sg63
g8
((lp368
(imodel.Bond
Bond
p369
(dp370
g13
g1
sg67
g68
sg24
g25
sg17
g8
((lp371
g356
ag348
atRp372
sbatRp373
sg36
I00
sbag289
ag340
atRp374
sg15
S'C'
sg56
I0
sg16
I00
sg57
(F299.37683223467036
F276.42248660519061
F-17.001987338107011
tp375
sg59
(lp376
sg13
g1
sg61
g8
((lp377
(imodel.AtomGroup
AtomGroup
p378
(dp379
S'groupType'
p380
S'aromatic'
p381
sS'subGroups'
p382
g8
((ltRp383
sS'varAtoms'
p384
g8
((lp385
g305
ag340
ag289
ag348
ag297
ag313
atRp386
sS'variant'
p387
g25
sS'compound'
p388
g1
sbatRp389
sg63
g8
((lp390
g369
a(imodel.Bond
Bond
p391
(dp392
g13
g1
sg67
g381
sg24
g25
sg17
g8
((lp393
g348
ag340
atRp394
sba(imodel.Bond
Bond
p395
(dp396
g13
g1
sg67
g381
sg24
g25
sg17
g8
((lp397
g348
ag289
atRp398
sbatRp399
sg36
I00
sba(imodel.VarAtom
VarAtom
p400
(dp401
g3
S'C7'
p402
sg21
I00
sg22
Nsg23
(imodel.Atom
Atom
p403
(dp404
g3
g402
sg13
g1
sg14
I4
sg15
S'C'
sg16
I00
sg17
g8
((lp405
g400
atRp406
sg36
I00
sbsg24
g25
sg37
g8
((lp407
(imodel.VarAtom
VarAtom
p408
(dp409
g3
S'H72'
p410
sg21
I00
sg22
Nsg23
(imodel.Atom
Atom
p411
(dp412
g3
g410
sg13
g1
sg14
I1
sg15
S'H'
sg16
I00
sg17
g8
((lp413
g408
atRp414
sg36
I00
sbsg24
g25
sg37
g8
((lp415
g400
atRp416
sg15
S'H'
sg56
I0
sg16
I00
sg57
(F232.09176853403181
F230.51681814842789
F-21.524337350389132
tp417
sg59
(lp418
sg13
g1
sg61
g8
((ltRp419
sg63
g8
((lp420
(imodel.Bond
Bond
p421
(dp422
g13
g1
sg67
g68
sg24
g25
sg17
g8
((lp423
g408
ag400
atRp424
sbatRp425
sg36
I00
sba(imodel.VarAtom
VarAtom
p426
(dp427
g3
S'H73'
p428
sg21
I00
sg22
Nsg23
(imodel.Atom
Atom
p429
(dp430
g3
g428
sg13
g1
sg14
I1
sg15
S'H'
sg16
I00
sg17
g8
((lp431
g426
atRp432
sg36
I00
sbsg24
g25
sg37
g8
((lp433
g400
atRp434
sg15
S'H'
sg56
I0
sg16
I00
sg57
(F268.66048834177349
F163.56214021649296
F-24.022171107157529
tp435
sg59
(lp436
sg13
g1
sg61
g8
((ltRp437
sg63
g8
((lp438
(imodel.Bond
Bond
p439
(dp440
g13
g1
sg67
g68
sg24
g25
sg17
g8
((lp441
g400
ag426
atRp442
sbatRp443
sg36
I00
sbag340
a(imodel.VarAtom
VarAtom
p444
(dp445
g3
S'H71'
p446
sg21
I00
sg22
Nsg23
(imodel.Atom
Atom
p447
(dp448
g3
g446
sg13
g1
sg14
I1
sg15
S'H'
sg16
I00
sg17
g8
((lp449
g444
atRp450
sg36
I00
sbsg24
g25
sg37
g8
((lp451
g400
atRp452
sg15
S'H'
sg56
I0
sg16
I00
sg57
(F221.07013930981779
F181.75009011454142
F-98.723586270385155
tp453
sg59
(lp454
sg13
g1
sg61
g8
((ltRp455
sg63
g8
((lp456
(imodel.Bond
Bond
p457
(dp458
g13
g1
sg67
g68
sg24
g25
sg17
g8
((lp459
g444
ag400
atRp460
sbatRp461
sg36
I00
sbatRp462
sg15
S'C'
sg56
I0
sg16
I00
sg57
(F255.5578973428801
F199.86192953750168
F-47.53338033226246
tp463
sg59
(lp464
sg13
g1
sg61
g8
((ltRp465
sg63
g8
((lp466
g421
ag439
ag457
a(imodel.Bond
Bond
p467
(dp468
g13
g1
sg67
g68
sg24
g25
sg17
g8
((lp469
g400
ag340
atRp470
sbatRp471
sg36
I00
sbag313
atRp472
sg15
S'C'
sg56
I0
sg16
I00
sg57
(F299.87094261574345
F226.3733770477252
F-47.977146263090056
tp473
sg59
(lp474
sg13
g1
sg61
g8
((lp475
g378
atRp476
sg63
g8
((lp477
g391
ag467
a(imodel.Bond
Bond
p478
(dp479
g13
g1
sg67
g381
sg24
g25
sg17
g8
((lp480
g313
ag340
atRp481
sbatRp482
sg36
I00
sbatRp483
sg15
S'C'
sg56
I0
sg16
I00
sg57
(F343.84124226321222
F202.0614989057882
F-80.955484280258489
tp484
sg59
(lp485
sg13
g1
sg61
g8
((lp486
g378
atRp487
sg63
g8
((lp488
g334
ag478
a(imodel.Bond
Bond
p489
(dp490
g13
g1
sg67
g381
sg24
g25
sg17
g8
((lp491
g305
ag313
atRp492
sbatRp493
sg36
I00
sba(imodel.VarAtom
VarAtom
p494
(dp495
g3
S'H3'
p496
sg21
I00
sg22
Nsg23
(imodel.Atom
Atom
p497
(dp498
g3
g496
sg13
g1
sg14
I1
sg15
S'H'
sg16
I01
sg17
g8
((lp499
g494
atRp500
sg36
I00
sbsg24
g25
sg37
g8
((lp501
g305
atRp502
sg15
S'H'
sg56
I0
sg16
I01
sg57
(F418.00414654443978
F206.16161294710048
F-98.923774334617676
tp503
sg59
(lp504
sg13
g1
sg61
g8
((ltRp505
sg63
g8
((lp506
(imodel.Bond
Bond
p507
(dp508
g13
g1
sg67
g68
sg24
g25
sg17
g8
((lp509
g305
ag494
atRp510
sbatRp511
sg36
I00
sbatRp512
sg15
S'N'
sg56
I0
sg16
I00
sg57
(F386.60673499145781
F227.96052993542119
F-77.957309238931387
tp513
sg59
(lp514
sg13
g1
sg61
g8
((lp515
g378
atRp516
sg63
g8
((lp517
(imodel.Bond
Bond
p518
(dp519
g13
g1
sg67
g381
sg24
g25
sg17
g8
((lp520
g297
ag305
atRp521
sbag507
ag489
atRp522
sg36
I00
sba(imodel.VarAtom
VarAtom
p523
(dp524
g3
S'O2'
p525
sg21
I00
sg22
Nsg23
(imodel.Atom
Atom
p526
(dp527
g3
g525
sg13
g1
sg14
I2
sg15
S'O'
sg16
I00
sg17
g8
((lp528
g523
atRp529
sg36
I00
sbsg24
g25
sg37
g8
((lp530
g297
atRp531
sg15
S'O'
sg56
I0
sg16
I00
sg57
(F428.1191373081308
F290.81600246277145
F-48.038439816863914
tp532
sg59
(lp533
sg13
g1
sg61
g8
((ltRp534
sg63
g8
((lp535
(imodel.Bond
Bond
p536
(dp537
g13
g1
sg67
S'double'
p538
sg24
g25
sg17
g8
((lp539
g297
ag523
atRp540
sbatRp541
sg36
I00
sbag289
atRp542
sg15
S'C'
sg56
I0
sg16
I00
sg57
(F385.98558738548809
F277.89508138651877
F-47.202311762362783
tp543
sg59
(lp544
sg13
g1
sg61
g8
((lp545
g378
atRp546
sg63
g8
((lp547
g518
ag536
a(imodel.Bond
Bond
p548
(dp549
g13
g1
sg67
g381
sg24
g25
sg17
g8
((lp550
g297
ag289
atRp551
sbatRp552
sg36
I00
sbag348
atRp553
sg15
S'N'
sg56
I0
sg16
I00
sg57
(F341.99632490141994
F302.5658534920247
F-15.881315586656875
tp554
sg59
(lp555
sg13
g1
sg61
g8
((lp556
g378
atRp557
sg63
g8
((lp558
(imodel.Bond
Bond
p559
(dp560
g13
g1
sg67
g68
sg24
g25
sg17
g8
((lp561
g205
ag289
atRp562
sbag395
ag548
atRp563
sg36
I00
sbag197
atRp564
sg15
S'C'
sg56
I0
sg16
I00
sg57
(F335.61363805146732
F354.03230638557108
F16.525779686824446
tp565
sg59
(lp566
sg13
g1
sg61
g8
((ltRp567
sg63
g8
((lp568
g559
ag280
ag226
a(imodel.Bond
Bond
p569
(dp570
g13
g1
sg67
g68
sg24
g25
sg17
g8
((lp571
g205
ag197
atRp572
sbatRp573
sg36
I00
sbatRp574
sg15
S'O'
sg56
I0
sg16
I00
sg57
(F285.75783229509153
F367.72835471589462
F72.128858259665563
tp575
sg59
(lp576
sg13
g1
sg61
g8
((ltRp577
sg63
g8
((lp578
(imodel.Bond
Bond
p579
(dp580
g13
g1
sg67
g68
sg24
g25
sg17
g8
((lp581
g171
ag197
atRp582
sbag569
atRp583
sg36
I00
sbatRp584
sg15
S'C'
sg56
I0
sg16
I00
sg57
(F261.21066311593324
F413.19902510901716
F71.064392898100337
tp585
sg59
(lp586
sg13
g1
sg61
g8
((ltRp587
sg63
g8
((lp588
(imodel.Bond
Bond
p589
(dp590
g13
g1
sg67
g68
sg24
g25
sg17
g8
((lp591
g171
ag145
atRp592
sbag579
a(imodel.Bond
Bond
p593
(dp594
g13
g1
sg67
g68
sg24
g25
sg17
g8
((lp595
g171
ag19
atRp596
sbag192
atRp597
sg36
I00
sbag137
a(imodel.VarAtom
VarAtom
p598
(dp599
g3
S"H5'"
p600
sg21
I00
sg22
Nsg23
(imodel.Atom
Atom
p601
(dp602
g3
g600
sg13
g1
sg14
I1
sg15
S'H'
sg16
I00
sg17
g8
((lp603
g598
atRp604
sg36
I00
sbsg24
g25
sg37
g8
((lp605
g145
atRp606
sg15
S'H'
sg56
I0
sg16
I00
sg57
(F209.91893967583999
F364.07858813138682
F2.4538959351631009
tp607
sg59
(lp608
sg13
g1
sg61
g8
((ltRp609
sg63
g8
((lp610
(imodel.Bond
Bond
p611
(dp612
g13
g1
sg67
g68
sg24
g25
sg17
g8
((lp613
g598
ag145
atRp614
sbatRp615
sg36
I00
sbatRp616
sg15
S'C'
sg56
I0
sg16
I00
sg57
(F209.84759269746687
F402.43024184745917
F50.600891687281177
tp617
sg59
(lp618
sg13
g1
sg61
g8
((ltRp619
sg63
g8
((lp620
g589
ag611
a(imodel.Bond
Bond
p621
(dp622
g13
g1
sg67
g68
sg24
g25
sg17
g8
((lp623
g137
ag145
atRp624
sbag166
atRp625
sg36
I00
sbatRp626
sg15
S'O'
sg56
I0
sg16
I00
sg57
(F159.42839327685007
F393.31797477218248
F99.13615253211357
tp627
sg59
(lp628
sg13
g1
sg61
g8
((ltRp629
sg63
g8
((lp630
(imodel.Bond
Bond
p631
(dp632
g13
g1
sg67
g68
sg24
g25
sg17
g8
((lp633
g30
ag137
atRp634
sbag621
atRp635
sg36
I00
sbatRp636
sg15
S'P'
sg56
I0
sg16
I00
sg57
(F109.20123044973617
F385.13187258676686
F89.762406324311826
tp637
sg59
(lp638
sg13
g1
sg61
g8
((ltRp639
sg63
g8
((lp640
g77
ag113
ag631
ag131
atRp641
sg36
I00
sbatRp642
sS'C'
g8
((lp643
g171
ag231
ag340
ag205
ag145
ag400
ag348
ag19
ag297
ag313
atRp644
sS'H'
g8
((lp645
g356
ag444
a(imodel.VarAtom
VarAtom
p646
(dp647
g3
S"HO3'"
p648
sg21
I01
sg22
Nsg23
(imodel.Atom
Atom
p649
(dp650
g3
g648
sg13
g1
sg14
I1
sg15
S'H'
sg16
I00
sg17
g8
((lp651
g646
atRp652
sg36
I00
sbsg24
g25
sg37
g8
((lp653
(imodel.VarAtom
VarAtom
p654
(dp655
g3
S"O3'"
p656
sg21
I00
sg22
Nsg23
(imodel.Atom
Atom
p657
(dp658
g3
g656
sg13
g1
sg14
I2
sg15
S'O'
sg16
I00
sg17
g8
((lp659
g654
atRp660
sg36
I00
sbsg24
g25
sg37
g8
((lp661
g19
ag646
atRp662
sg15
S'O'
sg56
I0
sg16
I00
sg57
(F344.33292802268829
F485.06568674220898
F52.591538244983674
tp663
sg59
(lp664
sg13
g1
sg61
g8
((ltRp665
sg63
g8
((lp666
(imodel.Bond
Bond
p667
(dp668
g13
g1
sg67
g68
sg24
g25
sg17
g8
((lp669
g654
ag19
atRp670
sba(imodel.Bond
Bond
p671
(dp672
g13
g1
sg67
g68
sg24
g25
sg17
g8
((lp673
g654
ag646
atRp674
sbatRp675
sg36
I00
sbatRp676
sg15
S'H'
sg56
I0
sg16
I00
sg57
(F365.44511164219966
F516.65577232752401
F41.844707903713939
tp677
sg59
(lp678
sg13
g1
sg61
g8
((ltRp679
sg63
g8
((lp680
g671
atRp681
sg36
I00
sbag239
ag47
ag494
ag408
ag153
ag598
ag426
ag90
ag179
a(imodel.VarAtom
VarAtom
p682
(dp683
g3
S"H3'"
p684
sg21
I00
sg22
Nsg23
(imodel.Atom
Atom
p685
(dp686
g3
g684
sg13
g1
sg14
I1
sg15
S'H'
sg16
I00
sg17
g8
((lp687
g682
atRp688
sg36
I00
sbsg24
g25
sg37
g8
((lp689
g19
atRp690
sg15
S'H'
sg56
I0
sg16
I00
sg57
(F292.14531760948154
F480.32541308431115
F-4.4060303210112837
tp691
sg59
(lp692
sg13
g1
sg61
g8
((ltRp693
sg63
g8
((lp694
(imodel.Bond
Bond
p695
(dp696
g13
g1
sg67
g68
sg24
g25
sg17
g8
((lp697
g682
ag19
atRp698
sbatRp699
sg36
I00
sbag213
ag257
atRp700
sS'O'
g8
((lp701
g82
ag118
ag137
ag523
ag197
ag321
ag654
ag39
atRp702
sS'N'
g8
((lp703
g305
ag289
atRp704
ssg63
g8
((lp705
g270
ag131
ag631
ag391
ag536
ag113
ag192
ag478
ag166
ag589
ag395
ag667
ag226
ag621
ag507
ag593
ag489
ag369
ag77
ag334
ag421
ag280
ag695
ag559
ag457
ag671
ag579
ag611
ag518
ag569
ag65
ag439
ag103
ag252
ag284
ag467
ag548
atRp706
sg13
g1
sS'descriptor'
p707
(S'neutral'
p708
S'none'
p709
S'default'
p710
tp711
sS'atomDict'
p712
(dp713
g10
g19
sg601
g598
sg447
g444
sg121
g118
sg429
g426
sg208
g205
sg649
g646
sg411
g408
sg308
g305
sg140
g137
sg93
g90
sg403
g400
sg200
g197
sg156
g153
sg324
g321
sg234
g231
sg359
g356
sg657
g654
sg242
g239
sg85
g82
sg182
g179
sg32
g30
sg148
g145
sg216
g213
sg174
g171
sg343
g340
sg685
g682
sg300
g297
sg497
g494
sg351
g348
sg260
g257
sg50
g47
sg316
g313
sg526
g523
sg292
g289
sg42
g39
ssg17
g8
((lp714
g118
ag171
ag145
ag313
ag348
ag408
ag205
ag426
ag646
ag213
ag82
ag400
ag289
ag523
ag197
ag305
ag494
ag39
ag179
ag30
ag153
ag47
ag654
ag297
ag90
ag356
ag321
ag340
ag239
ag444
ag137
ag19
ag598
ag231
ag682
ag257
atRp715
sg61
g8
((lp716
g378
atRp717
sS'polyLink'
p718
S'none'
p719
sbsg37
g8
((lp720
g171
ag231
ag654
ag682
atRp721
sg15
S'C'
sg56
I0
sg16
I00
sg57
(F310.66401704332617
F446.49867465123401
F19.999296081608005
tp722
sg59
(lp723
sg13
g1
sg61
g8
((ltRp724
sg63
g8
((lp725
g695
ag667
ag593
ag284
atRp726
sg36
I00
sbatRp727
sg36
I00
sbag601
ag403
ag447
ag429
ag208
ag649
ag411
ag308
ag140
ag93
ag242
ag200
ag156
ag324
ag234
ag657
ag300
ag85
ag50
ag32
ag148
ag216
ag174
ag343
ag685
ag260
ag359
ag497
ag526
ag121
ag316
ag351
ag182
ag292
ag42
atRp728
sS'ccpMolType'
p729
S'DNA'
p730
sS'details'
p731
V
sg712
(dp732
g648
g649
sg120
g121
sg41
g42
sg84
g85
sg92
g93
sg49
g50
sg12
g10
sg207
g208
sg147
g148
sg241
g242
sg323
g324
sg525
g526
sg600
g601
sg684
g685
sg259
g260
sg199
g200
sg299
g300
sg402
g403
sg350
g351
sg342
g343
sg315
g316
sg155
g156
sS'P'
g32
sg173
g174
sg233
g234
sg291
g292
sg307
g308
sg215
g216
sg181
g182
sg410
g411
sg358
g359
sg428
g429
sg139
g140
sg496
g497
sg446
g447
sg656
g657
ssS'keywords'
p733
g8
((ltRp734
sg61
g8
((lp735
g378
atRp736
sS'variants'
p737
g8
((lp738
g25
atRp739
sS'defaultVars'
p740
g8
((ltRp741
sb.