(imodel.Compound
Compound
p1
(dp2
S'name'
p3
V2'-DEOXYURIDINE-5'-MONOPHOSPHATE
p4
sS'isModified'
p5
I01
sS'ccpCode'
p6
VU
sS'atoms'
p7
c__builtin__
set
p8
((lp9
(imodel.Atom
Atom
p10
(dp11
g3
S"H2'"
p12
sS'compound'
p13
g1
sS'baseValences'
p14
I1
sS'element'
p15
S'H'
sS'isVariable'
p16
I00
sS'varAtoms'
p17
g8
((lp18
(imodel.VarAtom
VarAtom
p19
(dp20
g3
g12
sS'isLabile'
p21
I00
sS'chirality'
p22
NsS'atom'
p23
g10
sS'variant'
p24
(imodel.Variant
Variant
p25
(dp26
S'elementDict'
p27
(dp28
S'H'
g8
((lp29
(imodel.VarAtom
VarAtom
p30
(dp31
g3
S"HO3'"
p32
sg21
I01
sg22
Nsg23
(imodel.Atom
Atom
p33
(dp34
g3
g32
sg13
g1
sg14
I1
sg15
S'H'
sg16
I00
sg17
g8
((lp35
g30
atRp36
sS'isDeleted'
p37
I00
sbsg24
g25
sS'neighbours'
p38
g8
((lp39
(imodel.VarAtom
VarAtom
p40
(dp41
g3
S"O3'"
p42
sg21
I00
sg22
Nsg23
(imodel.Atom
Atom
p43
(dp44
g3
g42
sg13
g1
sg14
I2
sg15
S'O'
sg16
I00
sg17
g8
((lp45
g40
atRp46
sg37
I00
sbsg24
g25
sg38
g8
((lp47
g30
a(imodel.VarAtom
VarAtom
p48
(dp49
g3
S"C3'"
p50
sg21
I00
sg22
Nsg23
(imodel.Atom
Atom
p51
(dp52
g3
g50
sg13
g1
sg14
I4
sg15
S'C'
sg16
I00
sg17
g8
((lp53
g48
atRp54
sg37
I00
sbsg24
g25
sg38
g8
((lp55
g40
a(imodel.VarAtom
VarAtom
p56
(dp57
g3
S"C2'"
p58
sg21
I00
sg22
Nsg23
(imodel.Atom
Atom
p59
(dp60
g3
g58
sg13
g1
sg14
I4
sg15
S'C'
sg16
I00
sg17
g8
((lp61
g56
atRp62
sg37
I00
sbsg24
g25
sg38
g8
((lp63
g19
ag48
a(imodel.VarAtom
VarAtom
p64
(dp65
g3
S"C1'"
p66
sg21
I00
sg22
Nsg23
(imodel.Atom
Atom
p67
(dp68
g3
g66
sg13
g1
sg14
I4
sg15
S'C'
sg16
I00
sg17
g8
((lp69
g64
atRp70
sg37
I00
sbsg24
g25
sg38
g8
((lp71
(imodel.VarAtom
VarAtom
p72
(dp73
g3
S"O4'"
p74
sg21
I00
sg22
Nsg23
(imodel.Atom
Atom
p75
(dp76
g3
g74
sg13
g1
sg14
I2
sg15
S'O'
sg16
I00
sg17
g8
((lp77
g72
atRp78
sg37
I00
sbsg24
g25
sg38
g8
((lp79
g64
a(imodel.VarAtom
VarAtom
p80
(dp81
g3
S"C4'"
p82
sg21
I00
sg22
Nsg23
(imodel.Atom
Atom
p83
(dp84
g3
g82
sg13
g1
sg14
I4
sg15
S'C'
sg16
I00
sg17
g8
((lp85
g80
atRp86
sg37
I00
sbsg24
g25
sg38
g8
((lp87
(imodel.VarAtom
VarAtom
p88
(dp89
g3
S"C5'"
p90
sg21
I00
sg22
Nsg23
(imodel.Atom
Atom
p91
(dp92
g3
g90
sg13
g1
sg14
I4
sg15
S'C'
sg16
I00
sg17
g8
((lp93
g88
atRp94
sg37
I00
sbsg24
g25
sg38
g8
((lp95
(imodel.VarAtom
VarAtom
p96
(dp97
g3
S"O5'"
p98
sg21
I00
sg22
Nsg23
(imodel.Atom
Atom
p99
(dp100
g3
g98
sg13
g1
sg14
I2
sg15
S'O'
sg16
I00
sg17
g8
((lp101
g96
atRp102
sg37
I00
sbsg24
g25
sg38
g8
((lp103
g88
a(imodel.VarAtom
VarAtom
p104
(dp105
g3
S'P'
sg21
I00
sg22
Nsg23
(imodel.Atom
Atom
p106
(dp107
g3
S'P'
sg13
g1
sg14
I5
sg15
S'P'
sg16
I00
sg17
g8
((lp108
g104
atRp109
sg37
I00
sbsg24
g25
sg38
g8
((lp110
g96
a(imodel.VarAtom
VarAtom
p111
(dp112
g3
S'OP3'
p113
sg21
I00
sg22
Nsg23
(imodel.Atom
Atom
p114
(dp115
g3
g113
sg13
g1
sg14
I2
sg15
S'O'
sg16
I00
sg17
g8
((lp116
g111
atRp117
sg37
I00
sbsg24
g25
sg38
g8
((lp118
(imodel.VarAtom
VarAtom
p119
(dp120
g3
S'HOP3'
p121
sg21
I01
sg22
Nsg23
(imodel.Atom
Atom
p122
(dp123
g3
g121
sg13
g1
sg14
I1
sg15
S'H'
sg16
I00
sg17
g8
((lp124
g119
atRp125
sg37
I00
sbsg24
g25
sg38
g8
((lp126
g111
atRp127
sg15
S'H'
sS'charge'
p128
I0
sg16
I00
sS'coords'
p129
(F183.5685004532354
F193.71554245428069
F-108.32003685849585
tp130
sS'freeValences'
p131
(lp132
sg13
g1
sS'atomGroups'
p133
g8
((ltRp134
sS'bonds'
p135
g8
((lp136
(imodel.Bond
Bond
p137
(dp138
g13
g1
sS'bondType'
p139
S'single'
p140
sg24
g25
sg17
g8
((lp141
g111
ag119
atRp142
sbatRp143
sg37
I00
sbag104
atRp144
sg15
S'O'
sg128
I0
sg16
I00
sg129
(F186.69605616374952
F231.47781605399518
F-130.40460030638803
tp145
sg131
(lp146
sg13
g1
sg133
g8
((ltRp147
sg135
g8
((lp148
g137
a(imodel.Bond
Bond
p149
(dp150
g13
g1
sg139
g140
sg24
g25
sg17
g8
((lp151
g111
ag104
atRp152
sbatRp153
sg37
I00
sba(imodel.VarAtom
VarAtom
p154
(dp155
g3
S'OP2'
p156
sg21
I00
sg22
Nsg23
(imodel.Atom
Atom
p157
(dp158
g3
g156
sg13
g1
sg14
I2
sg15
S'O'
sg16
I00
sg17
g8
((lp159
g154
atRp160
sg37
I00
sbsg24
g25
sg38
g8
((lp161
(imodel.VarAtom
VarAtom
p162
(dp163
g3
S'HOP2'
p164
sg21
I01
sg22
Nsg23
(imodel.Atom
Atom
p165
(dp166
g3
g164
sg13
g1
sg14
I1
sg15
S'H'
sg16
I00
sg17
g8
((lp167
g162
atRp168
sg37
I00
sbsg24
g25
sg38
g8
((lp169
g154
atRp170
sg15
S'H'
sg128
I0
sg16
I00
sg129
(F127.98535271414926
F356.5676537539473
F-77.207044786264873
tp171
sg131
(lp172
sg13
g1
sg133
g8
((ltRp173
sg135
g8
((lp174
(imodel.Bond
Bond
p175
(dp176
g13
g1
sg139
g140
sg24
g25
sg17
g8
((lp177
g162
ag154
atRp178
sbatRp179
sg37
I00
sbag104
atRp180
sg15
S'O'
sg128
I0
sg16
I00
sg129
(F146.88908960722983
F323.82317763899152
F-82.849597881597774
tp181
sg131
(lp182
sg13
g1
sg133
g8
((ltRp183
sg135
g8
((lp184
g175
a(imodel.Bond
Bond
p185
(dp186
g13
g1
sg139
g140
sg24
g25
sg17
g8
((lp187
g154
ag104
atRp188
sbatRp189
sg37
I00
sba(imodel.VarAtom
VarAtom
p190
(dp191
g3
S'OP1'
p192
sg21
I00
sg22
Nsg23
(imodel.Atom
Atom
p193
(dp194
g3
g192
sg13
g1
sg14
I2
sg15
S'O'
sg16
I00
sg17
g8
((lp195
g190
atRp196
sg37
I00
sbsg24
g25
sg38
g8
((lp197
g104
atRp198
sg15
S'O'
sg128
I0
sg16
I00
sg129
(F131.98770236079531
F263.24550373439047
F-144.45839204827229
tp199
sg131
(lp200
sg13
g1
sg133
g8
((ltRp201
sg135
g8
((lp202
(imodel.Bond
Bond
p203
(dp204
g13
g1
sg139
S'double'
p205
sg24
g25
sg17
g8
((lp206
g190
ag104
atRp207
sbatRp208
sg37
I00
sbatRp209
sg15
S'P'
sg128
I0
sg16
I00
sg129
(F172.8457440556956
F280.27448012014906
F-109.90921972471416
tp210
sg131
(lp211
sg13
g1
sg133
g8
((ltRp212
sg135
g8
((lp213
(imodel.Bond
Bond
p214
(dp215
g13
g1
sg139
g140
sg24
g25
sg17
g8
((lp216
g96
ag104
atRp217
sbag203
ag185
ag149
atRp218
sg37
I00
sbatRp219
sg15
S'O'
sg128
I0
sg16
I00
sg129
(F218.0428779835006
F303.544751706596
F-51.179094973848201
tp220
sg131
(lp221
sg13
g1
sg133
g8
((ltRp222
sg135
g8
((lp223
(imodel.Bond
Bond
p224
(dp225
g13
g1
sg139
g140
sg24
g25
sg17
g8
((lp226
g96
ag88
atRp227
sbag214
atRp228
sg37
I00
sbag80
a(imodel.VarAtom
VarAtom
p229
(dp230
g3
S"H5''"
p231
sg21
I00
sg22
Nsg23
(imodel.Atom
Atom
p232
(dp233
g3
g231
sg13
g1
sg14
I1
sg15
S'H'
sg16
I00
sg17
g8
((lp234
g229
atRp235
sg37
I00
sbsg24
g25
sg38
g8
((lp236
g88
atRp237
sg15
S'H'
sg128
I0
sg16
I00
sg129
(F235.81076548357714
F357.96657943617629
F4.704221762711545
tp238
sg131
(lp239
sg13
g1
sg133
g8
((ltRp240
sg135
g8
((lp241
(imodel.Bond
Bond
p242
(dp243
g13
g1
sg139
g140
sg24
g25
sg17
g8
((lp244
g229
ag88
atRp245
sbatRp246
sg37
I00
sba(imodel.VarAtom
VarAtom
p247
(dp248
g3
S"H5'"
p249
sg21
I00
sg22
Nsg23
(imodel.Atom
Atom
p250
(dp251
g3
g249
sg13
g1
sg14
I1
sg15
S'H'
sg16
I00
sg17
g8
((lp252
g247
atRp253
sg37
I00
sbsg24
g25
sg38
g8
((lp254
g88
atRp255
sg15
S'H'
sg128
I0
sg16
I00
sg129
(F272.08093233246632
F292.75087949434362
F-21.517644238053187
tp256
sg131
(lp257
sg13
g1
sg133
g8
((ltRp258
sg135
g8
((lp259
(imodel.Bond
Bond
p260
(dp261
g13
g1
sg139
g140
sg24
g25
sg17
g8
((lp262
g247
ag88
atRp263
sbatRp264
sg37
I00
sbatRp265
sg15
S'C'
sg128
I0
sg16
I00
sg129
(F261.91207053389439
F329.9651467280886
F-3.1846580748037732
tp266
sg131
(lp267
sg13
g1
sg133
g8
((ltRp268
sg135
g8
((lp269
(imodel.Bond
Bond
p270
(dp271
g13
g1
sg139
g140
sg24
g25
sg17
g8
((lp272
g88
ag80
atRp273
sbag224
ag260
ag242
atRp274
sg37
I00
sba(imodel.VarAtom
VarAtom
p275
(dp276
g3
S"H4'"
p277
sg21
I00
sg22
Nsg23
(imodel.Atom
Atom
p278
(dp279
g3
g277
sg13
g1
sg14
I1
sg15
S'H'
sg16
I00
sg17
g8
((lp280
g275
atRp281
sg37
I00
sbsg24
g25
sg38
g8
((lp282
g80
atRp283
sg15
S'H'
sg128
I0
sg16
I00
sg129
(F322.17530807296475
F324.5626897672139
F98.051705059983846
tp284
sg131
(lp285
sg13
g1
sg133
g8
((ltRp286
sg135
g8
((lp287
(imodel.Bond
Bond
p288
(dp289
g13
g1
sg139
g140
sg24
g25
sg17
g8
((lp290
g275
ag80
atRp291
sbatRp292
sg37
I00
sbag72
ag48
atRp293
sg15
S'C'
sg128
I0
sg16
I00
sg129
(F306.01107148168921
F359.3743455932522
F62.659109719147139
tp294
sg131
(lp295
sg13
g1
sg133
g8
((ltRp296
sg135
g8
((lp297
g270
a(imodel.Bond
Bond
p298
(dp299
g13
g1
sg139
g140
sg24
g25
sg17
g8
((lp300
g72
ag80
atRp301
sba(imodel.Bond
Bond
p302
(dp303
g13
g1
sg139
g140
sg24
g25
sg17
g8
((lp304
g48
ag80
atRp305
sbag288
atRp306
sg37
I00
sbatRp307
sg15
S'O'
sg128
I0
sg16
I00
sg129
(F356.51204727308709
F363.11623037707204
F58.045873824239244
tp308
sg131
(lp309
sg13
g1
sg133
g8
((ltRp310
sg135
g8
((lp311
(imodel.Bond
Bond
p312
(dp313
g13
g1
sg139
g140
sg24
g25
sg17
g8
((lp314
g72
ag64
atRp315
sbag298
atRp316
sg37
I00
sbag56
a(imodel.VarAtom
VarAtom
p317
(dp318
g3
S'N1'
p319
sg21
I00
sg22
Nsg23
(imodel.Atom
Atom
p320
(dp321
g3
g319
sg13
g1
sg14
I3
sg15
S'N'
sg16
I00
sg17
g8
((lp322
g317
atRp323
sg37
I00
sbsg24
g25
sg38
g8
((lp324
(imodel.VarAtom
VarAtom
p325
(dp326
g3
S'C6'
p327
sg21
I00
sg22
Nsg23
(imodel.Atom
Atom
p328
(dp329
g3
g327
sg13
g1
sg14
I4
sg15
S'C'
sg16
I00
sg17
g8
((lp330
g325
atRp331
sg37
I00
sbsg24
g25
sg38
g8
((lp332
g317
a(imodel.VarAtom
VarAtom
p333
(dp334
g3
S'C5'
p335
sg21
I00
sg22
Nsg23
(imodel.Atom
Atom
p336
(dp337
g3
g335
sg13
g1
sg14
I4
sg15
S'C'
sg16
I00
sg17
g8
((lp338
g333
atRp339
sg37
I00
sbsg24
g25
sg38
g8
((lp340
(imodel.VarAtom
VarAtom
p341
(dp342
g3
S'H5'
p343
sg21
I00
sg22
Nsg23
(imodel.Atom
Atom
p344
(dp345
g3
g343
sg13
g1
sg14
I1
sg15
S'H'
sg16
I00
sg17
g8
((lp346
g341
atRp347
sg37
I00
sbsg24
g25
sg38
g8
((lp348
g333
atRp349
sg15
S'H'
sg128
I0
sg16
I00
sg129
(F565.13812779010368
F437.83450770374401
F-131.29336636325414
tp350
sg131
(lp351
sg13
g1
sg133
g8
((ltRp352
sg135
g8
((lp353
(imodel.Bond
Bond
p354
(dp355
g13
g1
sg139
g140
sg24
g25
sg17
g8
((lp356
g333
ag341
atRp357
sbatRp358
sg37
I00
sbag325
a(imodel.VarAtom
VarAtom
p359
(dp360
g3
S'C4'
p361
sg21
I00
sg22
Nsg23
(imodel.Atom
Atom
p362
(dp363
g3
g361
sg13
g1
sg14
I4
sg15
S'C'
sg16
I00
sg17
g8
((lp364
g359
atRp365
sg37
I00
sbsg24
g25
sg38
g8
((lp366
(imodel.VarAtom
VarAtom
p367
(dp368
g3
S'O4'
p369
sg21
I00
sg22
Nsg23
(imodel.Atom
Atom
p370
(dp371
g3
g369
sg13
g1
sg14
I2
sg15
S'O'
sg16
I00
sg17
g8
((lp372
g367
atRp373
sg37
I00
sbsg24
g25
sg38
g8
((lp374
g359
atRp375
sg15
S'O'
sg128
I0
sg16
I00
sg129
(F602.07095137285614
F358.3886189947184
F-85.563795552034321
tp376
sg131
(lp377
sg13
g1
sg133
g8
((ltRp378
sg135
g8
((lp379
(imodel.Bond
Bond
p380
(dp381
g13
g1
sg139
S'double'
p382
sg24
g25
sg17
g8
((lp383
g359
ag367
atRp384
sbatRp385
sg37
I00
sbag333
a(imodel.VarAtom
VarAtom
p386
(dp387
g3
S'N3'
p388
sg21
I00
sg22
Nsg23
(imodel.Atom
Atom
p389
(dp390
g3
g388
sg13
g1
sg14
I3
sg15
S'N'
sg16
I00
sg17
g8
((lp391
g386
atRp392
sg37
I00
sbsg24
g25
sg38
g8
((lp393
(imodel.VarAtom
VarAtom
p394
(dp395
g3
S'C2'
p396
sg21
I00
sg22
Nsg23
(imodel.Atom
Atom
p397
(dp398
g3
g396
sg13
g1
sg14
I4
sg15
S'C'
sg16
I00
sg17
g8
((lp399
g394
atRp400
sg37
I00
sbsg24
g25
sg38
g8
((lp401
g386
a(imodel.VarAtom
VarAtom
p402
(dp403
g3
S'O2'
p404
sg21
I00
sg22
Nsg23
(imodel.Atom
Atom
p405
(dp406
g3
g404
sg13
g1
sg14
I2
sg15
S'O'
sg16
I00
sg17
g8
((lp407
g402
atRp408
sg37
I00
sbsg24
g25
sg38
g8
((lp409
g394
atRp410
sg15
S'O'
sg128
I0
sg16
I00
sg129
(F463.88221602665254
F288.8793585771096
F121.63222289368905
tp411
sg131
(lp412
sg13
g1
sg133
g8
((ltRp413
sg135
g8
((lp414
(imodel.Bond
Bond
p415
(dp416
g13
g1
sg139
S'double'
p417
sg24
g25
sg17
g8
((lp418
g402
ag394
atRp419
sbatRp420
sg37
I00
sbag317
atRp421
sg15
S'C'
sg128
I0
sg16
I00
sg129
(F478.61174461701165
F330.35164933000902
F61.325478095671357
tp422
sg131
(lp423
sg13
g1
sg133
g8
((lp424
(imodel.AtomGroup
AtomGroup
p425
(dp426
S'groupType'
p427
S'aromatic'
p428
sS'subGroups'
p429
g8
((ltRp430
sS'varAtoms'
p431
g8
((lp432
g386
ag325
ag317
ag333
ag394
ag359
atRp433
sS'variant'
p434
g25
sS'compound'
p435
g1
sbatRp436
sg135
g8
((lp437
(imodel.Bond
Bond
p438
(dp439
g13
g1
sg139
g428
sg24
g25
sg17
g8
((lp440
g386
ag394
atRp441
sbag415
a(imodel.Bond
Bond
p442
(dp443
g13
g1
sg139
g428
sg24
g25
sg17
g8
((lp444
g394
ag317
atRp445
sbatRp446
sg37
I00
sbag359
a(imodel.VarAtom
VarAtom
p447
(dp448
g3
S'H3'
p449
sg21
I00
sg22
Nsg23
(imodel.Atom
Atom
p450
(dp451
g3
g449
sg13
g1
sg14
I1
sg15
S'H'
sg16
I01
sg17
g8
((lp452
g447
atRp453
sg37
I00
sbsg24
g25
sg38
g8
((lp454
g386
atRp455
sg15
S'H'
sg128
I0
sg16
I01
sg129
(F547.26640083459984
F291.4113956689759
F35.564888261385036
tp456
sg131
(lp457
sg13
g1
sg133
g8
((ltRp458
sg135
g8
((lp459
(imodel.Bond
Bond
p460
(dp461
g13
g1
sg139
g140
sg24
g25
sg17
g8
((lp462
g386
ag447
atRp463
sbatRp464
sg37
I00
sbatRp465
sg15
S'N'
sg128
I0
sg16
I00
sg129
(F528.14791924712949
F324.49566902739235
F17.123925940986453
tp466
sg131
(lp467
sg13
g1
sg133
g8
((lp468
g425
atRp469
sg135
g8
((lp470
g438
ag460
a(imodel.Bond
Bond
p471
(dp472
g13
g1
sg139
g428
sg24
g25
sg17
g8
((lp473
g386
ag359
atRp474
sbatRp475
sg37
I00
sbatRp476
sg15
S'C'
sg128
I0
sg16
I00
sg129
(F558.37546236448566
F364.47640661333048
F-52.42842622984994
tp477
sg131
(lp478
sg13
g1
sg133
g8
((lp479
g425
atRp480
sg135
g8
((lp481
g380
ag471
a(imodel.Bond
Bond
p482
(dp483
g13
g1
sg139
g428
sg24
g25
sg17
g8
((lp484
g333
ag359
atRp485
sbatRp486
sg37
I00
sbatRp487
sg15
S'C'
sg128
I0
sg16
I00
sg129
(F538.43400780345462
F410.47390157476804
F-76.816757125790161
tp488
sg131
(lp489
sg13
g1
sg133
g8
((lp490
g425
atRp491
sg135
g8
((lp492
g354
a(imodel.Bond
Bond
p493
(dp494
g13
g1
sg139
g428
sg24
g25
sg17
g8
((lp495
g333
ag325
atRp496
sbag482
atRp497
sg37
I00
sba(imodel.VarAtom
VarAtom
p498
(dp499
g3
S'H6'
p500
sg21
I00
sg22
Nsg23
(imodel.Atom
Atom
p501
(dp502
g3
g500
sg13
g1
sg14
I1
sg15
S'H'
sg16
I00
sg17
g8
((lp503
g498
atRp504
sg37
I00
sbsg24
g25
sg38
g8
((lp505
g325
atRp506
sg15
S'H'
sg128
I0
sg16
I00
sg129
(F481.96262302593277
F453.7879125764851
F-55.632412839135164
tp507
sg131
(lp508
sg13
g1
sg133
g8
((ltRp509
sg135
g8
((lp510
(imodel.Bond
Bond
p511
(dp512
g13
g1
sg139
g140
sg24
g25
sg17
g8
((lp513
g498
ag325
atRp514
sbatRp515
sg37
I00
sbatRp516
sg15
S'C'
sg128
I0
sg16
I00
sg129
(F488.85653311168693
F416.38233390204198
F-35.063817432127848
tp517
sg131
(lp518
sg13
g1
sg133
g8
((lp519
g425
atRp520
sg135
g8
((lp521
(imodel.Bond
Bond
p522
(dp523
g13
g1
sg139
g428
sg24
g25
sg17
g8
((lp524
g325
ag317
atRp525
sbag493
ag511
atRp526
sg37
I00
sbag394
ag64
atRp527
sg15
S'N'
sg128
I0
sg16
I00
sg129
(F458.31262804497874
F376.45771861529261
F32.425769412401735
tp528
sg131
(lp529
sg13
g1
sg133
g8
((lp530
g425
atRp531
sg135
g8
((lp532
g522
a(imodel.Bond
Bond
p533
(dp534
g13
g1
sg139
g140
sg24
g25
sg17
g8
((lp535
g64
ag317
atRp536
sbag442
atRp537
sg37
I00
sba(imodel.VarAtom
VarAtom
p538
(dp539
g3
S"H1'"
p540
sg21
I00
sg22
Nsg23
(imodel.Atom
Atom
p541
(dp542
g3
g540
sg13
g1
sg14
I1
sg15
S'H'
sg16
I00
sg17
g8
((lp543
g538
atRp544
sg37
I00
sbsg24
g25
sg38
g8
((lp545
g64
atRp546
sg15
S'H'
sg128
I0
sg16
I00
sg129
(F406.04076872799783
F345.21965599412465
F127.28482515338605
tp547
sg131
(lp548
sg13
g1
sg133
g8
((ltRp549
sg135
g8
((lp550
(imodel.Bond
Bond
p551
(dp552
g13
g1
sg139
g140
sg24
g25
sg17
g8
((lp553
g64
ag538
atRp554
sbatRp555
sg37
I00
sbatRp556
sg15
S'C'
sg128
I0
sg16
I00
sg129
(F403.11943771986671
F383.25909488023922
F76.051045419237141
tp557
sg131
(lp558
sg13
g1
sg133
g8
((ltRp559
sg135
g8
((lp560
g312
ag551
ag533
a(imodel.Bond
Bond
p561
(dp562
g13
g1
sg139
g140
sg24
g25
sg17
g8
((lp563
g64
ag56
atRp564
sbatRp565
sg37
I00
sba(imodel.VarAtom
VarAtom
p566
(dp567
g3
S"H2''"
p568
sg21
I00
sg22
Nsg23
(imodel.Atom
Atom
p569
(dp570
g3
g568
sg13
g1
sg14
I1
sg15
S'H'
sg16
I00
sg17
g8
((lp571
g566
atRp572
sg37
I00
sbsg24
g25
sg38
g8
((lp573
g56
atRp574
sg15
S'H'
sg128
I0
sg16
I00
sg129
(F364.77255735566155
F462.77026804023535
F18.283378230896883
tp575
sg131
(lp576
sg13
g1
sg133
g8
((ltRp577
sg135
g8
((lp578
(imodel.Bond
Bond
p579
(dp580
g13
g1
sg139
g140
sg24
g25
sg17
g8
((lp581
g566
ag56
atRp582
sbatRp583
sg37
I00
sbatRp584
sg15
S'C'
sg128
I0
sg16
I00
sg129
(F371.83545240789385
F424.51840769955572
F69.814297296332327
tp585
sg131
(lp586
sg13
g1
sg133
g8
((ltRp587
sg135
g8
((lp588
(imodel.Bond
Bond
p589
(dp590
g13
g1
sg139
g140
sg24
g25
sg17
g8
((lp591
g56
ag19
atRp592
sba(imodel.Bond
Bond
p593
(dp594
g13
g1
sg139
g140
sg24
g25
sg17
g8
((lp595
g48
ag56
atRp596
sbag579
ag561
atRp597
sg37
I00
sba(imodel.VarAtom
VarAtom
p598
(dp599
g3
S"H3'"
p600
sg21
I00
sg22
Nsg23
(imodel.Atom
Atom
p601
(dp602
g3
g600
sg13
g1
sg14
I1
sg15
S'H'
sg16
I00
sg17
g8
((lp603
g598
atRp604
sg37
I00
sbsg24
g25
sg38
g8
((lp605
g48
atRp606
sg15
S'H'
sg128
I0
sg16
I00
sg129
(F313.02460540469849
F447.77463178711309
F71.414596276468032
tp607
sg131
(lp608
sg13
g1
sg133
g8
((ltRp609
sg135
g8
((lp610
(imodel.Bond
Bond
p611
(dp612
g13
g1
sg139
g140
sg24
g25
sg17
g8
((lp613
g48
ag598
atRp614
sbatRp615
sg37
I00
sbag80
atRp616
sg15
S'C'
sg128
I0
sg16
I00
sg129
(F318.36691461514874
F409.83449244197084
F89.944020834750759
tp617
sg131
(lp618
sg13
g1
sg133
g8
((ltRp619
sg135
g8
((lp620
g611
ag302
a(imodel.Bond
Bond
p621
(dp622
g13
g1
sg139
g140
sg24
g25
sg17
g8
((lp623
g48
ag40
atRp624
sbag593
atRp625
sg37
I00
sbatRp626
sg15
S'O'
sg128
I0
sg16
I00
sg129
(F269.89640374747432
F426.20535001179019
F160.34074790682462
tp627
sg131
(lp628
sg13
g1
sg133
g8
((ltRp629
sg135
g8
((lp630
(imodel.Bond
Bond
p631
(dp632
g13
g1
sg139
g140
sg24
g25
sg17
g8
((lp633
g40
ag30
atRp634
sbag621
atRp635
sg37
I00
sbatRp636
sg15
S'H'
sg128
I0
sg16
I00
sg129
(F239.30819207358832
F448.84326448637864
F176.21150354346841
tp637
sg131
(lp638
sg13
g1
sg133
g8
((ltRp639
sg135
g8
((lp640
g631
atRp641
sg37
I00
sbag119
ag247
ag566
ag538
ag447
ag341
ag598
ag162
ag275
ag19
ag229
ag498
atRp642
sS'C'
g8
((lp643
g325
ag359
ag80
ag88
ag48
ag64
ag394
ag56
ag333
atRp644
sS'P'
g8
((lp645
g104
atRp646
sS'O'
g8
((lp647
g402
ag72
ag111
ag40
ag154
ag190
ag96
ag367
atRp648
sS'N'
g8
((lp649
g317
ag386
atRp650
ssg135
g8
((lp651
g471
ag493
ag561
ag203
ag260
ag579
ag137
ag460
ag442
ag242
ag380
ag175
ag438
ag511
ag631
ag621
ag533
ag214
ag302
ag312
ag482
ag149
ag270
ag185
ag593
ag551
ag354
ag224
ag288
ag589
ag415
ag611
ag298
ag522
atRp652
sg13
g1
sS'descriptor'
p653
(S'neutral'
p654
S'none'
p655
S'default'
p656
tp657
sS'atomDict'
p658
(dp659
g10
g19
sg83
g80
sg232
g229
sg405
g402
sg51
g48
sg91
g88
sg320
g317
sg397
g394
sg75
g72
sg193
g190
sg106
g104
sg278
g275
sg601
g598
sg336
g333
sg165
g162
sg370
g367
sg250
g247
sg328
g325
sg59
g56
sg389
g386
sg43
g40
sg33
g30
sg99
g96
sg122
g119
sg569
g566
sg157
g154
sg362
g359
sg501
g498
sg114
g111
sg67
g64
sg344
g341
sg450
g447
sg541
g538
ssg17
g8
((lp660
g56
ag72
ag119
ag40
ag447
ag598
ag64
ag162
ag111
ag566
ag247
ag317
ag88
ag48
ag19
ag325
ag386
ag402
ag30
ag80
ag154
ag190
ag104
ag394
ag229
ag333
ag359
ag341
ag498
ag275
ag538
ag367
ag96
atRp661
sg133
g8
((lp662
g425
atRp663
sS'polyLink'
p664
S'none'
p665
sbsg38
g8
((lp666
g56
atRp667
sg15
S'H'
sg128
I0
sg16
I00
sg129
(F405.87307945864404
F442.97203850697838
F100.02817072483646
tp668
sg131
(lp669
sg13
g1
sg133
g8
((ltRp670
sg135
g8
((lp671
g589
atRp672
sg37
I00
sbatRp673
sg37
I00
sbag83
ag232
ag405
ag51
ag328
ag91
ag397
ag114
ag320
ag33
ag193
ag389
ag106
ag278
ag601
ag59
ag165
ag370
ag250
ag67
ag43
ag336
ag99
ag122
ag569
ag157
ag362
ag501
ag75
ag344
ag450
ag541
atRp674
sS'ccpMolType'
p675
S'DNA'
p676
sS'details'
p677
V
sg658
(dp678
g32
g33
sg192
g193
sg156
g157
sg113
g114
sg121
g122
sg164
g165
sg50
g51
sg66
g67
sg90
g91
sg12
g10
sg369
g370
sg404
g405
sg249
g250
sg600
g601
sg568
g569
sg74
g75
sg396
g397
sg327
g328
sg335
g336
sg361
g362
sg231
g232
sS'P'
g106
sg82
g83
sg58
g59
sg319
g320
sg388
g389
sg540
g541
sg277
g278
sg449
g450
sg500
g501
sg343
g344
sg98
g99
sg42
g43
ssS'keywords'
p679
g8
((ltRp680
sg133
g8
((lp681
g425
atRp682
sS'variants'
p683
g8
((lp684
g25
atRp685
sS'defaultVars'
p686
g8
((ltRp687
sb.