(iccpnmr.chemBuild.model.Compound
Compound
p1
(dp2
S'name'
p3
S'Unnamed'
p4
sS'isModified'
p5
I01
sS'ccpCode'
p6
NsS'atoms'
p7
c__builtin__
set
p8
((lp9
(iccpnmr.chemBuild.model.Atom
Atom
p10
(dp11
g3
VH17_2
p12
sS'compound'
p13
g1
sS'baseValences'
p14
I1
sS'element'
p15
S'H'
sS'isVariable'
p16
I00
sS'varAtoms'
p17
g8
((lp18
(iccpnmr.chemBuild.model.VarAtom
VarAtom
p19
(dp20
S'stereo'
p21
(lp22
sS'neighbours'
p23
g8
((lp24
(iccpnmr.chemBuild.model.VarAtom
VarAtom
p25
(dp26
g21
(lp27
sg23
g8
((lp28
(iccpnmr.chemBuild.model.VarAtom
VarAtom
p29
(dp30
g21
(lp31
sg23
g8
((lp32
g25
atRp33
sg3
VH17_1
p34
sS'isLabile'
p35
I00
sS'chirality'
p36
Nsg13
g1
sS'variant'
p37
(iccpnmr.chemBuild.model.Variant
Variant
p38
(dp39
S'elementDict'
p40
(dp41
S'H'
g8
((lp42
(iccpnmr.chemBuild.model.VarAtom
VarAtom
p43
(dp44
g21
(lp45
sg23
g8
((lp46
(iccpnmr.chemBuild.model.VarAtom
VarAtom
p47
(dp48
g21
(lp49
sg23
g8
((lp50
g43
a(iccpnmr.chemBuild.model.VarAtom
VarAtom
p51
(dp52
g21
(lp53
sg23
g8
((lp54
(iccpnmr.chemBuild.model.VarAtom
VarAtom
p55
(dp56
g21
(lp57
sg23
g8
((lp58
(iccpnmr.chemBuild.model.VarAtom
VarAtom
p59
(dp60
g21
(lp61
sg23
g8
((lp62
g55
atRp63
sg3
VH15
p64
sg35
I00
sg36
Nsg13
g1
sg37
g38
sS'charge'
p65
I0
sg15
S'H'
sg16
I00
sS'coords'
p66
(F28.79334028309782
F-494.54921286006015
F1.29285975404775
tp67
sS'freeValences'
p68
(lp69
sS'atom'
p70
(iccpnmr.chemBuild.model.Atom
Atom
p71
(dp72
g3
g64
sg13
g1
sg14
I1
sg15
S'H'
sg16
I00
sg17
g8
((lp73
g59
a(iccpnmr.chemBuild.model.VarAtom
VarAtom
p74
(dp75
g21
(lp76
sg23
g8
((lp77
(iccpnmr.chemBuild.model.VarAtom
VarAtom
p78
(dp79
g21
(lp80
sg23
g8
((lp81
(iccpnmr.chemBuild.model.VarAtom
VarAtom
p82
(dp83
g21
(lp84
sg23
g8
((lp85
(iccpnmr.chemBuild.model.VarAtom
VarAtom
p86
(dp87
g21
(lp88
sg23
g8
((lp89
g82
atRp90
sg3
VH16_1
p91
sg35
I00
sg36
Nsg13
g1
sg37
(iccpnmr.chemBuild.model.Variant
Variant
p92
(dp93
g40
(dp94
S'H'
g8
((lp95
g74
a(iccpnmr.chemBuild.model.VarAtom
VarAtom
p96
(dp97
g21
(lp98
sg23
g8
((lp99
(iccpnmr.chemBuild.model.VarAtom
VarAtom
p100
(dp101
g21
(lp102
sg23
g8
((lp103
(iccpnmr.chemBuild.model.VarAtom
VarAtom
p104
(dp105
g21
(lp106
sg23
g8
((lp107
g100
a(iccpnmr.chemBuild.model.VarAtom
VarAtom
p108
(dp109
g21
(lp110
sg23
g8
((lp111
(iccpnmr.chemBuild.model.VarAtom
VarAtom
p112
(dp113
g21
(lp114
sg23
g8
((lp115
g108
atRp116
sg3
VH7_1
p117
sg35
I00
sg36
Nsg13
g1
sg37
g92
sg65
I0
sg15
S'H'
sg16
I00
sg66
(F-306.81492040956584
F-448.71903705130995
F2.4316859218755442
tp118
sg68
(lp119
sg70
(iccpnmr.chemBuild.model.Atom
Atom
p120
(dp121
g3
g117
sg13
g1
sg14
I1
sg15
S'H'
sg16
I00
sg17
g8
((lp122
g112
a(iccpnmr.chemBuild.model.VarAtom
VarAtom
p123
(dp124
g21
(lp125
sg23
g8
((lp126
(iccpnmr.chemBuild.model.VarAtom
VarAtom
p127
(dp128
g21
(lp129
sg23
g8
((lp130
(iccpnmr.chemBuild.model.VarAtom
VarAtom
p131
(dp132
g21
(lp133
sg23
g8
((lp134
g127
a(iccpnmr.chemBuild.model.VarAtom
VarAtom
p135
(dp136
g21
(lp137
sg23
g8
((lp138
g131
atRp139
sg3
VH8
p140
sg35
I00
sg36
Nsg13
g1
sg37
g38
sg65
I0
sg15
S'H'
sg16
I00
sg66
(F-300.25138545628636
F-545.65529749605378
F3.9650466625592609
tp141
sg68
(lp142
sg70
(iccpnmr.chemBuild.model.Atom
Atom
p143
(dp144
g3
g140
sg13
g1
sg14
I1
sg15
S'H'
sg16
I00
sg17
g8
((lp145
g135
a(iccpnmr.chemBuild.model.VarAtom
VarAtom
p146
(dp147
g21
(lp148
sg23
g8
((lp149
g104
atRp150
sg3
g140
sg35
I00
sg36
Nsg13
g1
sg37
g92
sg65
I0
sg15
S'H'
sg16
I00
sg66
(F-300.25138545628636
F-545.65529749605378
F3.9650466625592609
tp151
sg68
(lp152
sg70
g143
sS'atomGroups'
p153
g8
((ltRp154
sS'bonds'
p155
g8
((lp156
(iccpnmr.chemBuild.model.Bond
Bond
p157
(dp158
S'bondType'
p159
S'single'
p160
sS'direction'
p161
Nsg13
g1
sg37
g92
sg17
g8
((lp162
g104
ag146
atRp163
sbatRp164
sS'isDeleted'
p165
I00
sbatRp166
sg165
I00
sbsg153
g8
((ltRp167
sg155
g8
((lp168
(iccpnmr.chemBuild.model.Bond
Bond
p169
(dp170
g159
g160
sg161
Nsg13
g1
sg37
g38
sg17
g8
((lp171
g135
ag131
atRp172
sbatRp173
sg165
I00
sba(iccpnmr.chemBuild.model.VarAtom
VarAtom
p174
(dp175
g21
(lp176
sg23
g8
((lp177
(iccpnmr.chemBuild.model.VarAtom
VarAtom
p178
(dp179
g21
(lp180
sg23
g8
((lp181
g174
atRp182
sg3
VH9
p183
sg35
I00
sg36
Nsg13
g1
sg37
g38
sg65
I0
sg15
S'H'
sg16
I00
sg66
(F-234.64722194630102
F-543.63183677779784
F2.8611749000541988
tp184
sg68
(lp185
sg70
(iccpnmr.chemBuild.model.Atom
Atom
p186
(dp187
g3
g183
sg13
g1
sg14
I1
sg15
S'H'
sg16
I00
sg17
g8
((lp188
g96
ag178
atRp189
sg165
I00
sbsg153
g8
((ltRp190
sg155
g8
((lp191
(iccpnmr.chemBuild.model.Bond
Bond
p192
(dp193
g159
g160
sg161
Nsg13
g1
sg37
g38
sg17
g8
((lp194
g174
ag178
atRp195
sbatRp196
sg165
I00
sbag131
a(iccpnmr.chemBuild.model.VarAtom
VarAtom
p197
(dp198
g21
(lp199
sg23
g8
((lp200
g174
a(iccpnmr.chemBuild.model.VarAtom
VarAtom
p201
(dp202
g21
(lp203
sg23
g8
((lp204
g197
a(iccpnmr.chemBuild.model.VarAtom
VarAtom
p205
(dp206
g21
(lp207
sg23
g8
((lp208
(iccpnmr.chemBuild.model.VarAtom
VarAtom
p209
(dp210
g21
(lp211
sg23
g8
((lp212
g205
atRp213
sg3
VH12
p214
sg35
I00
sg36
Nsg13
g1
sg37
g38
sg65
I0
sg15
S'H'
sg16
I00
sg66
(F-99.358020498300249
F-521.01773184521517
F1.9984355570704229
tp215
sg68
(lp216
sg70
(iccpnmr.chemBuild.model.Atom
Atom
p217
(dp218
g3
g214
sg13
g1
sg14
I1
sg15
S'H'
sg16
I00
sg17
g8
((lp219
g209
a(iccpnmr.chemBuild.model.VarAtom
VarAtom
p220
(dp221
g21
(lp222
sg23
g8
((lp223
(iccpnmr.chemBuild.model.VarAtom
VarAtom
p224
(dp225
g21
(lp226
sg23
g8
((lp227
(iccpnmr.chemBuild.model.VarAtom
VarAtom
p228
(dp229
g21
(lp230
sg23
g8
((lp231
(iccpnmr.chemBuild.model.VarAtom
VarAtom
p232
(dp233
g21
(lp234
sg23
g8
((lp235
g228
atRp236
sg3
VH11
p237
sg35
I00
sg36
Nsg13
g1
sg37
g92
sg65
I0
sg15
S'H'
sg16
I00
sg66
(F-161.97373811237273
F-533.19942283003161
F2.0835362476134054
tp238
sg68
(lp239
sg70
(iccpnmr.chemBuild.model.Atom
Atom
p240
(dp241
g3
g237
sg13
g1
sg14
I1
sg15
S'H'
sg16
I00
sg17
g8
((lp242
g232
a(iccpnmr.chemBuild.model.VarAtom
VarAtom
p243
(dp244
g21
(lp245
sg23
g8
((lp246
g201
atRp247
sg3
g237
sg35
I00
sg36
Nsg13
g1
sg37
g38
sg65
I0
sg15
S'H'
sg16
I00
sg66
(F-161.97373811237273
F-533.19942283003161
F2.0835362476134054
tp248
sg68
(lp249
sg70
g240
sg153
g8
((ltRp250
sg155
g8
((lp251
(iccpnmr.chemBuild.model.Bond
Bond
p252
(dp253
g159
g160
sg161
Nsg13
g1
sg37
g38
sg17
g8
((lp254
g243
ag201
atRp255
sbatRp256
sg165
I00
sbatRp257
sg165
I00
sbsg153
g8
((ltRp258
sg155
g8
((lp259
(iccpnmr.chemBuild.model.Bond
Bond
p260
(dp261
g159
g160
sg161
Nsg13
g1
sg37
g92
sg17
g8
((lp262
g228
ag232
atRp263
sbatRp264
sg165
I00
sbag224
a(iccpnmr.chemBuild.model.VarAtom
VarAtom
p265
(dp266
g21
(lp267
sg23
g8
((lp268
g100
a(iccpnmr.chemBuild.model.VarAtom
VarAtom
p269
(dp270
g21
(lp271
sg23
g8
((lp272
g265
atRp273
sg3
VH10_1
p274
sg35
I00
sg36
Nsg13
g1
sg37
g92
sg65
I0
sg15
S'H'
sg16
I00
sg66
(F-186.4781070709474
F-440.41170278825581
F2.4221827801967795
tp275
sg68
(lp276
sg70
(iccpnmr.chemBuild.model.Atom
Atom
p277
(dp278
g3
g274
sg13
g1
sg14
I1
sg15
S'H'
sg16
I00
sg17
g8
((lp279
(iccpnmr.chemBuild.model.VarAtom
VarAtom
p280
(dp281
g21
(lp282
sg23
g8
((lp283
g197
atRp284
sg3
g274
sg35
I00
sg36
Nsg13
g1
sg37
g38
sg65
I0
sg15
S'H'
sg16
I00
sg66
(F-186.4781070709474
F-440.41170278825581
F2.4221827801967795
tp285
sg68
(lp286
sg70
g277
sg153
g8
((lp287
(iccpnmr.chemBuild.model.AtomGroup
AtomGroup
p288
(dp289
S'groupType'
p290
S'prochiral'
p291
sS'subGroups'
p292
g8
((ltRp293
sg17
g8
((lp294
g280
a(iccpnmr.chemBuild.model.VarAtom
VarAtom
p295
(dp296
g21
(lp297
sg23
g8
((lp298
g197
atRp299
sg3
VH10_2
p300
sg35
I00
sg36
Nsg13
g1
sg37
g38
sg65
I0
sg15
S'H'
sg16
I00
sg66
(F-233.52587234027149
F-446.53856537106549
F1.9568076871362625
tp301
sg68
(lp302
sg70
(iccpnmr.chemBuild.model.Atom
Atom
p303
(dp304
g3
g300
sg13
g1
sg14
I1
sg15
S'H'
sg16
I00
sg17
g8
((lp305
(iccpnmr.chemBuild.model.VarAtom
VarAtom
p306
(dp307
g21
(lp308
sg23
g8
((lp309
g265
atRp310
sg3
g300
sg35
I00
sg36
Nsg13
g1
sg37
g92
sg65
I0
sg15
S'H'
sg16
I00
sg66
(F-233.52587234027149
F-446.53856537106549
F1.9568076871362625
tp311
sg68
(lp312
sg70
g303
sg153
g8
((lp313
(iccpnmr.chemBuild.model.AtomGroup
AtomGroup
p314
(dp315
g290
g291
sg292
g8
((ltRp316
sg17
g8
((lp317
g306
ag269
atRp318
sg37
g92
sg13
g1
sbatRp319
sg155
g8
((lp320
(iccpnmr.chemBuild.model.Bond
Bond
p321
(dp322
g159
g160
sg161
Nsg13
g1
sg37
g92
sg17
g8
((lp323
g265
ag306
atRp324
sbatRp325
sg165
I00
sbag295
atRp326
sg165
I00
sbsg153
g8
((lp327
g288
atRp328
sg155
g8
((lp329
(iccpnmr.chemBuild.model.Bond
Bond
p330
(dp331
g159
g160
sg161
Nsg13
g1
sg37
g38
sg17
g8
((lp332
g197
ag295
atRp333
sbatRp334
sg165
I00
sbatRp335
sg37
g38
sg13
g1
sbatRp336
sg155
g8
((lp337
(iccpnmr.chemBuild.model.Bond
Bond
p338
(dp339
g159
g160
sg161
Nsg13
g1
sg37
g38
sg17
g8
((lp340
g197
ag280
atRp341
sbatRp342
sg165
I00
sbag269
atRp343
sg165
I00
sbsg153
g8
((lp344
g314
atRp345
sg155
g8
((lp346
(iccpnmr.chemBuild.model.Bond
Bond
p347
(dp348
g159
g160
sg161
Nsg13
g1
sg37
g92
sg17
g8
((lp349
g265
ag269
atRp350
sbatRp351
sg165
I00
sbag228
ag306
atRp352
sg3
VC10
p353
sg35
I00
sg36
Nsg13
g1
sg37
g92
sg65
I0
sg15
VC
sg16
I00
sg66
(F-206.10981322671424
F-473.72089706192639
F2.1633245957783895
tp354
sg68
(lp355
sg70
(iccpnmr.chemBuild.model.Atom
Atom
p356
(dp357
g3
g353
sg13
g1
sg14
I4
sg15
VC
sg16
I00
sg17
g8
((lp358
g197
ag265
atRp359
sg165
I00
sbsg153
g8
((ltRp360
sg155
g8
((lp361
g347
a(iccpnmr.chemBuild.model.Bond
Bond
p362
(dp363
g159
g160
sg161
Nsg13
g1
sg37
g92
sg17
g8
((lp364
g228
ag265
atRp365
sbag321
a(iccpnmr.chemBuild.model.Bond
Bond
p366
(dp367
g159
g160
sg161
Nsg13
g1
sg37
g92
sg17
g8
((lp368
g100
ag265
atRp369
sbatRp370
sg165
I00
sbatRp371
sg3
VC11
p372
sg35
I00
sg36
Nsg13
g1
sg37
g92
sg65
I0
sg15
VC
sg16
I00
sg66
(F-159.01786855805787
F-494.99702493717257
F2.4488504093093111
tp373
sg68
(lp374
sg70
(iccpnmr.chemBuild.model.Atom
Atom
p375
(dp376
g3
g372
sg13
g1
sg14
I4
sg15
VC
sg16
I00
sg17
g8
((lp377
g228
ag201
atRp378
sg165
I00
sbsg153
g8
((ltRp379
sg155
g8
((lp380
g362
ag260
a(iccpnmr.chemBuild.model.Bond
Bond
p381
(dp382
g159
S'double'
p383
sg161
Nsg13
g1
sg37
g92
sg17
g8
((lp384
g228
ag224
atRp385
sbatRp386
sg165
I00
sbag220
a(iccpnmr.chemBuild.model.VarAtom
VarAtom
p387
(dp388
g21
(lp389
sg23
g8
((lp390
(iccpnmr.chemBuild.model.VarAtom
VarAtom
p391
(dp392
g21
(lp393
sg23
g8
((lp394
g387
atRp395
sg3
VH13_2
p396
sg35
I00
sg36
Nsg13
g1
sg37
g92
sg65
I0
sg15
S'H'
sg16
I00
sg66
(F-107.91110090257584
F-424.55331050671896
F2.7828503726043108
tp397
sg68
(lp398
sg70
(iccpnmr.chemBuild.model.Atom
Atom
p399
(dp400
g3
g396
sg13
g1
sg14
I1
sg15
S'H'
sg16
I00
sg17
g8
((lp401
(iccpnmr.chemBuild.model.VarAtom
VarAtom
p402
(dp403
g21
(lp404
sg23
g8
((lp405
g47
atRp406
sg3
g396
sg35
I00
sg36
Nsg13
g1
sg37
g38
sg65
I0
sg15
S'H'
sg16
I00
sg66
(F-107.91110090257584
F-424.55331050671896
F2.7828503726043108
tp407
sg68
(lp408
sg70
g399
sg153
g8
((lp409
(iccpnmr.chemBuild.model.AtomGroup
AtomGroup
p410
(dp411
g290
g291
sg292
g8
((ltRp412
sg17
g8
((lp413
g43
ag402
atRp414
sg37
g38
sg13
g1
sbatRp415
sg155
g8
((lp416
(iccpnmr.chemBuild.model.Bond
Bond
p417
(dp418
g159
g160
sg161
Nsg13
g1
sg37
g38
sg17
g8
((lp419
g47
ag402
atRp420
sbatRp421
sg165
I00
sbag391
atRp422
sg165
I00
sbsg153
g8
((lp423
(iccpnmr.chemBuild.model.AtomGroup
AtomGroup
p424
(dp425
g290
g291
sg292
g8
((ltRp426
sg17
g8
((lp427
(iccpnmr.chemBuild.model.VarAtom
VarAtom
p428
(dp429
g21
(lp430
sg23
g8
((lp431
g387
atRp432
sg3
VH13_1
p433
sg35
I00
sg36
Nsg13
g1
sg37
g92
sg65
I0
sg15
S'H'
sg16
I00
sg66
(F-60.952451595216615
F-414.57930651021707
F2.8007473124023985
tp434
sg68
(lp435
sg70
(iccpnmr.chemBuild.model.Atom
Atom
p436
(dp437
g3
g433
sg13
g1
sg14
I1
sg15
S'H'
sg16
I00
sg17
g8
((lp438
g428
ag43
atRp439
sg165
I00
sbsg153
g8
((lp440
g424
atRp441
sg155
g8
((lp442
(iccpnmr.chemBuild.model.Bond
Bond
p443
(dp444
g159
g160
sg161
Nsg13
g1
sg37
g92
sg17
g8
((lp445
g428
ag387
atRp446
sbatRp447
sg165
I00
sbag391
atRp448
sg37
g92
sg13
g1
sbatRp449
sg155
g8
((lp450
(iccpnmr.chemBuild.model.Bond
Bond
p451
(dp452
g159
g160
sg161
Nsg13
g1
sg37
g92
sg17
g8
((lp453
g391
ag387
atRp454
sbatRp455
sg165
I00
sbag428
ag224
a(iccpnmr.chemBuild.model.VarAtom
VarAtom
p456
(dp457
g21
(lp458
sg23
g8
((lp459
g78
a(iccpnmr.chemBuild.model.VarAtom
VarAtom
p460
(dp461
g21
(lp462
sg23
g8
((lp463
g456
atRp464
sg3
VH14
p465
sg35
I00
sg36
Nsg13
g1
sg37
g92
sg65
I0
sg15
S'H'
sg16
I00
sg66
(F-31.549962086608474
F-505.74868923610848
F3.2490059370660411
tp466
sg68
(lp467
sg70
(iccpnmr.chemBuild.model.Atom
Atom
p468
(dp469
g3
g465
sg13
g1
sg14
I1
sg15
S'H'
sg16
I00
sg17
g8
((lp470
g460
a(iccpnmr.chemBuild.model.VarAtom
VarAtom
p471
(dp472
g21
(lp473
sg23
g8
((lp474
g51
atRp475
sg3
g465
sg35
I00
sg36
Nsg13
g1
sg37
g38
sg65
I0
sg15
S'H'
sg16
I00
sg66
(F-31.549962086608474
F-505.74868923610848
F3.2490059370660411
tp476
sg68
(lp477
sg70
g468
sg153
g8
((ltRp478
sg155
g8
((lp479
(iccpnmr.chemBuild.model.Bond
Bond
p480
(dp481
g159
g160
sg161
Nsg13
g1
sg37
g38
sg17
g8
((lp482
g51
ag471
atRp483
sbatRp484
sg165
I00
sbatRp485
sg165
I00
sbsg153
g8
((ltRp486
sg155
g8
((lp487
(iccpnmr.chemBuild.model.Bond
Bond
p488
(dp489
g159
g160
sg161
Nsg13
g1
sg37
g92
sg17
g8
((lp490
g460
ag456
atRp491
sbatRp492
sg165
I00
sbag387
atRp493
sg3
VC14
p494
sg35
I00
sg36
Nsg13
g1
sg37
g92
sg65
I0
sg15
VC
sg16
I00
sg66
(F-29.761740880351539
F-467.5074109697249
F2.5395793602025942
tp495
sg68
(lp496
sg70
(iccpnmr.chemBuild.model.Atom
Atom
p497
(dp498
g3
g494
sg13
g1
sg14
I4
sg15
VC
sg16
I00
sg17
g8
((lp499
g51
ag456
atRp500
sg165
I00
sbsg153
g8
((ltRp501
sg155
g8
((lp502
(iccpnmr.chemBuild.model.Bond
Bond
p503
(dp504
g159
g383
sg161
Nsg13
g1
sg37
g92
sg17
g8
((lp505
g78
ag456
atRp506
sbag488
a(iccpnmr.chemBuild.model.Bond
Bond
p507
(dp508
g159
g160
sg161
Nsg13
g1
sg37
g92
sg17
g8
((lp509
g456
ag387
atRp510
sbatRp511
sg165
I00
sbatRp512
sg3
VC13
p513
sg35
I00
sg36
Nsg13
g1
sg37
g92
sg65
I0
sg15
VC
sg16
I00
sg66
(F-78.151584487948213
F-449.24169766656172
F1.4875175711347501
tp514
sg68
(lp515
sg70
(iccpnmr.chemBuild.model.Atom
Atom
p516
(dp517
g3
g513
sg13
g1
sg14
I4
sg15
VC
sg16
I00
sg17
g8
((lp518
g47
ag387
atRp519
sg165
I00
sbsg153
g8
((ltRp520
sg155
g8
((lp521
g443
ag451
a(iccpnmr.chemBuild.model.Bond
Bond
p522
(dp523
g159
g160
sg161
Nsg13
g1
sg37
g92
sg17
g8
((lp524
g224
ag387
atRp525
sbag507
atRp526
sg165
I00
sbatRp527
sg3
VC12
p528
sg35
I00
sg36
Nsg13
g1
sg37
g92
sg65
I0
sg15
VC
sg16
I00
sg66
(F-114.66017461504978
F-485.90863369582138
F1.8600709221153799
tp529
sg68
(lp530
sg70
(iccpnmr.chemBuild.model.Atom
Atom
p531
(dp532
g3
g528
sg13
g1
sg14
I4
sg15
VC
sg16
I00
sg17
g8
((lp533
g205
ag224
atRp534
sg165
I00
sbsg153
g8
((ltRp535
sg155
g8
((lp536
g381
ag522
a(iccpnmr.chemBuild.model.Bond
Bond
p537
(dp538
g159
g160
sg161
Nsg13
g1
sg37
g92
sg17
g8
((lp539
g224
ag220
atRp540
sbatRp541
sg165
I00
sbatRp542
sg3
g214
sg35
I00
sg36
Nsg13
g1
sg37
g92
sg65
I0
sg15
S'H'
sg16
I00
sg66
(F-99.358020498300249
F-521.01773184521517
F1.9984355570704229
tp543
sg68
(lp544
sg70
g217
sg153
g8
((ltRp545
sg155
g8
((lp546
g537
atRp547
sg165
I00
sbatRp548
sg165
I00
sbsg153
g8
((ltRp549
sg155
g8
((lp550
(iccpnmr.chemBuild.model.Bond
Bond
p551
(dp552
g159
g160
sg161
Nsg13
g1
sg37
g38
sg17
g8
((lp553
g209
ag205
atRp554
sbatRp555
sg165
I00
sbag47
ag201
atRp556
sg3
g528
sg35
I00
sg36
Nsg13
g1
sg37
g38
sg65
I0
sg15
VC
sg16
I00
sg66
(F-114.66017461504978
F-485.90863369582138
F1.8600709221153799
tp557
sg68
(lp558
sg70
g531
sg153
g8
((ltRp559
sg155
g8
((lp560
(iccpnmr.chemBuild.model.Bond
Bond
p561
(dp562
g159
g383
sg161
Nsg13
g1
sg37
g38
sg17
g8
((lp563
g205
ag201
atRp564
sbag551
a(iccpnmr.chemBuild.model.Bond
Bond
p565
(dp566
g159
g160
sg161
Nsg13
g1
sg37
g38
sg17
g8
((lp567
g47
ag205
atRp568
sbatRp569
sg165
I00
sbag243
atRp570
sg3
g372
sg35
I00
sg36
Nsg13
g1
sg37
g38
sg65
I0
sg15
VC
sg16
I00
sg66
(F-159.01786855805787
F-494.99702493717257
F2.4488504093093111
tp571
sg68
(lp572
sg70
g375
sg153
g8
((ltRp573
sg155
g8
((lp574
g252
a(iccpnmr.chemBuild.model.Bond
Bond
p575
(dp576
g159
g160
sg161
Nsg13
g1
sg37
g38
sg17
g8
((lp577
g197
ag201
atRp578
sbag561
atRp579
sg165
I00
sbag295
ag280
atRp580
sg3
g353
sg35
I00
sg36
Nsg13
g1
sg37
g38
sg65
I0
sg15
VC
sg16
I00
sg66
(F-206.10981322671424
F-473.72089706192639
F2.1633245957783895
tp581
sg68
(lp582
sg70
g356
sg153
g8
((ltRp583
sg155
g8
((lp584
g330
ag338
a(iccpnmr.chemBuild.model.Bond
Bond
p585
(dp586
g159
g160
sg161
Nsg13
g1
sg37
g38
sg17
g8
((lp587
g174
ag197
atRp588
sbag575
atRp589
sg165
I00
sbatRp590
sg3
VC9
p591
sg35
I00
sg36
Nsg13
g1
sg37
g38
sg65
I0
sg15
VC
sg16
I00
sg66
(F-245.74396129009838
F-506.93828921864412
F2.7546785571925172
tp592
sg68
(lp593
sg70
(iccpnmr.chemBuild.model.Atom
Atom
p594
(dp595
g3
g591
sg13
g1
sg14
I4
sg15
VC
sg16
I00
sg17
g8
((lp596
g100
ag174
atRp597
sg165
I00
sbsg153
g8
((ltRp598
sg155
g8
((lp599
g192
ag585
a(iccpnmr.chemBuild.model.Bond
Bond
p600
(dp601
g159
g383
sg161
Nsg13
g1
sg37
g38
sg17
g8
((lp602
g174
ag131
atRp603
sbatRp604
sg165
I00
sbatRp605
sg3
VC8
p606
sg35
I00
sg36
Nsg13
g1
sg37
g38
sg65
I0
sg15
VC
sg16
I00
sg66
(F-290.97582318636671
F-508.45514613317721
F3.105421062005608
tp607
sg68
(lp608
sg70
(iccpnmr.chemBuild.model.Atom
Atom
p609
(dp610
g3
g606
sg13
g1
sg14
I4
sg15
VC
sg16
I00
sg17
g8
((lp611
g104
ag131
atRp612
sg165
I00
sbsg153
g8
((ltRp613
sg155
g8
((lp614
g169
a(iccpnmr.chemBuild.model.Bond
Bond
p615
(dp616
g159
g160
sg161
Nsg13
g1
sg37
g38
sg17
g8
((lp617
g127
ag131
atRp618
sbag600
atRp619
sg165
I00
sba(iccpnmr.chemBuild.model.VarAtom
VarAtom
p620
(dp621
g21
(lp622
sg23
g8
((lp623
g127
a(iccpnmr.chemBuild.model.VarAtom
VarAtom
p624
(dp625
g21
(lp626
sg23
g8
((lp627
g620
atRp628
sg3
VH6
p629
sg35
I00
sg36
Nsg13
g1
sg37
g38
sg65
I0
sg15
S'H'
sg16
I00
sg66
(F-373.77711066479748
F-539.37285588680766
F2.9833288493441303
tp630
sg68
(lp631
sg70
(iccpnmr.chemBuild.model.Atom
Atom
p632
(dp633
g3
g629
sg13
g1
sg14
I1
sg15
S'H'
sg16
I00
sg17
g8
((lp634
(iccpnmr.chemBuild.model.VarAtom
VarAtom
p635
(dp636
g21
(lp637
sg23
g8
((lp638
(iccpnmr.chemBuild.model.VarAtom
VarAtom
p639
(dp640
g21
(lp641
sg23
g8
((lp642
(iccpnmr.chemBuild.model.VarAtom
VarAtom
p643
(dp644
g21
(lp645
sg23
g8
((lp646
(iccpnmr.chemBuild.model.VarAtom
VarAtom
p647
(dp648
g21
(lp649
sg23
g8
((lp650
g643
a(iccpnmr.chemBuild.model.VarAtom
VarAtom
p651
(dp652
g21
(lp653
sg23
g8
((lp654
g647
atRp655
sg3
VH4_1
p656
sg35
I00
sg36
Nsg13
g1
sg37
g92
sg65
I0
sg15
S'H'
sg16
I00
sg66
(F-463.54285240302954
F-421.69003175114779
F2.6020512862357492
tp657
sg68
(lp658
sg70
(iccpnmr.chemBuild.model.Atom
Atom
p659
(dp660
g3
g656
sg13
g1
sg14
I1
sg15
S'H'
sg16
I00
sg17
g8
((lp661
(iccpnmr.chemBuild.model.VarAtom
VarAtom
p662
(dp663
g21
(lp664
sg23
g8
((lp665
(iccpnmr.chemBuild.model.VarAtom
VarAtom
p666
(dp667
g21
(lp668
sg23
g8
((lp669
(iccpnmr.chemBuild.model.VarAtom
VarAtom
p670
(dp671
g21
(lp672
sg23
g8
((lp673
(iccpnmr.chemBuild.model.VarAtom
VarAtom
p674
(dp675
g21
(lp676
sg23
g8
((lp677
g670
atRp678
sg3
VH3_1
p679
sg35
I00
sg36
Nsg13
g1
sg37
g38
sg65
I0
sg15
S'H'
sg16
I00
sg66
(F-494.13372890137123
F-507.46054952642612
F1.9763944486509057
tp680
sg68
(lp681
sg70
(iccpnmr.chemBuild.model.Atom
Atom
p682
(dp683
g3
g679
sg13
g1
sg14
I1
sg15
S'H'
sg16
I00
sg17
g8
((lp684
(iccpnmr.chemBuild.model.VarAtom
VarAtom
p685
(dp686
g21
(lp687
sg23
g8
((lp688
(iccpnmr.chemBuild.model.VarAtom
VarAtom
p689
(dp690
g21
(lp691
sg23
g8
((lp692
g685
a(iccpnmr.chemBuild.model.VarAtom
VarAtom
p693
(dp694
g21
(lp695
sg23
g8
((lp696
g689
atRp697
sg3
VH3_2
p698
sg35
I00
sg36
Nsg13
g1
sg37
g92
sg65
I0
sg15
S'H'
sg16
I00
sg66
(F-537.11166009562226
F-503.1583009257339
F2.7674278639896075
tp699
sg68
(lp700
sg70
(iccpnmr.chemBuild.model.Atom
Atom
p701
(dp702
g3
g698
sg13
g1
sg14
I1
sg15
S'H'
sg16
I00
sg17
g8
((lp703
g693
a(iccpnmr.chemBuild.model.VarAtom
VarAtom
p704
(dp705
g21
(lp706
sg23
g8
((lp707
g670
atRp708
sg3
g698
sg35
I00
sg36
Nsg13
g1
sg37
g38
sg65
I0
sg15
S'H'
sg16
I00
sg66
(F-537.11166009562226
F-503.1583009257339
F2.7674278639896075
tp709
sg68
(lp710
sg70
g701
sg153
g8
((lp711
(iccpnmr.chemBuild.model.AtomGroup
AtomGroup
p712
(dp713
g290
g291
sg292
g8
((ltRp714
sg17
g8
((lp715
g674
ag704
atRp716
sg37
g38
sg13
g1
sbatRp717
sg155
g8
((lp718
(iccpnmr.chemBuild.model.Bond
Bond
p719
(dp720
g159
g160
sg161
Nsg13
g1
sg37
g38
sg17
g8
((lp721
g670
ag704
atRp722
sbatRp723
sg165
I00
sbatRp724
sg165
I00
sbsg153
g8
((lp725
(iccpnmr.chemBuild.model.AtomGroup
AtomGroup
p726
(dp727
g290
g291
sg292
g8
((ltRp728
sg17
g8
((lp729
g685
ag693
atRp730
sg37
g92
sg13
g1
sbatRp731
sg155
g8
((lp732
(iccpnmr.chemBuild.model.Bond
Bond
p733
(dp734
g159
g160
sg161
Nsg13
g1
sg37
g92
sg17
g8
((lp735
g693
ag689
atRp736
sbatRp737
sg165
I00
sbag647
a(iccpnmr.chemBuild.model.VarAtom
VarAtom
p738
(dp739
g21
(lp740
sg23
g8
((lp741
(iccpnmr.chemBuild.model.VarAtom
VarAtom
p742
(dp743
g21
(lp744
sg23
g8
((lp745
(iccpnmr.chemBuild.model.VarAtom
VarAtom
p746
(dp747
g21
(lp748
sg23
g8
((lp749
g742
atRp750
sg3
S'O1'
p751
sg35
I00
sg36
Nsg13
g1
sg37
g92
sg65
I-1
sg15
S'O'
sg16
I00
sg66
(F-649.71822860605153
F-478.68361942529924
F0.83628924542956806
tp752
sg68
(lp753
sg70
(iccpnmr.chemBuild.model.Atom
Atom
p754
(dp755
g3
g751
sg13
g1
sg14
I2
sg15
S'O'
sg16
I00
sg17
g8
((lp756
g746
a(iccpnmr.chemBuild.model.VarAtom
VarAtom
p757
(dp758
g21
(lp759
sg23
g8
((lp760
(iccpnmr.chemBuild.model.VarAtom
VarAtom
p761
(dp762
g21
(lp763
sg23
g8
((lp764
g757
atRp765
sg3
S'H1'
p766
sg35
I01
sg36
Nsg13
g1
sg37
g38
sg65
I0
sg15
S'H'
sg16
I01
sg66
(F-686.29321835138921
F-488.31091085239831
F0.82684161907770659
tp767
sg68
(lp768
sg70
(iccpnmr.chemBuild.model.Atom
Atom
p769
(dp770
g3
g766
sg13
g1
sg14
I1
sg15
S'H'
sg16
I01
sg17
g8
((lp771
g761
atRp772
sg165
I00
sbsg153
g8
((ltRp773
sg155
g8
((lp774
(iccpnmr.chemBuild.model.Bond
Bond
p775
(dp776
g159
g160
sg161
Nsg13
g1
sg37
g38
sg17
g8
((lp777
g761
ag757
atRp778
sbatRp779
sg165
I00
sba(iccpnmr.chemBuild.model.VarAtom
VarAtom
p780
(dp781
g21
(lp782
sg23
g8
((lp783
(iccpnmr.chemBuild.model.VarAtom
VarAtom
p784
(dp785
g21
(lp786
sg23
g8
((lp787
g780
atRp788
sg3
S'O2'
p789
sg35
I00
sg36
Nsg13
g1
sg37
g38
sg65
I0
sg15
S'O'
sg16
I00
sg66
(F-600.00283936608423
F-522.33246448985233
F1.0819285099539226
tp790
sg68
(lp791
sg70
(iccpnmr.chemBuild.model.Atom
Atom
p792
(dp793
g3
g789
sg13
g1
sg14
I2
sg15
S'O'
sg16
I00
sg17
g8
((lp794
g784
a(iccpnmr.chemBuild.model.VarAtom
VarAtom
p795
(dp796
g21
(lp797
sg23
g8
((lp798
g742
atRp799
sg3
g789
sg35
I00
sg36
Nsg13
g1
sg37
g92
sg65
I0
sg15
S'O'
sg16
I00
sg66
(F-600.00283936608423
F-522.33246448985233
F1.0819285099539226
tp800
sg68
(lp801
sg70
g792
sg153
g8
((ltRp802
sg155
g8
((lp803
(iccpnmr.chemBuild.model.Bond
Bond
p804
(dp805
g159
g383
sg161
Nsg13
g1
sg37
g92
sg17
g8
((lp806
g795
ag742
atRp807
sbatRp808
sg165
I00
sbatRp809
sg165
I00
sbsg153
g8
((ltRp810
sg155
g8
((lp811
(iccpnmr.chemBuild.model.Bond
Bond
p812
(dp813
g159
g383
sg161
Nsg13
g1
sg37
g38
sg17
g8
((lp814
g784
ag780
atRp815
sbatRp816
sg165
I00
sba(iccpnmr.chemBuild.model.VarAtom
VarAtom
p817
(dp818
g21
(lp819
sg23
g8
((lp820
(iccpnmr.chemBuild.model.VarAtom
VarAtom
p821
(dp822
g21
(lp823
sg23
g8
((lp824
g817
atRp825
sg3
VH2_1
p826
sg35
I00
sg36
Nsg13
g1
sg37
g38
sg65
I0
sg15
S'H'
sg16
I00
sg66
(F-541.89876565940779
F-411.14347642234611
F2.3361955814506707
tp827
sg68
(lp828
sg70
(iccpnmr.chemBuild.model.Atom
Atom
p829
(dp830
g3
g826
sg13
g1
sg14
I1
sg15
S'H'
sg16
I00
sg17
g8
((lp831
g821
a(iccpnmr.chemBuild.model.VarAtom
VarAtom
p832
(dp833
g21
(lp834
sg23
g8
((lp835
g738
atRp836
sg3
g826
sg35
I00
sg36
Nsg13
g1
sg37
g92
sg65
I0
sg15
S'H'
sg16
I00
sg66
(F-541.89876565940779
F-411.14347642234611
F2.3361955814506707
tp837
sg68
(lp838
sg70
g829
sg153
g8
((lp839
(iccpnmr.chemBuild.model.AtomGroup
AtomGroup
p840
(dp841
g290
g291
sg292
g8
((ltRp842
sg17
g8
((lp843
(iccpnmr.chemBuild.model.VarAtom
VarAtom
p844
(dp845
g21
(lp846
sg23
g8
((lp847
g738
atRp848
sg3
VH2_2
p849
sg35
I00
sg36
Nsg13
g1
sg37
g92
sg65
I0
sg15
S'H'
sg16
I00
sg66
(F-589.30250866331164
F-421.67109266851804
F2.8848520647307727
tp850
sg68
(lp851
sg70
(iccpnmr.chemBuild.model.Atom
Atom
p852
(dp853
g3
g849
sg13
g1
sg14
I1
sg15
S'H'
sg16
I00
sg17
g8
((lp854
(iccpnmr.chemBuild.model.VarAtom
VarAtom
p855
(dp856
g21
(lp857
sg23
g8
((lp858
g817
atRp859
sg3
g849
sg35
I00
sg36
Nsg13
g1
sg37
g38
sg65
I0
sg15
S'H'
sg16
I00
sg66
(F-589.30250866331164
F-421.67109266851804
F2.8848520647307727
tp860
sg68
(lp861
sg70
g852
sg153
g8
((lp862
(iccpnmr.chemBuild.model.AtomGroup
AtomGroup
p863
(dp864
g290
g291
sg292
g8
((ltRp865
sg17
g8
((lp866
g821
ag855
atRp867
sg37
g38
sg13
g1
sbatRp868
sg155
g8
((lp869
(iccpnmr.chemBuild.model.Bond
Bond
p870
(dp871
g159
g160
sg161
Nsg13
g1
sg37
g38
sg17
g8
((lp872
g855
ag817
atRp873
sbatRp874
sg165
I00
sbag844
atRp875
sg165
I00
sbsg153
g8
((lp876
g840
atRp877
sg155
g8
((lp878
(iccpnmr.chemBuild.model.Bond
Bond
p879
(dp880
g159
g160
sg161
Nsg13
g1
sg37
g92
sg17
g8
((lp881
g844
ag738
atRp882
sbatRp883
sg165
I00
sbag832
atRp884
sg37
g92
sg13
g1
sbatRp885
sg155
g8
((lp886
(iccpnmr.chemBuild.model.Bond
Bond
p887
(dp888
g159
g160
sg161
Nsg13
g1
sg37
g92
sg17
g8
((lp889
g832
ag738
atRp890
sbatRp891
sg165
I00
sbatRp892
sg165
I00
sbsg153
g8
((lp893
g863
atRp894
sg155
g8
((lp895
(iccpnmr.chemBuild.model.Bond
Bond
p896
(dp897
g159
g160
sg161
Nsg13
g1
sg37
g38
sg17
g8
((lp898
g821
ag817
atRp899
sbatRp900
sg165
I00
sbag855
ag670
ag780
atRp901
sg3
VC2
p902
sg35
I00
sg36
Nsg13
g1
sg37
g38
sg65
I0
sg15
VC
sg16
I00
sg66
(F-558.9438131412835
F-445.86164188218686
F2.9382871236021835
tp903
sg68
(lp904
sg70
(iccpnmr.chemBuild.model.Atom
Atom
p905
(dp906
g3
g902
sg13
g1
sg14
I4
sg15
VC
sg16
I00
sg17
g8
((lp907
g817
ag738
atRp908
sg165
I00
sbsg153
g8
((ltRp909
sg155
g8
((lp910
(iccpnmr.chemBuild.model.Bond
Bond
p911
(dp912
g159
g160
sg161
Nsg13
g1
sg37
g38
sg17
g8
((lp913
g670
ag817
atRp914
sba(iccpnmr.chemBuild.model.Bond
Bond
p915
(dp916
g159
g160
sg161
Nsg13
g1
sg37
g38
sg17
g8
((lp917
g817
ag780
atRp918
sbag870
ag896
atRp919
sg165
I00
sbag757
atRp920
sg3
VC1
p921
sg35
I00
sg36
Nsg13
g1
sg37
g38
sg65
I0
sg15
VC
sg16
I00
sg66
(F-599.01017337809617
F-478.27599456226386
F2.9319742368258832
tp922
sg68
(lp923
sg70
(iccpnmr.chemBuild.model.Atom
Atom
p924
(dp925
g3
g921
sg13
g1
sg14
I4
sg15
VC
sg16
I00
sg17
g8
((lp926
g780
ag742
atRp927
sg165
I00
sbsg153
g8
((ltRp928
sg155
g8
((lp929
g812
ag915
a(iccpnmr.chemBuild.model.Bond
Bond
p930
(dp931
g159
g160
sg161
Nsg13
g1
sg37
g38
sg17
g8
((lp932
g780
ag757
atRp933
sbatRp934
sg165
I00
sbatRp935
sg3
g751
sg35
I00
sg36
Nsg13
g1
sg37
g38
sg65
I0
sg15
S'O'
sg16
I00
sg66
(F-649.71822860605153
F-478.68361942529924
F0.83628924542956806
tp936
sg68
(lp937
sg70
g754
sg153
g8
((ltRp938
sg155
g8
((lp939
g930
ag775
atRp940
sg165
I00
sbatRp941
sg165
I00
sbsg153
g8
((ltRp942
sg155
g8
((lp943
(iccpnmr.chemBuild.model.Bond
Bond
p944
(dp945
g159
g160
sg161
Nsg13
g1
sg37
g92
sg17
g8
((lp946
g746
ag742
atRp947
sbatRp948
sg165
I00
sbag795
ag738
atRp949
sg3
g921
sg35
I00
sg36
Nsg13
g1
sg37
g92
sg65
I0
sg15
VC
sg16
I00
sg66
(F-599.01017337809617
F-478.27599456226386
F2.9319742368258832
tp950
sg68
(lp951
sg70
g924
sg153
g8
((ltRp952
sg155
g8
((lp953
g804
ag944
a(iccpnmr.chemBuild.model.Bond
Bond
p954
(dp955
g159
g160
sg161
Nsg13
g1
sg37
g92
sg17
g8
((lp956
g738
ag742
atRp957
sbatRp958
sg165
I00
sbag689
ag844
ag832
atRp959
sg3
g902
sg35
I00
sg36
Nsg13
g1
sg37
g92
sg65
I0
sg15
VC
sg16
I00
sg66
(F-558.9438131412835
F-445.86164188218686
F2.9382871236021835
tp960
sg68
(lp961
sg70
g905
sg153
g8
((ltRp962
sg155
g8
((lp963
g879
ag887
a(iccpnmr.chemBuild.model.Bond
Bond
p964
(dp965
g159
g160
sg161
Nsg13
g1
sg37
g92
sg17
g8
((lp966
g738
ag689
atRp967
sbag954
atRp968
sg165
I00
sbatRp969
sg3
VC3
p970
sg35
I00
sg36
Nsg13
g1
sg37
g92
sg65
I0
sg15
VC
sg16
I00
sg66
(F-512.47579379114552
F-473.61528947287047
F2.7148333485503922
tp971
sg68
(lp972
sg70
(iccpnmr.chemBuild.model.Atom
Atom
p973
(dp974
g3
g970
sg13
g1
sg14
I4
sg15
VC
sg16
I00
sg17
g8
((lp975
g670
ag689
atRp976
sg165
I00
sbsg153
g8
((ltRp977
sg155
g8
((lp978
(iccpnmr.chemBuild.model.Bond
Bond
p979
(dp980
g159
g160
sg161
Nsg13
g1
sg37
g92
sg17
g8
((lp981
g647
ag689
atRp982
sba(iccpnmr.chemBuild.model.Bond
Bond
p983
(dp984
g159
g160
sg161
Nsg13
g1
sg37
g92
sg17
g8
((lp985
g685
ag689
atRp986
sbag964
ag733
atRp987
sg165
I00
sbatRp988
sg3
g679
sg35
I00
sg36
Nsg13
g1
sg37
g92
sg65
I0
sg15
S'H'
sg16
I00
sg66
(F-494.13372890137123
F-507.46054952642612
F1.9763944486509057
tp989
sg68
(lp990
sg70
g682
sg153
g8
((lp991
g726
atRp992
sg155
g8
((lp993
g983
atRp994
sg165
I00
sbag674
atRp995
sg165
I00
sbsg153
g8
((lp996
g712
atRp997
sg155
g8
((lp998
(iccpnmr.chemBuild.model.Bond
Bond
p999
(dp1000
g159
g160
sg161
Nsg13
g1
sg37
g38
sg17
g8
((lp1001
g670
ag674
atRp1002
sbatRp1003
sg165
I00
sbag666
ag817
ag704
atRp1004
sg3
g970
sg35
I00
sg36
Nsg13
g1
sg37
g38
sg65
I0
sg15
VC
sg16
I00
sg66
(F-512.47579379114552
F-473.61528947287047
F2.7148333485503922
tp1005
sg68
(lp1006
sg70
g973
sg153
g8
((ltRp1007
sg155
g8
((lp1008
g999
ag911
ag719
a(iccpnmr.chemBuild.model.Bond
Bond
p1009
(dp1010
g159
g160
sg161
Nsg13
g1
sg37
g38
sg17
g8
((lp1011
g670
ag666
atRp1012
sbatRp1013
sg165
I00
sba(iccpnmr.chemBuild.model.VarAtom
VarAtom
p1014
(dp1015
g21
(lp1016
sg23
g8
((lp1017
g666
atRp1018
sg3
VH4_2
p1019
sg35
I00
sg36
Nsg13
g1
sg37
g38
sg65
I0
sg15
S'H'
sg16
I00
sg66
(F-418.37086542004664
F-433.65179705657573
F1.8656857413654611
tp1020
sg68
(lp1021
sg70
(iccpnmr.chemBuild.model.Atom
Atom
p1022
(dp1023
g3
g1019
sg13
g1
sg14
I1
sg15
S'H'
sg16
I00
sg17
g8
((lp1024
g1014
a(iccpnmr.chemBuild.model.VarAtom
VarAtom
p1025
(dp1026
g21
(lp1027
sg23
g8
((lp1028
g647
atRp1029
sg3
g1019
sg35
I00
sg36
Nsg13
g1
sg37
g92
sg65
I0
sg15
S'H'
sg16
I00
sg66
(F-418.37086542004664
F-433.65179705657573
F1.8656857413654611
tp1030
sg68
(lp1031
sg70
g1022
sg153
g8
((lp1032
(iccpnmr.chemBuild.model.AtomGroup
AtomGroup
p1033
(dp1034
g290
S'prochiral'
p1035
sg292
g8
((ltRp1036
sg17
g8
((lp1037
g1025
ag651
atRp1038
sg37
g92
sg13
g1
sbatRp1039
sg155
g8
((lp1040
(iccpnmr.chemBuild.model.Bond
Bond
p1041
(dp1042
g159
g160
sg161
Nsg13
g1
sg37
g92
sg17
g8
((lp1043
g647
ag1025
atRp1044
sbatRp1045
sg165
I00
sbatRp1046
sg165
I00
sbsg153
g8
((lp1047
(iccpnmr.chemBuild.model.AtomGroup
AtomGroup
p1048
(dp1049
g290
g291
sg292
g8
((ltRp1050
sg17
g8
((lp1051
g662
ag1014
atRp1052
sg37
g38
sg13
g1
sbatRp1053
sg155
g8
((lp1054
(iccpnmr.chemBuild.model.Bond
Bond
p1055
(dp1056
g159
g160
sg161
Nsg13
g1
sg37
g38
sg17
g8
((lp1057
g1014
ag666
atRp1058
sbatRp1059
sg165
I00
sbag662
a(iccpnmr.chemBuild.model.VarAtom
VarAtom
p1060
(dp1061
g21
(lp1062
sg23
g8
((lp1063
g620
a(iccpnmr.chemBuild.model.VarAtom
VarAtom
p1064
(dp1065
g21
(lp1066
sg23
g8
((lp1067
g1060
atRp1068
sg3
VH5
p1069
sg35
I00
sg36
Nsg13
g1
sg37
g38
sg65
I0
sg15
S'H'
sg16
I00
sg66
(F-435.55839661220546
F-528.99311307041921
F2.917487088333139
tp1070
sg68
(lp1071
sg70
(iccpnmr.chemBuild.model.Atom
Atom
p1072
(dp1073
g3
g1069
sg13
g1
sg14
I1
sg15
S'H'
sg16
I00
sg17
g8
((lp1074
g1064
a(iccpnmr.chemBuild.model.VarAtom
VarAtom
p1075
(dp1076
g21
(lp1077
sg23
g8
((lp1078
g643
atRp1079
sg3
g1069
sg35
I00
sg36
Nsg13
g1
sg37
g92
sg65
I0
sg15
S'H'
sg16
I00
sg66
(F-435.55839661220546
F-528.99311307041921
F2.917487088333139
tp1080
sg68
(lp1081
sg70
g1072
sg153
g8
((ltRp1082
sg155
g8
((lp1083
(iccpnmr.chemBuild.model.Bond
Bond
p1084
(dp1085
g159
g160
sg161
Nsg13
g1
sg37
g92
sg17
g8
((lp1086
g643
ag1075
atRp1087
sbatRp1088
sg165
I00
sbatRp1089
sg165
I00
sbsg153
g8
((ltRp1090
sg155
g8
((lp1091
(iccpnmr.chemBuild.model.Bond
Bond
p1092
(dp1093
g159
g160
sg161
Nsg13
g1
sg37
g38
sg17
g8
((lp1094
g1064
ag1060
atRp1095
sbatRp1096
sg165
I00
sbag666
atRp1097
sg3
VC5
p1098
sg35
I00
sg36
Nsg13
g1
sg37
g38
sg65
I0
sg15
VC
sg16
I00
sg66
(F-422.79852936248142
F-492.81124153880603
F3.7246886840415891
tp1099
sg68
(lp1100
sg70
(iccpnmr.chemBuild.model.Atom
Atom
p1101
(dp1102
g3
g1098
sg13
g1
sg14
I4
sg15
VC
sg16
I00
sg17
g8
((lp1103
g643
ag1060
atRp1104
sg165
I00
sbsg153
g8
((ltRp1105
sg155
g8
((lp1106
(iccpnmr.chemBuild.model.Bond
Bond
p1107
(dp1108
g159
g383
sg161
Nsg13
g1
sg37
g38
sg17
g8
((lp1109
g620
ag1060
atRp1110
sba(iccpnmr.chemBuild.model.Bond
Bond
p1111
(dp1112
g159
g160
sg161
Nsg13
g1
sg37
g38
sg17
g8
((lp1113
g666
ag1060
atRp1114
sbag1092
atRp1115
sg165
I00
sbatRp1116
sg3
VC4
p1117
sg35
I00
sg36
Nsg13
g1
sg37
g38
sg65
I0
sg15
VC
sg16
I00
sg66
(F-459.47661397561399
F-456.16670649528339
F3.1079681392205849
tp1118
sg68
(lp1119
sg70
(iccpnmr.chemBuild.model.Atom
Atom
p1120
(dp1121
g3
g1117
sg13
g1
sg14
I4
sg15
VC
sg16
I00
sg17
g8
((lp1122
g647
ag666
atRp1123
sg165
I00
sbsg153
g8
((ltRp1124
sg155
g8
((lp1125
g1009
ag1055
a(iccpnmr.chemBuild.model.Bond
Bond
p1126
(dp1127
g159
g160
sg161
Nsg13
g1
sg37
g38
sg17
g8
((lp1128
g662
ag666
atRp1129
sbag1111
atRp1130
sg165
I00
sbatRp1131
sg3
g656
sg35
I00
sg36
Nsg13
g1
sg37
g38
sg65
I0
sg15
S'H'
sg16
I00
sg66
(F-463.54285240302954
F-421.69003175114779
F2.6020512862357492
tp1132
sg68
(lp1133
sg70
g659
sg153
g8
((lp1134
g1048
atRp1135
sg155
g8
((lp1136
g1126
atRp1137
sg165
I00
sbag651
atRp1138
sg165
I00
sbsg153
g8
((lp1139
g1033
atRp1140
sg155
g8
((lp1141
(iccpnmr.chemBuild.model.Bond
Bond
p1142
(dp1143
g159
g160
sg161
Nsg13
g1
sg37
g92
sg17
g8
((lp1144
g647
ag651
atRp1145
sbatRp1146
sg165
I00
sbag689
ag1025
atRp1147
sg3
g1117
sg35
I00
sg36
Nsg13
g1
sg37
g92
sg65
I0
sg15
VC
sg16
I00
sg66
(F-459.47661397561399
F-456.16670649528339
F3.1079681392205849
tp1148
sg68
(lp1149
sg70
g1120
sg153
g8
((ltRp1150
sg155
g8
((lp1151
(iccpnmr.chemBuild.model.Bond
Bond
p1152
(dp1153
g159
g160
sg161
Nsg13
g1
sg37
g92
sg17
g8
((lp1154
g647
ag643
atRp1155
sbag979
ag1041
ag1142
atRp1156
sg165
I00
sbag1075
ag639
atRp1157
sg3
g1098
sg35
I00
sg36
Nsg13
g1
sg37
g92
sg65
I0
sg15
VC
sg16
I00
sg66
(F-422.79852936248142
F-492.81124153880603
F3.7246886840415891
tp1158
sg68
(lp1159
sg70
g1101
sg153
g8
((ltRp1160
sg155
g8
((lp1161
g1152
a(iccpnmr.chemBuild.model.Bond
Bond
p1162
(dp1163
g159
g383
sg161
Nsg13
g1
sg37
g92
sg17
g8
((lp1164
g643
ag639
atRp1165
sbag1084
atRp1166
sg165
I00
sbag635
ag108
atRp1167
sg3
VC6
p1168
sg35
I00
sg36
Nsg13
g1
sg37
g92
sg65
I0
sg15
VC
sg16
I00
sg66
(F-378.32636937842062
F-501.29877409334131
F2.1362665397516194
tp1169
sg68
(lp1170
sg70
(iccpnmr.chemBuild.model.Atom
Atom
p1171
(dp1172
g3
g1168
sg13
g1
sg14
I4
sg15
VC
sg16
I00
sg17
g8
((lp1173
g620
ag639
atRp1174
sg165
I00
sbsg153
g8
((ltRp1175
sg155
g8
((lp1176
(iccpnmr.chemBuild.model.Bond
Bond
p1177
(dp1178
g159
g160
sg161
Nsg13
g1
sg37
g92
sg17
g8
((lp1179
g108
ag639
atRp1180
sbag1162
a(iccpnmr.chemBuild.model.Bond
Bond
p1181
(dp1182
g159
g160
sg161
Nsg13
g1
sg37
g92
sg17
g8
((lp1183
g635
ag639
atRp1184
sbatRp1185
sg165
I00
sbatRp1186
sg3
g629
sg35
I00
sg36
Nsg13
g1
sg37
g92
sg65
I0
sg15
S'H'
sg16
I00
sg66
(F-373.77711066479748
F-539.37285588680766
F2.9833288493441303
tp1187
sg68
(lp1188
sg70
g632
sg153
g8
((ltRp1189
sg155
g8
((lp1190
g1181
atRp1191
sg165
I00
sbag624
atRp1192
sg165
I00
sbsg153
g8
((ltRp1193
sg155
g8
((lp1194
(iccpnmr.chemBuild.model.Bond
Bond
p1195
(dp1196
g159
g160
sg161
Nsg13
g1
sg37
g38
sg17
g8
((lp1197
g620
ag624
atRp1198
sbatRp1199
sg165
I00
sbag1060
atRp1200
sg3
g1168
sg35
I00
sg36
Nsg13
g1
sg37
g38
sg65
I0
sg15
VC
sg16
I00
sg66
(F-378.32636937842062
F-501.29877409334131
F2.1362665397516194
tp1201
sg68
(lp1202
sg70
g1171
sg153
g8
((ltRp1203
sg155
g8
((lp1204
g1107
ag1195
a(iccpnmr.chemBuild.model.Bond
Bond
p1205
(dp1206
g159
g160
sg161
Nsg13
g1
sg37
g38
sg17
g8
((lp1207
g127
ag620
atRp1208
sbatRp1209
sg165
I00
sbag123
a(iccpnmr.chemBuild.model.VarAtom
VarAtom
p1210
(dp1211
g21
(lp1212
sg23
g8
((lp1213
g127
atRp1214
sg3
VH7_2
p1215
sg35
I00
sg36
Nsg13
g1
sg37
g38
sg65
I0
sg15
S'H'
sg16
I00
sg66
(F-353.96968653219687
F-445.51701940232817
F1.9890892372067703
tp1216
sg68
(lp1217
sg70
(iccpnmr.chemBuild.model.Atom
Atom
p1218
(dp1219
g3
g1215
sg13
g1
sg14
I1
sg15
S'H'
sg16
I00
sg17
g8
((lp1220
g1210
a(iccpnmr.chemBuild.model.VarAtom
VarAtom
p1221
(dp1222
g21
(lp1223
sg23
g8
((lp1224
g108
atRp1225
sg3
g1215
sg35
I00
sg36
Nsg13
g1
sg37
g92
sg65
I0
sg15
S'H'
sg16
I00
sg66
(F-353.96968653219687
F-445.51701940232817
F1.9890892372067703
tp1226
sg68
(lp1227
sg70
g1218
sg153
g8
((lp1228
(iccpnmr.chemBuild.model.AtomGroup
AtomGroup
p1229
(dp1230
g290
g291
sg292
g8
((ltRp1231
sg17
g8
((lp1232
g112
ag1221
atRp1233
sg37
g92
sg13
g1
sbatRp1234
sg155
g8
((lp1235
(iccpnmr.chemBuild.model.Bond
Bond
p1236
(dp1237
g159
g160
sg161
Nsg13
g1
sg37
g92
sg17
g8
((lp1238
g108
ag1221
atRp1239
sbatRp1240
sg165
I00
sbatRp1241
sg165
I00
sbsg153
g8
((lp1242
(iccpnmr.chemBuild.model.AtomGroup
AtomGroup
p1243
(dp1244
g290
g291
sg292
g8
((ltRp1245
sg17
g8
((lp1246
g123
ag1210
atRp1247
sg37
g38
sg13
g1
sbatRp1248
sg155
g8
((lp1249
(iccpnmr.chemBuild.model.Bond
Bond
p1250
(dp1251
g159
g160
sg161
Nsg13
g1
sg37
g38
sg17
g8
((lp1252
g127
ag1210
atRp1253
sbatRp1254
sg165
I00
sbatRp1255
sg3
VC7
p1256
sg35
I00
sg36
Nsg13
g1
sg37
g38
sg65
I0
sg15
VC
sg16
I00
sg66
(F-332.43823940208932
F-477.58984897775872
F2.369898350616142
tp1257
sg68
(lp1258
sg70
(iccpnmr.chemBuild.model.Atom
Atom
p1259
(dp1260
g3
g1256
sg13
g1
sg14
I4
sg15
VC
sg16
I00
sg17
g8
((lp1261
g127
ag108
atRp1262
sg165
I00
sbsg153
g8
((ltRp1263
sg155
g8
((lp1264
(iccpnmr.chemBuild.model.Bond
Bond
p1265
(dp1266
g159
g160
sg161
Nsg13
g1
sg37
g38
sg17
g8
((lp1267
g127
ag123
atRp1268
sbag1205
ag1250
ag615
atRp1269
sg165
I00
sbatRp1270
sg3
g117
sg35
I00
sg36
Nsg13
g1
sg37
g38
sg65
I0
sg15
S'H'
sg16
I00
sg66
(F-306.81492040956584
F-448.71903705130995
F2.4316859218755442
tp1271
sg68
(lp1272
sg70
g120
sg153
g8
((lp1273
g1243
atRp1274
sg155
g8
((lp1275
g1265
atRp1276
sg165
I00
sbatRp1277
sg165
I00
sbsg153
g8
((lp1278
g1229
atRp1279
sg155
g8
((lp1280
(iccpnmr.chemBuild.model.Bond
Bond
p1281
(dp1282
g159
g160
sg161
Nsg13
g1
sg37
g92
sg17
g8
((lp1283
g112
ag108
atRp1284
sbatRp1285
sg165
I00
sbag104
ag1221
ag639
atRp1286
sg3
g1256
sg35
I00
sg36
Nsg13
g1
sg37
g92
sg65
I0
sg15
VC
sg16
I00
sg66
(F-332.43823940208932
F-477.58984897775872
F2.369898350616142
tp1287
sg68
(lp1288
sg70
g1259
sg153
g8
((ltRp1289
sg155
g8
((lp1290
g1281
ag1177
ag1236
a(iccpnmr.chemBuild.model.Bond
Bond
p1291
(dp1292
g159
g160
sg161
Nsg13
g1
sg37
g92
sg17
g8
((lp1293
g104
ag108
atRp1294
sbatRp1295
sg165
I00
sbag146
atRp1296
sg3
g606
sg35
I00
sg36
Nsg13
g1
sg37
g92
sg65
I0
sg15
VC
sg16
I00
sg66
(F-290.97582318636671
F-508.45514613317721
F3.105421062005608
tp1297
sg68
(lp1298
sg70
g609
sg153
g8
((ltRp1299
sg155
g8
((lp1300
g157
a(iccpnmr.chemBuild.model.Bond
Bond
p1301
(dp1302
g159
g383
sg161
Nsg13
g1
sg37
g92
sg17
g8
((lp1303
g100
ag104
atRp1304
sbag1291
atRp1305
sg165
I00
sbag96
ag265
atRp1306
sg3
g591
sg35
I00
sg36
Nsg13
g1
sg37
g92
sg65
I0
sg15
VC
sg16
I00
sg66
(F-245.74396129009838
F-506.93828921864412
F2.7546785571925172
tp1307
sg68
(lp1308
sg70
g594
sg153
g8
((ltRp1309
sg155
g8
((lp1310
(iccpnmr.chemBuild.model.Bond
Bond
p1311
(dp1312
g159
g160
sg161
Nsg13
g1
sg37
g92
sg17
g8
((lp1313
g100
ag96
atRp1314
sbag1301
ag366
atRp1315
sg165
I00
sbatRp1316
sg3
g183
sg35
I00
sg36
Nsg13
g1
sg37
g92
sg65
I0
sg15
S'H'
sg16
I00
sg66
(F-234.64722194630102
F-543.63183677779784
F2.8611749000541988
tp1317
sg68
(lp1318
sg70
g186
sg153
g8
((ltRp1319
sg155
g8
((lp1320
g1311
atRp1321
sg165
I00
sbag844
a(iccpnmr.chemBuild.model.VarAtom
VarAtom
p1322
(dp1323
g21
(lp1324
sg23
g8
((lp1325
(iccpnmr.chemBuild.model.VarAtom
VarAtom
p1326
(dp1327
g21
(lp1328
sg23
g8
((lp1329
g1322
a(iccpnmr.chemBuild.model.VarAtom
VarAtom
p1330
(dp1331
g21
(lp1332
sg23
g8
((lp1333
g1326
atRp1334
sg3
VH20_1
p1335
sg35
I00
sg36
Nsg13
g1
sg37
g92
sg65
I0
sg15
S'H'
sg16
I00
sg66
(F237.04424652418692
F-360.43089286167162
F2.8019672643689022
tp1336
sg68
(lp1337
sg70
(iccpnmr.chemBuild.model.Atom
Atom
p1338
(dp1339
g3
g1335
sg13
g1
sg14
I1
sg15
S'H'
sg16
I00
sg17
g8
((lp1340
g1330
a(iccpnmr.chemBuild.model.VarAtom
VarAtom
p1341
(dp1342
g21
(lp1343
sg23
g8
((lp1344
(iccpnmr.chemBuild.model.VarAtom
VarAtom
p1345
(dp1346
g21
(lp1347
sg23
g8
((lp1348
(iccpnmr.chemBuild.model.VarAtom
VarAtom
p1349
(dp1350
g21
(lp1351
sg23
g8
((lp1352
g1345
atRp1353
sg3
VH20_3
p1354
sg35
I00
sg36
Nsg13
g1
sg37
g38
sg65
I0
sg15
S'H'
sg16
I00
sg66
(F281.51158363447735
F-422.12958221340938
F2.411478692014501
tp1355
sg68
(lp1356
sg70
(iccpnmr.chemBuild.model.Atom
Atom
p1357
(dp1358
g3
g1354
sg13
g1
sg14
I1
sg15
S'H'
sg16
I00
sg17
g8
((lp1359
g1322
ag1349
atRp1360
sg165
I00
sbsg153
g8
((lp1361
(iccpnmr.chemBuild.model.AtomGroup
AtomGroup
p1362
(dp1363
g290
S'equivalent'
p1364
sg292
g8
((ltRp1365
sg17
g8
((lp1366
(iccpnmr.chemBuild.model.VarAtom
VarAtom
p1367
(dp1368
g21
(lp1369
sg23
g8
((lp1370
g1345
atRp1371
sg3
VH20_2
p1372
sg35
I00
sg36
Nsg13
g1
sg37
g38
sg65
I0
sg15
S'H'
sg16
I00
sg66
(F284.69219550765183
F-372.4725530844986
F2.4422205793812086
tp1373
sg68
(lp1374
sg70
(iccpnmr.chemBuild.model.Atom
Atom
p1375
(dp1376
g3
g1372
sg13
g1
sg14
I1
sg15
S'H'
sg16
I00
sg17
g8
((lp1377
g1367
a(iccpnmr.chemBuild.model.VarAtom
VarAtom
p1378
(dp1379
g21
(lp1380
sg23
g8
((lp1381
g1326
atRp1382
sg3
g1372
sg35
I00
sg36
Nsg13
g1
sg37
g92
sg65
I0
sg15
S'H'
sg16
I00
sg66
(F284.69219550765183
F-372.4725530844986
F2.4422205793812086
tp1383
sg68
(lp1384
sg70
g1375
sg153
g8
((lp1385
(iccpnmr.chemBuild.model.AtomGroup
AtomGroup
p1386
(dp1387
g290
g1364
sg292
g8
((ltRp1388
sg17
g8
((lp1389
g1322
ag1330
ag1378
atRp1390
sg37
g92
sg13
g1
sbatRp1391
sg155
g8
((lp1392
(iccpnmr.chemBuild.model.Bond
Bond
p1393
(dp1394
g159
g160
sg161
Nsg13
g1
sg37
g92
sg17
g8
((lp1395
g1326
ag1378
atRp1396
sbatRp1397
sg165
I00
sbatRp1398
sg165
I00
sbsg153
g8
((lp1399
g1362
atRp1400
sg155
g8
((lp1401
(iccpnmr.chemBuild.model.Bond
Bond
p1402
(dp1403
g159
g160
sg161
Nsg13
g1
sg37
g38
sg17
g8
((lp1404
g1367
ag1345
atRp1405
sbatRp1406
sg165
I00
sbag1341
ag1349
atRp1407
sg37
g38
sg13
g1
sbatRp1408
sg155
g8
((lp1409
(iccpnmr.chemBuild.model.Bond
Bond
p1410
(dp1411
g159
g160
sg161
Nsg13
g1
sg37
g38
sg17
g8
((lp1412
g1349
ag1345
atRp1413
sbatRp1414
sg165
I00
sba(iccpnmr.chemBuild.model.VarAtom
VarAtom
p1415
(dp1416
g21
(lp1417
sg23
g8
((lp1418
(iccpnmr.chemBuild.model.VarAtom
VarAtom
p1419
(dp1420
g21
(lp1421
sg23
g8
((lp1422
(iccpnmr.chemBuild.model.VarAtom
VarAtom
p1423
(dp1424
g21
(lp1425
sg23
g8
((lp1426
g1419
atRp1427
sg3
VH18_2
p1428
sg35
I00
sg36
Nsg13
g1
sg37
g38
sg65
I0
sg15
S'H'
sg16
I00
sg66
(F128.9879029383398
F-380.36085385633663
F2.9467922432776605
tp1429
sg68
(lp1430
sg70
(iccpnmr.chemBuild.model.Atom
Atom
p1431
(dp1432
g3
g1428
sg13
g1
sg14
I1
sg15
S'H'
sg16
I00
sg17
g8
((lp1433
g1423
a(iccpnmr.chemBuild.model.VarAtom
VarAtom
p1434
(dp1435
g21
(lp1436
sg23
g8
((lp1437
(iccpnmr.chemBuild.model.VarAtom
VarAtom
p1438
(dp1439
g21
(lp1440
sg23
g8
((lp1441
(iccpnmr.chemBuild.model.VarAtom
VarAtom
p1442
(dp1443
g21
(lp1444
sg23
g8
((lp1445
g1438
atRp1446
sg3
VH18_1
p1447
sg35
I00
sg36
Nsg13
g1
sg37
g92
sg65
I0
sg15
S'H'
sg16
I00
sg66
(F174.21248810717265
F-376.77098703362844
F2.0729220817938048
tp1448
sg68
(lp1449
sg70
(iccpnmr.chemBuild.model.Atom
Atom
p1450
(dp1451
g3
g1447
sg13
g1
sg14
I1
sg15
S'H'
sg16
I00
sg17
g8
((lp1452
g1442
a(iccpnmr.chemBuild.model.VarAtom
VarAtom
p1453
(dp1454
g21
(lp1455
sg23
g8
((lp1456
g1419
atRp1457
sg3
g1447
sg35
I00
sg36
Nsg13
g1
sg37
g38
sg65
I0
sg15
S'H'
sg16
I00
sg66
(F174.21248810717265
F-376.77098703362844
F2.0729220817938048
tp1458
sg68
(lp1459
sg70
g1450
sg153
g8
((lp1460
(iccpnmr.chemBuild.model.AtomGroup
AtomGroup
p1461
(dp1462
g290
g291
sg292
g8
((ltRp1463
sg17
g8
((lp1464
g1453
ag1423
atRp1465
sg37
g38
sg13
g1
sbatRp1466
sg155
g8
((lp1467
(iccpnmr.chemBuild.model.Bond
Bond
p1468
(dp1469
g159
g160
sg161
Nsg13
g1
sg37
g38
sg17
g8
((lp1470
g1419
ag1453
atRp1471
sbatRp1472
sg165
I00
sbatRp1473
sg165
I00
sbsg153
g8
((lp1474
(iccpnmr.chemBuild.model.AtomGroup
AtomGroup
p1475
(dp1476
g290
g291
sg292
g8
((ltRp1477
sg17
g8
((lp1478
g1442
ag1434
atRp1479
sg37
g92
sg13
g1
sbatRp1480
sg155
g8
((lp1481
(iccpnmr.chemBuild.model.Bond
Bond
p1482
(dp1483
g159
g160
sg161
Nsg13
g1
sg37
g92
sg17
g8
((lp1484
g1442
ag1438
atRp1485
sbatRp1486
sg165
I00
sbag1434
a(iccpnmr.chemBuild.model.VarAtom
VarAtom
p1487
(dp1488
g21
(lp1489
sg23
g8
((lp1490
g1326
ag1438
a(iccpnmr.chemBuild.model.VarAtom
VarAtom
p1491
(dp1492
g21
(lp1493
sg23
g8
((lp1494
g1487
atRp1495
sg3
VH19_2
p1496
sg35
I00
sg36
Nsg13
g1
sg37
g92
sg65
I0
sg15
S'H'
sg16
I00
sg66
(F190.25490603266149
F-463.03450158351541
F2.3689252346595744
tp1497
sg68
(lp1498
sg70
(iccpnmr.chemBuild.model.Atom
Atom
p1499
(dp1500
g3
g1496
sg13
g1
sg14
I1
sg15
S'H'
sg16
I00
sg17
g8
((lp1501
(iccpnmr.chemBuild.model.VarAtom
VarAtom
p1502
(dp1503
g21
(lp1504
sg23
g8
((lp1505
g1415
atRp1506
sg3
g1496
sg35
I00
sg36
Nsg13
g1
sg37
g38
sg65
I0
sg15
S'H'
sg16
I00
sg66
(F190.25490603266149
F-463.03450158351541
F2.3689252346595744
tp1507
sg68
(lp1508
sg70
g1499
sg153
g8
((lp1509
(iccpnmr.chemBuild.model.AtomGroup
AtomGroup
p1510
(dp1511
g290
g291
sg292
g8
((ltRp1512
sg17
g8
((lp1513
(iccpnmr.chemBuild.model.VarAtom
VarAtom
p1514
(dp1515
g21
(lp1516
sg23
g8
((lp1517
g1415
atRp1518
sg3
VH19_1
p1519
sg35
I00
sg36
Nsg13
g1
sg37
g38
sg65
I0
sg15
S'H'
sg16
I00
sg66
(F234.26458385995653
F-457.82048810061951
F2.7893042569704192
tp1520
sg68
(lp1521
sg70
(iccpnmr.chemBuild.model.Atom
Atom
p1522
(dp1523
g3
g1519
sg13
g1
sg14
I1
sg15
S'H'
sg16
I00
sg17
g8
((lp1524
g1514
a(iccpnmr.chemBuild.model.VarAtom
VarAtom
p1525
(dp1526
g21
(lp1527
sg23
g8
((lp1528
g1487
atRp1529
sg3
g1519
sg35
I00
sg36
Nsg13
g1
sg37
g92
sg65
I0
sg15
S'H'
sg16
I00
sg66
(F234.26458385995653
F-457.82048810061951
F2.7893042569704192
tp1530
sg68
(lp1531
sg70
g1522
sg153
g8
((lp1532
(iccpnmr.chemBuild.model.AtomGroup
AtomGroup
p1533
(dp1534
g290
g291
sg292
g8
((ltRp1535
sg17
g8
((lp1536
g1491
ag1525
atRp1537
sg37
g92
sg13
g1
sbatRp1538
sg155
g8
((lp1539
(iccpnmr.chemBuild.model.Bond
Bond
p1540
(dp1541
g159
g160
sg161
Nsg13
g1
sg37
g92
sg17
g8
((lp1542
g1487
ag1525
atRp1543
sbatRp1544
sg165
I00
sbatRp1545
sg165
I00
sbsg153
g8
((lp1546
g1510
atRp1547
sg155
g8
((lp1548
(iccpnmr.chemBuild.model.Bond
Bond
p1549
(dp1550
g159
g160
sg161
Nsg13
g1
sg37
g38
sg17
g8
((lp1551
g1514
ag1415
atRp1552
sbatRp1553
sg165
I00
sbag1502
atRp1554
sg37
g38
sg13
g1
sbatRp1555
sg155
g8
((lp1556
(iccpnmr.chemBuild.model.Bond
Bond
p1557
(dp1558
g159
g160
sg161
Nsg13
g1
sg37
g38
sg17
g8
((lp1559
g1502
ag1415
atRp1560
sbatRp1561
sg165
I00
sbag1491
atRp1562
sg165
I00
sbsg153
g8
((lp1563
g1533
atRp1564
sg155
g8
((lp1565
(iccpnmr.chemBuild.model.Bond
Bond
p1566
(dp1567
g159
g160
sg161
Nsg13
g1
sg37
g92
sg17
g8
((lp1568
g1491
ag1487
atRp1569
sbatRp1570
sg165
I00
sbag1525
atRp1571
sg3
VC19
p1572
sg35
I00
sg36
Nsg13
g1
sg37
g92
sg65
I0
sg15
VC
sg16
I00
sg66
(F208.25084646106683
F-428.98634135085712
F2.66245797352975
tp1573
sg68
(lp1574
sg70
(iccpnmr.chemBuild.model.Atom
Atom
p1575
(dp1576
g3
g1572
sg13
g1
sg14
I4
sg15
VC
sg16
I00
sg17
g8
((lp1577
g1487
ag1415
atRp1578
sg165
I00
sbsg153
g8
((ltRp1579
sg155
g8
((lp1580
g1566
a(iccpnmr.chemBuild.model.Bond
Bond
p1581
(dp1582
g159
g160
sg161
Nsg13
g1
sg37
g92
sg17
g8
((lp1583
g1487
ag1438
atRp1584
sba(iccpnmr.chemBuild.model.Bond
Bond
p1585
(dp1586
g159
g160
sg161
Nsg13
g1
sg37
g92
sg17
g8
((lp1587
g1326
ag1487
atRp1588
sbag1540
atRp1589
sg165
I00
sba(iccpnmr.chemBuild.model.VarAtom
VarAtom
p1590
(dp1591
g21
(lp1592
sg23
g8
((lp1593
g82
a(iccpnmr.chemBuild.model.VarAtom
VarAtom
p1594
(dp1595
g21
(lp1596
sg23
g8
((lp1597
g1590
atRp1598
sg3
g34
sg35
I00
sg36
Nsg13
g1
sg37
g92
sg65
I0
sg15
S'H'
sg16
I00
sg66
(F132.24816389666552
F-468.29813288754013
F1.6366921975768731
tp1599
sg68
(lp1600
sg70
(iccpnmr.chemBuild.model.Atom
Atom
p1601
(dp1602
g3
g34
sg13
g1
sg14
I1
sg15
S'H'
sg16
I00
sg17
g8
((lp1603
g29
ag1594
atRp1604
sg165
I00
sbsg153
g8
((lp1605
(iccpnmr.chemBuild.model.AtomGroup
AtomGroup
p1606
(dp1607
g290
g291
sg292
g8
((ltRp1608
sg17
g8
((lp1609
(iccpnmr.chemBuild.model.VarAtom
VarAtom
p1610
(dp1611
g21
(lp1612
sg23
g8
((lp1613
g1590
atRp1614
sg3
g12
sg35
I00
sg36
Nsg13
g1
sg37
g92
sg65
I0
sg15
S'H'
sg16
I00
sg66
(F88.695257282725095
F-473.42619949456156
F1.6523957472449409
tp1615
sg68
(lp1616
sg70
g10
sg153
g8
((lp1617
g1606
atRp1618
sg155
g8
((lp1619
(iccpnmr.chemBuild.model.Bond
Bond
p1620
(dp1621
g159
g160
sg161
Nsg13
g1
sg37
g92
sg17
g8
((lp1622
g1610
ag1590
atRp1623
sbatRp1624
sg165
I00
sbag1594
atRp1625
sg37
g92
sg13
g1
sbatRp1626
sg155
g8
((lp1627
(iccpnmr.chemBuild.model.Bond
Bond
p1628
(dp1629
g159
g160
sg161
Nsg13
g1
sg37
g92
sg17
g8
((lp1630
g1590
ag1594
atRp1631
sbatRp1632
sg165
I00
sbag1438
ag1610
atRp1633
sg3
VC17
p1634
sg35
I00
sg36
Nsg13
g1
sg37
g92
sg65
I0
sg15
VC
sg16
I00
sg66
(F106.7629929777226
F-439.46027625221166
F2.4358379279995175
tp1635
sg68
(lp1636
sg70
(iccpnmr.chemBuild.model.Atom
Atom
p1637
(dp1638
g3
g1634
sg13
g1
sg14
I4
sg15
VC
sg16
I00
sg17
g8
((lp1639
g25
ag1590
atRp1640
sg165
I00
sbsg153
g8
((ltRp1641
sg155
g8
((lp1642
g1620
ag1628
a(iccpnmr.chemBuild.model.Bond
Bond
p1643
(dp1644
g159
g160
sg161
Nsg13
g1
sg37
g92
sg17
g8
((lp1645
g82
ag1590
atRp1646
sba(iccpnmr.chemBuild.model.Bond
Bond
p1647
(dp1648
g159
g160
sg161
Nsg13
g1
sg37
g92
sg17
g8
((lp1649
g1590
ag1438
atRp1650
sbatRp1651
sg165
I00
sbatRp1652
sg3
VC18
p1653
sg35
I00
sg36
Nsg13
g1
sg37
g92
sg65
I0
sg15
VC
sg16
I00
sg66
(F154.15510144901276
F-409.55993176889513
F3.3599277817175768
tp1654
sg68
(lp1655
sg70
(iccpnmr.chemBuild.model.Atom
Atom
p1656
(dp1657
g3
g1653
sg13
g1
sg14
I4
sg15
VC
sg16
I00
sg17
g8
((lp1658
g1419
ag1438
atRp1659
sg165
I00
sbsg153
g8
((ltRp1660
sg155
g8
((lp1661
(iccpnmr.chemBuild.model.Bond
Bond
p1662
(dp1663
g159
g160
sg161
Nsg13
g1
sg37
g92
sg17
g8
((lp1664
g1434
ag1438
atRp1665
sbag1647
ag1482
ag1581
atRp1666
sg165
I00
sbatRp1667
sg3
g1428
sg35
I00
sg36
Nsg13
g1
sg37
g92
sg65
I0
sg15
S'H'
sg16
I00
sg66
(F128.9879029383398
F-380.36085385633663
F2.9467922432776605
tp1668
sg68
(lp1669
sg70
g1431
sg153
g8
((lp1670
g1475
atRp1671
sg155
g8
((lp1672
g1662
atRp1673
sg165
I00
sbatRp1674
sg165
I00
sbsg153
g8
((lp1675
g1461
atRp1676
sg155
g8
((lp1677
(iccpnmr.chemBuild.model.Bond
Bond
p1678
(dp1679
g159
g160
sg161
Nsg13
g1
sg37
g38
sg17
g8
((lp1680
g1419
ag1423
atRp1681
sbatRp1682
sg165
I00
sbag25
ag1415
ag1453
atRp1683
sg3
g1653
sg35
I00
sg36
Nsg13
g1
sg37
g38
sg65
I0
sg15
VC
sg16
I00
sg66
(F154.15510144901276
F-409.55993176889513
F3.3599277817175768
tp1684
sg68
(lp1685
sg70
g1656
sg153
g8
((ltRp1686
sg155
g8
((lp1687
g1678
ag1468
a(iccpnmr.chemBuild.model.Bond
Bond
p1688
(dp1689
g159
g160
sg161
Nsg13
g1
sg37
g38
sg17
g8
((lp1690
g1415
ag1419
atRp1691
sba(iccpnmr.chemBuild.model.Bond
Bond
p1692
(dp1693
g159
g160
sg161
Nsg13
g1
sg37
g38
sg17
g8
((lp1694
g25
ag1419
atRp1695
sbatRp1696
sg165
I00
sbag1345
ag1514
ag1502
atRp1697
sg3
g1572
sg35
I00
sg36
Nsg13
g1
sg37
g38
sg65
I0
sg15
VC
sg16
I00
sg66
(F208.25084646106683
F-428.98634135085712
F2.66245797352975
tp1698
sg68
(lp1699
sg70
g1575
sg153
g8
((ltRp1700
sg155
g8
((lp1701
(iccpnmr.chemBuild.model.Bond
Bond
p1702
(dp1703
g159
g160
sg161
Nsg13
g1
sg37
g38
sg17
g8
((lp1704
g1415
ag1345
atRp1705
sbag1688
ag1549
ag1557
atRp1706
sg165
I00
sbag1341
ag1367
atRp1707
sg3
VC20
p1708
sg35
I00
sg36
Nsg13
g1
sg37
g38
sg65
I0
sg15
VC
sg16
I00
sg66
(F253.1758737656948
F-395.64237192633027
F2.6733659628813524
tp1709
sg68
(lp1710
sg70
(iccpnmr.chemBuild.model.Atom
Atom
p1711
(dp1712
g3
g1708
sg13
g1
sg14
I4
sg15
VC
sg16
I00
sg17
g8
((lp1713
g1326
ag1345
atRp1714
sg165
I00
sbsg153
g8
((ltRp1715
sg155
g8
((lp1716
g1702
ag1402
a(iccpnmr.chemBuild.model.Bond
Bond
p1717
(dp1718
g159
g160
sg161
Nsg13
g1
sg37
g38
sg17
g8
((lp1719
g1341
ag1345
atRp1720
sbag1410
atRp1721
sg165
I00
sbatRp1722
sg3
g1335
sg35
I00
sg36
Nsg13
g1
sg37
g38
sg65
I0
sg15
S'H'
sg16
I00
sg66
(F237.04424652418692
F-360.43089286167162
F2.8019672643689022
tp1723
sg68
(lp1724
sg70
g1338
sg153
g8
((lp1725
g1362
atRp1726
sg155
g8
((lp1727
g1717
atRp1728
sg165
I00
sbatRp1729
sg165
I00
sbsg153
g8
((lp1730
g1386
atRp1731
sg155
g8
((lp1732
(iccpnmr.chemBuild.model.Bond
Bond
p1733
(dp1734
g159
g160
sg161
Nsg13
g1
sg37
g92
sg17
g8
((lp1735
g1326
ag1330
atRp1736
sbatRp1737
sg165
I00
sbag1378
ag1487
atRp1738
sg3
g1708
sg35
I00
sg36
Nsg13
g1
sg37
g92
sg65
I0
sg15
VC
sg16
I00
sg66
(F253.1758737656948
F-395.64237192633027
F2.6733659628813524
tp1739
sg68
(lp1740
sg70
g1711
sg153
g8
((ltRp1741
sg155
g8
((lp1742
g1393
a(iccpnmr.chemBuild.model.Bond
Bond
p1743
(dp1744
g159
g160
sg161
Nsg13
g1
sg37
g92
sg17
g8
((lp1745
g1322
ag1326
atRp1746
sbag1733
ag1585
atRp1747
sg165
I00
sbatRp1748
sg3
g1354
sg35
I00
sg36
Nsg13
g1
sg37
g92
sg65
I0
sg15
S'H'
sg16
I00
sg66
(F281.51158363447735
F-422.12958221340938
F2.411478692014501
tp1749
sg68
(lp1750
sg70
g1357
sg153
g8
((lp1751
g1386
atRp1752
sg155
g8
((lp1753
g1743
atRp1754
sg165
I00
sbag428
ag1330
ag146
ag86
ag269
ag112
ag1075
ag635
ag391
ag1491
ag232
ag1434
ag1025
ag220
ag1442
ag685
ag306
ag1594
ag1378
ag1525
ag460
ag693
ag1610
ag832
ag1221
a(iccpnmr.chemBuild.model.VarAtom
VarAtom
p1755
(dp1756
g21
(lp1757
sg23
g8
((lp1758
g82
atRp1759
sg3
VH16_2
p1760
sg35
I00
sg36
Nsg13
g1
sg37
g92
sg65
I0
sg15
S'H'
sg16
I00
sg66
(F65.342471476988095
F-386.64268549044914
F0.86968048953954791
tp1761
sg68
(lp1762
sg70
(iccpnmr.chemBuild.model.Atom
Atom
p1763
(dp1764
g3
g1760
sg13
g1
sg14
I1
sg15
S'H'
sg16
I00
sg17
g8
((lp1765
g1755
a(iccpnmr.chemBuild.model.VarAtom
VarAtom
p1766
(dp1767
g21
(lp1768
sg23
g8
((lp1769
(iccpnmr.chemBuild.model.VarAtom
VarAtom
p1770
(dp1771
g21
(lp1772
sg23
g8
((lp1773
(iccpnmr.chemBuild.model.VarAtom
VarAtom
p1774
(dp1775
g21
(lp1776
sg23
g8
((lp1777
g1770
atRp1778
sg3
g91
sg35
I00
sg36
Nsg13
g1
sg37
g38
sg65
I0
sg15
S'H'
sg16
I00
sg66
(F20.815559386817
F-399.99016743053386
F2.0080375176248557
tp1779
sg68
(lp1780
sg70
(iccpnmr.chemBuild.model.Atom
Atom
p1781
(dp1782
g3
g91
sg13
g1
sg14
I1
sg15
S'H'
sg16
I00
sg17
g8
((lp1783
g86
ag1774
atRp1784
sg165
I00
sbsg153
g8
((lp1785
(iccpnmr.chemBuild.model.AtomGroup
AtomGroup
p1786
(dp1787
g290
g291
sg292
g8
((ltRp1788
sg17
g8
((lp1789
g1774
ag1766
atRp1790
sg37
g38
sg13
g1
sbatRp1791
sg155
g8
((lp1792
(iccpnmr.chemBuild.model.Bond
Bond
p1793
(dp1794
g159
g160
sg161
Nsg13
g1
sg37
g38
sg17
g8
((lp1795
g1770
ag1774
atRp1796
sbatRp1797
sg165
I00
sbag1766
ag25
ag55
atRp1798
sg3
VC16
p1799
sg35
I00
sg36
Nsg13
g1
sg37
g38
sg65
I0
sg15
VC
sg16
I00
sg66
(F52.090207825398494
F-422.89995493563038
F2.9186798598291253
tp1800
sg68
(lp1801
sg70
(iccpnmr.chemBuild.model.Atom
Atom
p1802
(dp1803
g3
g1799
sg13
g1
sg14
I4
sg15
VC
sg16
I00
sg17
g8
((lp1804
g82
ag1770
atRp1805
sg165
I00
sbsg153
g8
((ltRp1806
sg155
g8
((lp1807
(iccpnmr.chemBuild.model.Bond
Bond
p1808
(dp1809
g159
g160
sg161
Nsg13
g1
sg37
g38
sg17
g8
((lp1810
g55
ag1770
atRp1811
sba(iccpnmr.chemBuild.model.Bond
Bond
p1812
(dp1813
g159
g160
sg161
Nsg13
g1
sg37
g38
sg17
g8
((lp1814
g25
ag1770
atRp1815
sba(iccpnmr.chemBuild.model.Bond
Bond
p1816
(dp1817
g159
g160
sg161
Nsg13
g1
sg37
g38
sg17
g8
((lp1818
g1770
ag1766
atRp1819
sbag1793
atRp1820
sg165
I00
sbatRp1821
sg3
g1760
sg35
I00
sg36
Nsg13
g1
sg37
g38
sg65
I0
sg15
S'H'
sg16
I00
sg66
(F65.342471476988095
F-386.64268549044914
F0.86968048953954791
tp1822
sg68
(lp1823
sg70
g1763
sg153
g8
((lp1824
g1786
atRp1825
sg155
g8
((lp1826
g1816
atRp1827
sg165
I00
sbatRp1828
sg165
I00
sbsg153
g8
((lp1829
(iccpnmr.chemBuild.model.AtomGroup
AtomGroup
p1830
(dp1831
g290
g291
sg292
g8
((ltRp1832
sg17
g8
((lp1833
g86
ag1755
atRp1834
sg37
g92
sg13
g1
sbatRp1835
sg155
g8
((lp1836
(iccpnmr.chemBuild.model.Bond
Bond
p1837
(dp1838
g159
g160
sg161
Nsg13
g1
sg37
g92
sg17
g8
((lp1839
g82
ag1755
atRp1840
sbatRp1841
sg165
I00
sbag651
atRp1842
sVC
g8
((lp1843
g1326
ag643
ag647
ag1438
ag100
ag228
ag1590
ag104
ag108
ag738
ag639
ag82
ag265
ag742
ag689
ag78
ag1487
ag224
ag456
ag387
atRp1844
sS'O'
g8
((lp1845
g746
ag795
atRp1846
ssg155
g8
((lp1847
g347
ag488
ag1540
a(iccpnmr.chemBuild.model.Bond
Bond
p1848
(dp1849
g159
g160
sg161
Nsg13
g1
sg37
g92
sg17
g8
((lp1850
g78
ag82
atRp1851
sbag887
ag733
ag1142
ag1566
ag804
ag954
ag1236
ag1662
ag1177
ag507
ag381
ag1643
ag1482
ag983
ag1152
ag1281
ag260
ag944
ag1837
ag537
ag1041
ag1162
ag1733
ag1181
a(iccpnmr.chemBuild.model.Bond
Bond
p1852
(dp1853
g159
g160
sg161
Nsg13
g1
sg37
g92
sg17
g8
((lp1854
g82
ag86
atRp1855
sbag1585
ag443
ag1393
ag366
ag979
ag1581
ag879
ag1084
ag522
ag1291
ag964
ag1628
ag451
ag1311
ag1620
a(iccpnmr.chemBuild.model.Bond
Bond
p1856
(dp1857
g159
g160
sg161
Nsg13
g1
sg37
g92
sg17
g8
((lp1858
g78
ag74
atRp1859
sbag1647
ag362
ag1743
ag157
ag503
ag321
ag1301
atRp1860
sg13
g1
sS'atomDict'
p1861
(dp1862
g10
g1610
sg531
g224
sg594
g100
sg240
g232
sg1072
g1075
sg609
g104
sg143
g146
sg356
g265
sg1781
g86
sg1499
g1491
sg277
g269
sg497
g456
sg1259
g108
sg1375
g1378
sg1218
g1221
sg468
g460
sg1763
g1755
sg1450
g1442
sg516
g387
sg1637
g1590
sg1431
g1434
sg829
g832
sg375
g228
sg1357
g1322
sg852
g844
sg303
g306
sg924
g742
sg1656
g1438
sg1338
g1330
sg1171
g639
sg186
g96
sg632
g635
sg1575
g1487
sg1022
g1025
sg1120
g647
sg1101
g643
sg792
g795
sg120
g112
sg399
g391
sg701
g693
sg682
g685
sg217
g220
s(iccpnmr.chemBuild.model.Atom
Atom
p1863
(dp1864
g3
VC15
p1865
sg13
g1
sg14
I4
sg15
VC
sg16
I00
sg17
g8
((lp1866
g78
ag55
atRp1867
sg165
I00
sbg78
sg973
g689
sg436
g428
sg71
g74
sg1522
g1525
sg1802
g82
sg905
g738
sg1711
g1326
sg754
g746
sg659
g651
sg1601
g1594
ssS'descriptor'
p1868
(S'-H1'
S'none'
p1869
S'default'
p1870
tp1871
sg17
g8
((lp1872
g74
ag96
ag108
ag1322
ag428
ag1330
ag146
ag86
ag220
ag269
ag1487
ag1326
ag112
ag1075
ag635
ag685
ag689
ag460
ag1491
ag232
ag387
ag1025
ag391
ag1434
ag100
ag228
ag844
ag104
ag738
ag639
ag82
ag1442
ag1755
ag78
ag224
ag306
ag643
ag1594
ag1378
ag1438
ag746
ag1590
ag1525
ag795
ag265
ag742
ag647
ag693
ag1610
ag832
ag1221
ag456
ag651
atRp1873
sg153
g8
((lp1874
g1386
ag1533
ag314
ag424
ag1830
ag1606
ag1229
ag726
ag1475
ag1033
ag840
atRp1875
sS'polyLink'
p1876
S'free'
p1877
sbsg65
I0
sg15
S'H'
sg16
I00
sg66
(F20.815559386817
F-399.99016743053386
F2.0080375176248557
tp1878
sg68
(lp1879
sg70
g1781
sg153
g8
((lp1880
g1830
atRp1881
sg155
g8
((lp1882
g1852
atRp1883
sg165
I00
sbag78
ag1590
ag1755
atRp1884
sg3
g1799
sg35
I00
sg36
Nsg13
g1
sg37
g92
sg65
I0
sg15
VC
sg16
I00
sg66
(F52.090207825398494
F-422.89995493563038
F2.9186798598291253
tp1885
sg68
(lp1886
sg70
g1802
sg153
g8
((ltRp1887
sg155
g8
((lp1888
g1643
ag1852
ag1837
ag1848
atRp1889
sg165
I00
sbag74
ag456
atRp1890
sg3
g1865
sg35
I00
sg36
Nsg13
g1
sg37
g92
sg65
I0
sg15
VC
sg16
I00
sg66
(F14.743693615475792
F-458.86918365505869
F2.7774150344716304
tp1891
sg68
(lp1892
sg70
g1863
sg153
g8
((ltRp1893
sg155
g8
((lp1894
g503
ag1856
ag1848
atRp1895
sg165
I00
sbatRp1896
sg3
g64
sg35
I00
sg36
Nsg13
g1
sg37
g92
sg65
I0
sg15
S'H'
sg16
I00
sg66
(F28.79334028309782
F-494.54921286006015
F1.29285975404775
tp1897
sg68
(lp1898
sg70
g71
sg153
g8
((ltRp1899
sg155
g8
((lp1900
g1856
atRp1901
sg165
I00
sbatRp1902
sg165
I00
sbsg153
g8
((ltRp1903
sg155
g8
((lp1904
(iccpnmr.chemBuild.model.Bond
Bond
p1905
(dp1906
g159
g160
sg161
Nsg13
g1
sg37
g38
sg17
g8
((lp1907
g55
ag59
atRp1908
sbatRp1909
sg165
I00
sbag1770
ag51
atRp1910
sg3
g1865
sg35
I00
sg36
Nsg13
g1
sg37
g38
sg65
I0
sg15
VC
sg16
I00
sg66
(F14.743693615475792
F-458.86918365505869
F2.7774150344716304
tp1911
sg68
(lp1912
sg70
g1863
sg153
g8
((ltRp1913
sg155
g8
((lp1914
g1808
ag1905
a(iccpnmr.chemBuild.model.Bond
Bond
p1915
(dp1916
g159
g383
sg161
Nsg13
g1
sg37
g38
sg17
g8
((lp1917
g55
ag51
atRp1918
sbatRp1919
sg165
I00
sbag47
ag471
atRp1920
sg3
g494
sg35
I00
sg36
Nsg13
g1
sg37
g38
sg65
I0
sg15
VC
sg16
I00
sg66
(F-29.761740880351539
F-467.5074109697249
F2.5395793602025942
tp1921
sg68
(lp1922
sg70
g497
sg153
g8
((ltRp1923
sg155
g8
((lp1924
g480
a(iccpnmr.chemBuild.model.Bond
Bond
p1925
(dp1926
g159
g160
sg161
Nsg13
g1
sg37
g38
sg17
g8
((lp1927
g51
ag47
atRp1928
sbag1915
atRp1929
sg165
I00
sbag205
ag402
atRp1930
sg3
g513
sg35
I00
sg36
Nsg13
g1
sg37
g38
sg65
I0
sg15
VC
sg16
I00
sg66
(F-78.151584487948213
F-449.24169766656172
F1.4875175711347501
tp1931
sg68
(lp1932
sg70
g516
sg153
g8
((ltRp1933
sg155
g8
((lp1934
g417
ag1925
ag565
a(iccpnmr.chemBuild.model.Bond
Bond
p1935
(dp1936
g159
g160
sg161
Nsg13
g1
sg37
g38
sg17
g8
((lp1937
g43
ag47
atRp1938
sbatRp1939
sg165
I00
sbatRp1940
sg3
g433
sg35
I00
sg36
Nsg13
g1
sg37
g38
sg65
I0
sg15
S'H'
sg16
I00
sg66
(F-60.952451595216615
F-414.57930651021707
F2.8007473124023985
tp1941
sg68
(lp1942
sg70
g436
sg153
g8
((lp1943
g410
atRp1944
sg155
g8
((lp1945
g1935
atRp1946
sg165
I00
sbag821
ag59
ag1453
ag209
ag1341
ag1014
ag123
ag624
ag1766
ag1502
ag1210
ag761
ag135
ag471
ag704
ag1514
ag402
ag662
ag674
ag1774
ag280
ag295
ag1064
ag29
ag1349
ag1367
ag855
ag178
ag1423
ag19
ag243
atRp1947
sVC
g8
((lp1948
g174
ag1419
ag131
ag1770
ag780
ag127
ag1415
ag1345
ag666
ag670
ag197
ag47
ag201
ag55
ag25
ag51
ag620
ag817
ag205
ag1060
atRp1949
sS'O'
g8
((lp1950
g784
ag757
atRp1951
ssg155
g8
((lp1952
g1111
ag1092
ag1557
ag1702
ag1935
ag1549
ag417
ag915
ag930
ag561
ag480
ag1205
ag1009
ag1107
ag1717
ag1915
ag1808
ag1688
ag911
ag1195
ag719
ag1410
ag1812
ag1402
ag585
ag896
ag812
ag1126
ag870
ag1925
ag1055
ag600
ag1678
a(iccpnmr.chemBuild.model.Bond
Bond
p1953
(dp1954
g159
g160
sg161
Nsg13
g1
sg37
g38
sg17
g8
((lp1955
g19
ag25
atRp1956
sbag1816
ag565
ag1468
ag551
ag575
ag1793
ag1265
ag169
a(iccpnmr.chemBuild.model.Bond
Bond
p1957
(dp1958
g159
g160
sg161
Nsg13
g1
sg37
g38
sg17
g8
((lp1959
g25
ag29
atRp1960
sbag330
ag615
ag192
ag252
ag338
ag1250
ag999
ag1905
ag1692
ag775
atRp1961
sg13
g1
sg1861
(dp1962
g10
g19
sg531
g205
sg594
g174
sg240
g243
sg1072
g1064
sg609
g131
sg143
g135
sg356
g197
sg1781
g1774
sg1499
g1502
sg277
g280
sg497
g51
sg1259
g127
sg1375
g1367
sg1218
g1210
sg468
g471
sg1763
g1766
sg1450
g1453
sg516
g47
sg1637
g25
sg1431
g1423
sg829
g821
sg375
g201
sg1357
g1349
sg852
g855
sg303
g295
sg924
g780
sg1656
g1419
sg1338
g1341
sg1171
g620
sg186
g178
sg632
g624
sg1575
g1415
sg1022
g1014
sg1120
g666
sg1101
g1060
sg792
g784
sg120
g123
sg399
g402
sg701
g704
sg682
g674
sg217
g209
sg1863
g55
sg973
g670
sg436
g43
sg769
g761
sg1522
g1514
sg1802
g1770
sg905
g817
sg1711
g1345
sg71
g59
sg754
g757
sg659
g662
sg1601
g29
ssg1868
(S'+H1'
g1869
g1870
tp1963
sg17
g8
((lp1964
g1419
ag135
ag1774
ag780
ag43
ag757
ag821
ag784
ag197
ag1453
ag1345
ag55
ag817
ag1060
ag123
ag174
ag1341
ag624
ag1766
ag1502
ag1210
ag761
ag471
ag666
ag1770
ag855
ag47
ag704
ag131
ag1514
ag402
ag662
ag674
ag201
ag51
ag25
ag620
ag280
ag295
ag1064
ag29
ag1349
ag127
ag1415
ag59
ag209
ag670
ag178
ag1423
ag1014
ag19
ag205
ag1367
ag243
atRp1965
sg153
g8
((lp1966
g288
ag1362
ag1786
ag1048
ag863
ag712
ag1510
ag1461
ag410
ag1243
a(iccpnmr.chemBuild.model.AtomGroup
AtomGroup
p1967
(dp1968
g290
g291
sg292
g8
((ltRp1969
sg17
g8
((lp1970
g19
ag29
atRp1971
sg37
g38
sg13
g1
sbatRp1972
sg1876
g1877
sbsg65
I0
sg15
S'H'
sg16
I00
sg66
(F132.24816389666552
F-468.29813288754013
F1.6366921975768731
tp1973
sg68
(lp1974
sg70
g1601
sg153
g8
((lp1975
g1967
atRp1976
sg155
g8
((lp1977
g1957
atRp1978
sg165
I00
sbag1419
ag1770
ag19
atRp1979
sg3
g1634
sg35
I00
sg36
Nsg13
g1
sg37
g38
sg65
I0
sg15
VC
sg16
I00
sg66
(F106.7629929777226
F-439.46027625221166
F2.4358379279995175
tp1980
sg68
(lp1981
sg70
g1637
sg153
g8
((ltRp1982
sg155
g8
((lp1983
g1953
ag1812
ag1957
ag1692
atRp1984
sg165
I00
sbatRp1985
sg3
g12
sg35
I00
sg36
Nsg13
g1
sg37
g38
sg65
I0
sg15
S'H'
sg16
I00
sg66
(F88.695257282725095
F-473.42619949456156
F1.6523957472449409
tp1986
sg68
(lp1987
sg70
g10
sg153
g8
((lp1988
g1967
atRp1989
sg155
g8
((lp1990
g1953
atRp1991
sg165
I00
sbag1610
atRp1992
sg165
I00
sbag531
ag594
ag240
ag1072
ag609
ag143
ag356
ag1781
ag1499
ag277
ag497
ag1259
ag1375
ag1218
ag468
ag1763
ag1450
ag516
ag1637
ag1431
ag829
ag375
ag1357
ag852
ag303
ag924
ag1656
ag1338
ag1171
ag186
ag632
ag1575
ag1022
ag1120
ag1101
ag792
ag120
ag399
ag701
ag682
ag217
ag1863
ag973
ag436
ag769
ag1522
ag1802
ag905
ag1711
ag71
ag754
ag659
ag1601
atRp1993
sS'ccpMolType'
p1994
S'other'
p1995
sS'details'
p1996
V
sg1861
(dp1997
g789
g792
sg1572
g1575
sg1653
g1656
sg140
g143
sg513
g516
sg528
g531
sg372
g375
sg353
g356
sg1634
g1637
sg1799
g1802
sg1865
g1863
sg494
g497
sg656
g659
sg1019
g1022
sg1372
g1375
sg1354
g1357
sg1335
g1338
sg698
g701
sg679
g682
sg591
g594
sg606
g609
sg1428
g1431
sg1447
g1450
sg970
g973
sg902
g905
sg921
g924
sg1256
g1259
sg1168
g1171
sg1098
g1101
sg1117
g1120
sg1215
g1218
sg1708
g1711
sg117
g120
sg34
g1601
sg12
g10
sg237
g240
sg214
g217
sg465
g468
sg300
g303
sg274
g277
sg64
g71
sg751
g754
sg849
g852
sg826
g829
sg91
g1781
sg1760
g1763
sg433
g436
sg396
g399
sg183
g186
sg1496
g1499
sg766
g769
sg629
g632
sg1069
g1072
sg1519
g1522
ssS'keywords'
p1998
g8
((ltRp1999
sg153
g8
((lp2000
g1606
ag1229
ag1386
ag288
ag1362
ag1475
ag1786
ag726
ag424
ag1533
ag314
ag1048
ag863
ag712
ag1830
ag1510
ag1461
ag1033
ag410
ag1243
ag840
ag1967
atRp2001
sS'variants'
p2002
g8
((lp2003
g38
ag92
atRp2004
sS'defaultVars'
p2005
g8
((ltRp2006
sb.