(iccpnmr.chemBuild.model.Compound
Compound
p1
(dp2
S'name'
p3
VUnnamed
p4
sS'isModified'
p5
I01
sS'ccpCode'
p6
NsS'atoms'
p7
c__builtin__
set
p8
((lp9
(iccpnmr.chemBuild.model.Atom
Atom
p10
(dp11
g3
VH4_2
p12
sS'compound'
p13
g1
sS'baseValences'
p14
I1
sS'element'
p15
S'H'
sS'isVariable'
p16
I00
sS'varAtoms'
p17
g8
((lp18
(iccpnmr.chemBuild.model.VarAtom
VarAtom
p19
(dp20
S'stereo'
p21
(lp22
sg3
g12
sS'isLabile'
p23
I00
sS'variant'
p24
(iccpnmr.chemBuild.model.Variant
Variant
p25
(dp26
S'elementDict'
p27
(dp28
S'H'
g8
((lp29
(iccpnmr.chemBuild.model.VarAtom
VarAtom
p30
(dp31
g21
(lp32
sg3
VH15_2
p33
sg23
I00
sg24
g25
sg13
g1
sS'chirality'
p34
NsS'neighbours'
p35
g8
((lp36
(iccpnmr.chemBuild.model.VarAtom
VarAtom
p37
(dp38
g21
(lp39
sg3
VC15
p40
sg23
I00
sg24
g25
sg13
g1
sg34
Nsg35
g8
((lp41
(iccpnmr.chemBuild.model.VarAtom
VarAtom
p42
(dp43
g21
(lp44
sg3
VC14
p45
sg23
I00
sg24
g25
sg13
g1
sg34
Nsg35
g8
((lp46
g37
a(iccpnmr.chemBuild.model.VarAtom
VarAtom
p47
(dp48
g21
(lp49
sg3
VH14_1
p50
sg23
I00
sg24
g25
sg13
g1
sg34
Nsg35
g8
((lp51
g42
atRp52
sg15
S'H'
sS'charge'
p53
I0
sg16
I00
sS'coords'
p54
(F104.47174333532993
F-67.255042456139918
F0
tp55
sS'freeValences'
p56
(lp57
sS'atom'
p58
(iccpnmr.chemBuild.model.Atom
Atom
p59
(dp60
g3
g50
sg13
g1
sg14
I1
sg15
S'H'
sg16
I00
sg17
g8
((lp61
g47
a(iccpnmr.chemBuild.model.VarAtom
VarAtom
p62
(dp63
g21
(lp64
sg3
g50
sg23
I00
sg24
(iccpnmr.chemBuild.model.Variant
Variant
p65
(dp66
g27
(dp67
S'H'
g8
((lp68
(iccpnmr.chemBuild.model.VarAtom
VarAtom
p69
(dp70
g21
(lp71
sg3
VH11_1
p72
sg23
I00
sg24
g65
sg13
g1
sg34
Nsg35
g8
((lp73
(iccpnmr.chemBuild.model.VarAtom
VarAtom
p74
(dp75
g21
(lp76
sg3
VC11
p77
sg23
I00
sg24
g65
sg13
g1
sg34
Nsg35
g8
((lp78
(iccpnmr.chemBuild.model.VarAtom
VarAtom
p79
(dp80
g21
(lp81
sg3
VC10
p82
sg23
I00
sg24
g65
sg13
g1
sg34
Nsg35
g8
((lp83
(iccpnmr.chemBuild.model.VarAtom
VarAtom
p84
(dp85
g21
(lp86
sg3
VC9
p87
sg23
I00
sg24
g65
sg13
g1
sg34
Nsg35
g8
((lp88
g79
a(iccpnmr.chemBuild.model.VarAtom
VarAtom
p89
(dp90
g21
(lp91
sg3
VH9
p92
sg23
I00
sg24
g65
sg13
g1
sg34
Nsg35
g8
((lp93
g84
atRp94
sg15
S'H'
sg53
I0
sg16
I00
sg54
(F-99.574486823340891
F-118.54691765446367
F0
tp95
sg56
(lp96
sg58
(iccpnmr.chemBuild.model.Atom
Atom
p97
(dp98
g3
g92
sg13
g1
sg14
I1
sg15
S'H'
sg16
I00
sg17
g8
((lp99
(iccpnmr.chemBuild.model.VarAtom
VarAtom
p100
(dp101
g21
(lp102
sg3
g92
sg23
I00
sg24
g25
sg13
g1
sg34
Nsg35
g8
((lp103
(iccpnmr.chemBuild.model.VarAtom
VarAtom
p104
(dp105
g21
(lp106
sg3
g87
sg23
I00
sg24
g25
sg13
g1
sg34
Nsg35
g8
((lp107
(iccpnmr.chemBuild.model.VarAtom
VarAtom
p108
(dp109
g21
(lp110
sg3
VC8
p111
sg23
I00
sg24
g25
sg13
g1
sg34
Nsg35
g8
((lp112
(iccpnmr.chemBuild.model.VarAtom
VarAtom
p113
(dp114
g21
(lp115
sg3
VC7
p116
sg23
I00
sg24
g25
sg13
g1
sg34
Nsg35
g8
((lp117
g108
a(iccpnmr.chemBuild.model.VarAtom
VarAtom
p118
(dp119
g21
(lp120
sg3
VH7_1
p121
sg23
I00
sg24
g25
sg13
g1
sg34
Nsg35
g8
((lp122
g113
atRp123
sg15
S'H'
sg53
I0
sg16
I00
sg54
(F-199.50705607533806
F-72.294699328969557
F0
tp124
sg56
(lp125
sg58
(iccpnmr.chemBuild.model.Atom
Atom
p126
(dp127
g3
g121
sg13
g1
sg14
I1
sg15
S'H'
sg16
I00
sg17
g8
((lp128
g118
a(iccpnmr.chemBuild.model.VarAtom
VarAtom
p129
(dp130
g21
(lp131
sg3
g121
sg23
I00
sg24
g65
sg13
g1
sg34
Nsg35
g8
((lp132
(iccpnmr.chemBuild.model.VarAtom
VarAtom
p133
(dp134
g21
(lp135
sg3
g116
sg23
I00
sg24
g65
sg13
g1
sg34
Nsg35
g8
((lp136
(iccpnmr.chemBuild.model.VarAtom
VarAtom
p137
(dp138
g21
(lp139
sg3
VH7_2
p140
sg23
I00
sg24
g65
sg13
g1
sg34
Nsg35
g8
((lp141
g133
atRp142
sg15
S'H'
sg53
I0
sg16
I00
sg54
(F-180.25507037618308
F2.1601003741374609
F0
tp143
sg56
(lp144
sg58
(iccpnmr.chemBuild.model.Atom
Atom
p145
(dp146
g3
g140
sg13
g1
sg14
I1
sg15
S'H'
sg16
I00
sg17
g8
((lp147
g137
a(iccpnmr.chemBuild.model.VarAtom
VarAtom
p148
(dp149
g21
(lp150
sg3
g140
sg23
I00
sg24
g25
sg13
g1
sg34
Nsg35
g8
((lp151
g113
atRp152
sg15
S'H'
sg53
I0
sg16
I00
sg54
(F-180.25507037618308
F2.1601003741374609
F0
tp153
sg56
(lp154
sg58
g145
sS'atomGroups'
p155
g8
((lp156
(iccpnmr.chemBuild.model.AtomGroup
AtomGroup
p157
(dp158
S'groupType'
p159
S'prochiral'
p160
sS'subGroups'
p161
g8
((ltRp162
sg17
g8
((lp163
g118
ag148
atRp164
sg24
g25
sg13
g1
sbatRp165
sS'bonds'
p166
g8
((lp167
(iccpnmr.chemBuild.model.Bond
Bond
p168
(dp169
S'direction'
p170
NsS'bondType'
p171
S'single'
p172
sg24
g25
sg13
g1
sg17
g8
((lp173
g148
ag113
atRp174
sbatRp175
sS'isDeleted'
p176
I00
sbatRp177
sg176
I00
sbsg155
g8
((lp178
(iccpnmr.chemBuild.model.AtomGroup
AtomGroup
p179
(dp180
g159
g160
sg161
g8
((ltRp181
sg17
g8
((lp182
g137
ag129
atRp183
sg24
g65
sg13
g1
sbatRp184
sg166
g8
((lp185
(iccpnmr.chemBuild.model.Bond
Bond
p186
(dp187
g170
Nsg171
g172
sg24
g65
sg13
g1
sg17
g8
((lp188
g133
ag137
atRp189
sbatRp190
sg176
I00
sba(iccpnmr.chemBuild.model.VarAtom
VarAtom
p191
(dp192
g21
(lp193
sg3
VC6
p194
sg23
I00
sg24
g65
sg13
g1
sg34
Nsg35
g8
((lp195
g133
a(iccpnmr.chemBuild.model.VarAtom
VarAtom
p196
(dp197
g21
(lp198
sg3
VH6_1
p199
sg23
I00
sg24
g65
sg13
g1
sg34
Nsg35
g8
((lp200
g191
atRp201
sg15
S'H'
sg53
I0
sg16
I00
sg54
(F-249.65348710736487
F-63.474207204342918
F0
tp202
sg56
(lp203
sg58
(iccpnmr.chemBuild.model.Atom
Atom
p204
(dp205
g3
g199
sg13
g1
sg14
I1
sg15
S'H'
sg16
I00
sg17
g8
((lp206
g196
a(iccpnmr.chemBuild.model.VarAtom
VarAtom
p207
(dp208
g21
(lp209
sg3
g199
sg23
I00
sg24
g25
sg13
g1
sg34
Nsg35
g8
((lp210
(iccpnmr.chemBuild.model.VarAtom
VarAtom
p211
(dp212
g21
(lp213
sg3
g194
sg23
I00
sg24
g25
sg13
g1
sg34
Nsg35
g8
((lp214
(iccpnmr.chemBuild.model.VarAtom
VarAtom
p215
(dp216
g21
(lp217
sg3
VH6_2
p218
sg23
I00
sg24
g25
sg13
g1
sg34
Nsg35
g8
((lp219
g211
atRp220
sg15
S'H'
sg53
I0
sg16
I00
sg54
(F-242.038333425031
F13.048159018134665
F0
tp221
sg56
(lp222
sg58
(iccpnmr.chemBuild.model.Atom
Atom
p223
(dp224
g3
g218
sg13
g1
sg14
I1
sg15
S'H'
sg16
I00
sg17
g8
((lp225
g215
a(iccpnmr.chemBuild.model.VarAtom
VarAtom
p226
(dp227
g21
(lp228
sg3
g218
sg23
I00
sg24
g65
sg13
g1
sg34
Nsg35
g8
((lp229
g191
atRp230
sg15
S'H'
sg53
I0
sg16
I00
sg54
(F-242.038333425031
F13.048159018134665
F0
tp231
sg56
(lp232
sg58
g223
sg155
g8
((lp233
(iccpnmr.chemBuild.model.AtomGroup
AtomGroup
p234
(dp235
g159
g160
sg161
g8
((ltRp236
sg17
g8
((lp237
g196
ag226
atRp238
sg24
g65
sg13
g1
sbatRp239
sg166
g8
((lp240
(iccpnmr.chemBuild.model.Bond
Bond
p241
(dp242
g170
Nsg171
S'single'
p243
sg24
g65
sg13
g1
sg17
g8
((lp244
g191
ag226
atRp245
sbatRp246
sg176
I00
sbatRp247
sg176
I00
sbsg155
g8
((lp248
(iccpnmr.chemBuild.model.AtomGroup
AtomGroup
p249
(dp250
g159
g160
sg161
g8
((ltRp251
sg17
g8
((lp252
g215
ag207
atRp253
sg24
g25
sg13
g1
sbatRp254
sg166
g8
((lp255
(iccpnmr.chemBuild.model.Bond
Bond
p256
(dp257
g170
Nsg171
g243
sg24
g25
sg13
g1
sg17
g8
((lp258
g215
ag211
atRp259
sbatRp260
sg176
I00
sba(iccpnmr.chemBuild.model.VarAtom
VarAtom
p261
(dp262
g21
(lp263
sg3
VC5
p264
sg23
I00
sg24
g25
sg13
g1
sg34
Nsg35
g8
((lp265
(iccpnmr.chemBuild.model.VarAtom
VarAtom
p266
(dp267
g21
(lp268
sg3
VH5_1
p269
sg23
I00
sg24
g25
sg13
g1
sg34
Nsg35
g8
((lp270
g261
atRp271
sg15
S'H'
sg53
I0
sg16
I00
sg54
(F-300.8552366713343
F-63.574477820529538
F0
tp272
sg56
(lp273
sg58
(iccpnmr.chemBuild.model.Atom
Atom
p274
(dp275
g3
g269
sg13
g1
sg14
I1
sg15
S'H'
sg16
I00
sg17
g8
((lp276
(iccpnmr.chemBuild.model.VarAtom
VarAtom
p277
(dp278
g21
(lp279
sg3
g269
sg23
I00
sg24
g65
sg13
g1
sg34
Nsg35
g8
((lp280
(iccpnmr.chemBuild.model.VarAtom
VarAtom
p281
(dp282
g21
(lp283
sg3
g264
sg23
I00
sg24
g65
sg13
g1
sg34
Nsg35
g8
((lp284
g277
a(iccpnmr.chemBuild.model.VarAtom
VarAtom
p285
(dp286
g21
(lp287
sg3
VC4
p288
sg23
I00
sg24
g65
sg13
g1
sg34
Nsg35
g8
((lp289
(iccpnmr.chemBuild.model.VarAtom
VarAtom
p290
(dp291
g21
(lp292
sg3
VC3
p293
sg23
I00
sg24
g65
sg13
g1
sg34
Nsg35
g8
((lp294
(iccpnmr.chemBuild.model.VarAtom
VarAtom
p295
(dp296
g21
(lp297
sg3
VC2
p298
sg23
I00
sg24
g65
sg13
g1
sg34
Nsg35
g8
((lp299
g290
a(iccpnmr.chemBuild.model.VarAtom
VarAtom
p300
(dp301
g21
(lp302
sg3
VH2_1
p303
sg23
I00
sg24
g65
sg13
g1
sg34
Nsg35
g8
((lp304
g295
atRp305
sg15
S'H'
sg53
I0
sg16
I00
sg54
(F-462.20742392751578
F-94.329786887991801
F0
tp306
sg56
(lp307
sg58
(iccpnmr.chemBuild.model.Atom
Atom
p308
(dp309
g3
g303
sg13
g1
sg14
I1
sg15
S'H'
sg16
I00
sg17
g8
((lp310
(iccpnmr.chemBuild.model.VarAtom
VarAtom
p311
(dp312
g21
(lp313
sg3
g303
sg23
I00
sg24
g25
sg13
g1
sg34
Nsg35
g8
((lp314
(iccpnmr.chemBuild.model.VarAtom
VarAtom
p315
(dp316
g21
(lp317
sg3
g298
sg23
I00
sg24
g25
sg13
g1
sg34
Nsg35
g8
((lp318
g311
a(iccpnmr.chemBuild.model.VarAtom
VarAtom
p319
(dp320
g21
(lp321
sg3
VH2_2
p322
sg23
I00
sg24
g25
sg13
g1
sg34
Nsg35
g8
((lp323
g315
atRp324
sg15
S'H'
sg53
I0
sg16
I00
sg54
(F-479.09916629905786
F-20.599328884734408
F0
tp325
sg56
(lp326
sg58
(iccpnmr.chemBuild.model.Atom
Atom
p327
(dp328
g3
g322
sg13
g1
sg14
I1
sg15
S'H'
sg16
I00
sg17
g8
((lp329
g319
a(iccpnmr.chemBuild.model.VarAtom
VarAtom
p330
(dp331
g21
(lp332
sg3
g322
sg23
I00
sg24
g65
sg13
g1
sg34
Nsg35
g8
((lp333
g295
atRp334
sg15
S'H'
sg53
I0
sg16
I00
sg54
(F-479.09916629905786
F-20.599328884734408
F0
tp335
sg56
(lp336
sg58
g327
sg155
g8
((lp337
(iccpnmr.chemBuild.model.AtomGroup
AtomGroup
p338
(dp339
g159
g160
sg161
g8
((ltRp340
sg17
g8
((lp341
g300
ag330
atRp342
sg24
g65
sg13
g1
sbatRp343
sg166
g8
((lp344
(iccpnmr.chemBuild.model.Bond
Bond
p345
(dp346
g170
Nsg171
g243
sg24
g65
sg13
g1
sg17
g8
((lp347
g295
ag330
atRp348
sbatRp349
sg176
I00
sbatRp350
sg176
I00
sbsg155
g8
((lp351
(iccpnmr.chemBuild.model.AtomGroup
AtomGroup
p352
(dp353
g159
g160
sg161
g8
((ltRp354
sg17
g8
((lp355
g311
ag319
atRp356
sg24
g25
sg13
g1
sbatRp357
sg166
g8
((lp358
(iccpnmr.chemBuild.model.Bond
Bond
p359
(dp360
g170
Nsg171
g243
sg24
g25
sg13
g1
sg17
g8
((lp361
g319
ag315
atRp362
sbatRp363
sg176
I00
sba(iccpnmr.chemBuild.model.VarAtom
VarAtom
p364
(dp365
g21
(lp366
sg3
VC1
p367
sg23
I00
sg24
g25
sg13
g1
sg34
Nsg35
g8
((lp368
(iccpnmr.chemBuild.model.VarAtom
VarAtom
p369
(dp370
g21
(lp371
sg3
S'O2'
p372
sg23
I00
sg24
g25
sg13
g1
sg34
Nsg35
g8
((lp373
g364
atRp374
sg15
S'O'
sg53
I0
sg16
I00
sg54
(F-550.94927859829522
F-46.237832635073111
F0
tp375
sg56
(lp376
sg58
(iccpnmr.chemBuild.model.Atom
Atom
p377
(dp378
g3
g372
sg13
g1
sg14
I2
sg15
S'O'
sg16
I00
sg17
g8
((lp379
(iccpnmr.chemBuild.model.VarAtom
VarAtom
p380
(dp381
g21
(lp382
sg3
g372
sg23
I00
sg24
g65
sg13
g1
sg34
Nsg35
g8
((lp383
(iccpnmr.chemBuild.model.VarAtom
VarAtom
p384
(dp385
g21
(lp386
sg3
g367
sg23
I00
sg24
g65
sg13
g1
sg34
Nsg35
g8
((lp387
g295
a(iccpnmr.chemBuild.model.VarAtom
VarAtom
p388
(dp389
g21
(lp390
sg3
S'O1'
p391
sg23
I00
sg24
g65
sg13
g1
sg34
Nsg35
g8
((lp392
g384
atRp393
sg15
S'O'
sg53
I-1
sg16
I00
sg54
(F-536.631880553266
F-113.31273086906408
F0
tp394
sg56
(lp395
sg58
(iccpnmr.chemBuild.model.Atom
Atom
p396
(dp397
g3
g391
sg13
g1
sg14
I2
sg15
S'O'
sg16
I00
sg17
g8
((lp398
g388
a(iccpnmr.chemBuild.model.VarAtom
VarAtom
p399
(dp400
g21
(lp401
sg3
g391
sg23
I00
sg24
g25
sg13
g1
sg34
Nsg35
g8
((lp402
(iccpnmr.chemBuild.model.VarAtom
VarAtom
p403
(dp404
g21
(lp405
sg3
S'H1'
p406
sg23
I01
sg24
g25
sg13
g1
sg34
Nsg35
g8
((lp407
g399
atRp408
sg15
S'H'
sg53
I0
sg16
I01
sg54
(F-555.06960016053199
F-146.18990777467701
F0
tp409
sg56
(lp410
sg58
(iccpnmr.chemBuild.model.Atom
Atom
p411
(dp412
g3
g406
sg13
g1
sg14
I1
sg15
S'H'
sg16
I01
sg17
g8
((lp413
g403
atRp414
sg176
I00
sbsg155
g8
((ltRp415
sg166
g8
((lp416
(iccpnmr.chemBuild.model.Bond
Bond
p417
(dp418
g170
Nsg171
g243
sg24
g25
sg13
g1
sg17
g8
((lp419
g403
ag399
atRp420
sbatRp421
sg176
I00
sbag364
atRp422
sg15
S'O'
sg53
I0
sg16
I00
sg54
(F-536.631880553266
F-113.31273086906408
F0
tp423
sg56
(lp424
sg58
g396
sg155
g8
((ltRp425
sg166
g8
((lp426
g417
a(iccpnmr.chemBuild.model.Bond
Bond
p427
(dp428
g170
Nsg171
g243
sg24
g25
sg13
g1
sg17
g8
((lp429
g364
ag399
atRp430
sbatRp431
sg176
I00
sbatRp432
sg176
I00
sbsg155
g8
((ltRp433
sg166
g8
((lp434
(iccpnmr.chemBuild.model.Bond
Bond
p435
(dp436
g170
Nsg171
g243
sg24
g65
sg13
g1
sg17
g8
((lp437
g388
ag384
atRp438
sbatRp439
sg176
I00
sbag380
atRp440
sg15
VC
sg53
I0
sg16
I00
sg54
(F-513.04734810319053
F-68.664824765124919
F0
tp441
sg56
(lp442
sg58
(iccpnmr.chemBuild.model.Atom
Atom
p443
(dp444
g3
g367
sg13
g1
sg14
I4
sg15
VC
sg16
I00
sg17
g8
((lp445
g364
ag384
atRp446
sg176
I00
sbsg155
g8
((ltRp447
sg166
g8
((lp448
(iccpnmr.chemBuild.model.Bond
Bond
p449
(dp450
g170
Nsg171
S'double'
p451
sg24
g65
sg13
g1
sg17
g8
((lp452
g380
ag384
atRp453
sba(iccpnmr.chemBuild.model.Bond
Bond
p454
(dp455
g170
Nsg171
g243
sg24
g65
sg13
g1
sg17
g8
((lp456
g295
ag384
atRp457
sbag435
atRp458
sg176
I00
sbatRp459
sg15
S'O'
sg53
I0
sg16
I00
sg54
(F-550.94927859829522
F-46.237832635073111
F0
tp460
sg56
(lp461
sg58
g377
sg155
g8
((ltRp462
sg166
g8
((lp463
g449
atRp464
sg176
I00
sbag369
atRp465
sg176
I00
sbsg155
g8
((ltRp466
sg166
g8
((lp467
(iccpnmr.chemBuild.model.Bond
Bond
p468
(dp469
g170
Nsg171
g451
sg24
g25
sg13
g1
sg17
g8
((lp470
g364
ag369
atRp471
sbatRp472
sg176
I00
sbag399
ag315
atRp473
sg15
VC
sg53
I0
sg16
I00
sg54
(F-513.04734810319053
F-68.664824765124919
F0
tp474
sg56
(lp475
sg58
g443
sg155
g8
((ltRp476
sg166
g8
((lp477
g427
ag468
a(iccpnmr.chemBuild.model.Bond
Bond
p478
(dp479
g170
Nsg171
g243
sg24
g25
sg13
g1
sg17
g8
((lp480
g364
ag315
atRp481
sbatRp482
sg176
I00
sba(iccpnmr.chemBuild.model.VarAtom
VarAtom
p483
(dp484
g21
(lp485
sg3
g293
sg23
I00
sg24
g25
sg13
g1
sg34
Nsg35
g8
((lp486
(iccpnmr.chemBuild.model.VarAtom
VarAtom
p487
(dp488
g21
(lp489
sg3
VH3_1
p490
sg23
I00
sg24
g25
sg13
g1
sg34
Nsg35
g8
((lp491
g483
atRp492
sg15
S'H'
sg53
I0
sg16
I00
sg54
(F-405.71286633073396
F-81.546468434221978
F0
tp493
sg56
(lp494
sg58
(iccpnmr.chemBuild.model.Atom
Atom
p495
(dp496
g3
g490
sg13
g1
sg14
I1
sg15
S'H'
sg16
I00
sg17
g8
((lp497
g487
a(iccpnmr.chemBuild.model.VarAtom
VarAtom
p498
(dp499
g21
(lp500
sg3
g490
sg23
I00
sg24
g65
sg13
g1
sg34
Nsg35
g8
((lp501
g290
atRp502
sg15
S'H'
sg53
I0
sg16
I00
sg54
(F-405.71286633073396
F-81.546468434221978
F0
tp503
sg56
(lp504
sg58
g495
sg155
g8
((lp505
(iccpnmr.chemBuild.model.AtomGroup
AtomGroup
p506
(dp507
g159
g160
sg161
g8
((ltRp508
sg17
g8
((lp509
(iccpnmr.chemBuild.model.VarAtom
VarAtom
p510
(dp511
g21
(lp512
sg3
VH3_2
p513
sg23
I00
sg24
g65
sg13
g1
sg34
Nsg35
g8
((lp514
g290
atRp515
sg15
S'H'
sg53
I0
sg16
I00
sg54
(F-420.49214977606812
F-5.9241184133708247
F0
tp516
sg56
(lp517
sg58
(iccpnmr.chemBuild.model.Atom
Atom
p518
(dp519
g3
g513
sg13
g1
sg14
I1
sg15
S'H'
sg16
I00
sg17
g8
((lp520
g510
a(iccpnmr.chemBuild.model.VarAtom
VarAtom
p521
(dp522
g21
(lp523
sg3
g513
sg23
I00
sg24
g25
sg13
g1
sg34
Nsg35
g8
((lp524
g483
atRp525
sg15
S'H'
sg53
I0
sg16
I00
sg54
(F-420.49214977606812
F-5.9241184133708247
F0
tp526
sg56
(lp527
sg58
g518
sg155
g8
((lp528
(iccpnmr.chemBuild.model.AtomGroup
AtomGroup
p529
(dp530
g159
g160
sg161
g8
((ltRp531
sg17
g8
((lp532
g487
ag521
atRp533
sg24
g25
sg13
g1
sbatRp534
sg166
g8
((lp535
(iccpnmr.chemBuild.model.Bond
Bond
p536
(dp537
g170
Nsg171
g172
sg24
g25
sg13
g1
sg17
g8
((lp538
g483
ag521
atRp539
sbatRp540
sg176
I00
sbatRp541
sg176
I00
sbsg155
g8
((lp542
g506
atRp543
sg166
g8
((lp544
(iccpnmr.chemBuild.model.Bond
Bond
p545
(dp546
g170
Nsg171
g172
sg24
g65
sg13
g1
sg17
g8
((lp547
g510
ag290
atRp548
sbatRp549
sg176
I00
sbag498
atRp550
sg24
g65
sg13
g1
sbatRp551
sg166
g8
((lp552
(iccpnmr.chemBuild.model.Bond
Bond
p553
(dp554
g170
Nsg171
g172
sg24
g65
sg13
g1
sg17
g8
((lp555
g290
ag498
atRp556
sbatRp557
sg176
I00
sbatRp558
sg176
I00
sbsg155
g8
((lp559
g529
atRp560
sg166
g8
((lp561
(iccpnmr.chemBuild.model.Bond
Bond
p562
(dp563
g170
Nsg171
g172
sg24
g25
sg13
g1
sg17
g8
((lp564
g487
ag483
atRp565
sbatRp566
sg176
I00
sbag521
ag315
a(iccpnmr.chemBuild.model.VarAtom
VarAtom
p567
(dp568
g21
(lp569
sg3
g288
sg23
I00
sg24
g25
sg13
g1
sg34
Nsg35
g8
((lp570
(iccpnmr.chemBuild.model.VarAtom
VarAtom
p571
(dp572
g21
(lp573
sg3
VH4_1
p574
sg23
I00
sg24
g25
sg13
g1
sg34
Nsg35
g8
((lp575
g567
atRp576
sg15
S'H'
sg53
I0
sg16
I00
sg54
(F-352.75650647907145
F-70.43185606046336
F0
tp577
sg56
(lp578
sg58
(iccpnmr.chemBuild.model.Atom
Atom
p579
(dp580
g3
g574
sg13
g1
sg14
I1
sg15
S'H'
sg16
I00
sg17
g8
((lp581
g571
a(iccpnmr.chemBuild.model.VarAtom
VarAtom
p582
(dp583
g21
(lp584
sg3
g574
sg23
I00
sg24
g65
sg13
g1
sg34
Nsg35
g8
((lp585
g285
atRp586
sg15
S'H'
sg53
I0
sg16
I00
sg54
(F-352.75650647907145
F-70.43185606046336
F0
tp587
sg56
(lp588
sg58
g579
sg155
g8
((lp589
(iccpnmr.chemBuild.model.AtomGroup
AtomGroup
p590
(dp591
g159
g160
sg161
g8
((ltRp592
sg17
g8
((lp593
g582
a(iccpnmr.chemBuild.model.VarAtom
VarAtom
p594
(dp595
g21
(lp596
sg3
g12
sg23
I00
sg24
g65
sg13
g1
sg34
Nsg35
g8
((lp597
g285
atRp598
sg15
S'H'
sg53
I0
sg16
I00
sg54
(F-362.90747099639555
F5.8848039919637962
F0
tp599
sg56
(lp600
sg58
g10
sg155
g8
((lp601
g590
atRp602
sg166
g8
((lp603
(iccpnmr.chemBuild.model.Bond
Bond
p604
(dp605
g170
Nsg171
g172
sg24
g65
sg13
g1
sg17
g8
((lp606
g285
ag594
atRp607
sbatRp608
sg176
I00
sbatRp609
sg24
g65
sg13
g1
sbatRp610
sg166
g8
((lp611
(iccpnmr.chemBuild.model.Bond
Bond
p612
(dp613
g170
Nsg171
g172
sg24
g65
sg13
g1
sg17
g8
((lp614
g285
ag582
atRp615
sbatRp616
sg176
I00
sbatRp617
sg176
I00
sbsg155
g8
((lp618
(iccpnmr.chemBuild.model.AtomGroup
AtomGroup
p619
(dp620
g159
g160
sg161
g8
((ltRp621
sg17
g8
((lp622
g571
ag19
atRp623
sg24
g25
sg13
g1
sbatRp624
sg166
g8
((lp625
(iccpnmr.chemBuild.model.Bond
Bond
p626
(dp627
g170
Nsg171
g172
sg24
g25
sg13
g1
sg17
g8
((lp628
g571
ag567
atRp629
sbatRp630
sg176
I00
sbag261
ag483
ag19
atRp631
sg15
VC
sg53
I0
sg16
I00
sg54
(F-357.58634716692808
F-32.290401208140395
F0
tp632
sg56
(lp633
sg58
(iccpnmr.chemBuild.model.Atom
Atom
p634
(dp635
g3
g288
sg13
g1
sg14
I4
sg15
VC
sg16
I00
sg17
g8
((lp636
g285
ag567
atRp637
sg176
I00
sbsg155
g8
((ltRp638
sg166
g8
((lp639
(iccpnmr.chemBuild.model.Bond
Bond
p640
(dp641
g170
Nsg171
g243
sg24
g25
sg13
g1
sg17
g8
((lp642
g483
ag567
atRp643
sbag626
a(iccpnmr.chemBuild.model.Bond
Bond
p644
(dp645
g170
Nsg171
g243
sg24
g25
sg13
g1
sg17
g8
((lp646
g261
ag567
atRp647
sba(iccpnmr.chemBuild.model.Bond
Bond
p648
(dp649
g170
Nsg171
g172
sg24
g25
sg13
g1
sg17
g8
((lp650
g19
ag567
atRp651
sbatRp652
sg176
I00
sbatRp653
sg15
VC
sg53
I0
sg16
I00
sg54
(F-411.95842752753549
F-43.519385033816512
F0
tp654
sg56
(lp655
sg58
(iccpnmr.chemBuild.model.Atom
Atom
p656
(dp657
g3
g293
sg13
g1
sg14
I4
sg15
VC
sg16
I00
sg17
g8
((lp658
g290
ag483
atRp659
sg176
I00
sbsg155
g8
((ltRp660
sg166
g8
((lp661
g640
a(iccpnmr.chemBuild.model.Bond
Bond
p662
(dp663
g170
Nsg171
g243
sg24
g25
sg13
g1
sg17
g8
((lp664
g483
ag315
atRp665
sbag536
ag562
atRp666
sg176
I00
sbatRp667
sg15
VC
sg53
I0
sg16
I00
sg54
(F-463.2846652213106
F-55.772499499993316
F0
tp668
sg56
(lp669
sg58
(iccpnmr.chemBuild.model.Atom
Atom
p670
(dp671
g3
g298
sg13
g1
sg14
I4
sg15
VC
sg16
I00
sg17
g8
((lp672
g295
ag315
atRp673
sg176
I00
sbsg155
g8
((ltRp674
sg166
g8
((lp675
g662
ag359
a(iccpnmr.chemBuild.model.Bond
Bond
p676
(dp677
g170
Nsg171
g243
sg24
g25
sg13
g1
sg17
g8
((lp678
g311
ag315
atRp679
sbag478
atRp680
sg176
I00
sbatRp681
sg15
S'H'
sg53
I0
sg16
I00
sg54
(F-462.20742392751578
F-94.329786887991801
F0
tp682
sg56
(lp683
sg58
g308
sg155
g8
((lp684
g352
atRp685
sg166
g8
((lp686
g676
atRp687
sg176
I00
sbag300
atRp688
sg176
I00
sbsg155
g8
((lp689
g338
atRp690
sg166
g8
((lp691
(iccpnmr.chemBuild.model.Bond
Bond
p692
(dp693
g170
Nsg171
g243
sg24
g65
sg13
g1
sg17
g8
((lp694
g295
ag300
atRp695
sbatRp696
sg176
I00
sbag384
ag330
atRp697
sg15
VC
sg53
I0
sg16
I00
sg54
(F-463.2846652213106
F-55.772499499993316
F0
tp698
sg56
(lp699
sg58
g670
sg155
g8
((ltRp700
sg166
g8
((lp701
g692
ag345
a(iccpnmr.chemBuild.model.Bond
Bond
p702
(dp703
g170
Nsg171
g243
sg24
g65
sg13
g1
sg17
g8
((lp704
g295
ag290
atRp705
sbag454
atRp706
sg176
I00
sbag510
ag285
ag498
atRp707
sg15
VC
sg53
I0
sg16
I00
sg54
(F-411.95842752753549
F-43.519385033816512
F0
tp708
sg56
(lp709
sg58
g656
sg155
g8
((ltRp710
sg166
g8
((lp711
g702
ag545
a(iccpnmr.chemBuild.model.Bond
Bond
p712
(dp713
g170
Nsg171
g243
sg24
g65
sg13
g1
sg17
g8
((lp714
g285
ag290
atRp715
sbag553
atRp716
sg176
I00
sbag582
ag594
ag281
atRp717
sg15
VC
sg53
I0
sg16
I00
sg54
(F-357.58634716692808
F-32.290401208140395
F0
tp718
sg56
(lp719
sg58
g634
sg155
g8
((ltRp720
sg166
g8
((lp721
(iccpnmr.chemBuild.model.Bond
Bond
p722
(dp723
g170
Nsg171
g243
sg24
g65
sg13
g1
sg17
g8
((lp724
g285
ag281
atRp725
sbag604
ag612
ag712
atRp726
sg176
I00
sbag191
a(iccpnmr.chemBuild.model.VarAtom
VarAtom
p727
(dp728
g21
(lp729
sg3
VH5_2
p730
sg23
I00
sg24
g65
sg13
g1
sg34
Nsg35
g8
((lp731
g281
atRp732
sg15
S'H'
sg53
I0
sg16
I00
sg54
(F-303.47185814399882
F13.327882456906183
F0
tp733
sg56
(lp734
sg58
(iccpnmr.chemBuild.model.Atom
Atom
p735
(dp736
g3
g730
sg13
g1
sg14
I1
sg15
S'H'
sg16
I00
sg17
g8
((lp737
g727
a(iccpnmr.chemBuild.model.VarAtom
VarAtom
p738
(dp739
g21
(lp740
sg3
g730
sg23
I00
sg24
g25
sg13
g1
sg34
Nsg35
g8
((lp741
g261
atRp742
sg15
S'H'
sg53
I0
sg16
I00
sg54
(F-303.47185814399882
F13.327882456906183
F0
tp743
sg56
(lp744
sg58
g735
sg155
g8
((lp745
(iccpnmr.chemBuild.model.AtomGroup
AtomGroup
p746
(dp747
g159
g160
sg161
g8
((ltRp748
sg17
g8
((lp749
g266
ag738
atRp750
sg24
g25
sg13
g1
sbatRp751
sg166
g8
((lp752
(iccpnmr.chemBuild.model.Bond
Bond
p753
(dp754
g170
Nsg171
g243
sg24
g25
sg13
g1
sg17
g8
((lp755
g261
ag738
atRp756
sbatRp757
sg176
I00
sbatRp758
sg176
I00
sbsg155
g8
((lp759
(iccpnmr.chemBuild.model.AtomGroup
AtomGroup
p760
(dp761
g159
g160
sg161
g8
((ltRp762
sg17
g8
((lp763
g277
ag727
atRp764
sg24
g65
sg13
g1
sbatRp765
sg166
g8
((lp766
(iccpnmr.chemBuild.model.Bond
Bond
p767
(dp768
g170
Nsg171
g243
sg24
g65
sg13
g1
sg17
g8
((lp769
g727
ag281
atRp770
sbatRp771
sg176
I00
sbatRp772
sg15
VC
sg53
I0
sg16
I00
sg54
(F-302.02628609123315
F-25.213602758270241
F0
tp773
sg56
(lp774
sg58
(iccpnmr.chemBuild.model.Atom
Atom
p775
(dp776
g3
g264
sg13
g1
sg14
I4
sg15
VC
sg16
I00
sg17
g8
((lp777
g261
ag281
atRp778
sg176
I00
sbsg155
g8
((ltRp779
sg166
g8
((lp780
g722
ag767
a(iccpnmr.chemBuild.model.Bond
Bond
p781
(dp782
g170
Nsg171
g243
sg24
g65
sg13
g1
sg17
g8
((lp783
g277
ag281
atRp784
sba(iccpnmr.chemBuild.model.Bond
Bond
p785
(dp786
g170
Nsg171
g243
sg24
g65
sg13
g1
sg17
g8
((lp787
g191
ag281
atRp788
sbatRp789
sg176
I00
sbatRp790
sg15
S'H'
sg53
I0
sg16
I00
sg54
(F-300.8552366713343
F-63.574477820529538
F0
tp791
sg56
(lp792
sg58
g274
sg155
g8
((lp793
g760
atRp794
sg166
g8
((lp795
g781
atRp796
sg176
I00
sbag266
atRp797
sg176
I00
sbsg155
g8
((lp798
g746
atRp799
sg166
g8
((lp800
(iccpnmr.chemBuild.model.Bond
Bond
p801
(dp802
g170
Nsg171
g243
sg24
g25
sg13
g1
sg17
g8
((lp803
g266
ag261
atRp804
sbatRp805
sg176
I00
sbag738
ag211
ag567
atRp806
sg15
VC
sg53
I0
sg16
I00
sg54
(F-302.02628609123315
F-25.213602758270241
F0
tp807
sg56
(lp808
sg58
g775
sg155
g8
((ltRp809
sg166
g8
((lp810
g801
a(iccpnmr.chemBuild.model.Bond
Bond
p811
(dp812
g170
Nsg171
g243
sg24
g25
sg13
g1
sg17
g8
((lp813
g261
ag211
atRp814
sbag644
ag753
atRp815
sg176
I00
sbag113
ag207
atRp816
sg15
VC
sg53
I0
sg16
I00
sg54
(F-245.83364640157276
F-25.348595834157891
F0
tp817
sg56
(lp818
sg58
(iccpnmr.chemBuild.model.Atom
Atom
p819
(dp820
g3
g194
sg13
g1
sg14
I4
sg15
VC
sg16
I00
sg17
g8
((lp821
g191
ag211
atRp822
sg176
I00
sbsg155
g8
((ltRp823
sg166
g8
((lp824
g256
a(iccpnmr.chemBuild.model.Bond
Bond
p825
(dp826
g170
Nsg171
g243
sg24
g25
sg13
g1
sg17
g8
((lp827
g211
ag207
atRp828
sbag811
a(iccpnmr.chemBuild.model.Bond
Bond
p829
(dp830
g170
Nsg171
g243
sg24
g25
sg13
g1
sg17
g8
((lp831
g113
ag211
atRp832
sbatRp833
sg176
I00
sbatRp834
sg15
S'H'
sg53
I0
sg16
I00
sg54
(F-249.65348710736487
F-63.474207204342918
F0
tp835
sg56
(lp836
sg58
g204
sg155
g8
((lp837
g249
atRp838
sg166
g8
((lp839
g825
atRp840
sg176
I00
sbatRp841
sg176
I00
sbsg155
g8
((lp842
g234
atRp843
sg166
g8
((lp844
(iccpnmr.chemBuild.model.Bond
Bond
p845
(dp846
g170
Nsg171
g243
sg24
g65
sg13
g1
sg17
g8
((lp847
g191
ag196
atRp848
sbatRp849
sg176
I00
sbag226
ag281
atRp850
sg15
VC
sg53
I0
sg16
I00
sg54
(F-245.83364640157276
F-25.348595834157891
F0
tp851
sg56
(lp852
sg58
g819
sg155
g8
((ltRp853
sg166
g8
((lp854
g845
ag785
a(iccpnmr.chemBuild.model.Bond
Bond
p855
(dp856
g170
Nsg171
g243
sg24
g65
sg13
g1
sg17
g8
((lp857
g133
ag191
atRp858
sbag241
atRp859
sg176
I00
sba(iccpnmr.chemBuild.model.VarAtom
VarAtom
p860
(dp861
g21
(lp862
sg3
g111
sg23
I00
sg24
g65
sg13
g1
sg34
Nsg35
g8
((lp863
g133
a(iccpnmr.chemBuild.model.VarAtom
VarAtom
p864
(dp865
g21
(lp866
sg3
VH8_1
p867
sg23
I00
sg24
g65
sg13
g1
sg34
Nsg35
g8
((lp868
g860
atRp869
sg15
S'H'
sg53
I0
sg16
I00
sg54
(F-120.0076206921436
F-20.663269628965612
F0
tp870
sg56
(lp871
sg58
(iccpnmr.chemBuild.model.Atom
Atom
p872
(dp873
g3
g867
sg13
g1
sg14
I1
sg15
S'H'
sg16
I00
sg17
g8
((lp874
g864
a(iccpnmr.chemBuild.model.VarAtom
VarAtom
p875
(dp876
g21
(lp877
sg3
g867
sg23
I00
sg24
g25
sg13
g1
sg34
Nsg35
g8
((lp878
g108
atRp879
sg15
S'H'
sg53
I0
sg16
I00
sg54
(F-120.0076206921436
F-20.663269628965612
F0
tp880
sg56
(lp881
sg58
g872
sg155
g8
((lp882
(iccpnmr.chemBuild.model.AtomGroup
AtomGroup
p883
(dp884
g159
g160
sg161
g8
((ltRp885
sg17
g8
((lp886
(iccpnmr.chemBuild.model.VarAtom
VarAtom
p887
(dp888
g21
(lp889
sg3
VH8_2
p890
sg23
I00
sg24
g25
sg13
g1
sg34
Nsg35
g8
((lp891
g108
atRp892
sg15
S'H'
sg53
I0
sg16
I00
sg54
(F-150.5335083954709
F-90.836218292524634
F0
tp893
sg56
(lp894
sg58
(iccpnmr.chemBuild.model.Atom
Atom
p895
(dp896
g3
g890
sg13
g1
sg14
I1
sg15
S'H'
sg16
I00
sg17
g8
((lp897
g887
a(iccpnmr.chemBuild.model.VarAtom
VarAtom
p898
(dp899
g21
(lp900
sg3
g890
sg23
I00
sg24
g65
sg13
g1
sg34
Nsg35
g8
((lp901
g860
atRp902
sg15
S'H'
sg53
I0
sg16
I00
sg54
(F-150.5335083954709
F-90.836218292524634
F0
tp903
sg56
(lp904
sg58
g895
sg155
g8
((lp905
(iccpnmr.chemBuild.model.AtomGroup
AtomGroup
p906
(dp907
g159
g160
sg161
g8
((ltRp908
sg17
g8
((lp909
g898
ag864
atRp910
sg24
g65
sg13
g1
sbatRp911
sg166
g8
((lp912
(iccpnmr.chemBuild.model.Bond
Bond
p913
(dp914
g170
Nsg171
g243
sg24
g65
sg13
g1
sg17
g8
((lp915
g860
ag898
atRp916
sbatRp917
sg176
I00
sbatRp918
sg176
I00
sbsg155
g8
((lp919
g883
atRp920
sg166
g8
((lp921
(iccpnmr.chemBuild.model.Bond
Bond
p922
(dp923
g170
Nsg171
g243
sg24
g25
sg13
g1
sg17
g8
((lp924
g108
ag887
atRp925
sbatRp926
sg176
I00
sbag875
atRp927
sg24
g25
sg13
g1
sbatRp928
sg166
g8
((lp929
(iccpnmr.chemBuild.model.Bond
Bond
p930
(dp931
g170
Nsg171
g243
sg24
g25
sg13
g1
sg17
g8
((lp932
g108
ag875
atRp933
sbatRp934
sg176
I00
sbatRp935
sg176
I00
sbsg155
g8
((lp936
g906
atRp937
sg166
g8
((lp938
(iccpnmr.chemBuild.model.Bond
Bond
p939
(dp940
g170
Nsg171
g243
sg24
g65
sg13
g1
sg17
g8
((lp941
g860
ag864
atRp942
sbatRp943
sg176
I00
sbag898
ag84
atRp944
sg15
VC
sg53
I0
sg16
I00
sg54
(F-138.69070694448632
F-54.334904070594995
F0
tp945
sg56
(lp946
sg58
(iccpnmr.chemBuild.model.Atom
Atom
p947
(dp948
g3
g111
sg13
g1
sg14
I4
sg15
VC
sg16
I00
sg17
g8
((lp949
g108
ag860
atRp950
sg176
I00
sbsg155
g8
((ltRp951
sg166
g8
((lp952
(iccpnmr.chemBuild.model.Bond
Bond
p953
(dp954
g170
Nsg171
g243
sg24
g65
sg13
g1
sg17
g8
((lp955
g133
ag860
atRp956
sbag913
ag939
a(iccpnmr.chemBuild.model.Bond
Bond
p957
(dp958
g170
Nsg171
g243
sg24
g65
sg13
g1
sg17
g8
((lp959
g84
ag860
atRp960
sbatRp961
sg176
I00
sbag129
atRp962
sg15
VC
sg53
I0
sg16
I00
sg54
(F-190.44043913989185
F-35.066537884047065
F0
tp963
sg56
(lp964
sg58
(iccpnmr.chemBuild.model.Atom
Atom
p965
(dp966
g3
g116
sg13
g1
sg14
I4
sg15
VC
sg16
I00
sg17
g8
((lp967
g133
ag113
atRp968
sg176
I00
sbsg155
g8
((ltRp969
sg166
g8
((lp970
(iccpnmr.chemBuild.model.Bond
Bond
p971
(dp972
g170
Nsg171
g172
sg24
g65
sg13
g1
sg17
g8
((lp973
g133
ag129
atRp974
sbag186
ag953
ag855
atRp975
sg176
I00
sbatRp976
sg15
S'H'
sg53
I0
sg16
I00
sg54
(F-199.50705607533806
F-72.294699328969557
F0
tp977
sg56
(lp978
sg58
g126
sg155
g8
((lp979
g179
atRp980
sg166
g8
((lp981
g971
atRp982
sg176
I00
sbatRp983
sg176
I00
sbsg155
g8
((lp984
g157
atRp985
sg166
g8
((lp986
(iccpnmr.chemBuild.model.Bond
Bond
p987
(dp988
g170
Nsg171
g172
sg24
g25
sg13
g1
sg17
g8
((lp989
g118
ag113
atRp990
sbatRp991
sg176
I00
sbag148
ag211
atRp992
sg15
VC
sg53
I0
sg16
I00
sg54
(F-190.44043913989185
F-35.066537884047065
F0
tp993
sg56
(lp994
sg58
g965
sg155
g8
((ltRp995
sg166
g8
((lp996
g168
ag987
a(iccpnmr.chemBuild.model.Bond
Bond
p997
(dp998
g170
Nsg171
g243
sg24
g25
sg13
g1
sg17
g8
((lp999
g108
ag113
atRp1000
sbag829
atRp1001
sg176
I00
sbag887
ag875
ag104
atRp1002
sg15
VC
sg53
I0
sg16
I00
sg54
(F-138.69070694448632
F-54.334904070594995
F0
tp1003
sg56
(lp1004
sg58
g947
sg155
g8
((ltRp1005
sg166
g8
((lp1006
g930
ag997
a(iccpnmr.chemBuild.model.Bond
Bond
p1007
(dp1008
g170
Nsg171
g243
sg24
g25
sg13
g1
sg17
g8
((lp1009
g108
ag104
atRp1010
sbag922
atRp1011
sg176
I00
sba(iccpnmr.chemBuild.model.VarAtom
VarAtom
p1012
(dp1013
g21
(lp1014
sg3
g82
sg23
I00
sg24
g25
sg13
g1
sg34
Nsg35
g8
((lp1015
(iccpnmr.chemBuild.model.VarAtom
VarAtom
p1016
(dp1017
g21
(lp1018
sg3
VH10
p1019
sg23
I00
sg24
g25
sg13
g1
sg34
Nsg35
g8
((lp1020
g1012
atRp1021
sg15
S'H'
sg53
I0
sg16
I00
sg54
(F-35.764319402594779
F-115.29118883025647
F0
tp1022
sg56
(lp1023
sg58
(iccpnmr.chemBuild.model.Atom
Atom
p1024
(dp1025
g3
g1019
sg13
g1
sg14
I1
sg15
S'H'
sg16
I00
sg17
g8
((lp1026
g1016
a(iccpnmr.chemBuild.model.VarAtom
VarAtom
p1027
(dp1028
g21
(lp1029
sg3
g1019
sg23
I00
sg24
g65
sg13
g1
sg34
Nsg35
g8
((lp1030
g79
atRp1031
sg15
S'H'
sg53
I0
sg16
I00
sg54
(F-35.764319402594779
F-115.29118883025647
F0
tp1032
sg56
(lp1033
sg58
g1024
sg155
g8
((ltRp1034
sg166
g8
((lp1035
(iccpnmr.chemBuild.model.Bond
Bond
p1036
(dp1037
g170
Nsg171
g243
sg24
g65
sg13
g1
sg17
g8
((lp1038
g79
ag1027
atRp1039
sbatRp1040
sg176
I00
sbatRp1041
sg176
I00
sbsg155
g8
((ltRp1042
sg166
g8
((lp1043
(iccpnmr.chemBuild.model.Bond
Bond
p1044
(dp1045
g170
Nsg171
g243
sg24
g25
sg13
g1
sg17
g8
((lp1046
g1012
ag1016
atRp1047
sbatRp1048
sg176
I00
sba(iccpnmr.chemBuild.model.VarAtom
VarAtom
p1049
(dp1050
g21
(lp1051
sg3
g77
sg23
I00
sg24
g25
sg13
g1
sg34
Nsg35
g8
((lp1052
g1012
a(iccpnmr.chemBuild.model.VarAtom
VarAtom
p1053
(dp1054
g21
(lp1055
sg3
VC12
p1056
sg23
I00
sg24
g25
sg13
g1
sg34
Nsg35
g8
((lp1057
(iccpnmr.chemBuild.model.VarAtom
VarAtom
p1058
(dp1059
g21
(lp1060
sg3
VH12
p1061
sg23
I00
sg24
g25
sg13
g1
sg34
Nsg35
g8
((lp1062
g1053
atRp1063
sg15
S'H'
sg53
I0
sg16
I00
sg54
(F16.163337607787355
F22.294464026809429
F0
tp1064
sg56
(lp1065
sg58
(iccpnmr.chemBuild.model.Atom
Atom
p1066
(dp1067
g3
g1061
sg13
g1
sg14
I1
sg15
S'H'
sg16
I00
sg17
g8
((lp1068
g1058
a(iccpnmr.chemBuild.model.VarAtom
VarAtom
p1069
(dp1070
g21
(lp1071
sg3
g1061
sg23
I00
sg24
g65
sg13
g1
sg34
Nsg35
g8
((lp1072
(iccpnmr.chemBuild.model.VarAtom
VarAtom
p1073
(dp1074
g21
(lp1075
sg3
g1056
sg23
I00
sg24
g65
sg13
g1
sg34
Nsg35
g8
((lp1076
g1069
a(iccpnmr.chemBuild.model.VarAtom
VarAtom
p1077
(dp1078
g21
(lp1079
sg3
VC13
p1080
sg23
I00
sg24
g65
sg13
g1
sg34
Nsg35
g8
((lp1081
g1073
a(iccpnmr.chemBuild.model.VarAtom
VarAtom
p1082
(dp1083
g21
(lp1084
sg3
VH13
p1085
sg23
I00
sg24
g65
sg13
g1
sg34
Nsg35
g8
((lp1086
g1077
atRp1087
sg15
S'H'
sg53
I0
sg16
I00
sg54
(F79.463070611101685
F28.8734823309569
F0
tp1088
sg56
(lp1089
sg58
(iccpnmr.chemBuild.model.Atom
Atom
p1090
(dp1091
g3
g1085
sg13
g1
sg14
I1
sg15
S'H'
sg16
I00
sg17
g8
((lp1092
g1082
a(iccpnmr.chemBuild.model.VarAtom
VarAtom
p1093
(dp1094
g21
(lp1095
sg3
g1085
sg23
I00
sg24
g25
sg13
g1
sg34
Nsg35
g8
((lp1096
(iccpnmr.chemBuild.model.VarAtom
VarAtom
p1097
(dp1098
g21
(lp1099
sg3
g1080
sg23
I00
sg24
g25
sg13
g1
sg34
Nsg35
g8
((lp1100
g42
ag1093
ag1053
atRp1101
sg15
VC
sg53
I0
sg16
I00
sg54
(F75.833397464121106
F-9.4627777955178285
F0
tp1102
sg56
(lp1103
sg58
(iccpnmr.chemBuild.model.Atom
Atom
p1104
(dp1105
g3
g1080
sg13
g1
sg14
I4
sg15
VC
sg16
I00
sg17
g8
((lp1106
g1097
ag1077
atRp1107
sg176
I00
sbsg155
g8
((ltRp1108
sg166
g8
((lp1109
(iccpnmr.chemBuild.model.Bond
Bond
p1110
(dp1111
g170
Nsg171
g243
sg24
g25
sg13
g1
sg17
g8
((lp1112
g42
ag1097
atRp1113
sba(iccpnmr.chemBuild.model.Bond
Bond
p1114
(dp1115
g170
Nsg171
g243
sg24
g25
sg13
g1
sg17
g8
((lp1116
g1097
ag1093
atRp1117
sba(iccpnmr.chemBuild.model.Bond
Bond
p1118
(dp1119
g170
Nsg171
g451
sg24
g25
sg13
g1
sg17
g8
((lp1120
g1097
ag1053
atRp1121
sbatRp1122
sg176
I00
sbatRp1123
sg15
S'H'
sg53
I0
sg16
I00
sg54
(F79.463070611101685
F28.8734823309569
F0
tp1124
sg56
(lp1125
sg58
g1090
sg155
g8
((ltRp1126
sg166
g8
((lp1127
g1114
atRp1128
sg176
I00
sbatRp1129
sg176
I00
sbsg155
g8
((ltRp1130
sg166
g8
((lp1131
(iccpnmr.chemBuild.model.Bond
Bond
p1132
(dp1133
g170
Nsg171
g243
sg24
g65
sg13
g1
sg17
g8
((lp1134
g1082
ag1077
atRp1135
sbatRp1136
sg176
I00
sba(iccpnmr.chemBuild.model.VarAtom
VarAtom
p1137
(dp1138
g21
(lp1139
sg3
g45
sg23
I00
sg24
g65
sg13
g1
sg34
Nsg35
g8
((lp1140
g1077
a(iccpnmr.chemBuild.model.VarAtom
VarAtom
p1141
(dp1142
g21
(lp1143
sg3
VH14_2
p1144
sg23
I00
sg24
g65
sg13
g1
sg34
Nsg35
g8
((lp1145
g1137
atRp1146
sg15
S'H'
sg53
I0
sg16
I00
sg54
(F132.87592898563295
F3.8707606541220394
F0
tp1147
sg56
(lp1148
sg58
(iccpnmr.chemBuild.model.Atom
Atom
p1149
(dp1150
g3
g1144
sg13
g1
sg14
I1
sg15
S'H'
sg16
I00
sg17
g8
((lp1151
g1141
a(iccpnmr.chemBuild.model.VarAtom
VarAtom
p1152
(dp1153
g21
(lp1154
sg3
g1144
sg23
I00
sg24
g25
sg13
g1
sg34
Nsg35
g8
((lp1155
g42
atRp1156
sg15
S'H'
sg53
I0
sg16
I00
sg54
(F132.87592898563295
F3.8707606541220394
F0
tp1157
sg56
(lp1158
sg58
g1149
sg155
g8
((lp1159
(iccpnmr.chemBuild.model.AtomGroup
AtomGroup
p1160
(dp1161
g159
g160
sg161
g8
((ltRp1162
sg17
g8
((lp1163
g47
ag1152
atRp1164
sg24
g25
sg13
g1
sbatRp1165
sg166
g8
((lp1166
(iccpnmr.chemBuild.model.Bond
Bond
p1167
(dp1168
g170
Nsg171
g243
sg24
g25
sg13
g1
sg17
g8
((lp1169
g42
ag1152
atRp1170
sbatRp1171
sg176
I00
sbatRp1172
sg176
I00
sbsg155
g8
((lp1173
(iccpnmr.chemBuild.model.AtomGroup
AtomGroup
p1174
(dp1175
g159
g160
sg161
g8
((ltRp1176
sg17
g8
((lp1177
g1141
ag62
atRp1178
sg24
g65
sg13
g1
sbatRp1179
sg166
g8
((lp1180
(iccpnmr.chemBuild.model.Bond
Bond
p1181
(dp1182
g170
Nsg171
g243
sg24
g65
sg13
g1
sg17
g8
((lp1183
g1141
ag1137
atRp1184
sbatRp1185
sg176
I00
sba(iccpnmr.chemBuild.model.VarAtom
VarAtom
p1186
(dp1187
g21
(lp1188
sg3
g40
sg23
I00
sg24
g65
sg13
g1
sg34
Nsg35
g8
((lp1189
(iccpnmr.chemBuild.model.VarAtom
VarAtom
p1190
(dp1191
g21
(lp1192
sg3
VH15_1
p1193
sg23
I00
sg24
g65
sg13
g1
sg34
Nsg35
g8
((lp1194
g1186
atRp1195
sg15
S'H'
sg53
I0
sg16
I00
sg54
(F164.17725899829586
F-87.166634393666513
F0
tp1196
sg56
(lp1197
sg58
(iccpnmr.chemBuild.model.Atom
Atom
p1198
(dp1199
g3
g1193
sg13
g1
sg14
I1
sg15
S'H'
sg16
I00
sg17
g8
((lp1200
(iccpnmr.chemBuild.model.VarAtom
VarAtom
p1201
(dp1202
g21
(lp1203
sg3
g1193
sg23
I00
sg24
g25
sg13
g1
sg34
Nsg35
g8
((lp1204
g37
atRp1205
sg15
S'H'
sg53
I0
sg16
I00
sg54
(F164.17725899829586
F-87.166634393666513
F0
tp1206
sg56
(lp1207
sg58
g1198
sg155
g8
((lp1208
(iccpnmr.chemBuild.model.AtomGroup
AtomGroup
p1209
(dp1210
g159
g160
sg161
g8
((ltRp1211
sg17
g8
((lp1212
g1201
ag30
atRp1213
sg24
g25
sg13
g1
sbatRp1214
sg166
g8
((lp1215
(iccpnmr.chemBuild.model.Bond
Bond
p1216
(dp1217
g170
Nsg171
g172
sg24
g25
sg13
g1
sg17
g8
((lp1218
g1201
ag37
atRp1219
sbatRp1220
sg176
I00
sbag1190
atRp1221
sg176
I00
sbsg155
g8
((lp1222
(iccpnmr.chemBuild.model.AtomGroup
AtomGroup
p1223
(dp1224
g159
g160
sg161
g8
((ltRp1225
sg17
g8
((lp1226
g1190
a(iccpnmr.chemBuild.model.VarAtom
VarAtom
p1227
(dp1228
g21
(lp1229
sg3
g33
sg23
I00
sg24
g65
sg13
g1
sg34
Nsg35
g8
((lp1230
g1186
atRp1231
sg15
S'H'
sg53
I0
sg16
I00
sg54
(F184.53893128954846
F-12.974436985946241
F0
tp1232
sg56
(lp1233
sg58
(iccpnmr.chemBuild.model.Atom
Atom
p1234
(dp1235
g3
g33
sg13
g1
sg14
I1
sg15
S'H'
sg16
I00
sg17
g8
((lp1236
g1227
ag30
atRp1237
sg176
I00
sbsg155
g8
((lp1238
g1223
atRp1239
sg166
g8
((lp1240
(iccpnmr.chemBuild.model.Bond
Bond
p1241
(dp1242
g170
Nsg171
g172
sg24
g65
sg13
g1
sg17
g8
((lp1243
g1227
ag1186
atRp1244
sbatRp1245
sg176
I00
sbatRp1246
sg24
g65
sg13
g1
sbatRp1247
sg166
g8
((lp1248
(iccpnmr.chemBuild.model.Bond
Bond
p1249
(dp1250
g170
Nsg171
g172
sg24
g65
sg13
g1
sg17
g8
((lp1251
g1190
ag1186
atRp1252
sbatRp1253
sg176
I00
sbag1227
a(iccpnmr.chemBuild.model.VarAtom
VarAtom
p1254
(dp1255
g21
(lp1256
sg3
VC16
p1257
sg23
I00
sg24
g65
sg13
g1
sg34
Nsg35
g8
((lp1258
(iccpnmr.chemBuild.model.VarAtom
VarAtom
p1259
(dp1260
g21
(lp1261
sg3
VH16_2
p1262
sg23
I00
sg24
g65
sg13
g1
sg34
Nsg35
g8
((lp1263
g1254
atRp1264
sg15
S'H'
sg53
I0
sg16
I00
sg54
(F237.2709598472164
F-23.717753155315609
F0
tp1265
sg56
(lp1266
sg58
(iccpnmr.chemBuild.model.Atom
Atom
p1267
(dp1268
g3
g1262
sg13
g1
sg14
I1
sg15
S'H'
sg16
I00
sg17
g8
((lp1269
g1259
a(iccpnmr.chemBuild.model.VarAtom
VarAtom
p1270
(dp1271
g21
(lp1272
sg3
g1262
sg23
I00
sg24
g25
sg13
g1
sg34
Nsg35
g8
((lp1273
(iccpnmr.chemBuild.model.VarAtom
VarAtom
p1274
(dp1275
g21
(lp1276
sg3
g1257
sg23
I00
sg24
g25
sg13
g1
sg34
Nsg35
g8
((lp1277
g37
a(iccpnmr.chemBuild.model.VarAtom
VarAtom
p1278
(dp1279
g21
(lp1280
sg3
VH16_1
p1281
sg23
I00
sg24
g25
sg13
g1
sg34
Nsg35
g8
((lp1282
g1274
atRp1283
sg15
S'H'
sg53
I0
sg16
I00
sg54
(F223.73484264940518
F-99.462273851798116
F0
tp1284
sg56
(lp1285
sg58
(iccpnmr.chemBuild.model.Atom
Atom
p1286
(dp1287
g3
g1281
sg13
g1
sg14
I1
sg15
S'H'
sg16
I00
sg17
g8
((lp1288
g1278
a(iccpnmr.chemBuild.model.VarAtom
VarAtom
p1289
(dp1290
g21
(lp1291
sg3
g1281
sg23
I00
sg24
g65
sg13
g1
sg34
Nsg35
g8
((lp1292
g1254
atRp1293
sg15
S'H'
sg53
I0
sg16
I00
sg54
(F223.73484264940518
F-99.462273851798116
F0
tp1294
sg56
(lp1295
sg58
g1286
sg155
g8
((lp1296
(iccpnmr.chemBuild.model.AtomGroup
AtomGroup
p1297
(dp1298
g159
g160
sg161
g8
((ltRp1299
sg17
g8
((lp1300
g1259
ag1289
atRp1301
sg24
g65
sg13
g1
sbatRp1302
sg166
g8
((lp1303
(iccpnmr.chemBuild.model.Bond
Bond
p1304
(dp1305
g170
Nsg171
g172
sg24
g65
sg13
g1
sg17
g8
((lp1306
g1289
ag1254
atRp1307
sbatRp1308
sg176
I00
sbatRp1309
sg176
I00
sbsg155
g8
((lp1310
(iccpnmr.chemBuild.model.AtomGroup
AtomGroup
p1311
(dp1312
g159
g160
sg161
g8
((ltRp1313
sg17
g8
((lp1314
g1278
ag1270
atRp1315
sg24
g25
sg13
g1
sbatRp1316
sg166
g8
((lp1317
(iccpnmr.chemBuild.model.Bond
Bond
p1318
(dp1319
g170
Nsg171
g172
sg24
g25
sg13
g1
sg17
g8
((lp1320
g1278
ag1274
atRp1321
sbatRp1322
sg176
I00
sba(iccpnmr.chemBuild.model.VarAtom
VarAtom
p1323
(dp1324
g21
(lp1325
sg3
VC17
p1326
sg23
I00
sg24
g25
sg13
g1
sg34
Nsg35
g8
((lp1327
(iccpnmr.chemBuild.model.VarAtom
VarAtom
p1328
(dp1329
g21
(lp1330
sg3
VH17_2
p1331
sg23
I00
sg24
g25
sg13
g1
sg34
Nsg35
g8
((lp1332
g1323
atRp1333
sg15
S'H'
sg53
I0
sg16
I00
sg54
(F291.82420045229577
F-29.778775799654476
F0
tp1334
sg56
(lp1335
sg58
(iccpnmr.chemBuild.model.Atom
Atom
p1336
(dp1337
g3
g1331
sg13
g1
sg14
I1
sg15
S'H'
sg16
I00
sg17
g8
((lp1338
(iccpnmr.chemBuild.model.VarAtom
VarAtom
p1339
(dp1340
g21
(lp1341
sg3
g1331
sg23
I00
sg24
g65
sg13
g1
sg34
Nsg35
g8
((lp1342
(iccpnmr.chemBuild.model.VarAtom
VarAtom
p1343
(dp1344
g21
(lp1345
sg3
g1326
sg23
I00
sg24
g65
sg13
g1
sg34
Nsg35
g8
((lp1346
(iccpnmr.chemBuild.model.VarAtom
VarAtom
p1347
(dp1348
g21
(lp1349
sg3
VH17_1
p1350
sg23
I00
sg24
g65
sg13
g1
sg34
Nsg35
g8
((lp1351
g1343
atRp1352
sg15
S'H'
sg53
I0
sg16
I00
sg54
(F283.24856523805056
F-106.27222076728565
F0
tp1353
sg56
(lp1354
sg58
(iccpnmr.chemBuild.model.Atom
Atom
p1355
(dp1356
g3
g1350
sg13
g1
sg14
I1
sg15
S'H'
sg16
I00
sg17
g8
((lp1357
g1347
a(iccpnmr.chemBuild.model.VarAtom
VarAtom
p1358
(dp1359
g21
(lp1360
sg3
g1350
sg23
I00
sg24
g25
sg13
g1
sg34
Nsg35
g8
((lp1361
g1323
atRp1362
sg15
S'H'
sg53
I0
sg16
I00
sg54
(F283.24856523805056
F-106.27222076728565
F0
tp1363
sg56
(lp1364
sg58
g1355
sg155
g8
((lp1365
(iccpnmr.chemBuild.model.AtomGroup
AtomGroup
p1366
(dp1367
g159
g160
sg161
g8
((ltRp1368
sg17
g8
((lp1369
g1358
ag1328
atRp1370
sg24
g25
sg13
g1
sbatRp1371
sg166
g8
((lp1372
(iccpnmr.chemBuild.model.Bond
Bond
p1373
(dp1374
g170
Nsg171
g243
sg24
g25
sg13
g1
sg17
g8
((lp1375
g1323
ag1358
atRp1376
sbatRp1377
sg176
I00
sbatRp1378
sg176
I00
sbsg155
g8
((lp1379
(iccpnmr.chemBuild.model.AtomGroup
AtomGroup
p1380
(dp1381
g159
g160
sg161
g8
((ltRp1382
sg17
g8
((lp1383
g1347
ag1339
atRp1384
sg24
g65
sg13
g1
sbatRp1385
sg166
g8
((lp1386
(iccpnmr.chemBuild.model.Bond
Bond
p1387
(dp1388
g170
Nsg171
g243
sg24
g65
sg13
g1
sg17
g8
((lp1389
g1347
ag1343
atRp1390
sbatRp1391
sg176
I00
sbag1254
ag1339
a(iccpnmr.chemBuild.model.VarAtom
VarAtom
p1392
(dp1393
g21
(lp1394
sg3
VC18
p1395
sg23
I00
sg24
g65
sg13
g1
sg34
Nsg35
g8
((lp1396
(iccpnmr.chemBuild.model.VarAtom
VarAtom
p1397
(dp1398
g21
(lp1399
sg3
VH18_2
p1400
sg23
I00
sg24
g65
sg13
g1
sg34
Nsg35
g8
((lp1401
g1392
atRp1402
sg15
S'H'
sg53
I0
sg16
I00
sg54
(F352.10319275019833
F-35.706374259288907
F0
tp1403
sg56
(lp1404
sg58
(iccpnmr.chemBuild.model.Atom
Atom
p1405
(dp1406
g3
g1400
sg13
g1
sg14
I1
sg15
S'H'
sg16
I00
sg17
g8
((lp1407
g1397
a(iccpnmr.chemBuild.model.VarAtom
VarAtom
p1408
(dp1409
g21
(lp1410
sg3
g1400
sg23
I00
sg24
g25
sg13
g1
sg34
Nsg35
g8
((lp1411
(iccpnmr.chemBuild.model.VarAtom
VarAtom
p1412
(dp1413
g21
(lp1414
sg3
g1395
sg23
I00
sg24
g25
sg13
g1
sg34
Nsg35
g8
((lp1415
(iccpnmr.chemBuild.model.VarAtom
VarAtom
p1416
(dp1417
g21
(lp1418
sg3
VH18_1
p1419
sg23
I00
sg24
g25
sg13
g1
sg34
Nsg35
g8
((lp1420
g1412
atRp1421
sg15
S'H'
sg53
I0
sg16
I00
sg54
(F344.59251352412207
F-111.74329756646743
F0
tp1422
sg56
(lp1423
sg58
(iccpnmr.chemBuild.model.Atom
Atom
p1424
(dp1425
g3
g1419
sg13
g1
sg14
I1
sg15
S'H'
sg16
I00
sg17
g8
((lp1426
g1416
a(iccpnmr.chemBuild.model.VarAtom
VarAtom
p1427
(dp1428
g21
(lp1429
sg3
g1419
sg23
I00
sg24
g65
sg13
g1
sg34
Nsg35
g8
((lp1430
g1392
atRp1431
sg15
S'H'
sg53
I0
sg16
I00
sg54
(F344.59251352412207
F-111.74329756646743
F0
tp1432
sg56
(lp1433
sg58
g1424
sg155
g8
((lp1434
(iccpnmr.chemBuild.model.AtomGroup
AtomGroup
p1435
(dp1436
g159
S'equivalent'
p1437
sg161
g8
((ltRp1438
sg17
g8
((lp1439
g1397
a(iccpnmr.chemBuild.model.VarAtom
VarAtom
p1440
(dp1441
g21
(lp1442
sg3
VH18_3
p1443
sg23
I00
sg24
g65
sg13
g1
sg34
Nsg35
g8
((lp1444
g1392
atRp1445
sg15
S'H'
sg53
I0
sg16
I00
sg54
(F379.98033948997869
F-76.981546051958304
F0
tp1446
sg56
(lp1447
sg58
(iccpnmr.chemBuild.model.Atom
Atom
p1448
(dp1449
g3
g1443
sg13
g1
sg14
I1
sg15
S'H'
sg16
I00
sg17
g8
((lp1450
g1440
a(iccpnmr.chemBuild.model.VarAtom
VarAtom
p1451
(dp1452
g21
(lp1453
sg3
g1443
sg23
I00
sg24
g25
sg13
g1
sg34
Nsg35
g8
((lp1454
g1412
atRp1455
sg15
S'H'
sg53
I0
sg16
I00
sg54
(F379.98033948997869
F-76.981546051958304
F0
tp1456
sg56
(lp1457
sg58
g1448
sg155
g8
((lp1458
(iccpnmr.chemBuild.model.AtomGroup
AtomGroup
p1459
(dp1460
g159
g1437
sg161
g8
((ltRp1461
sg17
g8
((lp1462
g1416
ag1408
ag1451
atRp1463
sg24
g25
sg13
g1
sbatRp1464
sg166
g8
((lp1465
(iccpnmr.chemBuild.model.Bond
Bond
p1466
(dp1467
g170
Nsg171
g172
sg24
g25
sg13
g1
sg17
g8
((lp1468
g1412
ag1451
atRp1469
sbatRp1470
sg176
I00
sbatRp1471
sg176
I00
sbsg155
g8
((lp1472
g1435
atRp1473
sg166
g8
((lp1474
(iccpnmr.chemBuild.model.Bond
Bond
p1475
(dp1476
g170
Nsg171
g172
sg24
g65
sg13
g1
sg17
g8
((lp1477
g1440
ag1392
atRp1478
sbatRp1479
sg176
I00
sbag1427
atRp1480
sg24
g65
sg13
g1
sbatRp1481
sg166
g8
((lp1482
(iccpnmr.chemBuild.model.Bond
Bond
p1483
(dp1484
g170
Nsg171
g172
sg24
g65
sg13
g1
sg17
g8
((lp1485
g1427
ag1392
atRp1486
sbatRp1487
sg176
I00
sbatRp1488
sg176
I00
sbsg155
g8
((lp1489
g1459
atRp1490
sg166
g8
((lp1491
(iccpnmr.chemBuild.model.Bond
Bond
p1492
(dp1493
g170
Nsg171
g172
sg24
g25
sg13
g1
sg17
g8
((lp1494
g1416
ag1412
atRp1495
sbatRp1496
sg176
I00
sbag1408
ag1323
ag1451
atRp1497
sg15
VC
sg53
I0
sg16
I00
sg54
(F341.09683753020823
F-73.019809719771359
F0
tp1498
sg56
(lp1499
sg58
(iccpnmr.chemBuild.model.Atom
Atom
p1500
(dp1501
g3
g1395
sg13
g1
sg14
I4
sg15
VC
sg16
I00
sg17
g8
((lp1502
g1412
ag1392
atRp1503
sg176
I00
sbsg155
g8
((ltRp1504
sg166
g8
((lp1505
(iccpnmr.chemBuild.model.Bond
Bond
p1506
(dp1507
g170
Nsg171
g243
sg24
g25
sg13
g1
sg17
g8
((lp1508
g1323
ag1412
atRp1509
sbag1492
a(iccpnmr.chemBuild.model.Bond
Bond
p1510
(dp1511
g170
Nsg171
g172
sg24
g25
sg13
g1
sg17
g8
((lp1512
g1412
ag1408
atRp1513
sbag1466
atRp1514
sg176
I00
sbatRp1515
sg15
S'H'
sg53
I0
sg16
I00
sg54
(F352.10319275019833
F-35.706374259288907
F0
tp1516
sg56
(lp1517
sg58
g1405
sg155
g8
((lp1518
g1459
atRp1519
sg166
g8
((lp1520
g1510
atRp1521
sg176
I00
sbatRp1522
sg176
I00
sbsg155
g8
((lp1523
g1435
atRp1524
sg166
g8
((lp1525
(iccpnmr.chemBuild.model.Bond
Bond
p1526
(dp1527
g170
Nsg171
g172
sg24
g65
sg13
g1
sg17
g8
((lp1528
g1397
ag1392
atRp1529
sbatRp1530
sg176
I00
sbag1440
ag1343
ag1427
atRp1531
sg15
VC
sg53
I0
sg16
I00
sg54
(F341.09683753020823
F-73.019809719771359
F0
tp1532
sg56
(lp1533
sg58
g1500
sg155
g8
((ltRp1534
sg166
g8
((lp1535
(iccpnmr.chemBuild.model.Bond
Bond
p1536
(dp1537
g170
Nsg171
g243
sg24
g65
sg13
g1
sg17
g8
((lp1538
g1343
ag1392
atRp1539
sbag1526
ag1483
ag1475
atRp1540
sg176
I00
sbatRp1541
sg15
VC
sg53
I0
sg16
I00
sg54
(F286.10410057234026
F-67.869354008460434
F0
tp1542
sg56
(lp1543
sg58
(iccpnmr.chemBuild.model.Atom
Atom
p1544
(dp1545
g3
g1326
sg13
g1
sg14
I4
sg15
VC
sg16
I00
sg17
g8
((lp1546
g1343
ag1323
atRp1547
sg176
I00
sbsg155
g8
((ltRp1548
sg166
g8
((lp1549
g1387
a(iccpnmr.chemBuild.model.Bond
Bond
p1550
(dp1551
g170
Nsg171
g243
sg24
g65
sg13
g1
sg17
g8
((lp1552
g1343
ag1339
atRp1553
sbag1536
a(iccpnmr.chemBuild.model.Bond
Bond
p1554
(dp1555
g170
Nsg171
g243
sg24
g65
sg13
g1
sg17
g8
((lp1556
g1343
ag1254
atRp1557
sbatRp1558
sg176
I00
sbatRp1559
sg15
S'H'
sg53
I0
sg16
I00
sg54
(F291.82420045229577
F-29.778775799654476
F0
tp1560
sg56
(lp1561
sg58
g1336
sg155
g8
((lp1562
g1380
atRp1563
sg166
g8
((lp1564
g1550
atRp1565
sg176
I00
sbag1328
atRp1566
sg176
I00
sbsg155
g8
((lp1567
g1366
atRp1568
sg166
g8
((lp1569
(iccpnmr.chemBuild.model.Bond
Bond
p1570
(dp1571
g170
Nsg171
g243
sg24
g25
sg13
g1
sg17
g8
((lp1572
g1323
ag1328
atRp1573
sbatRp1574
sg176
I00
sbag1358
ag1412
ag1274
atRp1575
sg15
VC
sg53
I0
sg16
I00
sg54
(F286.10410057234026
F-67.869354008460434
F0
tp1576
sg56
(lp1577
sg58
g1544
sg155
g8
((ltRp1578
sg166
g8
((lp1579
g1373
ag1506
ag1570
a(iccpnmr.chemBuild.model.Bond
Bond
p1580
(dp1581
g170
Nsg171
g243
sg24
g25
sg13
g1
sg17
g8
((lp1582
g1323
ag1274
atRp1583
sbatRp1584
sg176
I00
sbag1270
atRp1585
sg15
VC
sg53
I0
sg16
I00
sg54
(F230.31064335904094
F-61.488116942557731
F0
tp1586
sg56
(lp1587
sg58
(iccpnmr.chemBuild.model.Atom
Atom
p1588
(dp1589
g3
g1257
sg13
g1
sg14
I4
sg15
VC
sg16
I00
sg17
g8
((lp1590
g1254
ag1274
atRp1591
sg176
I00
sbsg155
g8
((ltRp1592
sg166
g8
((lp1593
g1318
ag1580
a(iccpnmr.chemBuild.model.Bond
Bond
p1594
(dp1595
g170
Nsg171
g243
sg24
g25
sg13
g1
sg17
g8
((lp1596
g37
ag1274
atRp1597
sba(iccpnmr.chemBuild.model.Bond
Bond
p1598
(dp1599
g170
Nsg171
g172
sg24
g25
sg13
g1
sg17
g8
((lp1600
g1270
ag1274
atRp1601
sbatRp1602
sg176
I00
sbatRp1603
sg15
S'H'
sg53
I0
sg16
I00
sg54
(F237.2709598472164
F-23.717753155315609
F0
tp1604
sg56
(lp1605
sg58
g1267
sg155
g8
((lp1606
g1311
atRp1607
sg166
g8
((lp1608
g1598
atRp1609
sg176
I00
sbatRp1610
sg176
I00
sbsg155
g8
((lp1611
g1297
atRp1612
sg166
g8
((lp1613
(iccpnmr.chemBuild.model.Bond
Bond
p1614
(dp1615
g170
Nsg171
g172
sg24
g65
sg13
g1
sg17
g8
((lp1616
g1259
ag1254
atRp1617
sbatRp1618
sg176
I00
sbag1343
ag1289
ag1186
atRp1619
sg15
VC
sg53
I0
sg16
I00
sg54
(F230.31064335904094
F-61.488116942557731
F0
tp1620
sg56
(lp1621
sg58
g1588
sg155
g8
((ltRp1622
sg166
g8
((lp1623
g1304
ag1614
ag1554
a(iccpnmr.chemBuild.model.Bond
Bond
p1624
(dp1625
g170
Nsg171
g243
sg24
g65
sg13
g1
sg17
g8
((lp1626
g1254
ag1186
atRp1627
sbatRp1628
sg176
I00
sbag1137
atRp1629
sg15
VC
sg53
I0
sg16
I00
sg54
(F174.82839347995653
F-50.111518821646058
F0
tp1630
sg56
(lp1631
sg58
(iccpnmr.chemBuild.model.Atom
Atom
p1632
(dp1633
g3
g40
sg13
g1
sg14
I4
sg15
VC
sg16
I00
sg17
g8
((lp1634
g37
ag1186
atRp1635
sg176
I00
sbsg155
g8
((ltRp1636
sg166
g8
((lp1637
g1249
a(iccpnmr.chemBuild.model.Bond
Bond
p1638
(dp1639
g170
Nsg171
g243
sg24
g65
sg13
g1
sg17
g8
((lp1640
g1186
ag1137
atRp1641
sbag1241
ag1624
atRp1642
sg176
I00
sbag62
atRp1643
sg15
VC
sg53
I0
sg16
I00
sg54
(F122.01581846752117
F-32.939549154779122
F0
tp1644
sg56
(lp1645
sg58
(iccpnmr.chemBuild.model.Atom
Atom
p1646
(dp1647
g3
g45
sg13
g1
sg14
I4
sg15
VC
sg16
I00
sg17
g8
((lp1648
g42
ag1137
atRp1649
sg176
I00
sbsg155
g8
((ltRp1650
sg166
g8
((lp1651
(iccpnmr.chemBuild.model.Bond
Bond
p1652
(dp1653
g170
Nsg171
g243
sg24
g65
sg13
g1
sg17
g8
((lp1654
g62
ag1137
atRp1655
sbag1181
ag1638
a(iccpnmr.chemBuild.model.Bond
Bond
p1656
(dp1657
g170
Nsg171
g243
sg24
g65
sg13
g1
sg17
g8
((lp1658
g1077
ag1137
atRp1659
sbatRp1660
sg176
I00
sbatRp1661
sg15
VC
sg53
I0
sg16
I00
sg54
(F75.833397464121106
F-9.4627777955178285
F0
tp1662
sg56
(lp1663
sg58
g1104
sg155
g8
((ltRp1664
sg166
g8
((lp1665
(iccpnmr.chemBuild.model.Bond
Bond
p1666
(dp1667
g170
Nsg171
g451
sg24
g65
sg13
g1
sg17
g8
((lp1668
g1073
ag1077
atRp1669
sbag1132
ag1656
atRp1670
sg176
I00
sbag74
atRp1671
sg15
VC
sg53
I0
sg16
I00
sg54
(F30.732608392000042
F-13.304201192592219
F0
tp1672
sg56
(lp1673
sg58
(iccpnmr.chemBuild.model.Atom
Atom
p1674
(dp1675
g3
g1056
sg13
g1
sg14
I4
sg15
VC
sg16
I00
sg17
g8
((lp1676
g1073
ag1053
atRp1677
sg176
I00
sbsg155
g8
((ltRp1678
sg166
g8
((lp1679
(iccpnmr.chemBuild.model.Bond
Bond
p1680
(dp1681
g170
Nsg171
g243
sg24
g65
sg13
g1
sg17
g8
((lp1682
g1073
ag1069
atRp1683
sba(iccpnmr.chemBuild.model.Bond
Bond
p1684
(dp1685
g170
Nsg171
g243
sg24
g65
sg13
g1
sg17
g8
((lp1686
g1073
ag74
atRp1687
sbag1666
atRp1688
sg176
I00
sbatRp1689
sg15
S'H'
sg53
I0
sg16
I00
sg54
(F16.163337607787355
F22.294464026809429
F0
tp1690
sg56
(lp1691
sg58
g1066
sg155
g8
((ltRp1692
sg166
g8
((lp1693
g1680
atRp1694
sg176
I00
sbatRp1695
sg176
I00
sbsg155
g8
((ltRp1696
sg166
g8
((lp1697
(iccpnmr.chemBuild.model.Bond
Bond
p1698
(dp1699
g170
Nsg171
g243
sg24
g25
sg13
g1
sg17
g8
((lp1700
g1058
ag1053
atRp1701
sbatRp1702
sg176
I00
sbag1097
ag1049
atRp1703
sg15
VC
sg53
I0
sg16
I00
sg54
(F30.732608392000042
F-13.304201192592219
F0
tp1704
sg56
(lp1705
sg58
g1674
sg155
g8
((ltRp1706
sg166
g8
((lp1707
(iccpnmr.chemBuild.model.Bond
Bond
p1708
(dp1709
g170
Nsg171
g243
sg24
g25
sg13
g1
sg17
g8
((lp1710
g1053
ag1049
atRp1711
sbag1698
ag1118
atRp1712
sg176
I00
sba(iccpnmr.chemBuild.model.VarAtom
VarAtom
p1713
(dp1714
g21
(lp1715
sg3
g72
sg23
I00
sg24
g25
sg13
g1
sg34
Nsg35
g8
((lp1716
g1049
atRp1717
sg15
S'H'
sg53
I0
sg16
I00
sg54
(F16.262798220237933
F-75.874396624014452
F0
tp1718
sg56
(lp1719
sg58
(iccpnmr.chemBuild.model.Atom
Atom
p1720
(dp1721
g3
g72
sg13
g1
sg14
I1
sg15
S'H'
sg16
I00
sg17
g8
((lp1722
g1713
ag69
atRp1723
sg176
I00
sbsg155
g8
((lp1724
(iccpnmr.chemBuild.model.AtomGroup
AtomGroup
p1725
(dp1726
g159
g160
sg161
g8
((ltRp1727
sg17
g8
((lp1728
(iccpnmr.chemBuild.model.VarAtom
VarAtom
p1729
(dp1730
g21
(lp1731
sg3
VH11_2
p1732
sg23
I00
sg24
g25
sg13
g1
sg34
Nsg35
g8
((lp1733
g1049
atRp1734
sg15
S'H'
sg53
I0
sg16
I00
sg54
(F-33.8863870078548
F-17.699667670016492
F0
tp1735
sg56
(lp1736
sg58
(iccpnmr.chemBuild.model.Atom
Atom
p1737
(dp1738
g3
g1732
sg13
g1
sg14
I1
sg15
S'H'
sg16
I00
sg17
g8
((lp1739
g1729
a(iccpnmr.chemBuild.model.VarAtom
VarAtom
p1740
(dp1741
g21
(lp1742
sg3
g1732
sg23
I00
sg24
g65
sg13
g1
sg34
Nsg35
g8
((lp1743
g74
atRp1744
sg15
S'H'
sg53
I0
sg16
I00
sg54
(F-33.8863870078548
F-17.699667670016492
F0
tp1745
sg56
(lp1746
sg58
g1737
sg155
g8
((lp1747
(iccpnmr.chemBuild.model.AtomGroup
AtomGroup
p1748
(dp1749
g159
g160
sg161
g8
((ltRp1750
sg17
g8
((lp1751
g1740
ag69
atRp1752
sg24
g65
sg13
g1
sbatRp1753
sg166
g8
((lp1754
(iccpnmr.chemBuild.model.Bond
Bond
p1755
(dp1756
g170
Nsg171
g243
sg24
g65
sg13
g1
sg17
g8
((lp1757
g74
ag1740
atRp1758
sbatRp1759
sg176
I00
sbatRp1760
sg176
I00
sbsg155
g8
((lp1761
g1725
atRp1762
sg166
g8
((lp1763
(iccpnmr.chemBuild.model.Bond
Bond
p1764
(dp1765
g170
Nsg171
g243
sg24
g25
sg13
g1
sg17
g8
((lp1766
g1049
ag1729
atRp1767
sbatRp1768
sg176
I00
sbag1713
atRp1769
sg24
g25
sg13
g1
sbatRp1770
sg166
g8
((lp1771
(iccpnmr.chemBuild.model.Bond
Bond
p1772
(dp1773
g170
Nsg171
g243
sg24
g25
sg13
g1
sg17
g8
((lp1774
g1049
ag1713
atRp1775
sbatRp1776
sg176
I00
sbag1729
atRp1777
sg15
VC
sg53
I0
sg16
I00
sg54
(F-8.6532944524563149
F-46.632762316779257
F0
tp1778
sg56
(lp1779
sg58
(iccpnmr.chemBuild.model.Atom
Atom
p1780
(dp1781
g3
g77
sg13
g1
sg14
I4
sg15
VC
sg16
I00
sg17
g8
((lp1782
g74
ag1049
atRp1783
sg176
I00
sbsg155
g8
((ltRp1784
sg166
g8
((lp1785
g1708
a(iccpnmr.chemBuild.model.Bond
Bond
p1786
(dp1787
g170
Nsg171
g243
sg24
g25
sg13
g1
sg17
g8
((lp1788
g1012
ag1049
atRp1789
sbag1764
ag1772
atRp1790
sg176
I00
sbag104
atRp1791
sg15
VC
sg53
I0
sg16
I00
sg54
(F-48.751547484800192
F-79.083007460418372
F0
tp1792
sg56
(lp1793
sg58
(iccpnmr.chemBuild.model.Atom
Atom
p1794
(dp1795
g3
g82
sg13
g1
sg14
I4
sg15
VC
sg16
I00
sg17
g8
((lp1796
g1012
ag79
atRp1797
sg176
I00
sbsg155
g8
((ltRp1798
sg166
g8
((lp1799
g1786
ag1044
a(iccpnmr.chemBuild.model.Bond
Bond
p1800
(dp1801
g170
Nsg171
g451
sg24
g25
sg13
g1
sg17
g8
((lp1802
g1012
ag104
atRp1803
sbatRp1804
sg176
I00
sbag100
atRp1805
sg15
VC
sg53
I0
sg16
I00
sg54
(F-93.964350937647637
F-80.454535733530008
F0
tp1806
sg56
(lp1807
sg58
(iccpnmr.chemBuild.model.Atom
Atom
p1808
(dp1809
g3
g87
sg13
g1
sg14
I4
sg15
VC
sg16
I00
sg17
g8
((lp1810
g84
ag104
atRp1811
sg176
I00
sbsg155
g8
((ltRp1812
sg166
g8
((lp1813
g1800
ag1007
a(iccpnmr.chemBuild.model.Bond
Bond
p1814
(dp1815
g170
Nsg171
g243
sg24
g25
sg13
g1
sg17
g8
((lp1816
g100
ag104
atRp1817
sbatRp1818
sg176
I00
sbatRp1819
sg15
S'H'
sg53
I0
sg16
I00
sg54
(F-99.574486823340891
F-118.54691765446367
F0
tp1820
sg56
(lp1821
sg58
g97
sg155
g8
((ltRp1822
sg166
g8
((lp1823
g1814
atRp1824
sg176
I00
sbag89
atRp1825
sg176
I00
sbsg155
g8
((ltRp1826
sg166
g8
((lp1827
(iccpnmr.chemBuild.model.Bond
Bond
p1828
(dp1829
g170
Nsg171
g243
sg24
g65
sg13
g1
sg17
g8
((lp1830
g84
ag89
atRp1831
sbatRp1832
sg176
I00
sbag860
atRp1833
sg15
VC
sg53
I0
sg16
I00
sg54
(F-93.964350937647637
F-80.454535733530008
F0
tp1834
sg56
(lp1835
sg58
g1808
sg155
g8
((ltRp1836
sg166
g8
((lp1837
g1828
a(iccpnmr.chemBuild.model.Bond
Bond
p1838
(dp1839
g170
Nsg171
g451
sg24
g65
sg13
g1
sg17
g8
((lp1840
g84
ag79
atRp1841
sbag957
atRp1842
sg176
I00
sbag74
ag1027
atRp1843
sg15
VC
sg53
I0
sg16
I00
sg54
(F-48.751547484800192
F-79.083007460418372
F0
tp1844
sg56
(lp1845
sg58
g1794
sg155
g8
((ltRp1846
sg166
g8
((lp1847
g1036
ag1838
a(iccpnmr.chemBuild.model.Bond
Bond
p1848
(dp1849
g170
Nsg171
g243
sg24
g65
sg13
g1
sg17
g8
((lp1850
g79
ag74
atRp1851
sbatRp1852
sg176
I00
sbag1073
ag1740
ag69
atRp1853
sg15
VC
sg53
I0
sg16
I00
sg54
(F-8.6532944524563149
F-46.632762316779257
F0
tp1854
sg56
(lp1855
sg58
g1780
sg155
g8
((ltRp1856
sg166
g8
((lp1857
(iccpnmr.chemBuild.model.Bond
Bond
p1858
(dp1859
g170
Nsg171
g243
sg24
g65
sg13
g1
sg17
g8
((lp1860
g74
ag69
atRp1861
sbag1755
ag1848
ag1684
atRp1862
sg176
I00
sbatRp1863
sg15
S'H'
sg53
I0
sg16
I00
sg54
(F16.262798220237933
F-75.874396624014452
F0
tp1864
sg56
(lp1865
sg58
g1720
sg155
g8
((lp1866
g1748
atRp1867
sg166
g8
((lp1868
g1858
atRp1869
sg176
I00
sbag89
ag1339
ag864
ag898
ag226
ag1082
ag1427
ag330
ag1289
ag594
ag1227
ag1141
ag137
ag727
ag196
ag510
ag582
ag300
ag1190
ag62
ag1740
ag129
ag1259
ag1397
ag1027
ag1347
ag277
ag1440
ag1069
ag498
atRp1870
sVC
g8
((lp1871
g285
ag290
ag1343
ag1254
ag1137
ag860
ag74
ag1073
ag281
ag295
ag84
ag1077
ag1392
ag384
ag133
ag79
ag191
ag1186
atRp1872
sS'O'
g8
((lp1873
g388
ag380
atRp1874
ssg166
g8
((lp1875
g1666
ag1848
ag1656
ag785
ag1614
ag1554
ag186
ag1036
ag241
ag692
ag953
ag845
ag449
ag781
ag1181
ag1550
ag702
ag553
ag1680
ag1858
ag913
ag855
ag604
ag435
ag1387
ag1483
ag1241
ag722
ag454
ag1755
ag1304
ag1638
ag1624
ag1132
ag939
ag1526
ag1838
ag1475
ag345
ag957
ag767
ag971
ag1652
ag1536
ag545
ag1828
ag1249
ag712
ag1684
ag612
atRp1876
sg13
g1
sS'descriptor'
p1877
(S'-H1'
S'none'
p1878
S'default'
p1879
tp1880
sS'atomDict'
p1881
(dp1882
g1198
g1190
sg10
g594
sg1066
g1069
sg97
g89
sg495
g498
sg327
g330
sg1646
g1137
sg1355
g1347
sg965
g133
sg1234
g1227
sg656
g290
sg518
g510
sg1544
g1343
sg1286
g1289
sg634
g285
sg443
g384
sg1808
g84
sg1737
g1740
sg274
g277
sg579
g582
sg819
g191
sg1024
g1027
sg204
g196
sg735
g727
sg1588
g1254
sg145
g137
sg895
g898
sg59
g62
sg1104
g1077
sg223
g226
sg126
g129
sg1500
g1392
sg670
g295
sg1720
g69
sg775
g281
sg308
g300
sg1267
g1259
sg1405
g1397
sg1780
g74
sg1632
g1186
sg1149
g1141
sg1424
g1427
sg1674
g1073
sg1794
g79
sg947
g860
sg1448
g1440
sg377
g380
sg1336
g1339
sg396
g388
sg1090
g1082
sg872
g864
ssg17
g8
((lp1883
g69
ag1077
ag1339
ag594
ag864
ag330
ag285
ag62
ag89
ag1082
ag1427
ag79
ag300
ag133
ag1289
ag196
ag290
ag1141
ag137
ag1343
ag727
ag295
ag1392
ag860
ag510
ag582
ag1027
ag191
ag1073
ag1254
ag388
ag1227
ag84
ag129
ag1137
ag226
ag384
ag1186
ag1740
ag380
ag1190
ag1259
ag1397
ag74
ag898
ag1347
ag277
ag281
ag1440
ag1069
ag498
atRp1884
sg155
g8
((lp1885
g179
ag1380
ag506
ag760
ag338
ag1174
ag906
ag234
ag1223
ag1748
ag590
ag1297
ag1435
atRp1886
sS'polyLink'
p1887
S'free'
p1888
sbsg13
g1
sg34
Nsg35
g8
((lp1889
g1137
atRp1890
sg15
S'H'
sg53
I0
sg16
I00
sg54
(F104.47174333532993
F-67.255042456139918
F0
tp1891
sg56
(lp1892
sg58
g59
sg155
g8
((lp1893
g1174
atRp1894
sg166
g8
((lp1895
g1652
atRp1896
sg176
I00
sbatRp1897
sg176
I00
sbsg155
g8
((lp1898
g1160
atRp1899
sg166
g8
((lp1900
(iccpnmr.chemBuild.model.Bond
Bond
p1901
(dp1902
g170
Nsg171
g243
sg24
g25
sg13
g1
sg17
g8
((lp1903
g42
ag47
atRp1904
sbatRp1905
sg176
I00
sbag1097
ag1152
atRp1906
sg15
VC
sg53
I0
sg16
I00
sg54
(F122.01581846752117
F-32.939549154779122
F0
tp1907
sg56
(lp1908
sg58
g1646
sg155
g8
((ltRp1909
sg166
g8
((lp1910
g1901
ag1167
a(iccpnmr.chemBuild.model.Bond
Bond
p1911
(dp1912
g170
Nsg171
g243
sg24
g25
sg13
g1
sg17
g8
((lp1913
g42
ag37
atRp1914
sbag1110
atRp1915
sg176
I00
sbag1201
ag30
ag1274
atRp1916
sg15
VC
sg53
I0
sg16
I00
sg54
(F174.82839347995653
F-50.111518821646058
F0
tp1917
sg56
(lp1918
sg58
g1632
sg155
g8
((ltRp1919
sg166
g8
((lp1920
(iccpnmr.chemBuild.model.Bond
Bond
p1921
(dp1922
g170
Nsg171
g172
sg24
g25
sg13
g1
sg17
g8
((lp1923
g37
ag30
atRp1924
sbag1911
ag1216
ag1594
atRp1925
sg176
I00
sbatRp1926
sg15
S'H'
sg53
I0
sg16
I00
sg54
(F184.53893128954846
F-12.974436985946241
F0
tp1927
sg56
(lp1928
sg58
g1234
sg155
g8
((lp1929
g1209
atRp1930
sg166
g8
((lp1931
g1921
atRp1932
sg176
I00
sbag1729
ag100
ag403
ag738
ag118
ag1713
ag1093
ag1016
ag1416
ag1278
ag215
ag1358
ag1152
ag571
ag1270
ag521
ag1058
ag207
ag311
ag1408
ag1451
ag148
ag1328
ag266
ag1201
ag47
ag875
ag887
ag19
ag487
ag319
atRp1933
sVC
g8
((lp1934
g1053
ag1412
ag315
ag42
ag1097
ag261
ag483
ag1012
ag37
ag364
ag1323
ag1049
ag104
ag108
ag211
ag1274
ag113
ag567
atRp1935
sS'O'
g8
((lp1936
g399
ag369
atRp1937
ssg166
g8
((lp1938
g1167
ag359
ag1466
ag1118
ag1800
ag1698
ag468
ag1814
ag1506
ag825
ag648
ag256
ag562
ag753
ag168
ag829
ag1492
ag1911
ag1110
ag417
ag1580
ag801
ag811
ag1570
ag1764
ag1044
ag644
ag930
ag1373
ag1114
ag1007
ag1318
ag1772
ag626
ag1921
ag1510
ag427
ag922
ag997
ag1594
ag1216
ag536
ag640
ag1901
ag1598
ag478
ag662
ag987
ag1708
ag1786
ag676
atRp1939
sg13
g1
sg1877
(S'+H1'
g1878
g1879
tp1940
sg1881
(dp1941
g1198
g1201
sg10
g19
sg97
g100
sg495
g487
sg327
g319
sg1646
g42
sg1355
g1358
sg965
g113
sg1234
g30
sg656
g483
sg411
g403
sg518
g521
sg1544
g1323
sg1286
g1278
sg634
g567
sg443
g364
sg1808
g104
sg1737
g1729
sg274
g266
sg579
g571
sg819
g211
sg1024
g1016
sg204
g207
sg735
g738
sg1588
g1274
sg1066
g1058
sg895
g887
sg59
g47
sg1104
g1097
sg223
g215
sg126
g118
sg1500
g1412
sg670
g315
sg1720
g1713
sg145
g148
sg775
g261
sg308
g311
sg1267
g1270
sg1405
g1408
sg1780
g1049
sg1632
g37
sg1149
g1152
sg1424
g1416
sg1674
g1053
sg1794
g1012
sg947
g108
sg1448
g1451
sg377
g369
sg1336
g1328
sg396
g399
sg1090
g1093
sg872
g875
ssg17
g8
((lp1942
g261
ag399
ag30
ag1729
ag100
ag311
ag403
ag738
ag104
ag118
ag1713
ag1093
ag1016
ag1416
ag1278
ag364
ag1323
ag1049
ag215
ag1451
ag1358
ag1274
ag1053
ag571
ag1012
ag1270
ag521
ag1201
ag266
ag207
ag1412
ag108
ag211
ag1408
ag567
ag148
ag1328
ag315
ag1058
ag42
ag319
ag1097
ag483
ag875
ag37
ag887
ag19
ag1152
ag487
ag113
ag47
ag369
atRp1943
sg155
g8
((lp1944
g1725
ag1459
ag529
ag883
ag619
ag352
ag1160
ag746
ag1311
ag249
ag157
ag1366
ag1209
atRp1945
sg1887
g1888
sbsg13
g1
sg34
Nsg35
g8
((lp1946
g567
atRp1947
sg15
S'H'
sg53
I0
sg16
I00
sg54
(F-362.90747099639555
F5.8848039919637962
F0
tp1948
sg56
(lp1949
sg58
g10
sg155
g8
((lp1950
g619
atRp1951
sg166
g8
((lp1952
g648
atRp1953
sg176
I00
sbag594
atRp1954
sg176
I00
sbag97
ag495
ag327
ag1646
ag1355
ag965
ag1234
ag1024
ag656
ag411
ag518
ag1544
ag1286
ag634
ag443
ag1808
ag1737
ag274
ag579
ag819
ag1267
ag204
ag735
ag1588
ag1066
ag895
ag59
ag1104
ag223
ag126
ag1500
ag670
ag1720
ag145
ag775
ag308
ag1198
ag1405
ag1780
ag1632
ag1149
ag1424
ag1674
ag1794
ag947
ag1448
ag377
ag1336
ag396
ag1090
ag872
atRp1955
sS'ccpMolType'
p1956
S'other'
p1957
sS'details'
p1958
V
sg1881
(dp1959
g1193
g1198
sg867
g872
sg890
g895
sg1395
g1500
sg1080
g1104
sg1056
g1674
sg77
g1780
sg82
g1794
sg1326
g1544
sg1257
g1588
sg391
g396
sg45
g1646
sg574
g579
sg12
g10
sg513
g518
sg372
g377
sg490
g495
sg87
g1808
sg111
g947
sg1443
g1448
sg40
g1632
sg1419
g1424
sg293
g656
sg298
g670
sg367
g443
sg1262
g1267
sg194
g819
sg1400
g1405
sg140
g145
sg121
g126
sg1350
g1355
sg1331
g1336
sg1019
g1024
sg218
g223
sg1061
g1066
sg1085
g1090
sg199
g204
sg322
g327
sg303
g308
sg1281
g1286
sg1144
g1149
sg50
g59
sg92
g97
sg33
g1234
sg116
g965
sg406
g411
sg269
g274
sg730
g735
sg1732
g1737
sg264
g775
sg72
g1720
sg288
g634
ssS'keywords'
p1960
g8
((ltRp1961
sg155
g8
((lp1962
g506
ag619
ag1160
ag760
ag746
ag1380
ag1435
ag179
ag338
ag1366
ag906
ag1223
ag157
ag1311
ag1459
ag352
ag1725
ag1174
ag234
ag1748
ag590
ag529
ag883
ag1297
ag249
ag1209
atRp1963
sS'variants'
p1964
g8
((lp1965
g65
ag25
atRp1966
sS'defaultVars'
p1967
g8
((ltRp1968
sb.