(iccpnmr.chemBuild.model.Compound
Compound
p1
(dp2
S'name'
p3
S'Unnamed'
p4
sS'isModified'
p5
I01
sS'ccpCode'
p6
NsS'atoms'
p7
c__builtin__
set
p8
((lp9
(iccpnmr.chemBuild.model.Atom
Atom
p10
(dp11
g3
VC16
p12
sS'compound'
p13
g1
sS'baseValences'
p14
I4
sS'element'
p15
VC
sS'isVariable'
p16
I00
sS'varAtoms'
p17
g8
((lp18
(iccpnmr.chemBuild.model.VarAtom
VarAtom
p19
(dp20
S'stereo'
p21
(lp22
sS'neighbours'
p23
g8
((lp24
(iccpnmr.chemBuild.model.VarAtom
VarAtom
p25
(dp26
g21
(lp27
sg23
g8
((lp28
g19
atRp29
sg3
VH16_2
p30
sS'isLabile'
p31
I00
sS'chirality'
p32
Nsg13
g1
sS'variant'
p33
(iccpnmr.chemBuild.model.Variant
Variant
p34
(dp35
S'elementDict'
p36
(dp37
S'H'
g8
((lp38
(iccpnmr.chemBuild.model.VarAtom
VarAtom
p39
(dp40
g21
(lp41
sg23
g8
((lp42
(iccpnmr.chemBuild.model.VarAtom
VarAtom
p43
(dp44
g21
(lp45
sg23
g8
((lp46
g39
a(iccpnmr.chemBuild.model.VarAtom
VarAtom
p47
(dp48
g21
(lp49
sg23
g8
((lp50
g43
atRp51
sg3
VH18_2
p52
sg31
I00
sg32
Nsg13
g1
sg33
g34
sS'charge'
p53
I0
sg15
S'H'
sg16
I00
sS'coords'
p54
(F338.70125493231444
F-272.17352661275061
F0.77646314442761599
tp55
sS'freeValences'
p56
(lp57
sS'atom'
p58
(iccpnmr.chemBuild.model.Atom
Atom
p59
(dp60
g3
g52
sg13
g1
sg14
I1
sg15
S'H'
sg16
I00
sg17
g8
((lp61
g47
a(iccpnmr.chemBuild.model.VarAtom
VarAtom
p62
(dp63
g21
(lp64
sg23
g8
((lp65
(iccpnmr.chemBuild.model.VarAtom
VarAtom
p66
(dp67
g21
(lp68
sg23
g8
((lp69
(iccpnmr.chemBuild.model.VarAtom
VarAtom
p70
(dp71
g21
(lp72
sg23
g8
((lp73
g66
atRp74
sg3
VH18_1
p75
sg31
I00
sg32
Nsg13
g1
sg33
(iccpnmr.chemBuild.model.Variant
Variant
p76
(dp77
g36
(dp78
S'H'
g8
((lp79
(iccpnmr.chemBuild.model.VarAtom
VarAtom
p80
(dp81
g21
(lp82
sg23
g8
((lp83
(iccpnmr.chemBuild.model.VarAtom
VarAtom
p84
(dp85
g21
(lp86
sg23
g8
((lp87
g80
a(iccpnmr.chemBuild.model.VarAtom
VarAtom
p88
(dp89
g21
(lp90
sg23
g8
((lp91
(iccpnmr.chemBuild.model.VarAtom
VarAtom
p92
(dp93
g21
(lp94
sg23
g8
((lp95
g88
atRp96
sg3
VH12_1
p97
sg31
I00
sg32
Nsg13
g1
sg33
g76
sg53
I0
sg15
S'H'
sg16
I00
sg54
(F38.874386990674466
F-278.30830705921471
F0.91443869107560816
tp98
sg56
(lp99
sg58
(iccpnmr.chemBuild.model.Atom
Atom
p100
(dp101
g3
g97
sg13
g1
sg14
I1
sg15
S'H'
sg16
I00
sg17
g8
((lp102
(iccpnmr.chemBuild.model.VarAtom
VarAtom
p103
(dp104
g21
(lp105
sg23
g8
((lp106
(iccpnmr.chemBuild.model.VarAtom
VarAtom
p107
(dp108
g21
(lp109
sg23
g8
((lp110
(iccpnmr.chemBuild.model.VarAtom
VarAtom
p111
(dp112
g21
(lp113
sg23
g8
((lp114
g107
a(iccpnmr.chemBuild.model.VarAtom
VarAtom
p115
(dp116
g21
(lp117
sg23
g8
((lp118
g111
atRp119
sg3
VH11_2
p120
sg31
I00
sg32
Nsg13
g1
sg33
g34
sg53
I0
sg15
S'H'
sg16
I00
sg54
(F-3.2129725557814339
F-309.79378133307114
F0.17175056435750924
tp121
sg56
(lp122
sg58
(iccpnmr.chemBuild.model.Atom
Atom
p123
(dp124
g3
g120
sg13
g1
sg14
I1
sg15
S'H'
sg16
I00
sg17
g8
((lp125
g115
a(iccpnmr.chemBuild.model.VarAtom
VarAtom
p126
(dp127
g21
(lp128
sg23
g8
((lp129
g84
atRp130
sg3
g120
sg31
I00
sg32
Nsg13
g1
sg33
g76
sg53
I0
sg15
S'H'
sg16
I00
sg54
(F-3.2129725557814339
F-309.79378133307114
F0.17175056435750924
tp131
sg56
(lp132
sg58
g123
sS'atomGroups'
p133
g8
((lp134
(iccpnmr.chemBuild.model.AtomGroup
AtomGroup
p135
(dp136
S'groupType'
p137
S'prochiral'
p138
sS'subGroups'
p139
g8
((ltRp140
sg17
g8
((lp141
g80
ag126
atRp142
sg33
g76
sg13
g1
sbatRp143
sS'bonds'
p144
g8
((lp145
(iccpnmr.chemBuild.model.Bond
Bond
p146
(dp147
S'bondType'
p148
S'single'
p149
sS'direction'
p150
Nsg13
g1
sg33
g76
sg17
g8
((lp151
g126
ag84
atRp152
sbatRp153
sS'isDeleted'
p154
I00
sbatRp155
sg154
I00
sbsg133
g8
((lp156
(iccpnmr.chemBuild.model.AtomGroup
AtomGroup
p157
(dp158
g137
g138
sg139
g8
((ltRp159
sg17
g8
((lp160
g115
a(iccpnmr.chemBuild.model.VarAtom
VarAtom
p161
(dp162
g21
(lp163
sg23
g8
((lp164
g111
atRp165
sg3
VH11_1
p166
sg31
I00
sg32
Nsg13
g1
sg33
g34
sg53
I0
sg15
S'H'
sg16
I00
sg54
(F-49.529134976341922
F-248.98149200928842
F0.55367420342266094
tp167
sg56
(lp168
sg58
(iccpnmr.chemBuild.model.Atom
Atom
p169
(dp170
g3
g166
sg13
g1
sg14
I1
sg15
S'H'
sg16
I00
sg17
g8
((lp171
g80
ag161
atRp172
sg154
I00
sbsg133
g8
((lp173
g157
atRp174
sg144
g8
((lp175
(iccpnmr.chemBuild.model.Bond
Bond
p176
(dp177
g148
g149
sg150
Nsg13
g1
sg33
g34
sg17
g8
((lp178
g111
ag161
atRp179
sbatRp180
sg154
I00
sbatRp181
sg33
g34
sg13
g1
sbatRp182
sg144
g8
((lp183
(iccpnmr.chemBuild.model.Bond
Bond
p184
(dp185
g148
g149
sg150
Nsg13
g1
sg33
g34
sg17
g8
((lp186
g115
ag111
atRp187
sbatRp188
sg154
I00
sbag161
a(iccpnmr.chemBuild.model.VarAtom
VarAtom
p189
(dp190
g21
(lp191
sg23
g8
((lp192
(iccpnmr.chemBuild.model.VarAtom
VarAtom
p193
(dp194
g21
(lp195
sg23
g8
((lp196
(iccpnmr.chemBuild.model.VarAtom
VarAtom
p197
(dp198
g21
(lp199
sg23
g8
((lp200
g193
atRp201
sg3
VH9
p202
sg31
I00
sg32
Nsg13
g1
sg33
g34
sg53
I0
sg15
S'H'
sg16
I00
sg54
(F-110.19552182533674
F-355.45805571665505
F0.27089445304887416
tp203
sg56
(lp204
sg58
(iccpnmr.chemBuild.model.Atom
Atom
p205
(dp206
g3
g202
sg13
g1
sg14
I1
sg15
S'H'
sg16
I00
sg17
g8
((lp207
g197
a(iccpnmr.chemBuild.model.VarAtom
VarAtom
p208
(dp209
g21
(lp210
sg23
g8
((lp211
(iccpnmr.chemBuild.model.VarAtom
VarAtom
p212
(dp213
g21
(lp214
sg23
g8
((lp215
(iccpnmr.chemBuild.model.VarAtom
VarAtom
p216
(dp217
g21
(lp218
sg23
g8
((lp219
(iccpnmr.chemBuild.model.VarAtom
VarAtom
p220
(dp221
g21
(lp222
sg23
g8
((lp223
g216
a(iccpnmr.chemBuild.model.VarAtom
VarAtom
p224
(dp225
g21
(lp226
sg23
g8
((lp227
g220
atRp228
sg3
VH7_1
p229
sg31
I00
sg32
Nsg13
g1
sg33
g76
sg53
I0
sg15
S'H'
sg16
I00
sg54
(F-184.52837796671429
F-231.79150451875492
F0.57306524173288731
tp230
sg56
(lp231
sg58
(iccpnmr.chemBuild.model.Atom
Atom
p232
(dp233
g3
g229
sg13
g1
sg14
I1
sg15
S'H'
sg16
I00
sg17
g8
((lp234
(iccpnmr.chemBuild.model.VarAtom
VarAtom
p235
(dp236
g21
(lp237
sg23
g8
((lp238
(iccpnmr.chemBuild.model.VarAtom
VarAtom
p239
(dp240
g21
(lp241
sg23
g8
((lp242
(iccpnmr.chemBuild.model.VarAtom
VarAtom
p243
(dp244
g21
(lp245
sg23
g8
((lp246
(iccpnmr.chemBuild.model.VarAtom
VarAtom
p247
(dp248
g21
(lp249
sg23
g8
((lp250
(iccpnmr.chemBuild.model.VarAtom
VarAtom
p251
(dp252
g21
(lp253
sg23
g8
((lp254
g247
a(iccpnmr.chemBuild.model.VarAtom
VarAtom
p255
(dp256
g21
(lp257
sg23
g8
((lp258
g251
atRp259
sg3
VH4_1
p260
sg31
I00
sg32
Nsg13
g1
sg33
g34
sg53
I0
sg15
S'H'
sg16
I00
sg54
(F-360.96684201544315
F-287.90293356676125
F0.75149475833516588
tp261
sg56
(lp262
sg58
(iccpnmr.chemBuild.model.Atom
Atom
p263
(dp264
g3
g260
sg13
g1
sg14
I1
sg15
S'H'
sg16
I00
sg17
g8
((lp265
(iccpnmr.chemBuild.model.VarAtom
VarAtom
p266
(dp267
g21
(lp268
sg23
g8
((lp269
(iccpnmr.chemBuild.model.VarAtom
VarAtom
p270
(dp271
g21
(lp272
sg23
g8
((lp273
(iccpnmr.chemBuild.model.VarAtom
VarAtom
p274
(dp275
g21
(lp276
sg23
g8
((lp277
g270
atRp278
sg3
VH4_2
p279
sg31
I00
sg32
Nsg13
g1
sg33
g76
sg53
I0
sg15
S'H'
sg16
I00
sg54
(F-360.36760379694471
F-210.86430492869189
F0.90780114323880479
tp280
sg56
(lp281
sg58
(iccpnmr.chemBuild.model.Atom
Atom
p282
(dp283
g3
g279
sg13
g1
sg14
I1
sg15
S'H'
sg16
I00
sg17
g8
((lp284
(iccpnmr.chemBuild.model.VarAtom
VarAtom
p285
(dp286
g21
(lp287
sg23
g8
((lp288
g251
atRp289
sg3
g279
sg31
I00
sg32
Nsg13
g1
sg33
g34
sg53
I0
sg15
S'H'
sg16
I00
sg54
(F-360.36760379694471
F-210.86430492869189
F0.90780114323880479
tp290
sg56
(lp291
sg58
g282
sg133
g8
((lp292
(iccpnmr.chemBuild.model.AtomGroup
AtomGroup
p293
(dp294
g137
g138
sg139
g8
((ltRp295
sg17
g8
((lp296
g285
ag255
atRp297
sg33
g34
sg13
g1
sbatRp298
sg144
g8
((lp299
(iccpnmr.chemBuild.model.Bond
Bond
p300
(dp301
g148
g149
sg150
Nsg13
g1
sg33
g34
sg17
g8
((lp302
g251
ag285
atRp303
sbatRp304
sg154
I00
sbag274
atRp305
sg154
I00
sbsg133
g8
((lp306
(iccpnmr.chemBuild.model.AtomGroup
AtomGroup
p307
(dp308
g137
g138
sg139
g8
((ltRp309
sg17
g8
((lp310
g266
ag274
atRp311
sg33
g76
sg13
g1
sbatRp312
sg144
g8
((lp313
(iccpnmr.chemBuild.model.Bond
Bond
p314
(dp315
g148
g149
sg150
Nsg13
g1
sg33
g76
sg17
g8
((lp316
g270
ag274
atRp317
sbatRp318
sg154
I00
sba(iccpnmr.chemBuild.model.VarAtom
VarAtom
p319
(dp320
g21
(lp321
sg23
g8
((lp322
g270
a(iccpnmr.chemBuild.model.VarAtom
VarAtom
p323
(dp324
g21
(lp325
sg23
g8
((lp326
g319
atRp327
sg3
VH3_2
p328
sg31
I00
sg32
Nsg13
g1
sg33
g76
sg53
I0
sg15
S'H'
sg16
I00
sg54
(F-417.5079340465748
F-213.59019509257658
F0.33998263281022612
tp329
sg56
(lp330
sg58
(iccpnmr.chemBuild.model.Atom
Atom
p331
(dp332
g3
g328
sg13
g1
sg14
I1
sg15
S'H'
sg16
I00
sg17
g8
((lp333
g323
a(iccpnmr.chemBuild.model.VarAtom
VarAtom
p334
(dp335
g21
(lp336
sg23
g8
((lp337
(iccpnmr.chemBuild.model.VarAtom
VarAtom
p338
(dp339
g21
(lp340
sg23
g8
((lp341
g251
a(iccpnmr.chemBuild.model.VarAtom
VarAtom
p342
(dp343
g21
(lp344
sg23
g8
((lp345
(iccpnmr.chemBuild.model.VarAtom
VarAtom
p346
(dp347
g21
(lp348
sg23
g8
((lp349
(iccpnmr.chemBuild.model.VarAtom
VarAtom
p350
(dp351
g21
(lp352
sg23
g8
((lp353
g346
atRp354
sg3
S'O2'
p355
sg31
I00
sg32
Nsg13
g1
sg33
g34
sg53
I0
sg15
S'O'
sg16
I00
sg54
(F-551.17227287896253
F-227.58544839910505
F0.7870655509594352
tp356
sg56
(lp357
sg58
(iccpnmr.chemBuild.model.Atom
Atom
p358
(dp359
g3
g355
sg13
g1
sg14
I2
sg15
S'O'
sg16
I00
sg17
g8
((lp360
g350
a(iccpnmr.chemBuild.model.VarAtom
VarAtom
p361
(dp362
g21
(lp363
sg23
g8
((lp364
(iccpnmr.chemBuild.model.VarAtom
VarAtom
p365
(dp366
g21
(lp367
sg23
g8
((lp368
(iccpnmr.chemBuild.model.VarAtom
VarAtom
p369
(dp370
g21
(lp371
sg23
g8
((lp372
g365
a(iccpnmr.chemBuild.model.VarAtom
VarAtom
p373
(dp374
g21
(lp375
sg23
g8
((lp376
g369
atRp377
sg3
S'H1'
p378
sg31
I01
sg32
Nsg13
g1
sg33
g76
sg53
I0
sg15
S'H'
sg16
I01
sg54
(F-574.8990836100171
F-325.75774253315785
F0.083210778426560883
tp379
sg56
(lp380
sg58
(iccpnmr.chemBuild.model.Atom
Atom
p381
(dp382
g3
g378
sg13
g1
sg14
I1
sg15
S'H'
sg16
I01
sg17
g8
((lp383
g373
atRp384
sg154
I00
sbsg133
g8
((ltRp385
sg144
g8
((lp386
(iccpnmr.chemBuild.model.Bond
Bond
p387
(dp388
g148
g149
sg150
Nsg13
g1
sg33
g76
sg17
g8
((lp389
g369
ag373
atRp390
sbatRp391
sg154
I00
sbatRp392
sg3
S'O1'
p393
sg31
I00
sg32
Nsg13
g1
sg33
g76
sg53
I0
sg15
S'O'
sg16
I00
sg54
(F-551.04190627977221
F-296.58546105722519
F0.9235461985589124
tp394
sg56
(lp395
sg58
(iccpnmr.chemBuild.model.Atom
Atom
p396
(dp397
g3
g393
sg13
g1
sg14
I2
sg15
S'O'
sg16
I00
sg17
g8
((lp398
g369
a(iccpnmr.chemBuild.model.VarAtom
VarAtom
p399
(dp400
g21
(lp401
sg23
g8
((lp402
g346
atRp403
sg3
g393
sg31
I00
sg32
Nsg13
g1
sg33
g34
sg53
I-1
sg15
S'O'
sg16
I00
sg54
(F-551.04190627977221
F-296.58546105722519
F0.9235461985589124
tp404
sg56
(lp405
sg58
g396
sg133
g8
((ltRp406
sg144
g8
((lp407
(iccpnmr.chemBuild.model.Bond
Bond
p408
(dp409
g148
g149
sg150
Nsg13
g1
sg33
g34
sg17
g8
((lp410
g346
ag399
atRp411
sbatRp412
sg154
I00
sbatRp413
sg154
I00
sbsg133
g8
((ltRp414
sg144
g8
((lp415
(iccpnmr.chemBuild.model.Bond
Bond
p416
(dp417
g148
g149
sg150
Nsg13
g1
sg33
g76
sg17
g8
((lp418
g365
ag369
atRp419
sbag387
atRp420
sg154
I00
sbag361
a(iccpnmr.chemBuild.model.VarAtom
VarAtom
p421
(dp422
g21
(lp423
sg23
g8
((lp424
(iccpnmr.chemBuild.model.VarAtom
VarAtom
p425
(dp426
g21
(lp427
sg23
g8
((lp428
g421
atRp429
sg3
VH2_2
p430
sg31
I00
sg32
Nsg13
g1
sg33
g76
sg53
I0
sg15
S'H'
sg16
I00
sg54
(F-476.59047363322497
F-217.27947041020664
F0.44638135373226739
tp431
sg56
(lp432
sg58
(iccpnmr.chemBuild.model.Atom
Atom
p433
(dp434
g3
g430
sg13
g1
sg14
I1
sg15
S'H'
sg16
I00
sg17
g8
((lp435
(iccpnmr.chemBuild.model.VarAtom
VarAtom
p436
(dp437
g21
(lp438
sg23
g8
((lp439
g342
atRp440
sg3
g430
sg31
I00
sg32
Nsg13
g1
sg33
g34
sg53
I0
sg15
S'H'
sg16
I00
sg54
(F-476.59047363322497
F-217.27947041020664
F0.44638135373226739
tp441
sg56
(lp442
sg58
g433
sg133
g8
((lp443
(iccpnmr.chemBuild.model.AtomGroup
AtomGroup
p444
(dp445
g137
g138
sg139
g8
((ltRp446
sg17
g8
((lp447
(iccpnmr.chemBuild.model.VarAtom
VarAtom
p448
(dp449
g21
(lp450
sg23
g8
((lp451
g342
atRp452
sg3
VH2_1
p453
sg31
I00
sg32
Nsg13
g1
sg33
g34
sg53
I0
sg15
S'H'
sg16
I00
sg54
(F-473.6881104152435
F-292.86312407331695
F0.18664712197501243
tp454
sg56
(lp455
sg58
(iccpnmr.chemBuild.model.Atom
Atom
p456
(dp457
g3
g453
sg13
g1
sg14
I1
sg15
S'H'
sg16
I00
sg17
g8
((lp458
g448
a(iccpnmr.chemBuild.model.VarAtom
VarAtom
p459
(dp460
g21
(lp461
sg23
g8
((lp462
g421
atRp463
sg3
g453
sg31
I00
sg32
Nsg13
g1
sg33
g76
sg53
I0
sg15
S'H'
sg16
I00
sg54
(F-473.6881104152435
F-292.86312407331695
F0.18664712197501243
tp464
sg56
(lp465
sg58
g456
sg133
g8
((lp466
(iccpnmr.chemBuild.model.AtomGroup
AtomGroup
p467
(dp468
g137
g138
sg139
g8
((ltRp469
sg17
g8
((lp470
g459
ag425
atRp471
sg33
g76
sg13
g1
sbatRp472
sg144
g8
((lp473
(iccpnmr.chemBuild.model.Bond
Bond
p474
(dp475
g148
g149
sg150
Nsg13
g1
sg33
g76
sg17
g8
((lp476
g459
ag421
atRp477
sbatRp478
sg154
I00
sbatRp479
sg154
I00
sbsg133
g8
((lp480
g444
atRp481
sg144
g8
((lp482
(iccpnmr.chemBuild.model.Bond
Bond
p483
(dp484
g148
g149
sg150
Nsg13
g1
sg33
g34
sg17
g8
((lp485
g448
ag342
atRp486
sbatRp487
sg154
I00
sbag436
atRp488
sg33
g34
sg13
g1
sbatRp489
sg144
g8
((lp490
(iccpnmr.chemBuild.model.Bond
Bond
p491
(dp492
g148
g149
sg150
Nsg13
g1
sg33
g34
sg17
g8
((lp493
g342
ag436
atRp494
sbatRp495
sg154
I00
sbag425
atRp496
sg154
I00
sbsg133
g8
((lp497
g467
atRp498
sg144
g8
((lp499
(iccpnmr.chemBuild.model.Bond
Bond
p500
(dp501
g148
g149
sg150
Nsg13
g1
sg33
g76
sg17
g8
((lp502
g421
ag425
atRp503
sbatRp504
sg154
I00
sbag319
ag365
ag459
atRp505
sg3
VC2
p506
sg31
I00
sg32
Nsg13
g1
sg33
g76
sg53
I0
sg15
VC
sg16
I00
sg54
(F-467.55006545743674
F-254.77399619539361
F0.48434379008572126
tp507
sg56
(lp508
sg58
(iccpnmr.chemBuild.model.Atom
Atom
p509
(dp510
g3
g506
sg13
g1
sg14
I4
sg15
VC
sg16
I00
sg17
g8
((lp511
g342
ag421
atRp512
sg154
I00
sbsg133
g8
((ltRp513
sg144
g8
((lp514
(iccpnmr.chemBuild.model.Bond
Bond
p515
(dp516
g148
g149
sg150
Nsg13
g1
sg33
g76
sg17
g8
((lp517
g319
ag421
atRp518
sba(iccpnmr.chemBuild.model.Bond
Bond
p519
(dp520
g148
g149
sg150
Nsg13
g1
sg33
g76
sg17
g8
((lp521
g365
ag421
atRp522
sbag500
ag474
atRp523
sg154
I00
sbatRp524
sg3
VC1
p525
sg31
I00
sg32
Nsg13
g1
sg33
g76
sg53
I0
sg15
VC
sg16
I00
sg54
(F-518.86270948147967
F-257.51105004509577
F0.26555006705934081
tp526
sg56
(lp527
sg58
(iccpnmr.chemBuild.model.Atom
Atom
p528
(dp529
g3
g525
sg13
g1
sg14
I4
sg15
VC
sg16
I00
sg17
g8
((lp530
g346
ag365
atRp531
sg154
I00
sbsg133
g8
((ltRp532
sg144
g8
((lp533
g519
a(iccpnmr.chemBuild.model.Bond
Bond
p534
(dp535
g148
S'double'
p536
sg150
Nsg13
g1
sg33
g76
sg17
g8
((lp537
g365
ag361
atRp538
sbag416
atRp539
sg154
I00
sbatRp540
sg3
g355
sg31
I00
sg32
Nsg13
g1
sg33
g76
sg53
I0
sg15
S'O'
sg16
I00
sg54
(F-551.17227287896253
F-227.58544839910505
F0.7870655509594352
tp541
sg56
(lp542
sg58
g358
sg133
g8
((ltRp543
sg144
g8
((lp544
g534
atRp545
sg154
I00
sbatRp546
sg154
I00
sbsg133
g8
((ltRp547
sg144
g8
((lp548
(iccpnmr.chemBuild.model.Bond
Bond
p549
(dp550
g148
g536
sg150
Nsg13
g1
sg33
g34
sg17
g8
((lp551
g346
ag350
atRp552
sbatRp553
sg154
I00
sbag342
ag399
atRp554
sg3
g525
sg31
I00
sg32
Nsg13
g1
sg33
g34
sg53
I0
sg15
VC
sg16
I00
sg54
(F-518.86270948147967
F-257.51105004509577
F0.26555006705934081
tp555
sg56
(lp556
sg58
g528
sg133
g8
((ltRp557
sg144
g8
((lp558
g408
ag549
a(iccpnmr.chemBuild.model.Bond
Bond
p559
(dp560
g148
g149
sg150
Nsg13
g1
sg33
g34
sg17
g8
((lp561
g346
ag342
atRp562
sbatRp563
sg154
I00
sbag448
ag436
ag338
atRp564
sg3
g506
sg31
I00
sg32
Nsg13
g1
sg33
g34
sg53
I0
sg15
VC
sg16
I00
sg54
(F-467.55006545743674
F-254.77399619539361
F0.48434379008572126
tp565
sg56
(lp566
sg58
g509
sg133
g8
((ltRp567
sg144
g8
((lp568
(iccpnmr.chemBuild.model.Bond
Bond
p569
(dp570
g148
g149
sg150
Nsg13
g1
sg33
g34
sg17
g8
((lp571
g342
ag338
atRp572
sbag491
ag483
ag559
atRp573
sg154
I00
sba(iccpnmr.chemBuild.model.VarAtom
VarAtom
p574
(dp575
g21
(lp576
sg23
g8
((lp577
g338
atRp578
sg3
VH3_1
p579
sg31
I00
sg32
Nsg13
g1
sg33
g34
sg53
I0
sg15
S'H'
sg16
I00
sg54
(F-415.36976855116825
F-290.64918744040153
F0.15594973033755311
tp580
sg56
(lp581
sg58
(iccpnmr.chemBuild.model.Atom
Atom
p582
(dp583
g3
g579
sg13
g1
sg14
I1
sg15
S'H'
sg16
I00
sg17
g8
((lp584
(iccpnmr.chemBuild.model.VarAtom
VarAtom
p585
(dp586
g21
(lp587
sg23
g8
((lp588
g319
atRp589
sg3
g579
sg31
I00
sg32
Nsg13
g1
sg33
g76
sg53
I0
sg15
S'H'
sg16
I00
sg54
(F-415.36976855116825
F-290.64918744040153
F0.15594973033755311
tp590
sg56
(lp591
sg58
g582
sg133
g8
((lp592
(iccpnmr.chemBuild.model.AtomGroup
AtomGroup
p593
(dp594
g137
g138
sg139
g8
((ltRp595
sg17
g8
((lp596
g323
ag585
atRp597
sg33
g76
sg13
g1
sbatRp598
sg144
g8
((lp599
(iccpnmr.chemBuild.model.Bond
Bond
p600
(dp601
g148
g149
sg150
Nsg13
g1
sg33
g76
sg17
g8
((lp602
g319
ag585
atRp603
sbatRp604
sg154
I00
sbag574
atRp605
sg154
I00
sbsg133
g8
((lp606
(iccpnmr.chemBuild.model.AtomGroup
AtomGroup
p607
(dp608
g137
g138
sg139
g8
((ltRp609
sg17
g8
((lp610
g334
ag574
atRp611
sg33
g34
sg13
g1
sbatRp612
sg144
g8
((lp613
(iccpnmr.chemBuild.model.Bond
Bond
p614
(dp615
g148
g149
sg150
Nsg13
g1
sg33
g34
sg17
g8
((lp616
g574
ag338
atRp617
sbatRp618
sg154
I00
sbag334
atRp619
sg3
VC3
p620
sg31
I00
sg32
Nsg13
g1
sg33
g34
sg53
I0
sg15
VC
sg16
I00
sg54
(F-415.31668379638245
F-252.07545545091099
F0.7248468041042998
tp621
sg56
(lp622
sg58
(iccpnmr.chemBuild.model.Atom
Atom
p623
(dp624
g3
g620
sg13
g1
sg14
I4
sg15
VC
sg16
I00
sg17
g8
((lp625
g319
ag338
atRp626
sg154
I00
sbsg133
g8
((ltRp627
sg144
g8
((lp628
(iccpnmr.chemBuild.model.Bond
Bond
p629
(dp630
g148
g149
sg150
Nsg13
g1
sg33
g34
sg17
g8
((lp631
g334
ag338
atRp632
sba(iccpnmr.chemBuild.model.Bond
Bond
p633
(dp634
g148
g149
sg150
Nsg13
g1
sg33
g34
sg17
g8
((lp635
g251
ag338
atRp636
sbag569
ag614
atRp637
sg154
I00
sbatRp638
sg3
g328
sg31
I00
sg32
Nsg13
g1
sg33
g34
sg53
I0
sg15
S'H'
sg16
I00
sg54
(F-417.5079340465748
F-213.59019509257658
F0.33998263281022612
tp639
sg56
(lp640
sg58
g331
sg133
g8
((lp641
g607
atRp642
sg144
g8
((lp643
g629
atRp644
sg154
I00
sbatRp645
sg154
I00
sbsg133
g8
((lp646
g593
atRp647
sg144
g8
((lp648
(iccpnmr.chemBuild.model.Bond
Bond
p649
(dp650
g148
g149
sg150
Nsg13
g1
sg33
g76
sg17
g8
((lp651
g323
ag319
atRp652
sbatRp653
sg154
I00
sbag585
ag421
atRp654
sg3
g620
sg31
I00
sg32
Nsg13
g1
sg33
g76
sg53
I0
sg15
VC
sg16
I00
sg54
(F-415.31668379638245
F-252.07545545091099
F0.7248468041042998
tp655
sg56
(lp656
sg58
g623
sg133
g8
((ltRp657
sg144
g8
((lp658
g515
ag649
ag600
a(iccpnmr.chemBuild.model.Bond
Bond
p659
(dp660
g148
g149
sg150
Nsg13
g1
sg33
g76
sg17
g8
((lp661
g270
ag319
atRp662
sbatRp663
sg154
I00
sbag266
a(iccpnmr.chemBuild.model.VarAtom
VarAtom
p664
(dp665
g21
(lp666
sg23
g8
((lp667
g270
a(iccpnmr.chemBuild.model.VarAtom
VarAtom
p668
(dp669
g21
(lp670
sg23
g8
((lp671
g220
a(iccpnmr.chemBuild.model.VarAtom
VarAtom
p672
(dp673
g21
(lp674
sg23
g8
((lp675
g668
atRp676
sg3
VH6_1
p677
sg31
I00
sg32
Nsg13
g1
sg33
g76
sg53
I0
sg15
S'H'
sg16
I00
sg54
(F-257.62592305571343
F-292.2998470589971
F0.75885833922357038
tp678
sg56
(lp679
sg58
(iccpnmr.chemBuild.model.Atom
Atom
p680
(dp681
g3
g677
sg13
g1
sg14
I1
sg15
S'H'
sg16
I00
sg17
g8
((lp682
g672
a(iccpnmr.chemBuild.model.VarAtom
VarAtom
p683
(dp684
g21
(lp685
sg23
g8
((lp686
g243
atRp687
sg3
g677
sg31
I00
sg32
Nsg13
g1
sg33
g34
sg53
I0
sg15
S'H'
sg16
I00
sg54
(F-257.62592305571343
F-292.2998470589971
F0.75885833922357038
tp688
sg56
(lp689
sg58
g680
sg133
g8
((lp690
(iccpnmr.chemBuild.model.AtomGroup
AtomGroup
p691
(dp692
g137
g138
sg139
g8
((ltRp693
sg17
g8
((lp694
(iccpnmr.chemBuild.model.VarAtom
VarAtom
p695
(dp696
g21
(lp697
sg23
g8
((lp698
g243
atRp699
sg3
VH6_2
p700
sg31
I00
sg32
Nsg13
g1
sg33
g34
sg53
I0
sg15
S'H'
sg16
I00
sg54
(F-243.1351289177756
F-216.69066336198628
F0.43695360439203534
tp701
sg56
(lp702
sg58
(iccpnmr.chemBuild.model.Atom
Atom
p703
(dp704
g3
g700
sg13
g1
sg14
I1
sg15
S'H'
sg16
I00
sg17
g8
((lp705
g695
a(iccpnmr.chemBuild.model.VarAtom
VarAtom
p706
(dp707
g21
(lp708
sg23
g8
((lp709
g668
atRp710
sg3
g700
sg31
I00
sg32
Nsg13
g1
sg33
g76
sg53
I0
sg15
S'H'
sg16
I00
sg54
(F-243.1351289177756
F-216.69066336198628
F0.43695360439203534
tp711
sg56
(lp712
sg58
g703
sg133
g8
((lp713
(iccpnmr.chemBuild.model.AtomGroup
AtomGroup
p714
(dp715
g137
g138
sg139
g8
((ltRp716
sg17
g8
((lp717
g672
ag706
atRp718
sg33
g76
sg13
g1
sbatRp719
sg144
g8
((lp720
(iccpnmr.chemBuild.model.Bond
Bond
p721
(dp722
g148
g149
sg150
Nsg13
g1
sg33
g76
sg17
g8
((lp723
g668
ag706
atRp724
sbatRp725
sg154
I00
sbatRp726
sg154
I00
sbsg133
g8
((lp727
g691
atRp728
sg144
g8
((lp729
(iccpnmr.chemBuild.model.Bond
Bond
p730
(dp731
g148
g149
sg150
Nsg13
g1
sg33
g34
sg17
g8
((lp732
g243
ag695
atRp733
sbatRp734
sg154
I00
sbag683
atRp735
sg33
g34
sg13
g1
sbatRp736
sg144
g8
((lp737
(iccpnmr.chemBuild.model.Bond
Bond
p738
(dp739
g148
g149
sg150
Nsg13
g1
sg33
g34
sg17
g8
((lp740
g243
ag683
atRp741
sbatRp742
sg154
I00
sbatRp743
sg154
I00
sbsg133
g8
((lp744
g714
atRp745
sg144
g8
((lp746
(iccpnmr.chemBuild.model.Bond
Bond
p747
(dp748
g148
g149
sg150
Nsg13
g1
sg33
g76
sg17
g8
((lp749
g672
ag668
atRp750
sbatRp751
sg154
I00
sbag664
ag706
atRp752
sg3
VC6
p753
sg31
I00
sg32
Nsg13
g1
sg33
g76
sg53
I0
sg15
VC
sg16
I00
sg54
(F-250.44073174161502
F-254.60488480937457
F0.90407780955796346
tp754
sg56
(lp755
sg58
(iccpnmr.chemBuild.model.Atom
Atom
p756
(dp757
g3
g753
sg13
g1
sg14
I4
sg15
VC
sg16
I00
sg17
g8
((lp758
g243
ag668
atRp759
sg154
I00
sbsg133
g8
((ltRp760
sg144
g8
((lp761
g747
a(iccpnmr.chemBuild.model.Bond
Bond
p762
(dp763
g148
g149
sg150
Nsg13
g1
sg33
g76
sg17
g8
((lp764
g664
ag668
atRp765
sbag721
a(iccpnmr.chemBuild.model.Bond
Bond
p766
(dp767
g148
g149
sg150
Nsg13
g1
sg33
g76
sg17
g8
((lp768
g220
ag668
atRp769
sbatRp770
sg154
I00
sba(iccpnmr.chemBuild.model.VarAtom
VarAtom
p771
(dp772
g21
(lp773
sg23
g8
((lp774
g664
atRp775
sg3
VH5_1
p776
sg31
I00
sg32
Nsg13
g1
sg33
g76
sg53
I0
sg15
S'H'
sg16
I00
sg54
(F-308.45791206037404
F-287.51521038908174
F0.86429859539200704
tp777
sg56
(lp778
sg58
(iccpnmr.chemBuild.model.Atom
Atom
p779
(dp780
g3
g776
sg13
g1
sg14
I1
sg15
S'H'
sg16
I00
sg17
g8
((lp781
g771
a(iccpnmr.chemBuild.model.VarAtom
VarAtom
p782
(dp783
g21
(lp784
sg23
g8
((lp785
g247
atRp786
sg3
g776
sg31
I00
sg32
Nsg13
g1
sg33
g34
sg53
I0
sg15
S'H'
sg16
I00
sg54
(F-308.45791206037404
F-287.51521038908174
F0.86429859539200704
tp787
sg56
(lp788
sg58
g779
sg133
g8
((lp789
(iccpnmr.chemBuild.model.AtomGroup
AtomGroup
p790
(dp791
g137
g138
sg139
g8
((ltRp792
sg17
g8
((lp793
(iccpnmr.chemBuild.model.VarAtom
VarAtom
p794
(dp795
g21
(lp796
sg23
g8
((lp797
g247
atRp798
sg3
VH5_2
p799
sg31
I00
sg32
Nsg13
g1
sg33
g34
sg53
I0
sg15
S'H'
sg16
I00
sg54
(F-302.29560825180511
F-210.74522139774612
F0.39584366306789953
tp800
sg56
(lp801
sg58
(iccpnmr.chemBuild.model.Atom
Atom
p802
(dp803
g3
g799
sg13
g1
sg14
I1
sg15
S'H'
sg16
I00
sg17
g8
((lp804
g794
a(iccpnmr.chemBuild.model.VarAtom
VarAtom
p805
(dp806
g21
(lp807
sg23
g8
((lp808
g664
atRp809
sg3
g799
sg31
I00
sg32
Nsg13
g1
sg33
g76
sg53
I0
sg15
S'H'
sg16
I00
sg54
(F-302.29560825180511
F-210.74522139774612
F0.39584366306789953
tp810
sg56
(lp811
sg58
g802
sg133
g8
((lp812
(iccpnmr.chemBuild.model.AtomGroup
AtomGroup
p813
(dp814
g137
g138
sg139
g8
((ltRp815
sg17
g8
((lp816
g771
ag805
atRp817
sg33
g76
sg13
g1
sbatRp818
sg144
g8
((lp819
(iccpnmr.chemBuild.model.Bond
Bond
p820
(dp821
g148
g149
sg150
Nsg13
g1
sg33
g76
sg17
g8
((lp822
g664
ag805
atRp823
sbatRp824
sg154
I00
sbatRp825
sg154
I00
sbsg133
g8
((lp826
g790
atRp827
sg144
g8
((lp828
(iccpnmr.chemBuild.model.Bond
Bond
p829
(dp830
g148
g149
sg150
Nsg13
g1
sg33
g34
sg17
g8
((lp831
g247
ag794
atRp832
sbatRp833
sg154
I00
sbag782
atRp834
sg33
g34
sg13
g1
sbatRp835
sg144
g8
((lp836
(iccpnmr.chemBuild.model.Bond
Bond
p837
(dp838
g148
g149
sg150
Nsg13
g1
sg33
g34
sg17
g8
((lp839
g247
ag782
atRp840
sbatRp841
sg154
I00
sbatRp842
sg154
I00
sbsg133
g8
((lp843
g813
atRp844
sg144
g8
((lp845
(iccpnmr.chemBuild.model.Bond
Bond
p846
(dp847
g148
g149
sg150
Nsg13
g1
sg33
g76
sg17
g8
((lp848
g771
ag664
atRp849
sbatRp850
sg154
I00
sbag805
atRp851
sg3
VC5
p852
sg31
I00
sg32
Nsg13
g1
sg33
g76
sg53
I0
sg15
VC
sg16
I00
sg54
(F-305.29942118581323
F-249.20815873094452
F0.26385417116888821
tp853
sg56
(lp854
sg58
(iccpnmr.chemBuild.model.Atom
Atom
p855
(dp856
g3
g852
sg13
g1
sg14
I4
sg15
VC
sg16
I00
sg17
g8
((lp857
g247
ag664
atRp858
sg154
I00
sbsg133
g8
((ltRp859
sg144
g8
((lp860
(iccpnmr.chemBuild.model.Bond
Bond
p861
(dp862
g148
g149
sg150
Nsg13
g1
sg33
g76
sg17
g8
((lp863
g270
ag664
atRp864
sbag762
ag820
ag846
atRp865
sg154
I00
sbatRp866
sg3
VC4
p867
sg31
I00
sg32
Nsg13
g1
sg33
g76
sg53
I0
sg15
VC
sg16
I00
sg54
(F-360.48326825421361
F-249.40850354475927
F0.96375525717850119
tp868
sg56
(lp869
sg58
(iccpnmr.chemBuild.model.Atom
Atom
p870
(dp871
g3
g867
sg13
g1
sg14
I4
sg15
VC
sg16
I00
sg17
g8
((lp872
g270
ag251
atRp873
sg154
I00
sbsg133
g8
((ltRp874
sg144
g8
((lp875
(iccpnmr.chemBuild.model.Bond
Bond
p876
(dp877
g148
g149
sg150
Nsg13
g1
sg33
g76
sg17
g8
((lp878
g270
ag266
atRp879
sbag861
ag659
ag314
atRp880
sg154
I00
sbatRp881
sg3
g260
sg31
I00
sg32
Nsg13
g1
sg33
g76
sg53
I0
sg15
S'H'
sg16
I00
sg54
(F-360.96684201544315
F-287.90293356676125
F0.75149475833516588
tp882
sg56
(lp883
sg58
g263
sg133
g8
((lp884
g307
atRp885
sg144
g8
((lp886
g876
atRp887
sg154
I00
sbag255
atRp888
sg154
I00
sbsg133
g8
((lp889
g293
atRp890
sg144
g8
((lp891
(iccpnmr.chemBuild.model.Bond
Bond
p892
(dp893
g148
g149
sg150
Nsg13
g1
sg33
g34
sg17
g8
((lp894
g251
ag255
atRp895
sbatRp896
sg154
I00
sbag285
ag338
atRp897
sg3
g867
sg31
I00
sg32
Nsg13
g1
sg33
g34
sg53
I0
sg15
VC
sg16
I00
sg54
(F-360.48326825421361
F-249.40850354475927
F0.96375525717850119
tp898
sg56
(lp899
sg58
g870
sg133
g8
((ltRp900
sg144
g8
((lp901
g633
a(iccpnmr.chemBuild.model.Bond
Bond
p902
(dp903
g148
g149
sg150
Nsg13
g1
sg33
g34
sg17
g8
((lp904
g251
ag247
atRp905
sbag892
ag300
atRp906
sg154
I00
sbag794
ag782
ag243
atRp907
sg3
g852
sg31
I00
sg32
Nsg13
g1
sg33
g34
sg53
I0
sg15
VC
sg16
I00
sg54
(F-305.29942118581323
F-249.20815873094452
F0.26385417116888821
tp908
sg56
(lp909
sg58
g855
sg133
g8
((ltRp910
sg144
g8
((lp911
g837
ag829
ag902
a(iccpnmr.chemBuild.model.Bond
Bond
p912
(dp913
g148
g149
sg150
Nsg13
g1
sg33
g34
sg17
g8
((lp914
g247
ag243
atRp915
sbatRp916
sg154
I00
sbag239
ag695
ag683
atRp917
sg3
g753
sg31
I00
sg32
Nsg13
g1
sg33
g34
sg53
I0
sg15
VC
sg16
I00
sg54
(F-250.44073174161502
F-254.60488480937457
F0.90407780955796346
tp918
sg56
(lp919
sg58
g756
sg133
g8
((ltRp920
sg144
g8
((lp921
g730
ag912
ag738
a(iccpnmr.chemBuild.model.Bond
Bond
p922
(dp923
g148
g149
sg150
Nsg13
g1
sg33
g34
sg17
g8
((lp924
g243
ag239
atRp925
sbatRp926
sg154
I00
sba(iccpnmr.chemBuild.model.VarAtom
VarAtom
p927
(dp928
g21
(lp929
sg23
g8
((lp930
g239
atRp931
sg3
VH7_2
p932
sg31
I00
sg32
Nsg13
g1
sg33
g34
sg53
I0
sg15
S'H'
sg16
I00
sg54
(F-208.67611263331577
F-304.92224271931445
F0.28037282802575592
tp933
sg56
(lp934
sg58
(iccpnmr.chemBuild.model.Atom
Atom
p935
(dp936
g3
g932
sg13
g1
sg14
I1
sg15
S'H'
sg16
I00
sg17
g8
((lp937
(iccpnmr.chemBuild.model.VarAtom
VarAtom
p938
(dp939
g21
(lp940
sg23
g8
((lp941
g220
atRp942
sg3
g932
sg31
I00
sg32
Nsg13
g1
sg33
g76
sg53
I0
sg15
S'H'
sg16
I00
sg54
(F-208.67611263331577
F-304.92224271931445
F0.28037282802575592
tp943
sg56
(lp944
sg58
g935
sg133
g8
((lp945
(iccpnmr.chemBuild.model.AtomGroup
AtomGroup
p946
(dp947
g137
g138
sg139
g8
((ltRp948
sg17
g8
((lp949
g224
ag938
atRp950
sg33
g76
sg13
g1
sbatRp951
sg144
g8
((lp952
(iccpnmr.chemBuild.model.Bond
Bond
p953
(dp954
g148
g149
sg150
Nsg13
g1
sg33
g76
sg17
g8
((lp955
g220
ag938
atRp956
sbatRp957
sg154
I00
sbag927
atRp958
sg154
I00
sbsg133
g8
((lp959
(iccpnmr.chemBuild.model.AtomGroup
AtomGroup
p960
(dp961
g137
g138
sg139
g8
((ltRp962
sg17
g8
((lp963
g235
ag927
atRp964
sg33
g34
sg13
g1
sbatRp965
sg144
g8
((lp966
(iccpnmr.chemBuild.model.Bond
Bond
p967
(dp968
g148
g149
sg150
Nsg13
g1
sg33
g34
sg17
g8
((lp969
g239
ag927
atRp970
sbatRp971
sg154
I00
sba(iccpnmr.chemBuild.model.VarAtom
VarAtom
p972
(dp973
g21
(lp974
sg23
g8
((lp975
(iccpnmr.chemBuild.model.VarAtom
VarAtom
p976
(dp977
g21
(lp978
sg23
g8
((lp979
g972
atRp980
sg3
VH8_1
p981
sg31
I00
sg32
Nsg13
g1
sg33
g34
sg53
I0
sg15
S'H'
sg16
I00
sg54
(F-161.01860937927955
F-326.16898628288152
F0.64550207307904972
tp982
sg56
(lp983
sg58
(iccpnmr.chemBuild.model.Atom
Atom
p984
(dp985
g3
g981
sg13
g1
sg14
I1
sg15
S'H'
sg16
I00
sg17
g8
((lp986
g976
a(iccpnmr.chemBuild.model.VarAtom
VarAtom
p987
(dp988
g21
(lp989
sg23
g8
((lp990
g216
atRp991
sg3
g981
sg31
I00
sg32
Nsg13
g1
sg33
g76
sg53
I0
sg15
S'H'
sg16
I00
sg54
(F-161.01860937927955
F-326.16898628288152
F0.64550207307904972
tp992
sg56
(lp993
sg58
g984
sg133
g8
((lp994
(iccpnmr.chemBuild.model.AtomGroup
AtomGroup
p995
(dp996
g137
g138
sg139
g8
((ltRp997
sg17
g8
((lp998
g987
a(iccpnmr.chemBuild.model.VarAtom
VarAtom
p999
(dp1000
g21
(lp1001
sg23
g8
((lp1002
g216
atRp1003
sg3
VH8_2
p1004
sg31
I00
sg32
Nsg13
g1
sg33
g76
sg53
I0
sg15
S'H'
sg16
I00
sg54
(F-128.24998885116867
F-257.10439879644912
F0.51531913674990759
tp1005
sg56
(lp1006
sg58
(iccpnmr.chemBuild.model.Atom
Atom
p1007
(dp1008
g3
g1004
sg13
g1
sg14
I1
sg15
S'H'
sg16
I00
sg17
g8
((lp1009
(iccpnmr.chemBuild.model.VarAtom
VarAtom
p1010
(dp1011
g21
(lp1012
sg23
g8
((lp1013
g972
atRp1014
sg3
g1004
sg31
I00
sg32
Nsg13
g1
sg33
g34
sg53
I0
sg15
S'H'
sg16
I00
sg54
(F-128.24998885116867
F-257.10439879644912
F0.51531913674990759
tp1015
sg56
(lp1016
sg58
g1007
sg133
g8
((lp1017
(iccpnmr.chemBuild.model.AtomGroup
AtomGroup
p1018
(dp1019
g137
g138
sg139
g8
((ltRp1020
sg17
g8
((lp1021
g976
ag1010
atRp1022
sg33
g34
sg13
g1
sbatRp1023
sg144
g8
((lp1024
(iccpnmr.chemBuild.model.Bond
Bond
p1025
(dp1026
g148
g149
sg150
Nsg13
g1
sg33
g34
sg17
g8
((lp1027
g1010
ag972
atRp1028
sbatRp1029
sg154
I00
sbag999
atRp1030
sg154
I00
sbsg133
g8
((lp1031
g995
atRp1032
sg144
g8
((lp1033
(iccpnmr.chemBuild.model.Bond
Bond
p1034
(dp1035
g148
g149
sg150
Nsg13
g1
sg33
g76
sg17
g8
((lp1036
g216
ag999
atRp1037
sbatRp1038
sg154
I00
sbatRp1039
sg33
g76
sg13
g1
sbatRp1040
sg144
g8
((lp1041
(iccpnmr.chemBuild.model.Bond
Bond
p1042
(dp1043
g148
g149
sg150
Nsg13
g1
sg33
g76
sg17
g8
((lp1044
g216
ag987
atRp1045
sbatRp1046
sg154
I00
sbatRp1047
sg154
I00
sbsg133
g8
((lp1048
g1018
atRp1049
sg144
g8
((lp1050
(iccpnmr.chemBuild.model.Bond
Bond
p1051
(dp1052
g148
g149
sg150
Nsg13
g1
sg33
g34
sg17
g8
((lp1053
g976
ag972
atRp1054
sbatRp1055
sg154
I00
sbag239
ag193
ag1010
atRp1056
sg3
VC8
p1057
sg31
I00
sg32
Nsg13
g1
sg33
g34
sg53
I0
sg15
VC
sg16
I00
sg54
(F-148.63179385776908
F-289.77623392966689
F0.15776875935375057
tp1058
sg56
(lp1059
sg58
(iccpnmr.chemBuild.model.Atom
Atom
p1060
(dp1061
g3
g1057
sg13
g1
sg14
I4
sg15
VC
sg16
I00
sg17
g8
((lp1062
g216
ag972
atRp1063
sg154
I00
sbsg133
g8
((ltRp1064
sg144
g8
((lp1065
(iccpnmr.chemBuild.model.Bond
Bond
p1066
(dp1067
g148
g149
sg150
Nsg13
g1
sg33
g34
sg17
g8
((lp1068
g239
ag972
atRp1069
sbag1025
ag1051
a(iccpnmr.chemBuild.model.Bond
Bond
p1070
(dp1071
g148
g149
sg150
Nsg13
g1
sg33
g34
sg17
g8
((lp1072
g193
ag972
atRp1073
sbatRp1074
sg154
I00
sbag235
atRp1075
sg3
VC7
p1076
sg31
I00
sg32
Nsg13
g1
sg33
g34
sg53
I0
sg15
VC
sg16
I00
sg54
(F-197.32870927615488
F-268.24744440413701
F0.36337813045916567
tp1077
sg56
(lp1078
sg58
(iccpnmr.chemBuild.model.Atom
Atom
p1079
(dp1080
g3
g1076
sg13
g1
sg14
I4
sg15
VC
sg16
I00
sg17
g8
((lp1081
g220
ag239
atRp1082
sg154
I00
sbsg133
g8
((ltRp1083
sg144
g8
((lp1084
(iccpnmr.chemBuild.model.Bond
Bond
p1085
(dp1086
g148
g149
sg150
Nsg13
g1
sg33
g34
sg17
g8
((lp1087
g235
ag239
atRp1088
sbag1066
ag922
ag967
atRp1089
sg154
I00
sbatRp1090
sg3
g229
sg31
I00
sg32
Nsg13
g1
sg33
g34
sg53
I0
sg15
S'H'
sg16
I00
sg54
(F-184.52837796671429
F-231.79150451875492
F0.57306524173288731
tp1091
sg56
(lp1092
sg58
g232
sg133
g8
((lp1093
g960
atRp1094
sg144
g8
((lp1095
g1085
atRp1096
sg154
I00
sbag224
atRp1097
sg154
I00
sbsg133
g8
((lp1098
g946
atRp1099
sg144
g8
((lp1100
(iccpnmr.chemBuild.model.Bond
Bond
p1101
(dp1102
g148
g149
sg150
Nsg13
g1
sg33
g76
sg17
g8
((lp1103
g220
ag224
atRp1104
sbatRp1105
sg154
I00
sbag938
ag668
atRp1106
sg3
g1076
sg31
I00
sg32
Nsg13
g1
sg33
g76
sg53
I0
sg15
VC
sg16
I00
sg54
(F-197.32870927615488
F-268.24744440413701
F0.36337813045916567
tp1107
sg56
(lp1108
sg58
g1079
sg133
g8
((ltRp1109
sg144
g8
((lp1110
(iccpnmr.chemBuild.model.Bond
Bond
p1111
(dp1112
g148
g149
sg150
Nsg13
g1
sg33
g76
sg17
g8
((lp1113
g220
ag216
atRp1114
sbag953
ag1101
ag766
atRp1115
sg154
I00
sbag987
ag212
ag999
atRp1116
sg3
g1057
sg31
I00
sg32
Nsg13
g1
sg33
g76
sg53
I0
sg15
VC
sg16
I00
sg54
(F-148.63179385776908
F-289.77623392966689
F0.15776875935375057
tp1117
sg56
(lp1118
sg58
g1060
sg133
g8
((ltRp1119
sg144
g8
((lp1120
g1111
a(iccpnmr.chemBuild.model.Bond
Bond
p1121
(dp1122
g148
g149
sg150
Nsg13
g1
sg33
g76
sg17
g8
((lp1123
g216
ag212
atRp1124
sbag1034
ag1042
atRp1125
sg154
I00
sba(iccpnmr.chemBuild.model.VarAtom
VarAtom
p1126
(dp1127
g21
(lp1128
sg23
g8
((lp1129
(iccpnmr.chemBuild.model.VarAtom
VarAtom
p1130
(dp1131
g21
(lp1132
sg23
g8
((lp1133
g1126
atRp1134
sg3
VH10
p1135
sg31
I00
sg32
Nsg13
g1
sg33
g76
sg53
I0
sg15
S'H'
sg16
I00
sg54
(F-47.459262853204891
F-348.96014855265332
F0.11949225029769772
tp1136
sg56
(lp1137
sg58
(iccpnmr.chemBuild.model.Atom
Atom
p1138
(dp1139
g3
g1135
sg13
g1
sg14
I1
sg15
S'H'
sg16
I00
sg17
g8
((lp1140
g1130
a(iccpnmr.chemBuild.model.VarAtom
VarAtom
p1141
(dp1142
g21
(lp1143
sg23
g8
((lp1144
g189
atRp1145
sg3
g1135
sg31
I00
sg32
Nsg13
g1
sg33
g34
sg53
I0
sg15
S'H'
sg16
I00
sg54
(F-47.459262853204891
F-348.96014855265332
F0.11949225029769772
tp1146
sg56
(lp1147
sg58
g1138
sg133
g8
((ltRp1148
sg144
g8
((lp1149
(iccpnmr.chemBuild.model.Bond
Bond
p1150
(dp1151
g148
g149
sg150
Nsg13
g1
sg33
g34
sg17
g8
((lp1152
g1141
ag189
atRp1153
sbatRp1154
sg154
I00
sbatRp1155
sg154
I00
sbsg133
g8
((ltRp1156
sg144
g8
((lp1157
(iccpnmr.chemBuild.model.Bond
Bond
p1158
(dp1159
g148
g149
sg150
Nsg13
g1
sg33
g76
sg17
g8
((lp1160
g1130
ag1126
atRp1161
sbatRp1162
sg154
I00
sbag212
ag84
atRp1163
sg3
VC10
p1164
sg31
I00
sg32
Nsg13
g1
sg33
g76
sg53
I0
sg15
VC
sg16
I00
sg54
(F-60.095475662030182
F-312.55325681983675
F0.894706565235309
tp1165
sg56
(lp1166
sg58
(iccpnmr.chemBuild.model.Atom
Atom
p1167
(dp1168
g3
g1164
sg13
g1
sg14
I4
sg15
VC
sg16
I00
sg17
g8
((lp1169
g1126
ag189
atRp1170
sg154
I00
sbsg133
g8
((ltRp1171
sg144
g8
((lp1172
g1158
a(iccpnmr.chemBuild.model.Bond
Bond
p1173
(dp1174
g148
g149
sg150
Nsg13
g1
sg33
g76
sg17
g8
((lp1175
g1126
ag84
atRp1176
sba(iccpnmr.chemBuild.model.Bond
Bond
p1177
(dp1178
g148
g536
sg150
Nsg13
g1
sg33
g76
sg17
g8
((lp1179
g1126
ag212
atRp1180
sbatRp1181
sg154
I00
sbag208
atRp1182
sg3
VC9
p1183
sg31
I00
sg32
Nsg13
g1
sg33
g76
sg53
I0
sg15
VC
sg16
I00
sg54
(F-104.91249882345475
F-317.2738899500448
F0.45097919815964627
tp1184
sg56
(lp1185
sg58
(iccpnmr.chemBuild.model.Atom
Atom
p1186
(dp1187
g3
g1183
sg13
g1
sg14
I4
sg15
VC
sg16
I00
sg17
g8
((lp1188
g193
ag212
atRp1189
sg154
I00
sbsg133
g8
((ltRp1190
sg144
g8
((lp1191
g1121
a(iccpnmr.chemBuild.model.Bond
Bond
p1192
(dp1193
g148
g149
sg150
Nsg13
g1
sg33
g76
sg17
g8
((lp1194
g208
ag212
atRp1195
sbag1177
atRp1196
sg154
I00
sbatRp1197
sg3
g202
sg31
I00
sg32
Nsg13
g1
sg33
g76
sg53
I0
sg15
S'H'
sg16
I00
sg54
(F-110.19552182533674
F-355.45805571665505
F0.27089445304887416
tp1198
sg56
(lp1199
sg58
g205
sg133
g8
((ltRp1200
sg144
g8
((lp1201
g1192
atRp1202
sg154
I00
sbatRp1203
sg154
I00
sbsg133
g8
((ltRp1204
sg144
g8
((lp1205
(iccpnmr.chemBuild.model.Bond
Bond
p1206
(dp1207
g148
g149
sg150
Nsg13
g1
sg33
g34
sg17
g8
((lp1208
g193
ag197
atRp1209
sbatRp1210
sg154
I00
sbag972
ag189
atRp1211
sg3
g1183
sg31
I00
sg32
Nsg13
g1
sg33
g34
sg53
I0
sg15
VC
sg16
I00
sg54
(F-104.91249882345475
F-317.2738899500448
F0.45097919815964627
tp1212
sg56
(lp1213
sg58
g1186
sg133
g8
((ltRp1214
sg144
g8
((lp1215
(iccpnmr.chemBuild.model.Bond
Bond
p1216
(dp1217
g148
g536
sg150
Nsg13
g1
sg33
g34
sg17
g8
((lp1218
g193
ag189
atRp1219
sbag1206
ag1070
atRp1220
sg154
I00
sbag111
ag1141
atRp1221
sg3
g1164
sg31
I00
sg32
Nsg13
g1
sg33
g34
sg53
I0
sg15
VC
sg16
I00
sg54
(F-60.095475662030182
F-312.55325681983675
F0.894706565235309
tp1222
sg56
(lp1223
sg58
g1167
sg133
g8
((ltRp1224
sg144
g8
((lp1225
g1150
ag1216
a(iccpnmr.chemBuild.model.Bond
Bond
p1226
(dp1227
g148
g149
sg150
Nsg13
g1
sg33
g34
sg17
g8
((lp1228
g111
ag189
atRp1229
sbatRp1230
sg154
I00
sbatRp1231
sg3
VC11
p1232
sg31
I00
sg32
Nsg13
g1
sg33
g34
sg53
I0
sg15
VC
sg16
I00
sg54
(F-22.861253888774044
F-276.73423143492369
F0.46054939714169207
tp1233
sg56
(lp1234
sg58
(iccpnmr.chemBuild.model.Atom
Atom
p1235
(dp1236
g3
g1232
sg13
g1
sg14
I4
sg15
VC
sg16
I00
sg17
g8
((lp1237
g111
ag84
atRp1238
sg154
I00
sbsg133
g8
((ltRp1239
sg144
g8
((lp1240
g184
a(iccpnmr.chemBuild.model.Bond
Bond
p1241
(dp1242
g148
g149
sg150
Nsg13
g1
sg33
g34
sg17
g8
((lp1243
g107
ag111
atRp1244
sbag176
ag1226
atRp1245
sg154
I00
sba(iccpnmr.chemBuild.model.VarAtom
VarAtom
p1246
(dp1247
g21
(lp1248
sg23
g8
((lp1249
g107
atRp1250
sg3
VH12_2
p1251
sg31
I00
sg32
Nsg13
g1
sg33
g34
sg53
I0
sg15
S'H'
sg16
I00
sg54
(F0.30065742730353406
F-211.69436844432462
F0.053000212001127922
tp1252
sg56
(lp1253
sg58
(iccpnmr.chemBuild.model.Atom
Atom
p1254
(dp1255
g3
g1251
sg13
g1
sg14
I1
sg15
S'H'
sg16
I00
sg17
g8
((lp1256
(iccpnmr.chemBuild.model.VarAtom
VarAtom
p1257
(dp1258
g21
(lp1259
sg23
g8
((lp1260
g88
atRp1261
sg3
g1251
sg31
I00
sg32
Nsg13
g1
sg33
g76
sg53
I0
sg15
S'H'
sg16
I00
sg54
(F0.30065742730353406
F-211.69436844432462
F0.053000212001127922
tp1262
sg56
(lp1263
sg58
g1254
sg133
g8
((lp1264
(iccpnmr.chemBuild.model.AtomGroup
AtomGroup
p1265
(dp1266
g137
g138
sg139
g8
((ltRp1267
sg17
g8
((lp1268
g1257
ag92
atRp1269
sg33
g76
sg13
g1
sbatRp1270
sg144
g8
((lp1271
(iccpnmr.chemBuild.model.Bond
Bond
p1272
(dp1273
g148
g149
sg150
Nsg13
g1
sg33
g76
sg17
g8
((lp1274
g88
ag1257
atRp1275
sbatRp1276
sg154
I00
sbag1246
atRp1277
sg154
I00
sbsg133
g8
((lp1278
(iccpnmr.chemBuild.model.AtomGroup
AtomGroup
p1279
(dp1280
g137
g138
sg139
g8
((ltRp1281
sg17
g8
((lp1282
g103
ag1246
atRp1283
sg33
g34
sg13
g1
sbatRp1284
sg144
g8
((lp1285
(iccpnmr.chemBuild.model.Bond
Bond
p1286
(dp1287
g148
g149
sg150
Nsg13
g1
sg33
g34
sg17
g8
((lp1288
g107
ag1246
atRp1289
sbatRp1290
sg154
I00
sbag103
a(iccpnmr.chemBuild.model.VarAtom
VarAtom
p1291
(dp1292
g21
(lp1293
sg23
g8
((lp1294
g107
a(iccpnmr.chemBuild.model.VarAtom
VarAtom
p1295
(dp1296
g21
(lp1297
sg23
g8
((lp1298
g1291
atRp1299
sg3
VH13_1
p1300
sg31
I00
sg32
Nsg13
g1
sg33
g34
sg53
I0
sg15
S'H'
sg16
I00
sg54
(F83.1870173640947
F-254.60362035522226
F0.47222346244270752
tp1301
sg56
(lp1302
sg58
(iccpnmr.chemBuild.model.Atom
Atom
p1303
(dp1304
g3
g1300
sg13
g1
sg14
I1
sg15
S'H'
sg16
I00
sg17
g8
((lp1305
g1295
a(iccpnmr.chemBuild.model.VarAtom
VarAtom
p1306
(dp1307
g21
(lp1308
sg23
g8
((lp1309
(iccpnmr.chemBuild.model.VarAtom
VarAtom
p1310
(dp1311
g21
(lp1312
sg23
g8
((lp1313
g88
ag1306
a(iccpnmr.chemBuild.model.VarAtom
VarAtom
p1314
(dp1315
g21
(lp1316
sg23
g8
((lp1317
g1310
atRp1318
sg3
VH13_2
p1319
sg31
I00
sg32
Nsg13
g1
sg33
g76
sg53
I0
sg15
S'H'
sg16
I00
sg54
(F55.623782649412888
F-182.8399039803738
F0.83638310443805175
tp1320
sg56
(lp1321
sg58
(iccpnmr.chemBuild.model.Atom
Atom
p1322
(dp1323
g3
g1319
sg13
g1
sg14
I1
sg15
S'H'
sg16
I00
sg17
g8
((lp1324
g1314
a(iccpnmr.chemBuild.model.VarAtom
VarAtom
p1325
(dp1326
g21
(lp1327
sg23
g8
((lp1328
g1291
atRp1329
sg3
g1319
sg31
I00
sg32
Nsg13
g1
sg33
g34
sg53
I0
sg15
S'H'
sg16
I00
sg54
(F55.623782649412888
F-182.8399039803738
F0.83638310443805175
tp1330
sg56
(lp1331
sg58
g1322
sg133
g8
((lp1332
(iccpnmr.chemBuild.model.AtomGroup
AtomGroup
p1333
(dp1334
g137
g138
sg139
g8
((ltRp1335
sg17
g8
((lp1336
g1325
ag1295
atRp1337
sg33
g34
sg13
g1
sbatRp1338
sg144
g8
((lp1339
(iccpnmr.chemBuild.model.Bond
Bond
p1340
(dp1341
g148
g149
sg150
Nsg13
g1
sg33
g34
sg17
g8
((lp1342
g1325
ag1291
atRp1343
sbatRp1344
sg154
I00
sbatRp1345
sg154
I00
sbsg133
g8
((lp1346
(iccpnmr.chemBuild.model.AtomGroup
AtomGroup
p1347
(dp1348
g137
g138
sg139
g8
((ltRp1349
sg17
g8
((lp1350
g1314
ag1306
atRp1351
sg33
g76
sg13
g1
sbatRp1352
sg144
g8
((lp1353
(iccpnmr.chemBuild.model.Bond
Bond
p1354
(dp1355
g148
g149
sg150
Nsg13
g1
sg33
g76
sg17
g8
((lp1356
g1314
ag1310
atRp1357
sbatRp1358
sg154
I00
sba(iccpnmr.chemBuild.model.VarAtom
VarAtom
p1359
(dp1360
g21
(lp1361
sg23
g8
((lp1362
(iccpnmr.chemBuild.model.VarAtom
VarAtom
p1363
(dp1364
g21
(lp1365
sg23
g8
((lp1366
g1359
a(iccpnmr.chemBuild.model.VarAtom
VarAtom
p1367
(dp1368
g21
(lp1369
sg23
g8
((lp1370
g1363
atRp1371
sg3
VH15_2
p1372
sg31
I00
sg32
Nsg13
g1
sg33
g76
sg53
I0
sg15
S'H'
sg16
I00
sg54
(F181.27546024669311
F-235.12366669423952
F0.52524322187193484
tp1373
sg56
(lp1374
sg58
(iccpnmr.chemBuild.model.Atom
Atom
p1375
(dp1376
g3
g1372
sg13
g1
sg14
I1
sg15
S'H'
sg16
I00
sg17
g8
((lp1377
g1367
a(iccpnmr.chemBuild.model.VarAtom
VarAtom
p1378
(dp1379
g21
(lp1380
sg23
g8
((lp1381
(iccpnmr.chemBuild.model.VarAtom
VarAtom
p1382
(dp1383
g21
(lp1384
sg23
g8
((lp1385
(iccpnmr.chemBuild.model.VarAtom
VarAtom
p1386
(dp1387
g21
(lp1388
sg23
g8
((lp1389
g1382
atRp1390
sg3
VH15_1
p1391
sg31
I00
sg32
Nsg13
g1
sg33
g34
sg53
I0
sg15
S'H'
sg16
I00
sg54
(F179.24616286752155
F-158.30228246996293
F0.0098358590802130053
tp1392
sg56
(lp1393
sg58
(iccpnmr.chemBuild.model.Atom
Atom
p1394
(dp1395
g3
g1391
sg13
g1
sg14
I1
sg15
S'H'
sg16
I00
sg17
g8
((lp1396
g1386
a(iccpnmr.chemBuild.model.VarAtom
VarAtom
p1397
(dp1398
g21
(lp1399
sg23
g8
((lp1400
g1363
atRp1401
sg3
g1391
sg31
I00
sg32
Nsg13
g1
sg33
g76
sg53
I0
sg15
S'H'
sg16
I00
sg54
(F179.24616286752155
F-158.30228246996293
F0.0098358590802130053
tp1402
sg56
(lp1403
sg58
g1394
sg133
g8
((lp1404
(iccpnmr.chemBuild.model.AtomGroup
AtomGroup
p1405
(dp1406
g137
g138
sg139
g8
((ltRp1407
sg17
g8
((lp1408
g1367
ag1397
atRp1409
sg33
g76
sg13
g1
sbatRp1410
sg144
g8
((lp1411
(iccpnmr.chemBuild.model.Bond
Bond
p1412
(dp1413
g148
g149
sg150
Nsg13
g1
sg33
g76
sg17
g8
((lp1414
g1363
ag1397
atRp1415
sbatRp1416
sg154
I00
sbatRp1417
sg154
I00
sbsg133
g8
((lp1418
(iccpnmr.chemBuild.model.AtomGroup
AtomGroup
p1419
(dp1420
g137
g138
sg139
g8
((ltRp1421
sg17
g8
((lp1422
g1378
ag1386
atRp1423
sg33
g34
sg13
g1
sbatRp1424
sg144
g8
((lp1425
(iccpnmr.chemBuild.model.Bond
Bond
p1426
(dp1427
g148
g149
sg150
Nsg13
g1
sg33
g34
sg17
g8
((lp1428
g1382
ag1386
atRp1429
sbatRp1430
sg154
I00
sbag19
ag1378
a(iccpnmr.chemBuild.model.VarAtom
VarAtom
p1431
(dp1432
g21
(lp1433
sg23
g8
((lp1434
(iccpnmr.chemBuild.model.VarAtom
VarAtom
p1435
(dp1436
g21
(lp1437
sg23
g8
((lp1438
g1431
atRp1439
sg3
VH14_1
p1440
sg31
I00
sg32
Nsg13
g1
sg33
g34
sg53
I0
sg15
S'H'
sg16
I00
sg54
(F131.25644413721773
F-240.01202149381655
F0.40768455613591803
tp1441
sg56
(lp1442
sg58
(iccpnmr.chemBuild.model.Atom
Atom
p1443
(dp1444
g3
g1440
sg13
g1
sg14
I1
sg15
S'H'
sg16
I00
sg17
g8
((lp1445
(iccpnmr.chemBuild.model.VarAtom
VarAtom
p1446
(dp1447
g21
(lp1448
sg23
g8
((lp1449
g1359
atRp1450
sg3
g1440
sg31
I00
sg32
Nsg13
g1
sg33
g76
sg53
I0
sg15
S'H'
sg16
I00
sg54
(F131.25644413721773
F-240.01202149381655
F0.40768455613591803
tp1451
sg56
(lp1452
sg58
g1443
sg133
g8
((lp1453
(iccpnmr.chemBuild.model.AtomGroup
AtomGroup
p1454
(dp1455
g137
g138
sg139
g8
((ltRp1456
sg17
g8
((lp1457
g1446
a(iccpnmr.chemBuild.model.VarAtom
VarAtom
p1458
(dp1459
g21
(lp1460
sg23
g8
((lp1461
g1359
atRp1462
sg3
VH14_2
p1463
sg31
I00
sg32
Nsg13
g1
sg33
g76
sg53
I0
sg15
S'H'
sg16
I00
sg54
(F116.12764900435299
F-164.65058593710475
F0.81134810909517163
tp1464
sg56
(lp1465
sg58
(iccpnmr.chemBuild.model.Atom
Atom
p1466
(dp1467
g3
g1463
sg13
g1
sg14
I1
sg15
S'H'
sg16
I00
sg17
g8
((lp1468
(iccpnmr.chemBuild.model.VarAtom
VarAtom
p1469
(dp1470
g21
(lp1471
sg23
g8
((lp1472
g1431
atRp1473
sg3
g1463
sg31
I00
sg32
Nsg13
g1
sg33
g34
sg53
I0
sg15
S'H'
sg16
I00
sg54
(F116.12764900435299
F-164.65058593710475
F0.81134810909517163
tp1474
sg56
(lp1475
sg58
g1466
sg133
g8
((lp1476
(iccpnmr.chemBuild.model.AtomGroup
AtomGroup
p1477
(dp1478
g137
g138
sg139
g8
((ltRp1479
sg17
g8
((lp1480
g1435
ag1469
atRp1481
sg33
g34
sg13
g1
sbatRp1482
sg144
g8
((lp1483
(iccpnmr.chemBuild.model.Bond
Bond
p1484
(dp1485
g148
g149
sg150
Nsg13
g1
sg33
g34
sg17
g8
((lp1486
g1431
ag1469
atRp1487
sbatRp1488
sg154
I00
sbag1458
atRp1489
sg154
I00
sbsg133
g8
((lp1490
g1454
atRp1491
sg144
g8
((lp1492
(iccpnmr.chemBuild.model.Bond
Bond
p1493
(dp1494
g148
g149
sg150
Nsg13
g1
sg33
g76
sg17
g8
((lp1495
g1359
ag1458
atRp1496
sbatRp1497
sg154
I00
sbatRp1498
sg33
g76
sg13
g1
sbatRp1499
sg144
g8
((lp1500
(iccpnmr.chemBuild.model.Bond
Bond
p1501
(dp1502
g148
g149
sg150
Nsg13
g1
sg33
g76
sg17
g8
((lp1503
g1359
ag1446
atRp1504
sbatRp1505
sg154
I00
sbag1435
atRp1506
sg154
I00
sbsg133
g8
((lp1507
g1477
atRp1508
sg144
g8
((lp1509
(iccpnmr.chemBuild.model.Bond
Bond
p1510
(dp1511
g148
g149
sg150
Nsg13
g1
sg33
g34
sg17
g8
((lp1512
g1431
ag1435
atRp1513
sbatRp1514
sg154
I00
sbag1382
ag1469
ag1291
atRp1515
sg3
VC14
p1516
sg31
I00
sg32
Nsg13
g1
sg33
g34
sg53
I0
sg15
VC
sg16
I00
sg54
(F123.74008426975594
F-202.4740473302933
F0.68206944260152713
tp1517
sg56
(lp1518
sg58
(iccpnmr.chemBuild.model.Atom
Atom
p1519
(dp1520
g3
g1516
sg13
g1
sg14
I4
sg15
VC
sg16
I00
sg17
g8
((lp1521
g1359
ag1431
atRp1522
sg154
I00
sbsg133
g8
((ltRp1523
sg144
g8
((lp1524
g1484
a(iccpnmr.chemBuild.model.Bond
Bond
p1525
(dp1526
g148
g149
sg150
Nsg13
g1
sg33
g34
sg17
g8
((lp1527
g1431
ag1291
atRp1528
sba(iccpnmr.chemBuild.model.Bond
Bond
p1529
(dp1530
g148
g149
sg150
Nsg13
g1
sg33
g34
sg17
g8
((lp1531
g1382
ag1431
atRp1532
sbag1510
atRp1533
sg154
I00
sbatRp1534
sg3
VC15
p1535
sg31
I00
sg32
Nsg13
g1
sg33
g34
sg53
I0
sg15
VC
sg16
I00
sg54
(F179.98692132970996
F-196.87951324141537
F0.101815180533114
tp1536
sg56
(lp1537
sg58
(iccpnmr.chemBuild.model.Atom
Atom
p1538
(dp1539
g3
g1535
sg13
g1
sg14
I4
sg15
VC
sg16
I00
sg17
g8
((lp1540
g1382
ag1363
atRp1541
sg154
I00
sbsg133
g8
((ltRp1542
sg144
g8
((lp1543
g1426
a(iccpnmr.chemBuild.model.Bond
Bond
p1544
(dp1545
g148
g149
sg150
Nsg13
g1
sg33
g34
sg17
g8
((lp1546
g1382
ag1378
atRp1547
sbag1529
a(iccpnmr.chemBuild.model.Bond
Bond
p1548
(dp1549
g148
g149
sg150
Nsg13
g1
sg33
g34
sg17
g8
((lp1550
g1382
ag19
atRp1551
sbatRp1552
sg154
I00
sbatRp1553
sg3
g1372
sg31
I00
sg32
Nsg13
g1
sg33
g34
sg53
I0
sg15
S'H'
sg16
I00
sg54
(F181.27546024669311
F-235.12366669423952
F0.52524322187193484
tp1554
sg56
(lp1555
sg58
g1375
sg133
g8
((lp1556
g1419
atRp1557
sg144
g8
((lp1558
g1544
atRp1559
sg154
I00
sbatRp1560
sg154
I00
sbsg133
g8
((lp1561
g1405
atRp1562
sg144
g8
((lp1563
(iccpnmr.chemBuild.model.Bond
Bond
p1564
(dp1565
g148
g149
sg150
Nsg13
g1
sg33
g76
sg17
g8
((lp1566
g1367
ag1363
atRp1567
sbatRp1568
sg154
I00
sbag1397
a(iccpnmr.chemBuild.model.VarAtom
VarAtom
p1569
(dp1570
g21
(lp1571
sg23
g8
((lp1572
(iccpnmr.chemBuild.model.VarAtom
VarAtom
p1573
(dp1574
g21
(lp1575
sg23
g8
((lp1576
g1569
atRp1577
sg3
g30
sg31
I00
sg32
Nsg13
g1
sg33
g76
sg53
I0
sg15
S'H'
sg16
I00
sg54
(F241.799212228942
F-164.36746734082519
F0.3038734534143811
tp1578
sg56
(lp1579
sg58
(iccpnmr.chemBuild.model.Atom
Atom
p1580
(dp1581
g3
g30
sg13
g1
sg14
I1
sg15
S'H'
sg16
I00
sg17
g8
((lp1582
g1573
ag25
atRp1583
sg154
I00
sbsg133
g8
((lp1584
(iccpnmr.chemBuild.model.AtomGroup
AtomGroup
p1585
(dp1586
g137
g138
sg139
g8
((ltRp1587
sg17
g8
((lp1588
g1573
a(iccpnmr.chemBuild.model.VarAtom
VarAtom
p1589
(dp1590
g21
(lp1591
sg23
g8
((lp1592
g1569
atRp1593
sg3
VH16_1
p1594
sg31
I00
sg32
Nsg13
g1
sg33
g76
sg53
I0
sg15
S'H'
sg16
I00
sg54
(F231.35069481156006
F-240.57179707847203
F0.95854311989147634
tp1595
sg56
(lp1596
sg58
(iccpnmr.chemBuild.model.Atom
Atom
p1597
(dp1598
g3
g1594
sg13
g1
sg14
I1
sg15
S'H'
sg16
I00
sg17
g8
((lp1599
(iccpnmr.chemBuild.model.VarAtom
VarAtom
p1600
(dp1601
g21
(lp1602
sg23
g8
((lp1603
g19
atRp1604
sg3
g1594
sg31
I00
sg32
Nsg13
g1
sg33
g34
sg53
I0
sg15
S'H'
sg16
I00
sg54
(F231.35069481156006
F-240.57179707847203
F0.95854311989147634
tp1605
sg56
(lp1606
sg58
g1597
sg133
g8
((lp1607
(iccpnmr.chemBuild.model.AtomGroup
AtomGroup
p1608
(dp1609
g137
g138
sg139
g8
((ltRp1610
sg17
g8
((lp1611
g1600
ag25
atRp1612
sg33
g34
sg13
g1
sbatRp1613
sg144
g8
((lp1614
(iccpnmr.chemBuild.model.Bond
Bond
p1615
(dp1616
g148
g149
sg150
Nsg13
g1
sg33
g34
sg17
g8
((lp1617
g19
ag1600
atRp1618
sbatRp1619
sg154
I00
sbag1589
atRp1620
sg154
I00
sbsg133
g8
((lp1621
g1585
atRp1622
sg144
g8
((lp1623
(iccpnmr.chemBuild.model.Bond
Bond
p1624
(dp1625
g148
g149
sg150
Nsg13
g1
sg33
g76
sg17
g8
((lp1626
g1569
ag1589
atRp1627
sbatRp1628
sg154
I00
sbatRp1629
sg33
g76
sg13
g1
sbatRp1630
sg144
g8
((lp1631
(iccpnmr.chemBuild.model.Bond
Bond
p1632
(dp1633
g148
g149
sg150
Nsg13
g1
sg33
g76
sg17
g8
((lp1634
g1573
ag1569
atRp1635
sbatRp1636
sg154
I00
sbag1589
a(iccpnmr.chemBuild.model.VarAtom
VarAtom
p1637
(dp1638
g21
(lp1639
sg23
g8
((lp1640
(iccpnmr.chemBuild.model.VarAtom
VarAtom
p1641
(dp1642
g21
(lp1643
sg23
g8
((lp1644
g1637
atRp1645
sg3
VH17_2
p1646
sg31
I00
sg32
Nsg13
g1
sg33
g76
sg53
I0
sg15
S'H'
sg16
I00
sg54
(F281.96179565849786
F-254.41909455256226
F0.90668028481367524
tp1647
sg56
(lp1648
sg58
(iccpnmr.chemBuild.model.Atom
Atom
p1649
(dp1650
g3
g1646
sg13
g1
sg14
I1
sg15
S'H'
sg16
I00
sg17
g8
((lp1651
g1641
a(iccpnmr.chemBuild.model.VarAtom
VarAtom
p1652
(dp1653
g21
(lp1654
sg23
g8
((lp1655
(iccpnmr.chemBuild.model.VarAtom
VarAtom
p1656
(dp1657
g21
(lp1658
sg23
g8
((lp1659
(iccpnmr.chemBuild.model.VarAtom
VarAtom
p1660
(dp1661
g21
(lp1662
sg23
g8
((lp1663
g1656
atRp1664
sg3
VH17_1
p1665
sg31
I00
sg32
Nsg13
g1
sg33
g34
sg53
I0
sg15
S'H'
sg16
I00
sg54
(F301.28766125750735
F-179.8870590259522
F0.31479714371780454
tp1666
sg56
(lp1667
sg58
(iccpnmr.chemBuild.model.Atom
Atom
p1668
(dp1669
g3
g1665
sg13
g1
sg14
I1
sg15
S'H'
sg16
I00
sg17
g8
((lp1670
g1660
a(iccpnmr.chemBuild.model.VarAtom
VarAtom
p1671
(dp1672
g21
(lp1673
sg23
g8
((lp1674
g1637
atRp1675
sg3
g1665
sg31
I00
sg32
Nsg13
g1
sg33
g76
sg53
I0
sg15
S'H'
sg16
I00
sg54
(F301.28766125750735
F-179.8870590259522
F0.31479714371780454
tp1676
sg56
(lp1677
sg58
g1668
sg133
g8
((lp1678
(iccpnmr.chemBuild.model.AtomGroup
AtomGroup
p1679
(dp1680
g137
g138
sg139
g8
((ltRp1681
sg17
g8
((lp1682
g1671
ag1641
atRp1683
sg33
g76
sg13
g1
sbatRp1684
sg144
g8
((lp1685
(iccpnmr.chemBuild.model.Bond
Bond
p1686
(dp1687
g148
g149
sg150
Nsg13
g1
sg33
g76
sg17
g8
((lp1688
g1671
ag1637
atRp1689
sbatRp1690
sg154
I00
sbatRp1691
sg154
I00
sbsg133
g8
((lp1692
(iccpnmr.chemBuild.model.AtomGroup
AtomGroup
p1693
(dp1694
g137
g138
sg139
g8
((ltRp1695
sg17
g8
((lp1696
g1660
ag1652
atRp1697
sg33
g34
sg13
g1
sbatRp1698
sg144
g8
((lp1699
(iccpnmr.chemBuild.model.Bond
Bond
p1700
(dp1701
g148
g149
sg150
Nsg13
g1
sg33
g34
sg17
g8
((lp1702
g1660
ag1656
atRp1703
sbatRp1704
sg154
I00
sbag43
ag19
ag1652
atRp1705
sg3
VC17
p1706
sg31
I00
sg32
Nsg13
g1
sg33
g34
sg53
I0
sg15
VC
sg16
I00
sg54
(F290.26201605231233
F-216.80293748188083
F0.80433804839825429
tp1707
sg56
(lp1708
sg58
(iccpnmr.chemBuild.model.Atom
Atom
p1709
(dp1710
g3
g1706
sg13
g1
sg14
I4
sg15
VC
sg16
I00
sg17
g8
((lp1711
g1637
ag1656
atRp1712
sg154
I00
sbsg133
g8
((ltRp1713
sg144
g8
((lp1714
(iccpnmr.chemBuild.model.Bond
Bond
p1715
(dp1716
g148
g149
sg150
Nsg13
g1
sg33
g34
sg17
g8
((lp1717
g43
ag1656
atRp1718
sba(iccpnmr.chemBuild.model.Bond
Bond
p1719
(dp1720
g148
g149
sg150
Nsg13
g1
sg33
g34
sg17
g8
((lp1721
g1656
ag1652
atRp1722
sba(iccpnmr.chemBuild.model.Bond
Bond
p1723
(dp1724
g148
g149
sg150
Nsg13
g1
sg33
g34
sg17
g8
((lp1725
g19
ag1656
atRp1726
sbag1700
atRp1727
sg154
I00
sbatRp1728
sg3
g1646
sg31
I00
sg32
Nsg13
g1
sg33
g34
sg53
I0
sg15
S'H'
sg16
I00
sg54
(F281.96179565849786
F-254.41909455256226
F0.90668028481367524
tp1729
sg56
(lp1730
sg58
g1649
sg133
g8
((lp1731
g1693
atRp1732
sg144
g8
((lp1733
g1719
atRp1734
sg154
I00
sbatRp1735
sg154
I00
sbsg133
g8
((lp1736
g1679
atRp1737
sg144
g8
((lp1738
(iccpnmr.chemBuild.model.Bond
Bond
p1739
(dp1740
g148
g149
sg150
Nsg13
g1
sg33
g76
sg17
g8
((lp1741
g1641
ag1637
atRp1742
sbatRp1743
sg154
I00
sbag1671
ag66
ag1569
atRp1744
sg3
g1706
sg31
I00
sg32
Nsg13
g1
sg33
g76
sg53
I0
sg15
VC
sg16
I00
sg54
(F290.26201605231233
F-216.80293748188083
F0.80433804839825429
tp1745
sg56
(lp1746
sg58
g1709
sg133
g8
((ltRp1747
sg144
g8
((lp1748
g1686
a(iccpnmr.chemBuild.model.Bond
Bond
p1749
(dp1750
g148
g149
sg150
Nsg13
g1
sg33
g76
sg17
g8
((lp1751
g66
ag1637
atRp1752
sba(iccpnmr.chemBuild.model.Bond
Bond
p1753
(dp1754
g148
g149
sg150
Nsg13
g1
sg33
g76
sg17
g8
((lp1755
g1569
ag1637
atRp1756
sbag1739
atRp1757
sg154
I00
sbag1363
atRp1758
sg3
g12
sg31
I00
sg32
Nsg13
g1
sg33
g76
sg53
I0
sg15
VC
sg16
I00
sg54
(F236.17679950075603
F-202.53212412275732
F0.11705919648800578
tp1759
sg56
(lp1760
sg58
g10
sg133
g8
((ltRp1761
sg144
g8
((lp1762
(iccpnmr.chemBuild.model.Bond
Bond
p1763
(dp1764
g148
g149
sg150
Nsg13
g1
sg33
g76
sg17
g8
((lp1765
g1363
ag1569
atRp1766
sbag1632
ag1624
ag1753
atRp1767
sg154
I00
sbatRp1768
sg3
g1535
sg31
I00
sg32
Nsg13
g1
sg33
g76
sg53
I0
sg15
VC
sg16
I00
sg54
(F179.98692132970996
F-196.87951324141537
F0.101815180533114
tp1769
sg56
(lp1770
sg58
g1538
sg133
g8
((ltRp1771
sg144
g8
((lp1772
g1412
ag1763
ag1564
a(iccpnmr.chemBuild.model.Bond
Bond
p1773
(dp1774
g148
g149
sg150
Nsg13
g1
sg33
g76
sg17
g8
((lp1775
g1359
ag1363
atRp1776
sbatRp1777
sg154
I00
sbag1458
ag1310
ag1446
atRp1778
sg3
g1516
sg31
I00
sg32
Nsg13
g1
sg33
g76
sg53
I0
sg15
VC
sg16
I00
sg54
(F123.74008426975594
F-202.4740473302933
F0.68206944260152713
tp1779
sg56
(lp1780
sg58
g1519
sg133
g8
((ltRp1781
sg144
g8
((lp1782
(iccpnmr.chemBuild.model.Bond
Bond
p1783
(dp1784
g148
g149
sg150
Nsg13
g1
sg33
g76
sg17
g8
((lp1785
g1310
ag1359
atRp1786
sbag1493
ag1501
ag1773
atRp1787
sg154
I00
sbatRp1788
sg3
VC13
p1789
sg31
I00
sg32
Nsg13
g1
sg33
g76
sg53
I0
sg15
VC
sg16
I00
sg54
(F69.790853927547474
F-218.73288973442894
F0.041153106908123904
tp1790
sg56
(lp1791
sg58
(iccpnmr.chemBuild.model.Atom
Atom
p1792
(dp1793
g3
g1789
sg13
g1
sg14
I4
sg15
VC
sg16
I00
sg17
g8
((lp1794
g1310
ag1291
atRp1795
sg154
I00
sbsg133
g8
((ltRp1796
sg144
g8
((lp1797
g1783
a(iccpnmr.chemBuild.model.Bond
Bond
p1798
(dp1799
g148
g149
sg150
Nsg13
g1
sg33
g76
sg17
g8
((lp1800
g1310
ag1306
atRp1801
sbag1354
a(iccpnmr.chemBuild.model.Bond
Bond
p1802
(dp1803
g148
g149
sg150
Nsg13
g1
sg33
g76
sg17
g8
((lp1804
g88
ag1310
atRp1805
sbatRp1806
sg154
I00
sbatRp1807
sg3
g1300
sg31
I00
sg32
Nsg13
g1
sg33
g76
sg53
I0
sg15
S'H'
sg16
I00
sg54
(F83.1870173640947
F-254.60362035522226
F0.47222346244270752
tp1808
sg56
(lp1809
sg58
g1303
sg133
g8
((lp1810
g1347
atRp1811
sg144
g8
((lp1812
g1798
atRp1813
sg154
I00
sbatRp1814
sg154
I00
sbsg133
g8
((lp1815
g1333
atRp1816
sg144
g8
((lp1817
(iccpnmr.chemBuild.model.Bond
Bond
p1818
(dp1819
g148
g149
sg150
Nsg13
g1
sg33
g34
sg17
g8
((lp1820
g1295
ag1291
atRp1821
sbatRp1822
sg154
I00
sbag1431
ag1325
atRp1823
sg3
g1789
sg31
I00
sg32
Nsg13
g1
sg33
g34
sg53
I0
sg15
VC
sg16
I00
sg54
(F69.790853927547474
F-218.73288973442894
F0.041153106908123904
tp1824
sg56
(lp1825
sg58
g1792
sg133
g8
((ltRp1826
sg144
g8
((lp1827
(iccpnmr.chemBuild.model.Bond
Bond
p1828
(dp1829
g148
g149
sg150
Nsg13
g1
sg33
g34
sg17
g8
((lp1830
g107
ag1291
atRp1831
sbag1525
ag1340
ag1818
atRp1832
sg154
I00
sbatRp1833
sg3
VC12
p1834
sg31
I00
sg32
Nsg13
g1
sg33
g34
sg53
I0
sg15
VC
sg16
I00
sg54
(F20.388981618558788
F-244.65795472642318
F0.64953271149592373
tp1835
sg56
(lp1836
sg58
(iccpnmr.chemBuild.model.Atom
Atom
p1837
(dp1838
g3
g1834
sg13
g1
sg14
I4
sg15
VC
sg16
I00
sg17
g8
((lp1839
g88
ag107
atRp1840
sg154
I00
sbsg133
g8
((ltRp1841
sg144
g8
((lp1842
g1828
ag1286
ag1241
a(iccpnmr.chemBuild.model.Bond
Bond
p1843
(dp1844
g148
g149
sg150
Nsg13
g1
sg33
g34
sg17
g8
((lp1845
g107
ag103
atRp1846
sbatRp1847
sg154
I00
sbatRp1848
sg3
g97
sg31
I00
sg32
Nsg13
g1
sg33
g34
sg53
I0
sg15
S'H'
sg16
I00
sg54
(F38.874386990674466
F-278.30830705921471
F0.91443869107560816
tp1849
sg56
(lp1850
sg58
g100
sg133
g8
((lp1851
g1279
atRp1852
sg144
g8
((lp1853
g1843
atRp1854
sg154
I00
sbag92
atRp1855
sg154
I00
sbsg133
g8
((lp1856
g1265
atRp1857
sg144
g8
((lp1858
(iccpnmr.chemBuild.model.Bond
Bond
p1859
(dp1860
g148
g149
sg150
Nsg13
g1
sg33
g76
sg17
g8
((lp1861
g88
ag92
atRp1862
sbatRp1863
sg154
I00
sbag84
ag1310
ag1257
atRp1864
sg3
g1834
sg31
I00
sg32
Nsg13
g1
sg33
g76
sg53
I0
sg15
VC
sg16
I00
sg54
(F20.388981618558788
F-244.65795472642318
F0.64953271149592373
tp1865
sg56
(lp1866
sg58
g1837
sg133
g8
((ltRp1867
sg144
g8
((lp1868
(iccpnmr.chemBuild.model.Bond
Bond
p1869
(dp1870
g148
g149
sg150
Nsg13
g1
sg33
g76
sg17
g8
((lp1871
g88
ag84
atRp1872
sbag1802
ag1859
ag1272
atRp1873
sg154
I00
sbag1126
ag126
atRp1874
sg3
g1232
sg31
I00
sg32
Nsg13
g1
sg33
g76
sg53
I0
sg15
VC
sg16
I00
sg54
(F-22.861253888774044
F-276.73423143492369
F0.46054939714169207
tp1875
sg56
(lp1876
sg58
g1235
sg133
g8
((ltRp1877
sg144
g8
((lp1878
g1869
ag146
ag1173
a(iccpnmr.chemBuild.model.Bond
Bond
p1879
(dp1880
g148
g149
sg150
Nsg13
g1
sg33
g76
sg17
g8
((lp1881
g80
ag84
atRp1882
sbatRp1883
sg154
I00
sbatRp1884
sg3
g166
sg31
I00
sg32
Nsg13
g1
sg33
g76
sg53
I0
sg15
S'H'
sg16
I00
sg54
(F-49.529134976341922
F-248.98149200928842
F0.55367420342266094
tp1885
sg56
(lp1886
sg58
g169
sg133
g8
((lp1887
g135
atRp1888
sg144
g8
((lp1889
g1879
atRp1890
sg154
I00
sbag1589
ag373
ag1641
ag1397
ag208
ag1573
ag70
ag323
ag62
a(iccpnmr.chemBuild.model.VarAtom
VarAtom
p1891
(dp1892
g21
(lp1893
sg23
g8
((lp1894
g66
atRp1895
sg3
VH18_3
p1896
sg31
I00
sg32
Nsg13
g1
sg33
g76
sg53
I0
sg15
S'H'
sg16
I00
sg54
(F360.62730313888562
F-198.94694044619209
F0.72769543139199
tp1897
sg56
(lp1898
sg58
(iccpnmr.chemBuild.model.Atom
Atom
p1899
(dp1900
g3
g1896
sg13
g1
sg14
I1
sg15
S'H'
sg16
I00
sg17
g8
((lp1901
g1891
ag39
atRp1902
sg154
I00
sbsg133
g8
((lp1903
(iccpnmr.chemBuild.model.AtomGroup
AtomGroup
p1904
(dp1905
g137
S'equivalent'
p1906
sg139
g8
((ltRp1907
sg17
g8
((lp1908
g62
ag70
ag1891
atRp1909
sg33
g76
sg13
g1
sbatRp1910
sg144
g8
((lp1911
(iccpnmr.chemBuild.model.Bond
Bond
p1912
(dp1913
g148
g149
sg150
Nsg13
g1
sg33
g76
sg17
g8
((lp1914
g66
ag1891
atRp1915
sbatRp1916
sg154
I00
sbag224
ag1306
ag266
ag585
ag999
ag1130
ag805
ag672
ag987
ag1458
ag1446
ag459
ag706
ag274
ag1367
ag425
ag1314
ag1257
ag938
ag771
ag92
ag1671
ag126
atRp1917
sVC
g8
((lp1918
g1363
ag1637
ag216
ag88
ag66
ag1310
ag1126
ag365
ag1569
ag664
ag270
ag220
ag212
ag84
ag319
ag1359
ag668
ag421
atRp1919
sS'O'
g8
((lp1920
g361
ag369
atRp1921
ssg144
g8
((lp1922
g846
ag1739
ag1632
ag766
ag649
ag416
ag1749
ag519
ag1773
a(iccpnmr.chemBuild.model.Bond
Bond
p1923
(dp1924
g148
g149
sg150
Nsg13
g1
sg33
g76
sg17
g8
((lp1925
g62
ag66
atRp1926
sbag1564
ag1034
ag820
ag953
ag1753
ag534
ag1501
ag1111
ag1798
ag762
ag1173
ag1869
ag146
ag474
ag1177
ag1763
ag1783
ag747
ag861
a(iccpnmr.chemBuild.model.Bond
Bond
p1927
(dp1928
g148
g149
sg150
Nsg13
g1
sg33
g76
sg17
g8
((lp1929
g70
ag66
atRp1930
sbag1859
ag1879
ag387
ag1101
ag500
ag659
ag1686
ag1412
ag314
ag1493
ag1042
ag876
ag1802
ag1354
ag600
ag515
ag1624
ag1272
ag1192
ag1121
ag1158
ag1912
ag721
atRp1931
sg13
g1
sS'atomDict'
p1932
(dp1933
g10
g1569
sg1235
g84
sg358
g361
sg1167
g1126
sg59
g62
sg1837
g88
sg1394
g1397
sg100
g92
sg1597
g1589
sg1580
g1573
sg1138
g1130
sg528
g365
sg1649
g1641
sg263
g266
sg1060
g216
sg756
g668
sg623
g319
sg984
g987
sg1079
g220
s(iccpnmr.chemBuild.model.Atom
Atom
p1934
(dp1935
g3
g75
sg13
g1
sg14
I1
sg15
S'H'
sg16
I00
sg17
g8
((lp1936
g70
a(iccpnmr.chemBuild.model.VarAtom
VarAtom
p1937
(dp1938
g21
(lp1939
sg23
g8
((lp1940
g43
atRp1941
sg3
g75
sg31
I00
sg32
Nsg13
g1
sg33
g34
sg53
I0
sg15
S'H'
sg16
I00
sg54
(F380.216976790628
F-244.73882132779462
F0.84084787643572723
tp1942
sg56
(lp1943
sg58
g1934
sg133
g8
((lp1944
(iccpnmr.chemBuild.model.AtomGroup
AtomGroup
p1945
(dp1946
g137
g1906
sg139
g8
((ltRp1947
sg17
g8
((lp1948
g47
ag1937
ag39
atRp1949
sg33
g34
sg13
g1
sbatRp1950
sg144
g8
((lp1951
(iccpnmr.chemBuild.model.Bond
Bond
p1952
(dp1953
g148
g149
sg150
Nsg13
g1
sg33
g34
sg17
g8
((lp1954
g1937
ag43
atRp1955
sbatRp1956
sg154
I00
sbatRp1957
sg154
I00
sbg70
sg1443
g1446
sg433
g425
sg1709
g1637
sg123
g126
sg456
g459
sg779
g771
sg855
g664
sg1899
g1891
sg1538
g1363
sg703
g706
sg680
g672
sg1519
g1359
sg1303
g1306
sg1466
g1458
s(iccpnmr.chemBuild.model.Atom
Atom
p1958
(dp1959
g3
VC18
p1960
sg13
g1
sg14
I4
sg15
VC
sg16
I00
sg17
g8
((lp1961
g66
ag43
atRp1962
sg154
I00
sbg66
sg381
g373
sg1668
g1671
sg582
g585
sg1186
g212
sg396
g369
sg1322
g1314
sg169
g80
sg509
g421
sg1375
g1367
sg1007
g999
sg870
g270
sg282
g274
sg205
g208
sg232
g224
sg1792
g1310
sg331
g323
sg1254
g1257
sg802
g805
sg935
g938
ssS'descriptor'
p1963
(S'+H1'
S'none'
p1964
S'default'
p1965
tp1966
sg17
g8
((lp1967
g323
ag80
ag1589
ag373
ag1641
ag365
ag1397
ag999
ag1573
ag70
ag212
ag84
ag319
ag1359
ag421
ag62
ag1458
ag220
ag266
ag1363
ag664
ag270
ag1891
ag1130
ag668
ag361
ag938
ag672
ag1446
ag987
ag1306
ag1126
ag1569
ag459
ag224
ag274
ag1367
ag706
ag208
ag369
ag425
ag1637
ag88
ag1310
ag66
ag771
ag805
ag1314
ag216
ag92
ag585
ag1671
ag1257
ag126
atRp1968
sg133
g8
((lp1969
g593
ag307
ag1265
ag135
ag1585
ag1454
ag995
ag946
ag1679
ag1904
ag813
ag1347
ag467
ag714
ag1405
atRp1970
sS'polyLink'
p1971
S'free'
p1972
sbsg53
I0
sg15
S'H'
sg16
I00
sg54
(F380.216976790628
F-244.73882132779462
F0.84084787643572723
tp1973
sg56
(lp1974
sg58
g1934
sg133
g8
((lp1975
g1904
atRp1976
sg144
g8
((lp1977
g1927
atRp1978
sg154
I00
sbag1637
ag62
ag1891
atRp1979
sg3
g1960
sg31
I00
sg32
Nsg13
g1
sg33
g76
sg53
I0
sg15
VC
sg16
I00
sg54
(F342.78273031058154
F-233.46830428955238
F0.074797032195064728
tp1980
sg56
(lp1981
sg58
g1958
sg133
g8
((ltRp1982
sg144
g8
((lp1983
g1749
ag1923
ag1912
ag1927
atRp1984
sg154
I00
sbatRp1985
sg3
g52
sg31
I00
sg32
Nsg13
g1
sg33
g76
sg53
I0
sg15
S'H'
sg16
I00
sg54
(F338.70125493231444
F-272.17352661275061
F0.77646314442761599
tp1986
sg56
(lp1987
sg58
g59
sg133
g8
((lp1988
g1904
atRp1989
sg144
g8
((lp1990
g1923
atRp1991
sg154
I00
sbatRp1992
sg154
I00
sbsg133
g8
((lp1993
g1945
atRp1994
sg144
g8
((lp1995
(iccpnmr.chemBuild.model.Bond
Bond
p1996
(dp1997
g148
g149
sg150
Nsg13
g1
sg33
g34
sg17
g8
((lp1998
g47
ag43
atRp1999
sbatRp2000
sg154
I00
sbag1937
ag1656
atRp2001
sg3
g1960
sg31
I00
sg32
Nsg13
g1
sg33
g34
sg53
I0
sg15
VC
sg16
I00
sg54
(F342.78273031058154
F-233.46830428955238
F0.074797032195064728
tp2002
sg56
(lp2003
sg58
g1958
sg133
g8
((ltRp2004
sg144
g8
((lp2005
g1715
ag1952
ag1996
a(iccpnmr.chemBuild.model.Bond
Bond
p2006
(dp2007
g148
g149
sg150
Nsg13
g1
sg33
g34
sg17
g8
((lp2008
g43
ag39
atRp2009
sbatRp2010
sg154
I00
sbatRp2011
sg3
g1896
sg31
I00
sg32
Nsg13
g1
sg33
g34
sg53
I0
sg15
S'H'
sg16
I00
sg54
(F360.62730313888562
F-198.94694044619209
F0.72769543139199
tp2012
sg56
(lp2013
sg58
g1899
sg133
g8
((lp2014
g1945
atRp2015
sg144
g8
((lp2016
g2006
atRp2017
sg154
I00
sbag695
ag255
ag927
ag1246
ag197
ag1469
ag1325
ag1295
ag25
ag1141
ag1600
ag1010
ag436
ag574
ag103
ag115
ag161
ag1435
ag1937
ag1660
ag794
ag782
ag285
ag683
ag334
ag1378
ag1652
ag976
ag1386
ag448
ag235
ag47
atRp2018
sVC
g8
((lp2019
g193
ag107
ag247
ag43
ag189
ag251
ag19
ag342
ag972
ag1291
ag1382
ag243
ag111
ag346
ag239
ag1656
ag1431
ag338
atRp2020
sS'O'
g8
((lp2021
g350
ag399
atRp2022
ssg144
g8
((lp2023
g491
ag967
ag1510
ag633
ag1216
ag176
ag1484
ag629
ag1723
ag1843
ag549
ag614
ag1025
ag1700
ag837
ag1828
ag902
ag912
ag1426
ag559
ag184
ag408
ag1070
ag1241
ag1085
ag1996
ag1544
ag1226
ag2006
ag829
ag569
ag1818
ag483
ag1066
ag1051
ag1615
ag1952
ag1286
ag922
ag1715
ag300
ag892
ag1150
ag1340
ag1548
ag1719
a(iccpnmr.chemBuild.model.Bond
Bond
p2024
(dp2025
g148
g149
sg150
Nsg13
g1
sg33
g34
sg17
g8
((lp2026
g19
ag25
atRp2027
sbag1525
ag730
ag738
ag1206
ag1529
atRp2028
sg13
g1
sg1932
(dp2029
g10
g19
sg1235
g111
sg358
g350
sg1167
g189
sg59
g47
sg1837
g107
sg205
g197
sg100
g103
sg1597
g1600
sg1580
g25
sg1138
g1141
sg528
g346
sg1649
g1652
sg263
g255
sg1060
g972
sg756
g243
sg623
g338
sg984
g976
sg1079
g239
sg1934
g1937
sg1443
g1435
sg433
g436
sg1709
g1656
sg123
g115
sg456
g448
sg779
g782
sg855
g247
sg1899
g39
sg1538
g1382
sg703
g695
sg680
g683
sg1519
g1431
sg1303
g1295
sg1466
g1469
sg1958
g43
sg1394
g1386
sg1668
g1660
sg582
g574
sg1186
g193
sg396
g399
sg1322
g1325
sg169
g161
sg509
g342
sg1375
g1378
sg1007
g1010
sg870
g251
sg282
g285
sg232
g235
sg1792
g1291
sg331
g334
sg1254
g1246
sg802
g794
sg935
g927
ssg1963
(S'-H1'
g1964
g1965
tp2030
sg17
g8
((lp2031
g448
ag189
ag399
ag103
ag695
ag285
ag255
ag1652
ag25
ag927
ag1246
ag19
ag972
ag1469
ag1325
ag1386
ag243
ag1141
ag1600
ag1010
ag436
ag574
ag107
ag115
ag161
ag193
ag39
ag1435
ag1291
ag346
ag794
ag239
ag247
ag683
ag334
ag338
ag43
ag1660
ag251
ag47
ag342
ag1656
ag976
ag350
ag1295
ag111
ag197
ag1382
ag782
ag235
ag1431
ag1378
ag1937
atRp2032
sg133
g8
((lp2033
g1477
ag607
ag691
ag157
ag1279
ag1419
ag960
ag1333
ag1693
ag1608
ag293
ag1018
ag790
ag444
ag1945
atRp2034
sg1971
g1972
sbsg53
I0
sg15
S'H'
sg16
I00
sg54
(F241.799212228942
F-164.36746734082519
F0.3038734534143811
tp2035
sg56
(lp2036
sg58
g1580
sg133
g8
((lp2037
g1608
atRp2038
sg144
g8
((lp2039
g2024
atRp2040
sg154
I00
sbag1600
ag1382
ag1656
atRp2041
sg3
g12
sg31
I00
sg32
Nsg13
g1
sg33
g34
sg53
I0
sg15
VC
sg16
I00
sg54
(F236.17679950075603
F-202.53212412275732
F0.11705919648800578
tp2042
sg56
(lp2043
sg58
g10
sg133
g8
((ltRp2044
sg144
g8
((lp2045
g1723
ag1615
ag2024
ag1548
atRp2046
sg154
I00
sbag1569
atRp2047
sg154
I00
sbag1235
ag358
ag1167
ag59
ag1837
ag1394
ag100
ag1597
ag1580
ag1138
ag528
ag1649
ag263
ag1060
ag756
ag623
ag984
ag1079
ag1934
ag1443
ag433
ag1709
ag123
ag456
ag779
ag855
ag1899
ag1538
ag703
ag680
ag1519
ag1303
ag1466
ag1958
ag381
ag1668
ag582
ag1186
ag396
ag1322
ag169
ag509
ag1375
ag1007
ag870
ag282
ag205
ag232
ag1792
ag331
ag1254
ag802
ag935
atRp2048
sS'ccpMolType'
p2049
S'other'
p2050
sS'details'
p2051
V
sg1932
(dp2052
g1391
g1394
sg981
g984
sg1004
g1007
sg355
g358
sg1960
g1958
sg1789
g1792
sg1834
g1837
sg1232
g1235
sg1164
g1167
sg1706
g1709
sg12
g10
sg1535
g1538
sg1516
g1519
sg260
g263
sg279
g282
sg393
g396
sg328
g331
sg579
g582
sg1183
g1186
sg1057
g1060
sg1896
g1899
sg52
g59
sg75
g1934
sg620
g623
sg506
g509
sg525
g528
sg1076
g1079
sg753
g756
sg852
g855
sg867
g870
sg932
g935
sg229
g232
sg1665
g1668
sg1646
g1649
sg1463
g1466
sg1135
g1138
sg700
g703
sg677
g680
sg1440
g1443
sg430
g433
sg453
g456
sg1594
g1597
sg30
g1580
sg1300
g1303
sg1319
g1322
sg202
g205
sg1372
g1375
sg378
g381
sg776
g779
sg120
g123
sg799
g802
sg166
g169
sg97
g100
sg1251
g1254
ssS'keywords'
p2053
g8
((ltRp2054
sg133
g8
((lp2055
g1333
ag593
ag157
ag1279
ag691
ag960
ag1608
ag1693
ag790
ag293
ag307
ag444
ag1265
ag1405
ag135
ag607
ag1585
ag1477
ag1454
ag1419
ag995
ag946
ag1679
ag1904
ag813
ag1018
ag1347
ag467
ag1945
ag714
atRp2056
sS'variants'
p2057
g8
((lp2058
g76
ag34
atRp2059
sS'defaultVars'
p2060
g8
((ltRp2061
sb.