(iccpnmr.chemBuild.model.Compound
Compound
p1
(dp2
S'name'
p3
S'Unnamed'
p4
sS'isModified'
p5
I01
sS'ccpCode'
p6
NsS'atoms'
p7
c__builtin__
set
p8
((lp9
(iccpnmr.chemBuild.model.Atom
Atom
p10
(dp11
g3
S'HC1'
p12
sS'compound'
p13
g1
sS'baseValences'
p14
I1
sS'element'
p15
S'H'
sS'isVariable'
p16
I00
sS'varAtoms'
p17
g8
((lp18
(iccpnmr.chemBuild.model.VarAtom
VarAtom
p19
(dp20
S'stereo'
p21
(lp22
sS'neighbours'
p23
g8
((lp24
(iccpnmr.chemBuild.model.VarAtom
VarAtom
p25
(dp26
g21
(lp27
sg23
g8
((lp28
g19
a(iccpnmr.chemBuild.model.VarAtom
VarAtom
p29
(dp30
g21
(lp31
sg23
g8
((lp32
g25
a(iccpnmr.chemBuild.model.VarAtom
VarAtom
p33
(dp34
g21
(lp35
sg23
g8
((lp36
g29
atRp37
sg3
S'HD2'
p38
sS'isLabile'
p39
I00
sS'chirality'
p40
Nsg13
g1
sS'variant'
p41
(iccpnmr.chemBuild.model.Variant
Variant
p42
(dp43
S'elementDict'
p44
(dp45
S'H'
g8
((lp46
(iccpnmr.chemBuild.model.VarAtom
VarAtom
p47
(dp48
g21
(lp49
sg23
g8
((lp50
(iccpnmr.chemBuild.model.VarAtom
VarAtom
p51
(dp52
g21
(lp53
sg23
g8
((lp54
(iccpnmr.chemBuild.model.VarAtom
VarAtom
p55
(dp56
g21
(lp57
sg23
g8
((lp58
g51
a(iccpnmr.chemBuild.model.VarAtom
VarAtom
p59
(dp60
g21
(lp61
sg23
g8
((lp62
g55
a(iccpnmr.chemBuild.model.VarAtom
VarAtom
p63
(dp64
g21
(lp65
sg23
g8
((lp66
g59
atRp67
sg3
S'H32'
p68
sg39
I00
sg40
Nsg13
g1
sg41
g42
sS'charge'
p69
I0
sg15
S'H'
sg16
I00
sS'coords'
p70
(F-332.2332278490299
F-410.01683915235282
F0
tp71
sS'freeValences'
p72
(lp73
sS'atom'
p74
(iccpnmr.chemBuild.model.Atom
Atom
p75
(dp76
g3
g68
sg13
g1
sg14
I1
sg15
S'H'
sg16
I00
sg17
g8
((lp77
(iccpnmr.chemBuild.model.VarAtom
VarAtom
p78
(dp79
g21
(lp80
sg23
g8
((lp81
(iccpnmr.chemBuild.model.VarAtom
VarAtom
p82
(dp83
g21
(lp84
sg23
g8
((lp85
(iccpnmr.chemBuild.model.VarAtom
VarAtom
p86
(dp87
g21
(lp88
sg23
g8
((lp89
(iccpnmr.chemBuild.model.VarAtom
VarAtom
p90
(dp91
g21
(lp92
sg23
g8
((lp93
g86
atRp94
sg3
S'H21'
p95
sg39
I00
sg40
Nsg13
g1
sg41
(iccpnmr.chemBuild.model.Variant
Variant
p96
(dp97
g44
(dp98
S'H'
g8
((lp99
(iccpnmr.chemBuild.model.VarAtom
VarAtom
p100
(dp101
g21
(lp102
sg23
g8
((lp103
(iccpnmr.chemBuild.model.VarAtom
VarAtom
p104
(dp105
g21
(lp106
sg23
g8
((lp107
g100
ag82
a(iccpnmr.chemBuild.model.VarAtom
VarAtom
p108
(dp109
g21
(lp110
sg23
g8
((lp111
(iccpnmr.chemBuild.model.VarAtom
VarAtom
p112
(dp113
g21
(lp114
sg23
g8
((lp115
g108
atRp116
sg3
S'H51'
p117
sg39
I00
sg40
Nsg13
g1
sg41
g96
sg69
I0
sg15
S'H'
sg16
I00
sg70
(F-190.69012094607527
F-376.823913526681
F0
tp118
sg72
(lp119
sg74
(iccpnmr.chemBuild.model.Atom
Atom
p120
(dp121
g3
g117
sg13
g1
sg14
I1
sg15
S'H'
sg16
I00
sg17
g8
((lp122
g112
ag47
atRp123
sS'isDeleted'
p124
I00
sbsS'atomGroups'
p125
g8
((lp126
(iccpnmr.chemBuild.model.AtomGroup
AtomGroup
p127
(dp128
S'groupType'
p129
S'prochiral'
p130
sS'subGroups'
p131
g8
((ltRp132
sg17
g8
((lp133
g112
a(iccpnmr.chemBuild.model.VarAtom
VarAtom
p134
(dp135
g21
(lp136
sg23
g8
((lp137
g108
atRp138
sg3
S'H52'
p139
sg39
I00
sg40
Nsg13
g1
sg41
g96
sg69
I0
sg15
S'H'
sg16
I00
sg70
(F-234.16553765662567
F-384.33935771378719
F0
tp140
sg72
(lp141
sg74
(iccpnmr.chemBuild.model.Atom
Atom
p142
(dp143
g3
g139
sg13
g1
sg14
I1
sg15
S'H'
sg16
I00
sg17
g8
((lp144
(iccpnmr.chemBuild.model.VarAtom
VarAtom
p145
(dp146
g21
(lp147
sg23
g8
((lp148
g51
atRp149
sg3
g139
sg39
I00
sg40
Nsg13
g1
sg41
g42
sg69
I0
sg15
S'H'
sg16
I00
sg70
(F-234.16553765662567
F-384.33935771378719
F0
tp150
sg72
(lp151
sg74
g142
sg125
g8
((lp152
(iccpnmr.chemBuild.model.AtomGroup
AtomGroup
p153
(dp154
g129
g130
sg131
g8
((ltRp155
sg17
g8
((lp156
g145
ag47
atRp157
sg41
g42
sg13
g1
sbatRp158
sS'bonds'
p159
g8
((lp160
(iccpnmr.chemBuild.model.Bond
Bond
p161
(dp162
S'bondType'
p163
S'single'
p164
sS'direction'
p165
Nsg13
g1
sg41
g42
sg17
g8
((lp166
g51
ag145
atRp167
sbatRp168
sg124
I00
sbag134
atRp169
sg124
I00
sbsg125
g8
((lp170
g127
atRp171
sg159
g8
((lp172
(iccpnmr.chemBuild.model.Bond
Bond
p173
(dp174
g163
g164
sg165
Nsg13
g1
sg41
g96
sg17
g8
((lp175
g108
ag134
atRp176
sbatRp177
sg124
I00
sbatRp178
sg41
g96
sg13
g1
sbatRp179
sg159
g8
((lp180
(iccpnmr.chemBuild.model.Bond
Bond
p181
(dp182
g163
g164
sg165
Nsg13
g1
sg41
g96
sg17
g8
((lp183
g112
ag108
atRp184
sbatRp185
sg124
I00
sba(iccpnmr.chemBuild.model.VarAtom
VarAtom
p186
(dp187
g21
(lp188
sg23
g8
((lp189
(iccpnmr.chemBuild.model.VarAtom
VarAtom
p190
(dp191
g21
(lp192
sg23
g8
((lp193
g186
atRp194
sg3
S'H62'
p195
sg39
I00
sg40
Nsg13
g1
sg41
g96
sg69
I0
sg15
S'H'
sg16
I00
sg70
(F-169.9428211203772
F-460.98994752652402
F0
tp196
sg72
(lp197
sg74
(iccpnmr.chemBuild.model.Atom
Atom
p198
(dp199
g3
g195
sg13
g1
sg14
I1
sg15
S'H'
sg16
I00
sg17
g8
((lp200
g190
a(iccpnmr.chemBuild.model.VarAtom
VarAtom
p201
(dp202
g21
(lp203
sg23
g8
((lp204
(iccpnmr.chemBuild.model.VarAtom
VarAtom
p205
(dp206
g21
(lp207
sg23
g8
((lp208
(iccpnmr.chemBuild.model.VarAtom
VarAtom
p209
(dp210
g21
(lp211
sg23
g8
((lp212
(iccpnmr.chemBuild.model.VarAtom
VarAtom
p213
(dp214
g21
(lp215
sg23
g8
((lp216
g209
atRp217
sg3
S'H71'
p218
sg39
I00
sg40
Nsg13
g1
sg41
g42
sg69
I0
sg15
S'H'
sg16
I00
sg70
(F-86.562782557078961
F-362.23886348820048
F0
tp219
sg72
(lp220
sg74
(iccpnmr.chemBuild.model.Atom
Atom
p221
(dp222
g3
g218
sg13
g1
sg14
I1
sg15
S'H'
sg16
I00
sg17
g8
((lp223
g213
a(iccpnmr.chemBuild.model.VarAtom
VarAtom
p224
(dp225
g21
(lp226
sg23
g8
((lp227
(iccpnmr.chemBuild.model.VarAtom
VarAtom
p228
(dp229
g21
(lp230
sg23
g8
((lp231
g186
ag224
a(iccpnmr.chemBuild.model.VarAtom
VarAtom
p232
(dp233
g21
(lp234
sg23
g8
((lp235
g228
atRp236
sg3
S'H72'
p237
sg39
I00
sg40
Nsg13
g1
sg41
g96
sg69
I0
sg15
S'H'
sg16
I00
sg70
(F-131.00858458472842
F-365.62648884252366
F0
tp238
sg72
(lp239
sg74
(iccpnmr.chemBuild.model.Atom
Atom
p240
(dp241
g3
g237
sg13
g1
sg14
I1
sg15
S'H'
sg16
I00
sg17
g8
((lp242
(iccpnmr.chemBuild.model.VarAtom
VarAtom
p243
(dp244
g21
(lp245
sg23
g8
((lp246
g209
atRp247
sg3
g237
sg39
I00
sg40
Nsg13
g1
sg41
g42
sg69
I0
sg15
S'H'
sg16
I00
sg70
(F-131.00858458472842
F-365.62648884252366
F0
tp248
sg72
(lp249
sg74
g240
sg125
g8
((lp250
(iccpnmr.chemBuild.model.AtomGroup
AtomGroup
p251
(dp252
g129
g130
sg131
g8
((ltRp253
sg17
g8
((lp254
g213
ag243
atRp255
sg41
g42
sg13
g1
sbatRp256
sg159
g8
((lp257
(iccpnmr.chemBuild.model.Bond
Bond
p258
(dp259
g163
g164
sg165
Nsg13
g1
sg41
g42
sg17
g8
((lp260
g209
ag243
atRp261
sbatRp262
sg124
I00
sbag232
atRp263
sg124
I00
sbsg125
g8
((lp264
(iccpnmr.chemBuild.model.AtomGroup
AtomGroup
p265
(dp266
g129
g130
sg131
g8
((ltRp267
sg17
g8
((lp268
g224
ag232
atRp269
sg41
g96
sg13
g1
sbatRp270
sg159
g8
((lp271
(iccpnmr.chemBuild.model.Bond
Bond
p272
(dp273
g163
g164
sg165
Nsg13
g1
sg41
g96
sg17
g8
((lp274
g228
ag232
atRp275
sbatRp276
sg124
I00
sba(iccpnmr.chemBuild.model.VarAtom
VarAtom
p277
(dp278
g21
(lp279
sg23
g8
((lp280
(iccpnmr.chemBuild.model.VarAtom
VarAtom
p281
(dp282
g21
(lp283
sg23
g8
((lp284
(iccpnmr.chemBuild.model.VarAtom
VarAtom
p285
(dp286
g21
(lp287
sg23
g8
((lp288
(iccpnmr.chemBuild.model.VarAtom
VarAtom
p289
(dp290
g21
(lp291
sg23
g8
((lp292
g285
a(iccpnmr.chemBuild.model.VarAtom
VarAtom
p293
(dp294
g21
(lp295
sg23
g8
((lp296
g289
atRp297
sg3
S'HB2'
p298
sg39
I00
sg40
Nsg13
g1
sg41
g96
sg69
I0
sg15
S'H'
sg16
I00
sg70
(F74.797293148271763
F-373.18847309916987
F0
tp299
sg72
(lp300
sg74
(iccpnmr.chemBuild.model.Atom
Atom
p301
(dp302
g3
g298
sg13
g1
sg14
I1
sg15
S'H'
sg16
I00
sg17
g8
((lp303
g293
a(iccpnmr.chemBuild.model.VarAtom
VarAtom
p304
(dp305
g21
(lp306
sg23
g8
((lp307
(iccpnmr.chemBuild.model.VarAtom
VarAtom
p308
(dp309
g21
(lp310
sg23
g8
((lp311
g304
ag25
a(iccpnmr.chemBuild.model.VarAtom
VarAtom
p312
(dp313
g21
(lp314
sg23
g8
((lp315
g308
a(iccpnmr.chemBuild.model.VarAtom
VarAtom
p316
(dp317
g21
(lp318
sg23
g8
((lp319
g312
atRp320
sg3
S'HA1'
p321
sg39
I00
sg40
Nsg13
g1
sg41
g42
sg69
I0
sg15
S'H'
sg16
I00
sg70
(F64.102568825718748
F-459.252098061867
F0
tp322
sg72
(lp323
sg74
(iccpnmr.chemBuild.model.Atom
Atom
p324
(dp325
g3
g321
sg13
g1
sg14
I1
sg15
S'H'
sg16
I00
sg17
g8
((lp326
g316
a(iccpnmr.chemBuild.model.VarAtom
VarAtom
p327
(dp328
g21
(lp329
sg23
g8
((lp330
g285
atRp331
sg3
g321
sg39
I00
sg40
Nsg13
g1
sg41
g96
sg69
I0
sg15
S'H'
sg16
I00
sg70
(F64.102568825718748
F-459.252098061867
F0
tp332
sg72
(lp333
sg74
g324
sg125
g8
((lp334
(iccpnmr.chemBuild.model.AtomGroup
AtomGroup
p335
(dp336
g129
g130
sg131
g8
((ltRp337
sg17
g8
((lp338
(iccpnmr.chemBuild.model.VarAtom
VarAtom
p339
(dp340
g21
(lp341
sg23
g8
((lp342
g285
atRp343
sg3
S'HA2'
p344
sg39
I00
sg40
Nsg13
g1
sg41
g96
sg69
I0
sg15
S'H'
sg16
I00
sg70
(F20.85376694213052
F-457.39111178129133
F0
tp345
sg72
(lp346
sg74
(iccpnmr.chemBuild.model.Atom
Atom
p347
(dp348
g3
g344
sg13
g1
sg14
I1
sg15
S'H'
sg16
I00
sg17
g8
((lp349
g339
a(iccpnmr.chemBuild.model.VarAtom
VarAtom
p350
(dp351
g21
(lp352
sg23
g8
((lp353
g312
atRp354
sg3
g344
sg39
I00
sg40
Nsg13
g1
sg41
g42
sg69
I0
sg15
S'H'
sg16
I00
sg70
(F20.85376694213052
F-457.39111178129133
F0
tp355
sg72
(lp356
sg74
g347
sg125
g8
((lp357
(iccpnmr.chemBuild.model.AtomGroup
AtomGroup
p358
(dp359
g129
g130
sg131
g8
((ltRp360
sg17
g8
((lp361
g316
ag350
atRp362
sg41
g42
sg13
g1
sbatRp363
sg159
g8
((lp364
(iccpnmr.chemBuild.model.Bond
Bond
p365
(dp366
g163
g164
sg165
Nsg13
g1
sg41
g42
sg17
g8
((lp367
g350
ag312
atRp368
sbatRp369
sg124
I00
sbatRp370
sg124
I00
sbsg125
g8
((lp371
g335
atRp372
sg159
g8
((lp373
(iccpnmr.chemBuild.model.Bond
Bond
p374
(dp375
g163
g164
sg165
Nsg13
g1
sg41
g96
sg17
g8
((lp376
g285
ag339
atRp377
sbatRp378
sg124
I00
sbag327
atRp379
sg41
g96
sg13
g1
sbatRp380
sg159
g8
((lp381
(iccpnmr.chemBuild.model.Bond
Bond
p382
(dp383
g163
g164
sg165
Nsg13
g1
sg41
g96
sg17
g8
((lp384
g285
ag327
atRp385
sbatRp386
sg124
I00
sbatRp387
sg124
I00
sbsg125
g8
((lp388
g358
atRp389
sg159
g8
((lp390
(iccpnmr.chemBuild.model.Bond
Bond
p391
(dp392
g163
g164
sg165
Nsg13
g1
sg41
g42
sg17
g8
((lp393
g316
ag312
atRp394
sbatRp395
sg124
I00
sba(iccpnmr.chemBuild.model.VarAtom
VarAtom
p396
(dp397
g21
(lp398
sg23
g8
((lp399
(iccpnmr.chemBuild.model.VarAtom
VarAtom
p400
(dp401
g21
(lp402
sg23
g8
((lp403
g396
atRp404
sg3
S'H91'
p405
sg39
I00
sg40
Nsg13
g1
sg41
g42
sg69
I0
sg15
S'H'
sg16
I00
sg70
(F17.712248362438217
F-364.41800687555445
F0
tp406
sg72
(lp407
sg74
(iccpnmr.chemBuild.model.Atom
Atom
p408
(dp409
g3
g405
sg13
g1
sg14
I1
sg15
S'H'
sg16
I00
sg17
g8
((lp410
g400
a(iccpnmr.chemBuild.model.VarAtom
VarAtom
p411
(dp412
g21
(lp413
sg23
g8
((lp414
g281
atRp415
sg3
g405
sg39
I00
sg40
Nsg13
g1
sg41
g96
sg69
I0
sg15
S'H'
sg16
I00
sg70
(F17.712248362438217
F-364.41800687555445
F0
tp416
sg72
(lp417
sg74
g408
sg125
g8
((lp418
(iccpnmr.chemBuild.model.AtomGroup
AtomGroup
p419
(dp420
g129
g130
sg131
g8
((ltRp421
sg17
g8
((lp422
(iccpnmr.chemBuild.model.VarAtom
VarAtom
p423
(dp424
g21
(lp425
sg23
g8
((lp426
g281
atRp427
sg3
S'H92'
p428
sg39
I00
sg40
Nsg13
g1
sg41
g96
sg69
I0
sg15
S'H'
sg16
I00
sg70
(F-26.412670294749379
F-364.04119827531372
F0
tp429
sg72
(lp430
sg74
(iccpnmr.chemBuild.model.Atom
Atom
p431
(dp432
g3
g428
sg13
g1
sg14
I1
sg15
S'H'
sg16
I00
sg17
g8
((lp433
(iccpnmr.chemBuild.model.VarAtom
VarAtom
p434
(dp435
g21
(lp436
sg23
g8
((lp437
g396
atRp438
sg3
g428
sg39
I00
sg40
Nsg13
g1
sg41
g42
sg69
I0
sg15
S'H'
sg16
I00
sg70
(F-26.412670294749379
F-364.04119827531372
F0
tp439
sg72
(lp440
sg74
g431
sg125
g8
((lp441
(iccpnmr.chemBuild.model.AtomGroup
AtomGroup
p442
(dp443
g129
g130
sg131
g8
((ltRp444
sg17
g8
((lp445
g434
ag400
atRp446
sg41
g42
sg13
g1
sbatRp447
sg159
g8
((lp448
(iccpnmr.chemBuild.model.Bond
Bond
p449
(dp450
g163
g164
sg165
Nsg13
g1
sg41
g42
sg17
g8
((lp451
g434
ag396
atRp452
sbatRp453
sg124
I00
sbag423
atRp454
sg124
I00
sbsg125
g8
((lp455
g419
atRp456
sg159
g8
((lp457
(iccpnmr.chemBuild.model.Bond
Bond
p458
(dp459
g163
g164
sg165
Nsg13
g1
sg41
g96
sg17
g8
((lp460
g423
ag281
atRp461
sbatRp462
sg124
I00
sbag411
atRp463
sg41
g96
sg13
g1
sbatRp464
sg159
g8
((lp465
(iccpnmr.chemBuild.model.Bond
Bond
p466
(dp467
g163
g164
sg165
Nsg13
g1
sg41
g96
sg17
g8
((lp468
g281
ag411
atRp469
sbatRp470
sg124
I00
sbatRp471
sg124
I00
sbsg125
g8
((lp472
g442
atRp473
sg159
g8
((lp474
(iccpnmr.chemBuild.model.Bond
Bond
p475
(dp476
g163
g164
sg165
Nsg13
g1
sg41
g42
sg17
g8
((lp477
g400
ag396
atRp478
sbatRp479
sg124
I00
sbag312
ag434
a(iccpnmr.chemBuild.model.VarAtom
VarAtom
p480
(dp481
g21
(lp482
sg23
g8
((lp483
g209
a(iccpnmr.chemBuild.model.VarAtom
VarAtom
p484
(dp485
g21
(lp486
sg23
g8
((lp487
g480
atRp488
sg3
S'H82'
p489
sg39
I00
sg40
Nsg13
g1
sg41
g42
sg69
I0
sg15
S'H'
sg16
I00
sg70
(F-75.556415613156602
F-451.20328603500354
F0
tp490
sg72
(lp491
sg74
(iccpnmr.chemBuild.model.Atom
Atom
p492
(dp493
g3
g489
sg13
g1
sg14
I1
sg15
S'H'
sg16
I00
sg17
g8
((lp494
g484
a(iccpnmr.chemBuild.model.VarAtom
VarAtom
p495
(dp496
g21
(lp497
sg23
g8
((lp498
g277
atRp499
sg3
g489
sg39
I00
sg40
Nsg13
g1
sg41
g96
sg69
I0
sg15
S'H'
sg16
I00
sg70
(F-75.556415613156602
F-451.20328603500354
F0
tp500
sg72
(lp501
sg74
g492
sg125
g8
((lp502
(iccpnmr.chemBuild.model.AtomGroup
AtomGroup
p503
(dp504
g129
g130
sg131
g8
((ltRp505
sg17
g8
((lp506
(iccpnmr.chemBuild.model.VarAtom
VarAtom
p507
(dp508
g21
(lp509
sg23
g8
((lp510
g277
atRp511
sg3
S'H81'
p512
sg39
I00
sg40
Nsg13
g1
sg41
g96
sg69
I0
sg15
S'H'
sg16
I00
sg70
(F-33.342505785934634
F-450.40435634975063
F0
tp513
sg72
(lp514
sg74
(iccpnmr.chemBuild.model.Atom
Atom
p515
(dp516
g3
g512
sg13
g1
sg14
I1
sg15
S'H'
sg16
I00
sg17
g8
((lp517
g507
a(iccpnmr.chemBuild.model.VarAtom
VarAtom
p518
(dp519
g21
(lp520
sg23
g8
((lp521
g480
atRp522
sg3
g512
sg39
I00
sg40
Nsg13
g1
sg41
g42
sg69
I0
sg15
S'H'
sg16
I00
sg70
(F-33.342505785934634
F-450.40435634975063
F0
tp523
sg72
(lp524
sg74
g515
sg125
g8
((lp525
(iccpnmr.chemBuild.model.AtomGroup
AtomGroup
p526
(dp527
g129
g130
sg131
g8
((ltRp528
sg17
g8
((lp529
g484
ag518
atRp530
sg41
g42
sg13
g1
sbatRp531
sg159
g8
((lp532
(iccpnmr.chemBuild.model.Bond
Bond
p533
(dp534
g163
g164
sg165
Nsg13
g1
sg41
g42
sg17
g8
((lp535
g518
ag480
atRp536
sbatRp537
sg124
I00
sbatRp538
sg124
I00
sbsg125
g8
((lp539
g503
atRp540
sg159
g8
((lp541
(iccpnmr.chemBuild.model.Bond
Bond
p542
(dp543
g163
g164
sg165
Nsg13
g1
sg41
g96
sg17
g8
((lp544
g507
ag277
atRp545
sbatRp546
sg124
I00
sbag495
atRp547
sg41
g96
sg13
g1
sbatRp548
sg159
g8
((lp549
(iccpnmr.chemBuild.model.Bond
Bond
p550
(dp551
g163
g164
sg165
Nsg13
g1
sg41
g96
sg17
g8
((lp552
g495
ag277
atRp553
sbatRp554
sg124
I00
sbatRp555
sg124
I00
sbsg125
g8
((lp556
g526
atRp557
sg159
g8
((lp558
(iccpnmr.chemBuild.model.Bond
Bond
p559
(dp560
g163
g164
sg165
Nsg13
g1
sg41
g42
sg17
g8
((lp561
g484
ag480
atRp562
sbatRp563
sg124
I00
sbag518
ag396
atRp564
sg3
S'C8'
p565
sg39
I00
sg40
Nsg13
g1
sg41
g42
sg69
I0
sg15
S'C'
sg16
I00
sg70
(F-55.095238067455327
F-418.71785366287281
F0
tp566
sg72
(lp567
sg74
(iccpnmr.chemBuild.model.Atom
Atom
p568
(dp569
g3
g565
sg13
g1
sg14
I4
sg15
S'C'
sg16
I00
sg17
g8
((lp570
g277
ag480
atRp571
sg124
I00
sbsg125
g8
((ltRp572
sg159
g8
((lp573
g533
a(iccpnmr.chemBuild.model.Bond
Bond
p574
(dp575
g163
g164
sg165
Nsg13
g1
sg41
g42
sg17
g8
((lp576
g396
ag480
atRp577
sbag559
a(iccpnmr.chemBuild.model.Bond
Bond
p578
(dp579
g163
g164
sg165
Nsg13
g1
sg41
g42
sg17
g8
((lp580
g209
ag480
atRp581
sbatRp582
sg124
I00
sbatRp583
sg3
S'C9'
p584
sg39
I00
sg40
Nsg13
g1
sg41
g42
sg69
I0
sg15
S'C'
sg16
I00
sg70
(F-4.6812419126392069
F-395.88321418753208
F0
tp585
sg72
(lp586
sg74
(iccpnmr.chemBuild.model.Atom
Atom
p587
(dp588
g3
g584
sg13
g1
sg14
I4
sg15
S'C'
sg16
I00
sg17
g8
((lp589
g281
ag396
atRp590
sg124
I00
sbsg125
g8
((ltRp591
sg159
g8
((lp592
g574
ag449
a(iccpnmr.chemBuild.model.Bond
Bond
p593
(dp594
g163
g164
sg165
Nsg13
g1
sg41
g42
sg17
g8
((lp595
g396
ag312
atRp596
sbag475
atRp597
sg124
I00
sbag350
atRp598
sg3
S'CA'
p599
sg39
I00
sg40
Nsg13
g1
sg41
g42
sg69
I0
sg15
S'C'
sg16
I00
sg70
(F43.861115354817287
F-426.46168422751259
F0
tp600
sg72
(lp601
sg74
(iccpnmr.chemBuild.model.Atom
Atom
p602
(dp603
g3
g599
sg13
g1
sg14
I4
sg15
S'C'
sg16
I00
sg17
g8
((lp604
g285
ag312
atRp605
sg124
I00
sbsg125
g8
((ltRp606
sg159
g8
((lp607
(iccpnmr.chemBuild.model.Bond
Bond
p608
(dp609
g163
g164
sg165
Nsg13
g1
sg41
g42
sg17
g8
((lp610
g308
ag312
atRp611
sbag365
ag593
ag391
atRp612
sg124
I00
sba(iccpnmr.chemBuild.model.VarAtom
VarAtom
p613
(dp614
g21
(lp615
sg23
g8
((lp616
g308
atRp617
sg3
S'HB1'
p618
sg39
I00
sg40
Nsg13
g1
sg41
g42
sg69
I0
sg15
S'H'
sg16
I00
sg70
(F118.23445425103921
F-375.16919850200276
F0
tp619
sg72
(lp620
sg74
(iccpnmr.chemBuild.model.Atom
Atom
p621
(dp622
g3
g618
sg13
g1
sg14
I1
sg15
S'H'
sg16
I00
sg17
g8
((lp623
g613
a(iccpnmr.chemBuild.model.VarAtom
VarAtom
p624
(dp625
g21
(lp626
sg23
g8
((lp627
g289
atRp628
sg3
g618
sg39
I00
sg40
Nsg13
g1
sg41
g96
sg69
I0
sg15
S'H'
sg16
I00
sg70
(F118.23445425103921
F-375.16919850200276
F0
tp629
sg72
(lp630
sg74
g621
sg125
g8
((lp631
(iccpnmr.chemBuild.model.AtomGroup
AtomGroup
p632
(dp633
g129
g130
sg131
g8
((ltRp634
sg17
g8
((lp635
g293
ag624
atRp636
sg41
g96
sg13
g1
sbatRp637
sg159
g8
((lp638
(iccpnmr.chemBuild.model.Bond
Bond
p639
(dp640
g163
g164
sg165
Nsg13
g1
sg41
g96
sg17
g8
((lp641
g289
ag624
atRp642
sbatRp643
sg124
I00
sbatRp644
sg124
I00
sbsg125
g8
((lp645
(iccpnmr.chemBuild.model.AtomGroup
AtomGroup
p646
(dp647
g129
g130
sg131
g8
((ltRp648
sg17
g8
((lp649
g613
ag304
atRp650
sg41
g42
sg13
g1
sbatRp651
sg159
g8
((lp652
(iccpnmr.chemBuild.model.Bond
Bond
p653
(dp654
g163
g164
sg165
Nsg13
g1
sg41
g42
sg17
g8
((lp655
g613
ag308
atRp656
sbatRp657
sg124
I00
sbatRp658
sg3
S'CB'
p659
sg39
I00
sg40
Nsg13
g1
sg41
g42
sg69
I0
sg15
S'C'
sg16
I00
sg70
(F95.014707282185043
F-405.9647764609698
F0
tp660
sg72
(lp661
sg74
(iccpnmr.chemBuild.model.Atom
Atom
p662
(dp663
g3
g659
sg13
g1
sg14
I4
sg15
S'C'
sg16
I00
sg17
g8
((lp664
g289
ag308
atRp665
sg124
I00
sbsg125
g8
((ltRp666
sg159
g8
((lp667
(iccpnmr.chemBuild.model.Bond
Bond
p668
(dp669
g163
g164
sg165
Nsg13
g1
sg41
g42
sg17
g8
((lp670
g304
ag308
atRp671
sbag608
a(iccpnmr.chemBuild.model.Bond
Bond
p672
(dp673
g163
g164
sg165
Nsg13
g1
sg41
g42
sg17
g8
((lp674
g25
ag308
atRp675
sbag653
atRp676
sg124
I00
sbatRp677
sg3
g298
sg39
I00
sg40
Nsg13
g1
sg41
g42
sg69
I0
sg15
S'H'
sg16
I00
sg70
(F74.797293148271763
F-373.18847309916987
F0
tp678
sg72
(lp679
sg74
g301
sg125
g8
((lp680
g646
atRp681
sg159
g8
((lp682
g668
atRp683
sg124
I00
sbatRp684
sg124
I00
sbsg125
g8
((lp685
g632
atRp686
sg159
g8
((lp687
(iccpnmr.chemBuild.model.Bond
Bond
p688
(dp689
g163
g164
sg165
Nsg13
g1
sg41
g96
sg17
g8
((lp690
g293
ag289
atRp691
sbatRp692
sg124
I00
sba(iccpnmr.chemBuild.model.VarAtom
VarAtom
p693
(dp694
g21
(lp695
sg23
g8
((lp696
g289
a(iccpnmr.chemBuild.model.VarAtom
VarAtom
p697
(dp698
g21
(lp699
sg23
g8
((lp700
g693
a(iccpnmr.chemBuild.model.VarAtom
VarAtom
p701
(dp702
g21
(lp703
sg23
g8
((lp704
g697
atRp705
sg3
g38
sg39
I00
sg40
Nsg13
g1
sg41
g96
sg69
I0
sg15
S'H'
sg16
I00
sg70
(F174.38779417550421
F-382.23016724066912
F0
tp706
sg72
(lp707
sg74
(iccpnmr.chemBuild.model.Atom
Atom
p708
(dp709
g3
g38
sg13
g1
sg14
I1
sg15
S'H'
sg16
I00
sg17
g8
((lp710
g701
ag33
atRp711
sg124
I00
sbsg125
g8
((lp712
(iccpnmr.chemBuild.model.AtomGroup
AtomGroup
p713
(dp714
g129
g130
sg131
g8
((ltRp715
sg17
g8
((lp716
g701
a(iccpnmr.chemBuild.model.VarAtom
VarAtom
p717
(dp718
g21
(lp719
sg23
g8
((lp720
g697
atRp721
sg3
S'HD1'
p722
sg39
I00
sg40
Nsg13
g1
sg41
g96
sg69
I0
sg15
S'H'
sg16
I00
sg70
(F217.82778271915592
F-384.2047535886457
F0
tp723
sg72
(lp724
sg74
(iccpnmr.chemBuild.model.Atom
Atom
p725
(dp726
g3
g722
sg13
g1
sg14
I1
sg15
S'H'
sg16
I00
sg17
g8
((lp727
(iccpnmr.chemBuild.model.VarAtom
VarAtom
p728
(dp729
g21
(lp730
sg23
g8
((lp731
g29
atRp732
sg3
g722
sg39
I00
sg40
Nsg13
g1
sg41
g42
sg69
I0
sg15
S'H'
sg16
I00
sg70
(F217.82778271915592
F-384.2047535886457
F0
tp733
sg72
(lp734
sg74
g725
sg125
g8
((lp735
(iccpnmr.chemBuild.model.AtomGroup
AtomGroup
p736
(dp737
g129
g130
sg131
g8
((ltRp738
sg17
g8
((lp739
g728
ag33
atRp740
sg41
g42
sg13
g1
sbatRp741
sg159
g8
((lp742
(iccpnmr.chemBuild.model.Bond
Bond
p743
(dp744
g163
g164
sg165
Nsg13
g1
sg41
g42
sg17
g8
((lp745
g728
ag29
atRp746
sbatRp747
sg124
I00
sbag717
atRp748
sg124
I00
sbsg125
g8
((lp749
g713
atRp750
sg159
g8
((lp751
(iccpnmr.chemBuild.model.Bond
Bond
p752
(dp753
g163
g164
sg165
Nsg13
g1
sg41
g96
sg17
g8
((lp754
g717
ag697
atRp755
sbatRp756
sg124
I00
sbatRp757
sg41
g96
sg13
g1
sbatRp758
sg159
g8
((lp759
(iccpnmr.chemBuild.model.Bond
Bond
p760
(dp761
g163
g164
sg165
Nsg13
g1
sg41
g96
sg17
g8
((lp762
g701
ag697
atRp763
sbatRp764
sg124
I00
sbag717
a(iccpnmr.chemBuild.model.VarAtom
VarAtom
p765
(dp766
g21
(lp767
sg23
g8
((lp768
(iccpnmr.chemBuild.model.VarAtom
VarAtom
p769
(dp770
g21
(lp771
sg23
g8
((lp772
g765
atRp773
sg3
S'HE1'
p774
sg39
I00
sg40
Nsg13
g1
sg41
g96
sg69
I0
sg15
S'H'
sg16
I00
sg70
(F265.09571975894147
F-473.02941706412787
F0
tp775
sg72
(lp776
sg74
(iccpnmr.chemBuild.model.Atom
Atom
p777
(dp778
g3
g774
sg13
g1
sg14
I1
sg15
S'H'
sg16
I00
sg17
g8
((lp779
g769
a(iccpnmr.chemBuild.model.VarAtom
VarAtom
p780
(dp781
g21
(lp782
sg23
g8
((lp783
(iccpnmr.chemBuild.model.VarAtom
VarAtom
p784
(dp785
g21
(lp786
sg23
g8
((lp787
g29
a(iccpnmr.chemBuild.model.VarAtom
VarAtom
p788
(dp789
g21
(lp790
sg23
g8
((lp791
(iccpnmr.chemBuild.model.VarAtom
VarAtom
p792
(dp793
g21
(lp794
sg23
g8
((lp795
(iccpnmr.chemBuild.model.VarAtom
VarAtom
p796
(dp797
g21
(lp798
sg23
g8
((lp799
g792
atRp800
sg3
S'HG2'
p801
sg39
I00
sg40
Nsg13
g1
sg41
g42
sg69
I0
sg15
S'H'
sg16
I00
sg70
(F372.79350674835337
F-470.50963174003823
F0
tp802
sg72
(lp803
sg74
(iccpnmr.chemBuild.model.Atom
Atom
p804
(dp805
g3
g801
sg13
g1
sg14
I1
sg15
S'H'
sg16
I00
sg17
g8
((lp806
g796
a(iccpnmr.chemBuild.model.VarAtom
VarAtom
p807
(dp808
g21
(lp809
sg23
g8
((lp810
(iccpnmr.chemBuild.model.VarAtom
VarAtom
p811
(dp812
g21
(lp813
sg23
g8
((lp814
(iccpnmr.chemBuild.model.VarAtom
VarAtom
p815
(dp816
g21
(lp817
sg23
g8
((lp818
g811
atRp819
sg3
S'HG1'
p820
sg39
I00
sg40
Nsg13
g1
sg41
g96
sg69
I0
sg15
S'H'
sg16
I00
sg70
(F325.97574224142414
F-484.34858538176326
F0
tp821
sg72
(lp822
sg74
(iccpnmr.chemBuild.model.Atom
Atom
p823
(dp824
g3
g820
sg13
g1
sg14
I1
sg15
S'H'
sg16
I00
sg17
g8
((lp825
(iccpnmr.chemBuild.model.VarAtom
VarAtom
p826
(dp827
g21
(lp828
sg23
g8
((lp829
g792
atRp830
sg3
g820
sg39
I00
sg40
Nsg13
g1
sg41
g42
sg69
I0
sg15
S'H'
sg16
I00
sg70
(F325.97574224142414
F-484.34858538176326
F0
tp831
sg72
(lp832
sg74
g823
sg125
g8
((lp833
(iccpnmr.chemBuild.model.AtomGroup
AtomGroup
p834
(dp835
g129
S'equivalent'
p836
sg131
g8
((ltRp837
sg17
g8
((lp838
g796
ag826
a(iccpnmr.chemBuild.model.VarAtom
VarAtom
p839
(dp840
g21
(lp841
sg23
g8
((lp842
g792
atRp843
sg3
S'HG3'
p844
sg39
I00
sg40
Nsg13
g1
sg41
g42
sg69
I0
sg15
S'H'
sg16
I00
sg70
(F367.72493866353625
F-420.80789263322765
F0
tp845
sg72
(lp846
sg74
(iccpnmr.chemBuild.model.Atom
Atom
p847
(dp848
g3
g844
sg13
g1
sg14
I1
sg15
S'H'
sg16
I00
sg17
g8
((lp849
g839
a(iccpnmr.chemBuild.model.VarAtom
VarAtom
p850
(dp851
g21
(lp852
sg23
g8
((lp853
g811
atRp854
sg3
g844
sg39
I00
sg40
Nsg13
g1
sg41
g96
sg69
I0
sg15
S'H'
sg16
I00
sg70
(F367.72493866353625
F-420.80789263322765
F0
tp855
sg72
(lp856
sg74
g847
sg125
g8
((lp857
(iccpnmr.chemBuild.model.AtomGroup
AtomGroup
p858
(dp859
g129
g836
sg131
g8
((ltRp860
sg17
g8
((lp861
g815
ag807
ag850
atRp862
sg41
g96
sg13
g1
sbatRp863
sg159
g8
((lp864
(iccpnmr.chemBuild.model.Bond
Bond
p865
(dp866
g163
g164
sg165
Nsg13
g1
sg41
g96
sg17
g8
((lp867
g811
ag850
atRp868
sbatRp869
sg124
I00
sbatRp870
sg124
I00
sbsg125
g8
((lp871
g834
atRp872
sg159
g8
((lp873
(iccpnmr.chemBuild.model.Bond
Bond
p874
(dp875
g163
g164
sg165
Nsg13
g1
sg41
g42
sg17
g8
((lp876
g792
ag839
atRp877
sbatRp878
sg124
I00
sbatRp879
sg41
g42
sg13
g1
sbatRp880
sg159
g8
((lp881
(iccpnmr.chemBuild.model.Bond
Bond
p882
(dp883
g163
g164
sg165
Nsg13
g1
sg41
g42
sg17
g8
((lp884
g792
ag826
atRp885
sbatRp886
sg124
I00
sbag815
atRp887
sg124
I00
sbsg125
g8
((lp888
g858
atRp889
sg159
g8
((lp890
(iccpnmr.chemBuild.model.Bond
Bond
p891
(dp892
g163
g164
sg165
Nsg13
g1
sg41
g96
sg17
g8
((lp893
g811
ag815
atRp894
sbatRp895
sg124
I00
sba(iccpnmr.chemBuild.model.VarAtom
VarAtom
p896
(dp897
g21
(lp898
sg23
g8
((lp899
(iccpnmr.chemBuild.model.VarAtom
VarAtom
p900
(dp901
g21
(lp902
sg23
g8
((lp903
g896
atRp904
sg3
S'HF1'
p905
sg39
I00
sg40
Nsg13
g1
sg41
g96
sg69
I0
sg15
S'H'
sg16
I00
sg70
(F274.37171200428537
F-384.9609988282117
F0
tp906
sg72
(lp907
sg74
(iccpnmr.chemBuild.model.Atom
Atom
p908
(dp909
g3
g905
sg13
g1
sg14
I1
sg15
S'H'
sg16
I00
sg17
g8
((lp910
g900
a(iccpnmr.chemBuild.model.VarAtom
VarAtom
p911
(dp912
g21
(lp913
sg23
g8
((lp914
g788
atRp915
sg3
g905
sg39
I00
sg40
Nsg13
g1
sg41
g42
sg69
I0
sg15
S'H'
sg16
I00
sg70
(F274.37171200428537
F-384.9609988282117
F0
tp916
sg72
(lp917
sg74
g908
sg125
g8
((lp918
(iccpnmr.chemBuild.model.AtomGroup
AtomGroup
p919
(dp920
g129
g130
sg131
g8
((ltRp921
sg17
g8
((lp922
(iccpnmr.chemBuild.model.VarAtom
VarAtom
p923
(dp924
g21
(lp925
sg23
g8
((lp926
g788
atRp927
sg3
S'HF2'
p928
sg39
I00
sg40
Nsg13
g1
sg41
g42
sg69
I0
sg15
S'H'
sg16
I00
sg70
(F318.44730178456649
F-387.10723392454298
F0
tp929
sg72
(lp930
sg74
(iccpnmr.chemBuild.model.Atom
Atom
p931
(dp932
g3
g928
sg13
g1
sg14
I1
sg15
S'H'
sg16
I00
sg17
g8
((lp933
g923
a(iccpnmr.chemBuild.model.VarAtom
VarAtom
p934
(dp935
g21
(lp936
sg23
g8
((lp937
g896
atRp938
sg3
g928
sg39
I00
sg40
Nsg13
g1
sg41
g96
sg69
I0
sg15
S'H'
sg16
I00
sg70
(F318.44730178456649
F-387.10723392454298
F0
tp939
sg72
(lp940
sg74
g931
sg125
g8
((lp941
(iccpnmr.chemBuild.model.AtomGroup
AtomGroup
p942
(dp943
g129
g130
sg131
g8
((ltRp944
sg17
g8
((lp945
g900
ag934
atRp946
sg41
g96
sg13
g1
sbatRp947
sg159
g8
((lp948
(iccpnmr.chemBuild.model.Bond
Bond
p949
(dp950
g163
g164
sg165
Nsg13
g1
sg41
g96
sg17
g8
((lp951
g896
ag934
atRp952
sbatRp953
sg124
I00
sbatRp954
sg124
I00
sbsg125
g8
((lp955
g919
atRp956
sg159
g8
((lp957
(iccpnmr.chemBuild.model.Bond
Bond
p958
(dp959
g163
g164
sg165
Nsg13
g1
sg41
g42
sg17
g8
((lp960
g923
ag788
atRp961
sbatRp962
sg124
I00
sbag911
atRp963
sg41
g42
sg13
g1
sbatRp964
sg159
g8
((lp965
(iccpnmr.chemBuild.model.Bond
Bond
p966
(dp967
g163
g164
sg165
Nsg13
g1
sg41
g42
sg17
g8
((lp968
g788
ag911
atRp969
sbatRp970
sg124
I00
sbatRp971
sg124
I00
sbsg125
g8
((lp972
g942
atRp973
sg159
g8
((lp974
(iccpnmr.chemBuild.model.Bond
Bond
p975
(dp976
g163
g164
sg165
Nsg13
g1
sg41
g96
sg17
g8
((lp977
g896
ag900
atRp978
sbatRp979
sg124
I00
sbag811
ag765
ag934
atRp980
sg3
S'CF'
p981
sg39
I00
sg40
Nsg13
g1
sg41
g96
sg69
I0
sg15
S'C'
sg16
I00
sg70
(F294.57481357670628
F-417.75975578340109
F0
tp982
sg72
(lp983
sg74
(iccpnmr.chemBuild.model.Atom
Atom
p984
(dp985
g3
g981
sg13
g1
sg14
I4
sg15
S'C'
sg16
I00
sg17
g8
((lp986
g788
ag896
atRp987
sg124
I00
sbsg125
g8
((ltRp988
sg159
g8
((lp989
g949
ag975
a(iccpnmr.chemBuild.model.Bond
Bond
p990
(dp991
g163
g164
sg165
Nsg13
g1
sg41
g96
sg17
g8
((lp992
g896
ag765
atRp993
sba(iccpnmr.chemBuild.model.Bond
Bond
p994
(dp995
g163
g164
sg165
Nsg13
g1
sg41
g96
sg17
g8
((lp996
g811
ag896
atRp997
sbatRp998
sg124
I00
sbag807
ag850
atRp999
sg3
S'CG'
p1000
sg39
I00
sg40
Nsg13
g1
sg41
g96
sg69
I0
sg15
S'C'
sg16
I00
sg70
(F340.53105766193823
F-448.45972783487213
F0
tp1001
sg72
(lp1002
sg74
(iccpnmr.chemBuild.model.Atom
Atom
p1003
(dp1004
g3
g1000
sg13
g1
sg14
I4
sg15
S'C'
sg16
I00
sg17
g8
((lp1005
g811
ag792
atRp1006
sg124
I00
sbsg125
g8
((ltRp1007
sg159
g8
((lp1008
g865
ag891
a(iccpnmr.chemBuild.model.Bond
Bond
p1009
(dp1010
g163
g164
sg165
Nsg13
g1
sg41
g96
sg17
g8
((lp1011
g811
ag807
atRp1012
sbag994
atRp1013
sg124
I00
sbatRp1014
sg3
g801
sg39
I00
sg40
Nsg13
g1
sg41
g96
sg69
I0
sg15
S'H'
sg16
I00
sg70
(F372.79350674835337
F-470.50963174003823
F0
tp1015
sg72
(lp1016
sg74
g804
sg125
g8
((lp1017
g858
atRp1018
sg159
g8
((lp1019
g1009
atRp1020
sg124
I00
sbatRp1021
sg124
I00
sbsg125
g8
((lp1022
g834
atRp1023
sg159
g8
((lp1024
(iccpnmr.chemBuild.model.Bond
Bond
p1025
(dp1026
g163
g164
sg165
Nsg13
g1
sg41
g42
sg17
g8
((lp1027
g792
ag796
atRp1028
sbatRp1029
sg124
I00
sbag826
ag788
ag839
atRp1030
sg3
g1000
sg39
I00
sg40
Nsg13
g1
sg41
g42
sg69
I0
sg15
S'C'
sg16
I00
sg70
(F340.53105766193823
F-448.45972783487213
F0
tp1031
sg72
(lp1032
sg74
g1003
sg125
g8
((ltRp1033
sg159
g8
((lp1034
g874
a(iccpnmr.chemBuild.model.Bond
Bond
p1035
(dp1036
g163
g164
sg165
Nsg13
g1
sg41
g42
sg17
g8
((lp1037
g792
ag788
atRp1038
sbag882
ag1025
atRp1039
sg124
I00
sbag923
ag784
ag911
atRp1040
sg3
g981
sg39
I00
sg40
Nsg13
g1
sg41
g42
sg69
I0
sg15
S'C'
sg16
I00
sg70
(F294.57481357670628
F-417.75975578340109
F0
tp1041
sg72
(lp1042
sg74
g984
sg125
g8
((ltRp1043
sg159
g8
((lp1044
g1035
a(iccpnmr.chemBuild.model.Bond
Bond
p1045
(dp1046
g163
g164
sg165
Nsg13
g1
sg41
g42
sg17
g8
((lp1047
g788
ag784
atRp1048
sbag966
ag958
atRp1049
sg124
I00
sba(iccpnmr.chemBuild.model.VarAtom
VarAtom
p1050
(dp1051
g21
(lp1052
sg23
g8
((lp1053
g784
atRp1054
sg3
S'HE2'
p1055
sg39
I00
sg40
Nsg13
g1
sg41
g42
sg69
I0
sg15
S'H'
sg16
I00
sg70
(F220.94152996659358
F-472.88780346665033
F0
tp1056
sg72
(lp1057
sg74
(iccpnmr.chemBuild.model.Atom
Atom
p1058
(dp1059
g3
g1055
sg13
g1
sg14
I1
sg15
S'H'
sg16
I00
sg17
g8
((lp1060
(iccpnmr.chemBuild.model.VarAtom
VarAtom
p1061
(dp1062
g21
(lp1063
sg23
g8
((lp1064
g765
atRp1065
sg3
g1055
sg39
I00
sg40
Nsg13
g1
sg41
g96
sg69
I0
sg15
S'H'
sg16
I00
sg70
(F220.94152996659358
F-472.88780346665033
F0
tp1066
sg72
(lp1067
sg74
g1058
sg125
g8
((lp1068
(iccpnmr.chemBuild.model.AtomGroup
AtomGroup
p1069
(dp1070
g129
g130
sg131
g8
((ltRp1071
sg17
g8
((lp1072
g769
ag1061
atRp1073
sg41
g96
sg13
g1
sbatRp1074
sg159
g8
((lp1075
(iccpnmr.chemBuild.model.Bond
Bond
p1076
(dp1077
g163
g164
sg165
Nsg13
g1
sg41
g96
sg17
g8
((lp1078
g1061
ag765
atRp1079
sbatRp1080
sg124
I00
sbag1050
atRp1081
sg124
I00
sbsg125
g8
((lp1082
(iccpnmr.chemBuild.model.AtomGroup
AtomGroup
p1083
(dp1084
g129
g130
sg131
g8
((ltRp1085
sg17
g8
((lp1086
g1050
ag780
atRp1087
sg41
g42
sg13
g1
sbatRp1088
sg159
g8
((lp1089
(iccpnmr.chemBuild.model.Bond
Bond
p1090
(dp1091
g163
g164
sg165
Nsg13
g1
sg41
g42
sg17
g8
((lp1092
g1050
ag784
atRp1093
sbatRp1094
sg124
I00
sbag780
atRp1095
sg3
S'CE'
p1096
sg39
I00
sg40
Nsg13
g1
sg41
g42
sg69
I0
sg15
S'C'
sg16
I00
sg70
(F243.24290100872966
F-441.42220875434901
F0
tp1097
sg72
(lp1098
sg74
(iccpnmr.chemBuild.model.Atom
Atom
p1099
(dp1100
g3
g1096
sg13
g1
sg14
I4
sg15
S'C'
sg16
I00
sg17
g8
((lp1101
g765
ag784
atRp1102
sg124
I00
sbsg125
g8
((ltRp1103
sg159
g8
((lp1104
g1090
a(iccpnmr.chemBuild.model.Bond
Bond
p1105
(dp1106
g163
g164
sg165
Nsg13
g1
sg41
g42
sg17
g8
((lp1107
g29
ag784
atRp1108
sba(iccpnmr.chemBuild.model.Bond
Bond
p1109
(dp1110
g163
g164
sg165
Nsg13
g1
sg41
g42
sg17
g8
((lp1111
g780
ag784
atRp1112
sbag1045
atRp1113
sg124
I00
sbatRp1114
sg3
g774
sg39
I00
sg40
Nsg13
g1
sg41
g42
sg69
I0
sg15
S'H'
sg16
I00
sg70
(F265.09571975894147
F-473.02941706412787
F0
tp1115
sg72
(lp1116
sg74
g777
sg125
g8
((lp1117
g1083
atRp1118
sg159
g8
((lp1119
g1109
atRp1120
sg124
I00
sbatRp1121
sg124
I00
sbsg125
g8
((lp1122
g1069
atRp1123
sg159
g8
((lp1124
(iccpnmr.chemBuild.model.Bond
Bond
p1125
(dp1126
g163
g164
sg165
Nsg13
g1
sg41
g96
sg17
g8
((lp1127
g769
ag765
atRp1128
sbatRp1129
sg124
I00
sbag1061
ag896
ag697
atRp1130
sg3
g1096
sg39
I00
sg40
Nsg13
g1
sg41
g96
sg69
I0
sg15
S'C'
sg16
I00
sg70
(F243.24290100872966
F-441.42220875434901
F0
tp1131
sg72
(lp1132
sg74
g1099
sg125
g8
((ltRp1133
sg159
g8
((lp1134
g1076
ag990
a(iccpnmr.chemBuild.model.Bond
Bond
p1135
(dp1136
g163
g164
sg165
Nsg13
g1
sg41
g96
sg17
g8
((lp1137
g697
ag765
atRp1138
sbag1125
atRp1139
sg124
I00
sbatRp1140
sg3
S'CD'
p1141
sg39
I00
sg40
Nsg13
g1
sg41
g96
sg69
I0
sg15
S'C'
sg16
I00
sg70
(F194.61973397572299
F-414.89190597176622
F0
tp1142
sg72
(lp1143
sg74
(iccpnmr.chemBuild.model.Atom
Atom
p1144
(dp1145
g3
g1141
sg13
g1
sg14
I4
sg15
S'C'
sg16
I00
sg17
g8
((lp1146
g697
ag29
atRp1147
sg124
I00
sbsg125
g8
((ltRp1148
sg159
g8
((lp1149
g760
ag1135
ag752
a(iccpnmr.chemBuild.model.Bond
Bond
p1150
(dp1151
g163
g164
sg165
Nsg13
g1
sg41
g96
sg17
g8
((lp1152
g693
ag697
atRp1153
sbatRp1154
sg124
I00
sba(iccpnmr.chemBuild.model.VarAtom
VarAtom
p1155
(dp1156
g21
(lp1157
sg23
g8
((lp1158
g693
atRp1159
sg3
g12
sg39
I00
sg40
Nsg13
g1
sg41
g96
sg69
I0
sg15
S'H'
sg16
I00
sg70
(F163.60957437120558
F-469.18722463940139
F0
tp1160
sg72
(lp1161
sg74
g10
sg125
g8
((lp1162
(iccpnmr.chemBuild.model.AtomGroup
AtomGroup
p1163
(dp1164
g129
g130
sg131
g8
((ltRp1165
sg17
g8
((lp1166
g1155
a(iccpnmr.chemBuild.model.VarAtom
VarAtom
p1167
(dp1168
g21
(lp1169
sg23
g8
((lp1170
g693
atRp1171
sg3
S'HC2'
p1172
sg39
I00
sg40
Nsg13
g1
sg41
g96
sg69
I0
sg15
S'H'
sg16
I00
sg70
(F120.35763261727888
F-467.29804079506044
F0
tp1173
sg72
(lp1174
sg74
(iccpnmr.chemBuild.model.Atom
Atom
p1175
(dp1176
g3
g1172
sg13
g1
sg14
I1
sg15
S'H'
sg16
I00
sg17
g8
((lp1177
(iccpnmr.chemBuild.model.VarAtom
VarAtom
p1178
(dp1179
g21
(lp1180
sg23
g8
((lp1181
g25
atRp1182
sg3
g1172
sg39
I00
sg40
Nsg13
g1
sg41
g42
sg69
I0
sg15
S'H'
sg16
I00
sg70
(F120.35763261727888
F-467.29804079506044
F0
tp1183
sg72
(lp1184
sg74
g1175
sg125
g8
((lp1185
(iccpnmr.chemBuild.model.AtomGroup
AtomGroup
p1186
(dp1187
g129
g130
sg131
g8
((ltRp1188
sg17
g8
((lp1189
g19
ag1178
atRp1190
sg41
g42
sg13
g1
sbatRp1191
sg159
g8
((lp1192
(iccpnmr.chemBuild.model.Bond
Bond
p1193
(dp1194
g163
g164
sg165
Nsg13
g1
sg41
g42
sg17
g8
((lp1195
g25
ag1178
atRp1196
sbatRp1197
sg124
I00
sbag1167
atRp1198
sg124
I00
sbsg125
g8
((lp1199
g1163
atRp1200
sg159
g8
((lp1201
(iccpnmr.chemBuild.model.Bond
Bond
p1202
(dp1203
g163
g164
sg165
Nsg13
g1
sg41
g96
sg17
g8
((lp1204
g693
ag1167
atRp1205
sbatRp1206
sg124
I00
sbatRp1207
sg41
g96
sg13
g1
sbatRp1208
sg159
g8
((lp1209
(iccpnmr.chemBuild.model.Bond
Bond
p1210
(dp1211
g163
g164
sg165
Nsg13
g1
sg41
g96
sg17
g8
((lp1212
g693
ag1155
atRp1213
sbatRp1214
sg124
I00
sbag1167
atRp1215
sg3
S'CC'
p1216
sg39
I00
sg40
Nsg13
g1
sg41
g96
sg69
I0
sg15
S'C'
sg16
I00
sg70
(F143.36855890949812
F-436.38111777346273
F0
tp1217
sg72
(lp1218
sg74
(iccpnmr.chemBuild.model.Atom
Atom
p1219
(dp1220
g3
g1216
sg13
g1
sg14
I4
sg15
S'C'
sg16
I00
sg17
g8
((lp1221
g693
ag25
atRp1222
sg124
I00
sbsg125
g8
((ltRp1223
sg159
g8
((lp1224
g1202
ag1210
a(iccpnmr.chemBuild.model.Bond
Bond
p1225
(dp1226
g163
g164
sg165
Nsg13
g1
sg41
g96
sg17
g8
((lp1227
g693
ag289
atRp1228
sbag1150
atRp1229
sg124
I00
sbag624
atRp1230
sg3
g659
sg39
I00
sg40
Nsg13
g1
sg41
g96
sg69
I0
sg15
S'C'
sg16
I00
sg70
(F95.014707282185043
F-405.9647764609698
F0
tp1231
sg72
(lp1232
sg74
g662
sg125
g8
((ltRp1233
sg159
g8
((lp1234
g639
a(iccpnmr.chemBuild.model.Bond
Bond
p1235
(dp1236
g163
g164
sg165
Nsg13
g1
sg41
g96
sg17
g8
((lp1237
g285
ag289
atRp1238
sbag1225
ag688
atRp1239
sg124
I00
sbag281
ag339
ag327
atRp1240
sg3
g599
sg39
I00
sg40
Nsg13
g1
sg41
g96
sg69
I0
sg15
S'C'
sg16
I00
sg70
(F43.861115354817287
F-426.46168422751259
F0
tp1241
sg72
(lp1242
sg74
g602
sg125
g8
((ltRp1243
sg159
g8
((lp1244
g1235
a(iccpnmr.chemBuild.model.Bond
Bond
p1245
(dp1246
g163
g164
sg165
Nsg13
g1
sg41
g96
sg17
g8
((lp1247
g285
ag281
atRp1248
sbag374
ag382
atRp1249
sg124
I00
sbag411
ag423
ag277
atRp1250
sg3
g584
sg39
I00
sg40
Nsg13
g1
sg41
g96
sg69
I0
sg15
S'C'
sg16
I00
sg70
(F-4.6812419126392069
F-395.88321418753208
F0
tp1251
sg72
(lp1252
sg74
g587
sg125
g8
((ltRp1253
sg159
g8
((lp1254
g1245
a(iccpnmr.chemBuild.model.Bond
Bond
p1255
(dp1256
g163
g164
sg165
Nsg13
g1
sg41
g96
sg17
g8
((lp1257
g281
ag277
atRp1258
sbag458
ag466
atRp1259
sg124
I00
sbag507
ag495
ag228
atRp1260
sg3
g565
sg39
I00
sg40
Nsg13
g1
sg41
g96
sg69
I0
sg15
S'C'
sg16
I00
sg70
(F-55.095238067455327
F-418.71785366287281
F0
tp1261
sg72
(lp1262
sg74
g568
sg125
g8
((ltRp1263
sg159
g8
((lp1264
(iccpnmr.chemBuild.model.Bond
Bond
p1265
(dp1266
g163
g164
sg165
Nsg13
g1
sg41
g96
sg17
g8
((lp1267
g277
ag228
atRp1268
sbag550
ag542
ag1255
atRp1269
sg124
I00
sbatRp1270
sg3
S'C7'
p1271
sg39
I00
sg40
Nsg13
g1
sg41
g96
sg69
I0
sg15
S'C'
sg16
I00
sg70
(F-106.38435849106391
F-395.33904086581481
F0
tp1272
sg72
(lp1273
sg74
(iccpnmr.chemBuild.model.Atom
Atom
p1274
(dp1275
g3
g1271
sg13
g1
sg14
I4
sg15
S'C'
sg16
I00
sg17
g8
((lp1276
g209
ag228
atRp1277
sg124
I00
sbsg125
g8
((ltRp1278
sg159
g8
((lp1279
g1265
a(iccpnmr.chemBuild.model.Bond
Bond
p1280
(dp1281
g163
g164
sg165
Nsg13
g1
sg41
g96
sg17
g8
((lp1282
g224
ag228
atRp1283
sba(iccpnmr.chemBuild.model.Bond
Bond
p1284
(dp1285
g163
g164
sg165
Nsg13
g1
sg41
g96
sg17
g8
((lp1286
g186
ag228
atRp1287
sbag272
atRp1288
sg124
I00
sbatRp1289
sg3
g218
sg39
I00
sg40
Nsg13
g1
sg41
g96
sg69
I0
sg15
S'H'
sg16
I00
sg70
(F-86.562782557078961
F-362.23886348820048
F0
tp1290
sg72
(lp1291
sg74
g221
sg125
g8
((lp1292
g265
atRp1293
sg159
g8
((lp1294
g1280
atRp1295
sg124
I00
sbatRp1296
sg124
I00
sbsg125
g8
((lp1297
g251
atRp1298
sg159
g8
((lp1299
(iccpnmr.chemBuild.model.Bond
Bond
p1300
(dp1301
g163
g164
sg165
Nsg13
g1
sg41
g42
sg17
g8
((lp1302
g213
ag209
atRp1303
sbatRp1304
sg124
I00
sbag205
ag243
ag480
atRp1305
sg3
g1271
sg39
I00
sg40
Nsg13
g1
sg41
g42
sg69
I0
sg15
S'C'
sg16
I00
sg70
(F-106.38435849106391
F-395.33904086581481
F0
tp1306
sg72
(lp1307
sg74
g1274
sg125
g8
((ltRp1308
sg159
g8
((lp1309
g1300
ag258
a(iccpnmr.chemBuild.model.Bond
Bond
p1310
(dp1311
g163
g164
sg165
Nsg13
g1
sg41
g42
sg17
g8
((lp1312
g205
ag209
atRp1313
sbag578
atRp1314
sg124
I00
sbag51
ag201
a(iccpnmr.chemBuild.model.VarAtom
VarAtom
p1315
(dp1316
g21
(lp1317
sg23
g8
((lp1318
g205
atRp1319
sg3
S'H61'
p1320
sg39
I00
sg40
Nsg13
g1
sg41
g42
sg69
I0
sg15
S'H'
sg16
I00
sg70
(F-127.92541461857475
F-454.67526706476826
F0
tp1321
sg72
(lp1322
sg74
(iccpnmr.chemBuild.model.Atom
Atom
p1323
(dp1324
g3
g1320
sg13
g1
sg14
I1
sg15
S'H'
sg16
I00
sg17
g8
((lp1325
(iccpnmr.chemBuild.model.VarAtom
VarAtom
p1326
(dp1327
g21
(lp1328
sg23
g8
((lp1329
g186
atRp1330
sg3
g1320
sg39
I00
sg40
Nsg13
g1
sg41
g96
sg69
I0
sg15
S'H'
sg16
I00
sg70
(F-127.92541461857475
F-454.67526706476826
F0
tp1331
sg72
(lp1332
sg74
g1323
sg125
g8
((lp1333
(iccpnmr.chemBuild.model.AtomGroup
AtomGroup
p1334
(dp1335
g129
g130
sg131
g8
((ltRp1336
sg17
g8
((lp1337
g190
ag1326
atRp1338
sg41
g96
sg13
g1
sbatRp1339
sg159
g8
((lp1340
(iccpnmr.chemBuild.model.Bond
Bond
p1341
(dp1342
g163
g164
sg165
Nsg13
g1
sg41
g96
sg17
g8
((lp1343
g186
ag1326
atRp1344
sbatRp1345
sg124
I00
sbag1315
atRp1346
sg124
I00
sbsg125
g8
((lp1347
(iccpnmr.chemBuild.model.AtomGroup
AtomGroup
p1348
(dp1349
g129
g130
sg131
g8
((ltRp1350
sg17
g8
((lp1351
g201
ag1315
atRp1352
sg41
g42
sg13
g1
sbatRp1353
sg159
g8
((lp1354
(iccpnmr.chemBuild.model.Bond
Bond
p1355
(dp1356
g163
g164
sg165
Nsg13
g1
sg41
g42
sg17
g8
((lp1357
g205
ag1315
atRp1358
sbatRp1359
sg124
I00
sbatRp1360
sg3
S'C6'
p1361
sg39
I00
sg40
Nsg13
g1
sg41
g42
sg69
I0
sg15
S'C'
sg16
I00
sg70
(F-153.60103505098684
F-426.1840217549701
F0
tp1362
sg72
(lp1363
sg74
(iccpnmr.chemBuild.model.Atom
Atom
p1364
(dp1365
g3
g1361
sg13
g1
sg14
I4
sg15
S'C'
sg16
I00
sg17
g8
((lp1366
g186
ag205
atRp1367
sg124
I00
sbsg125
g8
((ltRp1368
sg159
g8
((lp1369
(iccpnmr.chemBuild.model.Bond
Bond
p1370
(dp1371
g163
g164
sg165
Nsg13
g1
sg41
g42
sg17
g8
((lp1372
g205
ag201
atRp1373
sbag1355
a(iccpnmr.chemBuild.model.Bond
Bond
p1374
(dp1375
g163
g164
sg165
Nsg13
g1
sg41
g42
sg17
g8
((lp1376
g205
ag51
atRp1377
sbag1310
atRp1378
sg124
I00
sbatRp1379
sg3
g195
sg39
I00
sg40
Nsg13
g1
sg41
g42
sg69
I0
sg15
S'H'
sg16
I00
sg70
(F-169.9428211203772
F-460.98994752652402
F0
tp1380
sg72
(lp1381
sg74
g198
sg125
g8
((lp1382
g1348
atRp1383
sg159
g8
((lp1384
g1370
atRp1385
sg124
I00
sbatRp1386
sg124
I00
sbsg125
g8
((lp1387
g1334
atRp1388
sg159
g8
((lp1389
(iccpnmr.chemBuild.model.Bond
Bond
p1390
(dp1391
g163
g164
sg165
Nsg13
g1
sg41
g96
sg17
g8
((lp1392
g186
ag190
atRp1393
sbatRp1394
sg124
I00
sbag1326
ag108
ag228
atRp1395
sg3
g1361
sg39
I00
sg40
Nsg13
g1
sg41
g96
sg69
I0
sg15
S'C'
sg16
I00
sg70
(F-153.60103505098684
F-426.1840217549701
F0
tp1396
sg72
(lp1397
sg74
g1364
sg125
g8
((ltRp1398
sg159
g8
((lp1399
(iccpnmr.chemBuild.model.Bond
Bond
p1400
(dp1401
g163
g164
sg165
Nsg13
g1
sg41
g96
sg17
g8
((lp1402
g186
ag108
atRp1403
sbag1341
ag1284
ag1390
atRp1404
sg124
I00
sbag134
ag104
atRp1405
sg3
S'C5'
p1406
sg39
I00
sg40
Nsg13
g1
sg41
g96
sg69
I0
sg15
S'C'
sg16
I00
sg70
(F-207.00456318392281
F-411.77858209405304
F0
tp1407
sg72
(lp1408
sg74
(iccpnmr.chemBuild.model.Atom
Atom
p1409
(dp1410
g3
g1406
sg13
g1
sg14
I4
sg15
S'C'
sg16
I00
sg17
g8
((lp1411
g51
ag108
atRp1412
sg124
I00
sbsg125
g8
((ltRp1413
sg159
g8
((lp1414
g173
a(iccpnmr.chemBuild.model.Bond
Bond
p1415
(dp1416
g163
g164
sg165
Nsg13
g1
sg41
g96
sg17
g8
((lp1417
g108
ag104
atRp1418
sbag181
ag1400
atRp1419
sg124
I00
sba(iccpnmr.chemBuild.model.VarAtom
VarAtom
p1420
(dp1421
g21
(lp1422
sg23
g8
((lp1423
g104
atRp1424
sg3
S'H41'
p1425
sg39
I00
sg40
Nsg13
g1
sg41
g96
sg69
I0
sg15
S'H'
sg16
I00
sg70
(F-223.57910957615883
F-477.00807970235661
F0
tp1426
sg72
(lp1427
sg74
(iccpnmr.chemBuild.model.Atom
Atom
p1428
(dp1429
g3
g1425
sg13
g1
sg14
I1
sg15
S'H'
sg16
I00
sg17
g8
((lp1430
(iccpnmr.chemBuild.model.VarAtom
VarAtom
p1431
(dp1432
g21
(lp1433
sg23
g8
((lp1434
g55
atRp1435
sg3
g1425
sg39
I00
sg40
Nsg13
g1
sg41
g42
sg69
I0
sg15
S'H'
sg16
I00
sg70
(F-223.57910957615883
F-477.00807970235661
F0
tp1436
sg72
(lp1437
sg74
g1428
sg125
g8
((lp1438
(iccpnmr.chemBuild.model.AtomGroup
AtomGroup
p1439
(dp1440
g129
g130
sg131
g8
((ltRp1441
sg17
g8
((lp1442
g1431
a(iccpnmr.chemBuild.model.VarAtom
VarAtom
p1443
(dp1444
g21
(lp1445
sg23
g8
((lp1446
g55
atRp1447
sg3
S'H42'
p1448
sg39
I00
sg40
Nsg13
g1
sg41
g42
sg69
I0
sg15
S'H'
sg16
I00
sg70
(F-266.0322151779996
F-484.95826525865192
F0
tp1449
sg72
(lp1450
sg74
(iccpnmr.chemBuild.model.Atom
Atom
p1451
(dp1452
g3
g1448
sg13
g1
sg14
I1
sg15
S'H'
sg16
I00
sg17
g8
((lp1453
g1443
ag100
atRp1454
sg124
I00
sbsg125
g8
((lp1455
g1439
atRp1456
sg159
g8
((lp1457
(iccpnmr.chemBuild.model.Bond
Bond
p1458
(dp1459
g163
g164
sg165
Nsg13
g1
sg41
g42
sg17
g8
((lp1460
g1443
ag55
atRp1461
sbatRp1462
sg124
I00
sbatRp1463
sg41
g42
sg13
g1
sbatRp1464
sg159
g8
((lp1465
(iccpnmr.chemBuild.model.Bond
Bond
p1466
(dp1467
g163
g164
sg165
Nsg13
g1
sg41
g42
sg17
g8
((lp1468
g1431
ag55
atRp1469
sbatRp1470
sg124
I00
sbag1420
atRp1471
sg124
I00
sbsg125
g8
((lp1472
(iccpnmr.chemBuild.model.AtomGroup
AtomGroup
p1473
(dp1474
g129
g130
sg131
g8
((ltRp1475
sg17
g8
((lp1476
g100
ag1420
atRp1477
sg41
g96
sg13
g1
sbatRp1478
sg159
g8
((lp1479
(iccpnmr.chemBuild.model.Bond
Bond
p1480
(dp1481
g163
g164
sg165
Nsg13
g1
sg41
g96
sg17
g8
((lp1482
g1420
ag104
atRp1483
sbatRp1484
sg124
I00
sbatRp1485
sg3
S'C4'
p1486
sg39
I00
sg40
Nsg13
g1
sg41
g96
sg69
I0
sg15
S'C'
sg16
I00
sg70
(F-250.58888522699158
F-449.56825095060748
F0
tp1487
sg72
(lp1488
sg74
(iccpnmr.chemBuild.model.Atom
Atom
p1489
(dp1490
g3
g1486
sg13
g1
sg14
I4
sg15
S'C'
sg16
I00
sg17
g8
((lp1491
g55
ag104
atRp1492
sg124
I00
sbsg125
g8
((ltRp1493
sg159
g8
((lp1494
(iccpnmr.chemBuild.model.Bond
Bond
p1495
(dp1496
g163
g164
sg165
Nsg13
g1
sg41
g96
sg17
g8
((lp1497
g82
ag104
atRp1498
sbag1415
a(iccpnmr.chemBuild.model.Bond
Bond
p1499
(dp1500
g163
g164
sg165
Nsg13
g1
sg41
g96
sg17
g8
((lp1501
g100
ag104
atRp1502
sbag1480
atRp1503
sg124
I00
sbatRp1504
sg3
g1448
sg39
I00
sg40
Nsg13
g1
sg41
g96
sg69
I0
sg15
S'H'
sg16
I00
sg70
(F-266.0322151779996
F-484.95826525865192
F0
tp1505
sg72
(lp1506
sg74
g1451
sg125
g8
((lp1507
g1473
atRp1508
sg159
g8
((lp1509
g1499
atRp1510
sg124
I00
sbag339
ag807
ag190
ag1061
ag1326
ag1155
ag293
ag507
ag1420
ag850
ag112
ag78
ag423
a(iccpnmr.chemBuild.model.VarAtom
VarAtom
p1511
(dp1512
g21
(lp1513
sg23
g8
((lp1514
g82
atRp1515
sg3
S'H31'
p1516
sg39
I00
sg40
Nsg13
g1
sg41
g96
sg69
I0
sg15
S'H'
sg16
I00
sg70
(F-289.07903501876456
F-401.15237381803365
F0
tp1517
sg72
(lp1518
sg74
(iccpnmr.chemBuild.model.Atom
Atom
p1519
(dp1520
g3
g1516
sg13
g1
sg14
I1
sg15
S'H'
sg16
I00
sg17
g8
((lp1521
(iccpnmr.chemBuild.model.VarAtom
VarAtom
p1522
(dp1523
g21
(lp1524
sg23
g8
((lp1525
g59
atRp1526
sg3
g1516
sg39
I00
sg40
Nsg13
g1
sg41
g42
sg69
I0
sg15
S'H'
sg16
I00
sg70
(F-289.07903501876456
F-401.15237381803365
F0
tp1527
sg72
(lp1528
sg74
g1519
sg125
g8
((lp1529
(iccpnmr.chemBuild.model.AtomGroup
AtomGroup
p1530
(dp1531
g129
g130
sg131
g8
((ltRp1532
sg17
g8
((lp1533
g63
ag1522
atRp1534
sg41
g42
sg13
g1
sbatRp1535
sg159
g8
((lp1536
(iccpnmr.chemBuild.model.Bond
Bond
p1537
(dp1538
g163
g164
sg165
Nsg13
g1
sg41
g42
sg17
g8
((lp1539
g59
ag1522
atRp1540
sbatRp1541
sg124
I00
sbag1511
atRp1542
sg124
I00
sbsg125
g8
((lp1543
(iccpnmr.chemBuild.model.AtomGroup
AtomGroup
p1544
(dp1545
g129
g130
sg131
g8
((ltRp1546
sg17
g8
((lp1547
g78
ag1511
atRp1548
sg41
g96
sg13
g1
sbatRp1549
sg159
g8
((lp1550
(iccpnmr.chemBuild.model.Bond
Bond
p1551
(dp1552
g163
g164
sg165
Nsg13
g1
sg41
g96
sg17
g8
((lp1553
g82
ag1511
atRp1554
sbatRp1555
sg124
I00
sbag900
ag815
ag134
ag701
ag624
a(iccpnmr.chemBuild.model.VarAtom
VarAtom
p1556
(dp1557
g21
(lp1558
sg23
g8
((lp1559
(iccpnmr.chemBuild.model.VarAtom
VarAtom
p1560
(dp1561
g21
(lp1562
sg23
g8
((lp1563
g1556
a(iccpnmr.chemBuild.model.VarAtom
VarAtom
p1564
(dp1565
g21
(lp1566
sg23
g8
((lp1567
g1560
ag86
a(iccpnmr.chemBuild.model.VarAtom
VarAtom
p1568
(dp1569
g21
(lp1570
sg23
g8
((lp1571
g1564
atRp1572
sg3
S'O2'
p1573
sg39
I00
sg40
Nsg13
g1
sg41
g96
sg69
I0
sg15
S'O'
sg16
I00
sg70
(F-403.29811624458392
F-407.26041458018466
F0
tp1574
sg72
(lp1575
sg74
(iccpnmr.chemBuild.model.Atom
Atom
p1576
(dp1577
g3
g1573
sg13
g1
sg14
I2
sg15
S'O'
sg16
I00
sg17
g8
((lp1578
(iccpnmr.chemBuild.model.VarAtom
VarAtom
p1579
(dp1580
g21
(lp1581
sg23
g8
((lp1582
(iccpnmr.chemBuild.model.VarAtom
VarAtom
p1583
(dp1584
g21
(lp1585
sg23
g8
((lp1586
(iccpnmr.chemBuild.model.VarAtom
VarAtom
p1587
(dp1588
g21
(lp1589
sg23
g8
((lp1590
g1583
atRp1591
sg3
S'O1'
p1592
sg39
I00
sg40
Nsg13
g1
sg41
g42
sg69
I-1
sg15
S'O'
sg16
I00
sg70
(F-437.27285950022298
F-465.47354934882856
F0
tp1593
sg72
(lp1594
sg74
(iccpnmr.chemBuild.model.Atom
Atom
p1595
(dp1596
g3
g1592
sg13
g1
sg14
I2
sg15
S'O'
sg16
I00
sg17
g8
((lp1597
g1587
ag1560
atRp1598
sg124
I00
sbsg125
g8
((ltRp1599
sg159
g8
((lp1600
(iccpnmr.chemBuild.model.Bond
Bond
p1601
(dp1602
g163
g164
sg165
Nsg13
g1
sg41
g42
sg17
g8
((lp1603
g1587
ag1583
atRp1604
sbatRp1605
sg124
I00
sbag1579
a(iccpnmr.chemBuild.model.VarAtom
VarAtom
p1606
(dp1607
g21
(lp1608
sg23
g8
((lp1609
g59
a(iccpnmr.chemBuild.model.VarAtom
VarAtom
p1610
(dp1611
g21
(lp1612
sg23
g8
((lp1613
g1606
atRp1614
sg3
g95
sg39
I00
sg40
Nsg13
g1
sg41
g42
sg69
I0
sg15
S'H'
sg16
I00
sg70
(F-322.62403754948872
F-505.25014386211978
F0
tp1615
sg72
(lp1616
sg74
(iccpnmr.chemBuild.model.Atom
Atom
p1617
(dp1618
g3
g95
sg13
g1
sg14
I1
sg15
S'H'
sg16
I00
sg17
g8
((lp1619
g1610
ag90
atRp1620
sg124
I00
sbsg125
g8
((lp1621
(iccpnmr.chemBuild.model.AtomGroup
AtomGroup
p1622
(dp1623
g129
g130
sg131
g8
((ltRp1624
sg17
g8
((lp1625
g1610
a(iccpnmr.chemBuild.model.VarAtom
VarAtom
p1626
(dp1627
g21
(lp1628
sg23
g8
((lp1629
g1606
atRp1630
sg3
S'H22'
p1631
sg39
I00
sg40
Nsg13
g1
sg41
g42
sg69
I0
sg15
S'H'
sg16
I00
sg70
(F-369.6110502419736
F-502.32677320404781
F0
tp1632
sg72
(lp1633
sg74
(iccpnmr.chemBuild.model.Atom
Atom
p1634
(dp1635
g3
g1631
sg13
g1
sg14
I1
sg15
S'H'
sg16
I00
sg17
g8
((lp1636
(iccpnmr.chemBuild.model.VarAtom
VarAtom
p1637
(dp1638
g21
(lp1639
sg23
g8
((lp1640
g86
atRp1641
sg3
g1631
sg39
I00
sg40
Nsg13
g1
sg41
g96
sg69
I0
sg15
S'H'
sg16
I00
sg70
(F-369.6110502419736
F-502.32677320404781
F0
tp1642
sg72
(lp1643
sg74
g1634
sg125
g8
((lp1644
(iccpnmr.chemBuild.model.AtomGroup
AtomGroup
p1645
(dp1646
g129
g130
sg131
g8
((ltRp1647
sg17
g8
((lp1648
g90
ag1637
atRp1649
sg41
g96
sg13
g1
sbatRp1650
sg159
g8
((lp1651
(iccpnmr.chemBuild.model.Bond
Bond
p1652
(dp1653
g163
g164
sg165
Nsg13
g1
sg41
g96
sg17
g8
((lp1654
g86
ag1637
atRp1655
sbatRp1656
sg124
I00
sbag1626
atRp1657
sg124
I00
sbsg125
g8
((lp1658
g1622
atRp1659
sg159
g8
((lp1660
(iccpnmr.chemBuild.model.Bond
Bond
p1661
(dp1662
g163
g164
sg165
Nsg13
g1
sg41
g42
sg17
g8
((lp1663
g1626
ag1606
atRp1664
sbatRp1665
sg124
I00
sbatRp1666
sg41
g42
sg13
g1
sbatRp1667
sg159
g8
((lp1668
(iccpnmr.chemBuild.model.Bond
Bond
p1669
(dp1670
g163
g164
sg165
Nsg13
g1
sg41
g42
sg17
g8
((lp1671
g1610
ag1606
atRp1672
sbatRp1673
sg124
I00
sbag1583
ag1626
atRp1674
sg3
S'C2'
p1675
sg39
I00
sg40
Nsg13
g1
sg41
g42
sg69
I0
sg15
S'C'
sg16
I00
sg70
(F-344.1356759226361
F-473.0783440121665
F0
tp1676
sg72
(lp1677
sg74
(iccpnmr.chemBuild.model.Atom
Atom
p1678
(dp1679
g3
g1675
sg13
g1
sg14
I4
sg15
S'C'
sg16
I00
sg17
g8
((lp1680
g86
ag1606
atRp1681
sg124
I00
sbsg125
g8
((ltRp1682
sg159
g8
((lp1683
g1669
a(iccpnmr.chemBuild.model.Bond
Bond
p1684
(dp1685
g163
g164
sg165
Nsg13
g1
sg41
g42
sg17
g8
((lp1686
g59
ag1606
atRp1687
sba(iccpnmr.chemBuild.model.Bond
Bond
p1688
(dp1689
g163
g164
sg165
Nsg13
g1
sg41
g42
sg17
g8
((lp1690
g1583
ag1606
atRp1691
sbag1661
atRp1692
sg124
I00
sbatRp1693
sg3
S'C1'
p1694
sg39
I00
sg40
Nsg13
g1
sg41
g42
sg69
I0
sg15
S'C'
sg16
I00
sg70
(F-389.55250648226877
F-449.04596640888525
F0
tp1695
sg72
(lp1696
sg74
(iccpnmr.chemBuild.model.Atom
Atom
p1697
(dp1698
g3
g1694
sg13
g1
sg14
I4
sg15
S'C'
sg16
I00
sg17
g8
((lp1699
g1583
ag1564
atRp1700
sg124
I00
sbsg125
g8
((ltRp1701
sg159
g8
((lp1702
(iccpnmr.chemBuild.model.Bond
Bond
p1703
(dp1704
g163
S'double'
p1705
sg165
Nsg13
g1
sg41
g42
sg17
g8
((lp1706
g1579
ag1583
atRp1707
sbag1601
ag1688
atRp1708
sg124
I00
sbatRp1709
sg3
g1573
sg39
I00
sg40
Nsg13
g1
sg41
g42
sg69
I0
sg15
S'O'
sg16
I00
sg70
(F-403.29811624458392
F-407.26041458018466
F0
tp1710
sg72
(lp1711
sg74
g1576
sg125
g8
((ltRp1712
sg159
g8
((lp1713
g1703
atRp1714
sg124
I00
sbag1568
atRp1715
sg124
I00
sbsg125
g8
((ltRp1716
sg159
g8
((lp1717
(iccpnmr.chemBuild.model.Bond
Bond
p1718
(dp1719
g163
g1705
sg165
Nsg13
g1
sg41
g96
sg17
g8
((lp1720
g1568
ag1564
atRp1721
sbatRp1722
sg124
I00
sbatRp1723
sg3
g1694
sg39
I00
sg40
Nsg13
g1
sg41
g96
sg69
I0
sg15
S'C'
sg16
I00
sg70
(F-389.55250648226877
F-449.04596640888525
F0
tp1724
sg72
(lp1725
sg74
g1697
sg125
g8
((ltRp1726
sg159
g8
((lp1727
(iccpnmr.chemBuild.model.Bond
Bond
p1728
(dp1729
g163
g164
sg165
Nsg13
g1
sg41
g96
sg17
g8
((lp1730
g86
ag1564
atRp1731
sbag1718
a(iccpnmr.chemBuild.model.Bond
Bond
p1732
(dp1733
g163
g164
sg165
Nsg13
g1
sg41
g96
sg17
g8
((lp1734
g1560
ag1564
atRp1735
sbatRp1736
sg124
I00
sbatRp1737
sg3
g1592
sg39
I00
sg40
Nsg13
g1
sg41
g96
sg69
I0
sg15
S'O'
sg16
I00
sg70
(F-437.27285950022298
F-465.47354934882856
F0
tp1738
sg72
(lp1739
sg74
g1595
sg125
g8
((ltRp1740
sg159
g8
((lp1741
g1732
a(iccpnmr.chemBuild.model.Bond
Bond
p1742
(dp1743
g163
g164
sg165
Nsg13
g1
sg41
g96
sg17
g8
((lp1744
g1560
ag1556
atRp1745
sbatRp1746
sg124
I00
sbatRp1747
sg3
S'H'
sg39
I01
sg40
Nsg13
g1
sg41
g96
sg69
I0
sg15
S'H'
sg16
I01
sg70
(F-474.97693242283719
F-468.46651358711404
F0
tp1748
sg72
(lp1749
sg74
(iccpnmr.chemBuild.model.Atom
Atom
p1750
(dp1751
g3
S'H'
sg13
g1
sg14
I1
sg15
S'H'
sg16
I01
sg17
g8
((lp1752
g1556
atRp1753
sg124
I00
sbsg125
g8
((ltRp1754
sg159
g8
((lp1755
g1742
atRp1756
sg124
I00
sbag224
ag717
ag1637
ag327
ag495
ag1167
ag769
ag411
ag90
ag934
ag232
atRp1757
sS'C'
g8
((lp1758
g285
ag697
ag693
ag108
ag765
ag186
ag811
ag289
ag86
ag281
ag228
ag82
ag896
ag277
ag1564
ag104
atRp1759
sS'O'
g8
((lp1760
g1560
ag1568
atRp1761
ssg159
g8
((lp1762
g1076
ag975
ag1125
ag891
ag1135
ag1728
ag458
ag1390
ag760
ag1400
ag1480
ag374
ag1742
ag994
ag865
ag1009
ag1150
ag173
ag990
ag1732
ag639
a(iccpnmr.chemBuild.model.Bond
Bond
p1763
(dp1764
g163
g164
sg165
Nsg13
g1
sg41
g96
sg17
g8
((lp1765
g82
ag78
atRp1766
sbag1210
ag752
ag1652
ag1551
ag272
ag1245
a(iccpnmr.chemBuild.model.Bond
Bond
p1767
(dp1768
g163
g164
sg165
Nsg13
g1
sg41
g96
sg17
g8
((lp1769
g82
ag86
atRp1770
sbag1225
ag1341
ag1280
ag1415
ag1235
ag1202
ag382
ag688
ag1718
ag1499
a(iccpnmr.chemBuild.model.Bond
Bond
p1771
(dp1772
g163
g164
sg165
Nsg13
g1
sg41
g96
sg17
g8
((lp1773
g90
ag86
atRp1774
sbag1255
ag550
ag466
ag1265
ag949
ag1284
ag1495
ag181
ag542
atRp1775
sg13
g1
sS'atomDict'
p1776
(dp1777
g10
g1155
sg492
g495
sg662
g289
sg1428
g1420
sg240
g232
sg75
g78
sg1697
g1564
sg823
g815
sg1634
g1637
sg587
g281
sg1175
g1167
sg301
g293
sg120
g112
sg1099
g765
sg1219
g693
sg1144
g697
sg708
g701
sg347
g339
sg515
g507
sg931
g934
s(iccpnmr.chemBuild.model.Atom
Atom
p1778
(dp1779
g3
S'C3'
p1780
sg13
g1
sg14
I4
sg15
S'C'
sg16
I00
sg17
g8
((lp1781
g82
ag59
atRp1782
sg124
I00
sbg82
sg908
g900
sg1595
g1560
sg1364
g186
sg1274
g228
sg1409
g108
sg568
g277
sg1750
g1556
sg725
g717
sg984
g896
sg847
g850
sg142
g134
sg324
g327
sg221
g224
sg1058
g1061
sg602
g285
sg198
g190
sg1617
g90
sg1678
g86
sg804
g807
sg431
g423
sg621
g624
sg777
g769
sg1576
g1568
sg1519
g1511
sg1003
g811
sg1489
g104
sg408
g411
sg1323
g1326
sg1451
g100
ssS'descriptor'
p1783
(S'+H'
S'none'
p1784
S'default'
p1785
tp1786
sg17
g8
((lp1787
g100
ag1568
ag339
ag807
ag285
ag327
ag1061
ag1326
ag896
ag1155
ag900
ag293
ag112
ag108
ag1420
ag277
ag186
ag811
ag289
ag769
ag232
ag78
ag423
ag1511
ag411
ag815
ag624
ag134
ag693
ag697
ag765
ag1556
ag82
ag850
ag281
ag717
ag701
ag1637
ag104
ag190
ag1560
ag495
ag1167
ag86
ag1564
ag90
ag224
ag934
ag507
ag228
atRp1788
sg125
g8
((lp1789
g942
ag503
ag335
ag632
ag1544
ag713
ag858
ag1473
ag1334
ag419
ag1645
ag1069
ag1163
ag127
ag265
atRp1790
sS'polyLink'
p1791
S'free'
p1792
sbsg69
I0
sg15
S'H'
sg16
I00
sg70
(F-322.62403754948872
F-505.25014386211978
F0
tp1793
sg72
(lp1794
sg74
g1617
sg125
g8
((lp1795
g1645
atRp1796
sg159
g8
((lp1797
g1771
atRp1798
sg124
I00
sbag82
ag1637
ag1564
atRp1799
sg3
g1675
sg39
I00
sg40
Nsg13
g1
sg41
g96
sg69
I0
sg15
S'C'
sg16
I00
sg70
(F-344.1356759226361
F-473.0783440121665
F0
tp1800
sg72
(lp1801
sg74
g1678
sg125
g8
((ltRp1802
sg159
g8
((lp1803
g1652
ag1728
ag1767
ag1771
atRp1804
sg124
I00
sbag78
ag1511
ag104
atRp1805
sg3
g1780
sg39
I00
sg40
Nsg13
g1
sg41
g96
sg69
I0
sg15
S'C'
sg16
I00
sg70
(F-304.08354995375333
F-436.55652979928431
F0
tp1806
sg72
(lp1807
sg74
g1778
sg125
g8
((ltRp1808
sg159
g8
((lp1809
g1763
ag1495
ag1551
ag1767
atRp1810
sg124
I00
sbatRp1811
sg3
g68
sg39
I00
sg40
Nsg13
g1
sg41
g96
sg69
I0
sg15
S'H'
sg16
I00
sg70
(F-332.2332278490299
F-410.01683915235282
F0
tp1812
sg72
(lp1813
sg74
g75
sg125
g8
((lp1814
g1544
atRp1815
sg159
g8
((lp1816
g1763
atRp1817
sg124
I00
sbag63
atRp1818
sg124
I00
sbsg125
g8
((lp1819
g1530
atRp1820
sg159
g8
((lp1821
(iccpnmr.chemBuild.model.Bond
Bond
p1822
(dp1823
g163
g164
sg165
Nsg13
g1
sg41
g42
sg17
g8
((lp1824
g59
ag63
atRp1825
sbatRp1826
sg124
I00
sbag1606
ag1522
atRp1827
sg3
g1780
sg39
I00
sg40
Nsg13
g1
sg41
g42
sg69
I0
sg15
S'C'
sg16
I00
sg70
(F-304.08354995375333
F-436.55652979928431
F0
tp1828
sg72
(lp1829
sg74
g1778
sg125
g8
((ltRp1830
sg159
g8
((lp1831
g1822
ag1537
ag1684
a(iccpnmr.chemBuild.model.Bond
Bond
p1832
(dp1833
g163
g164
sg165
Nsg13
g1
sg41
g42
sg17
g8
((lp1834
g55
ag59
atRp1835
sbatRp1836
sg124
I00
sbag1443
ag1431
atRp1837
sg3
g1486
sg39
I00
sg40
Nsg13
g1
sg41
g42
sg69
I0
sg15
S'C'
sg16
I00
sg70
(F-250.58888522699158
F-449.56825095060748
F0
tp1838
sg72
(lp1839
sg74
g1489
sg125
g8
((ltRp1840
sg159
g8
((lp1841
g1466
ag1458
a(iccpnmr.chemBuild.model.Bond
Bond
p1842
(dp1843
g163
g164
sg165
Nsg13
g1
sg41
g42
sg17
g8
((lp1844
g55
ag51
atRp1845
sbag1832
atRp1846
sg124
I00
sbag47
ag205
ag145
atRp1847
sg3
g1406
sg39
I00
sg40
Nsg13
g1
sg41
g42
sg69
I0
sg15
S'C'
sg16
I00
sg70
(F-207.00456318392281
F-411.77858209405304
F0
tp1848
sg72
(lp1849
sg74
g1409
sg125
g8
((ltRp1850
sg159
g8
((lp1851
(iccpnmr.chemBuild.model.Bond
Bond
p1852
(dp1853
g163
g164
sg165
Nsg13
g1
sg41
g42
sg17
g8
((lp1854
g51
ag47
atRp1855
sbag1842
ag161
ag1374
atRp1856
sg124
I00
sbatRp1857
sg3
g117
sg39
I00
sg40
Nsg13
g1
sg41
g42
sg69
I0
sg15
S'H'
sg16
I00
sg70
(F-190.69012094607527
F-376.823913526681
F0
tp1858
sg72
(lp1859
sg74
g120
sg125
g8
((lp1860
g153
atRp1861
sg159
g8
((lp1862
g1852
atRp1863
sg124
I00
sbag33
ag839
ag304
ag796
ag19
ag911
ag1431
ag484
ag434
ag1050
ag1626
ag923
ag400
ag826
ag518
ag316
ag243
ag780
ag213
ag1315
ag145
ag1443
ag201
ag1178
ag63
ag1610
ag350
ag613
ag728
ag1522
atRp1864
sS'C'
g8
((lp1865
g792
ag209
ag51
ag59
ag29
ag312
ag788
ag1583
ag784
ag55
ag25
ag308
ag1606
ag205
ag396
ag480
atRp1866
sS'O'
g8
((lp1867
g1587
ag1579
atRp1868
ssg159
g8
((lp1869
g449
ag559
ag1458
ag1661
ag1300
ag874
ag1193
ag475
ag668
ag391
a(iccpnmr.chemBuild.model.Bond
Bond
p1870
(dp1871
g163
g164
sg165
Nsg13
g1
sg41
g42
sg17
g8
((lp1872
g29
ag33
atRp1873
sbag533
ag1045
ag365
ag578
ag1537
ag1669
ag1370
ag1035
ag574
ag1832
ag1310
ag1466
ag1684
ag1852
ag1090
ag1109
ag593
ag672
ag743
ag1688
a(iccpnmr.chemBuild.model.Bond
Bond
p1874
(dp1875
g163
g164
sg165
Nsg13
g1
sg41
g42
sg17
g8
((lp1876
g19
ag25
atRp1877
sbag1374
ag608
ag1822
ag1842
ag1703
ag161
ag1355
ag1025
ag958
ag258
ag653
ag1105
a(iccpnmr.chemBuild.model.Bond
Bond
p1878
(dp1879
g163
g164
sg165
Nsg13
g1
sg41
g42
sg17
g8
((lp1880
g25
ag29
atRp1881
sbag882
ag1601
ag966
atRp1882
sg13
g1
sg1776
(dp1883
g10
g19
sg492
g484
sg662
g308
sg1428
g1431
sg240
g243
sg75
g63
sg1697
g1583
sg823
g826
sg1634
g1626
sg587
g396
sg1175
g1178
sg301
g304
sg120
g47
sg1099
g784
sg1219
g25
sg1144
g29
sg708
g33
sg347
g350
sg515
g518
sg931
g923
sg1778
g59
sg908
g911
sg1595
g1587
sg1364
g205
sg1274
g209
sg1409
g51
sg568
g480
sg725
g728
sg984
g788
sg847
g839
sg142
g145
sg324
g316
sg221
g213
sg1058
g1050
sg602
g312
sg198
g201
sg1617
g1610
sg1678
g1606
sg804
g796
sg431
g434
sg621
g613
sg777
g780
sg1576
g1579
sg1519
g1522
sg1003
g792
sg1489
g55
sg408
g400
sg1323
g1315
sg1451
g1443
ssg1783
(S'-H'
g1784
g1785
tp1884
sg17
g8
((lp1885
g613
ag25
ag33
ag312
ag839
ag304
ag796
ag19
ag47
ag1606
ag826
ag396
ag792
ag51
ag788
ag784
ag1587
ag923
ag484
ag911
ag308
ag205
ag1050
ag1626
ag400
ag29
ag518
ag1443
ag316
ag243
ag780
ag55
ag201
ag1315
ag434
ag145
ag209
ag59
ag1178
ag63
ag213
ag1610
ag1579
ag1583
ag350
ag1431
ag728
ag480
ag1522
atRp1886
sg125
g8
((lp1887
g1083
ag251
ag1348
ag1530
ag919
ag1186
ag736
ag442
ag358
ag1439
ag526
ag834
ag153
ag1622
ag646
atRp1888
sg1791
g1792
sbsg69
I0
sg15
S'H'
sg16
I00
sg70
(F174.38779417550421
F-382.23016724066912
F0
tp1889
sg72
(lp1890
sg74
g708
sg125
g8
((lp1891
g736
atRp1892
sg159
g8
((lp1893
g1870
atRp1894
sg124
I00
sbag728
ag784
atRp1895
sg3
g1141
sg39
I00
sg40
Nsg13
g1
sg41
g42
sg69
I0
sg15
S'C'
sg16
I00
sg70
(F194.61973397572299
F-414.89190597176622
F0
tp1896
sg72
(lp1897
sg74
g1144
sg125
g8
((ltRp1898
sg159
g8
((lp1899
g1870
ag1105
ag743
ag1878
atRp1900
sg124
I00
sbag1178
ag308
atRp1901
sg3
g1216
sg39
I00
sg40
Nsg13
g1
sg41
g42
sg69
I0
sg15
S'C'
sg16
I00
sg70
(F143.36855890949812
F-436.38111777346273
F0
tp1902
sg72
(lp1903
sg74
g1219
sg125
g8
((ltRp1904
sg159
g8
((lp1905
g1193
ag672
ag1874
ag1878
atRp1906
sg124
I00
sbatRp1907
sg3
g12
sg39
I00
sg40
Nsg13
g1
sg41
g42
sg69
I0
sg15
S'H'
sg16
I00
sg70
(F163.60957437120558
F-469.18722463940139
F0
tp1908
sg72
(lp1909
sg74
g10
sg125
g8
((lp1910
g1186
atRp1911
sg159
g8
((lp1912
g1874
atRp1913
sg124
I00
sbag1155
atRp1914
sg124
I00
sbag492
ag662
ag1428
ag240
ag75
ag1697
ag823
ag1634
ag587
ag1175
ag301
ag120
ag1099
ag1219
ag1144
ag708
ag347
ag515
ag931
ag1778
ag908
ag1595
ag1364
ag1274
ag1409
ag568
ag1750
ag725
ag984
ag847
ag142
ag324
ag221
ag1058
ag602
ag198
ag1617
ag1678
ag804
ag431
ag621
ag777
ag1576
ag1519
ag1003
ag1489
ag408
ag1323
ag1451
atRp1915
sS'ccpMolType'
p1916
S'other'
p1917
sS'details'
p1918
V
sg1776
(dp1919
g95
g1617
sg1631
g1634
sg489
g492
sg512
g515
sg1573
g1576
sg1592
g1595
sg1172
g1175
sg12
g10
sg774
g777
sg1055
g1058
sg565
g568
sg801
g804
sg844
g847
sg820
g823
sg68
g75
sg584
g587
sg1516
g1519
sg117
g120
sg139
g142
sS'H'
g1750
sg1780
g1778
sg1675
g1678
sg1694
g1697
sg1271
g1274
sg1361
g1364
sg1406
g1409
sg1486
g1489
sg1216
g1219
sg659
g662
sg599
g602
sg1000
g1003
sg981
g984
sg1096
g1099
sg1141
g1144
sg405
g408
sg428
g431
sg321
g324
sg218
g221
sg38
g708
sg722
g725
sg905
g908
sg237
g240
sg928
g931
sg344
g347
sg1448
g1451
sg1425
g1428
sg1320
g1323
sg195
g198
sg618
g621
sg298
g301
ssS'keywords'
p1920
g8
((ltRp1921
sg125
g8
((lp1922
g503
ag335
ag1186
ag713
ag858
ag442
ag526
ag1473
ag419
ag265
ag1069
ag1439
ag942
ag1544
ag646
ag1622
ag1083
ag1645
ag1530
ag127
ag736
ag919
ag1348
ag632
ag358
ag1334
ag251
ag1163
ag834
ag153
atRp1923
sS'variants'
p1924
g8
((lp1925
g96
ag42
atRp1926
sS'defaultVars'
p1927
g8
((ltRp1928
sb.