(imodel.Compound
Compound
p1
(dp2
S'name'
p3
S'Unnamed'
p4
sS'isModified'
p5
I01
sS'ccpCode'
p6
NsS'atoms'
p7
c__builtin__
set
p8
((lp9
(imodel.Atom
Atom
p10
(dp11
g3
VO
sS'compound'
p12
g1
sS'element'
p13
S'O'
sS'isVariable'
p14
I00
sS'varAtoms'
p15
g8
((lp16
(imodel.VarAtom
VarAtom
p17
(dp18
S'neighbours'
p19
g8
((lp20
(imodel.VarAtom
VarAtom
p21
(dp22
g19
g8
((lp23
g17
a(imodel.VarAtom
VarAtom
p24
(dp25
g19
g8
((lp26
g21
a(imodel.VarAtom
VarAtom
p27
(dp28
g19
g8
((lp29
g24
atRp30
sg3
VH1
p31
sS'isLabile'
p32
I00
sS'chirality'
p33
NsS'atom'
p34
(imodel.Atom
Atom
p35
(dp36
g3
g31
sg12
g1
sg13
S'H'
sg14
I00
sg15
g8
((lp37
g27
atRp38
sS'isDeleted'
p39
I00
sbsS'variant'
p40
(imodel.Variant
Variant
p41
(dp42
S'elementDict'
p43
(dp44
S'H'
g8
((lp45
g27
a(imodel.VarAtom
VarAtom
p46
(dp47
g19
g8
((lp48
g24
atRp49
sg3
VH2
p50
sg32
I00
sg33
Nsg34
(imodel.Atom
Atom
p51
(dp52
g3
g50
sg12
g1
sg13
S'H'
sg14
I00
sg15
g8
((lp53
g46
atRp54
sg39
I00
sbsg40
g41
sS'charge'
p55
I0
sg13
S'H'
sg14
I00
sS'coords'
p56
(F-15.964476985342957
F276.04085464483376
F1.1080797033379588
tp57
sS'freeValences'
p58
(lp59
sg12
g1
sS'atomGroups'
p60
g8
((ltRp61
sS'bonds'
p62
g8
((lp63
(imodel.Bond
Bond
p64
(dp65
S'bondType'
p66
S'single'
p67
sg12
g1
sg40
g41
sg15
g8
((lp68
g24
ag46
atRp69
sbatRp70
sg39
I00
sbatRp71
sS'C'
g8
((lp72
g21
atRp73
sS'O'
g8
((lp74
g17
atRp75
sS'N'
g8
((lp76
g24
atRp77
ssg62
g8
((lp78
(imodel.Bond
Bond
p79
(dp80
g66
S'double'
p81
sg12
g1
sg40
g41
sg15
g8
((lp82
g21
ag17
atRp83
sba(imodel.Bond
Bond
p84
(dp85
g66
g67
sg12
g1
sg40
g41
sg15
g8
((lp86
g21
ag24
atRp87
sba(imodel.Bond
Bond
p88
(dp89
g66
g67
sg12
g1
sg40
g41
sg15
g8
((lp90
g24
ag27
atRp91
sbag64
atRp92
sg12
g1
sS'atomDict'
p93
(dp94
g10
g17
sg35
g27
s(imodel.Atom
Atom
p95
(dp96
g3
VN
sg12
g1
sg13
S'N'
sg14
I00
sg15
g8
((lp97
g24
atRp98
sg39
I00
sbg24
s(imodel.Atom
Atom
p99
(dp100
g3
VC
sg12
g1
sg13
S'C'
sg14
I00
sg15
g8
((lp101
g21
atRp102
sg39
I00
sbg21
sg51
g46
ssS'descriptor'
p103
(S'neutral'
p104
S'none'
p105
S'default'
p106
tp107
sg15
g8
((lp108
g21
ag17
ag27
ag24
ag46
atRp109
sg60
g8
((ltRp110
sS'polyLink'
p111
g105
sbsg55
I0
sg13
S'H'
sg14
I00
sg56
(F28.525439714508138
F224.3599846557421
F0.90294658389275251
tp112
sg58
(lp113
sg12
g1
sg60
g8
((ltRp114
sg62
g8
((lp115
g88
atRp116
sg39
I00
sbag46
atRp117
sg3
VN
sg32
I00
sg33
Nsg34
g95
sg40
g41
sg55
I0
sg13
S'N'
sg14
I00
sg56
(F-6.6152784900101027
F239.09398199183192
F1.0674539012891993
tp118
sg58
(lp119
sg12
g1
sg60
g8
((ltRp120
sg62
g8
((lp121
g84
ag88
ag64
atRp122
sg39
I00
sbatRp123
sg3
VC
sg32
I00
sg33
Nsg34
g99
sg40
g41
sg55
I0
sg13
S'C'
sg14
I00
sg56
(F-44.446032637989063
F205.58748566239177
F1.0435120642184952
tp124
sg58
(lp125
F5.0995893958573042
asg12
g1
sg60
g8
((ltRp126
sg62
g8
((lp127
g79
ag84
atRp128
sg39
I00
sbatRp129
sg3
VO
sg32
I00
sg33
Nsg34
g10
sg40
g41
sg55
I0
sg13
S'O'
sg14
I00
sg56
(F-41.305804270047332
F161.76789459887277
F1.0884087235417588
tp130
sg58
(lp131
sg12
g1
sg60
g8
((ltRp132
sg62
g8
((lp133
g79
atRp134
sg39
I00
sbatRp135
sg39
I00
sbag35
ag95
ag99
ag51
atRp136
sS'ccpMolType'
p137
S'other'
p138
sS'details'
p139
V
sg93
(dp140
VC
g99
sg50
g51
sg31
g35
sVO
g10
sVN
g95
ssS'keywords'
p141
g8
((ltRp142
sg60
g8
((ltRp143
sS'variants'
p144
g8
((lp145
g41
atRp146
sS'defaultVars'
p147
g8
((ltRp148
sb.