(imodel.Compound
Compound
p1
(dp2
S'name'
p3
S'Unnamed'
p4
sS'isModified'
p5
I01
sS'ccpCode'
p6
NsS'atoms'
p7
c__builtin__
set
p8
((lp9
(imodel.Atom
Atom
p10
(dp11
g3
VN
sS'compound'
p12
g1
sS'element'
p13
S'N'
sS'isVariable'
p14
I00
sS'varAtoms'
p15
g8
((lp16
(imodel.VarAtom
VarAtom
p17
(dp18
S'neighbours'
p19
g8
((lp20
(imodel.VarAtom
VarAtom
p21
(dp22
g19
g8
((lp23
g17
atRp24
sg3
VH2
p25
sS'isLabile'
p26
I00
sS'chirality'
p27
NsS'atom'
p28
(imodel.Atom
Atom
p29
(dp30
g3
g25
sg12
g1
sg13
S'H'
sg14
I00
sg15
g8
((lp31
g21
a(imodel.VarAtom
VarAtom
p32
(dp33
g19
g8
((lp34
(imodel.VarAtom
VarAtom
p35
(dp36
g19
g8
((lp37
(imodel.VarAtom
VarAtom
p38
(dp39
g19
g8
((lp40
g35
atRp41
sg3
VH1
p42
sg26
I00
sg27
Nsg28
(imodel.Atom
Atom
p43
(dp44
g3
g42
sg12
g1
sg13
S'H'
sg14
I00
sg15
g8
((lp45
(imodel.VarAtom
VarAtom
p46
(dp47
g19
g8
((lp48
g17
atRp49
sg3
g42
sg26
I00
sg27
Nsg28
g43
sS'variant'
p50
(imodel.Variant
Variant
p51
(dp52
S'elementDict'
p53
(dp54
S'H'
g8
((lp55
g21
ag46
a(imodel.VarAtom
VarAtom
p56
(dp57
g19
g8
((lp58
g17
atRp59
sg3
VH3
p60
sg26
I01
sg27
Nsg28
(imodel.Atom
Atom
p61
(dp62
g3
g60
sg12
g1
sg13
S'H'
sg14
I01
sg15
g8
((lp63
g56
atRp64
sS'isDeleted'
p65
I00
sbsg50
g51
sS'charge'
p66
I0
sg13
S'H'
sg14
I01
sS'coords'
p67
(F-76.645128245824779
F94.49121838983416
F1.233207090151579
tp68
sS'freeValences'
p69
(lp70
sg12
g1
sS'atomGroups'
p71
g8
((ltRp72
sS'bonds'
p73
g8
((lp74
(imodel.Bond
Bond
p75
(dp76
S'bondType'
p77
S'single'
p78
sg12
g1
sg50
g51
sg15
g8
((lp79
g17
ag56
atRp80
sbatRp81
sg65
I00
sbatRp82
sS'N'
g8
((lp83
g17
atRp84
ssg73
g8
((lp85
(imodel.Bond
Bond
p86
(dp87
g77
g78
sg12
g1
sg50
g51
sg15
g8
((lp88
g17
ag21
atRp89
sba(imodel.Bond
Bond
p90
(dp91
g77
g78
sg12
g1
sg50
g51
sg15
g8
((lp92
g17
ag46
atRp93
sbag75
atRp94
sg12
g1
sS'atomDict'
p95
(dp96
g10
g17
sg29
g21
sg61
g56
sg43
g46
ssS'descriptor'
p97
(V+H3
S'none'
p98
S'default'
p99
tp100
sg15
g8
((lp101
g17
ag21
ag46
ag56
atRp102
sg71
g8
((ltRp103
sS'polyLink'
p104
g98
sbsg66
I0
sg13
S'H'
sg14
I00
sg67
(F-84.326561811839412
F40.066294003908212
F1.6293642138661502
tp105
sg69
(lp106
sg12
g1
sg71
g8
((ltRp107
sg73
g8
((lp108
g90
atRp109
sg65
I00
sbag38
atRp110
sg65
I00
sbsg50
(imodel.Variant
Variant
p111
(dp112
g53
(dp113
S'H'
g8
((lp114
g38
ag32
atRp115
sS'N'
g8
((lp116
g35
atRp117
ssg73
g8
((lp118
(imodel.Bond
Bond
p119
(dp120
g77
g78
sg12
g1
sg50
g111
sg15
g8
((lp121
g35
ag38
atRp122
sba(imodel.Bond
Bond
p123
(dp124
g77
g78
sg12
g1
sg50
g111
sg15
g8
((lp125
g35
ag32
atRp126
sbatRp127
sg12
g1
sg95
(dp128
g43
g38
sg29
g32
sg10
g35
ssg97
(S'neutral'
p129
g98
g99
tp130
sg15
g8
((lp131
g38
ag32
ag35
atRp132
sg71
g8
((ltRp133
sg104
g98
sbsg66
I0
sg13
S'H'
sg14
I00
sg67
(F-84.326561811839412
F40.066294003908212
F1.6293642138661502
tp134
sg69
(lp135
sg12
g1
sg71
g8
((ltRp136
sg73
g8
((lp137
g119
atRp138
sg65
I00
sbag32
atRp139
sg3
VN
sg26
I00
sg27
Nsg28
g10
sg50
g111
sg66
I0
sg13
S'N'
sg14
I00
sg67
(F-107.70270174179538
F71.116930058573629
F0.36143535943459015
tp140
sg69
(lp141
F4.7619263777634444
asg12
g1
sg71
g8
((ltRp142
sg73
g8
((lp143
g119
ag123
atRp144
sg65
I00
sbatRp145
sg3
g25
sg26
I00
sg27
Nsg28
g29
sg50
g111
sg66
I0
sg13
S'H'
sg14
I00
sg67
(F-79.12602475383585
F102.138976524589
F1.207823359341317
tp146
sg69
(lp147
sg12
g1
sg71
g8
((ltRp148
sg73
g8
((lp149
g123
atRp150
sg65
I00
sbatRp151
sg65
I00
sbsg50
g51
sg66
I0
sg13
S'H'
sg14
I00
sg67
(F-79.12602475383585
F102.138976524589
F1.207823359341317
tp152
sg69
(lp153
sg12
g1
sg71
g8
((ltRp154
sg73
g8
((lp155
g86
atRp156
sg65
I00
sbag46
ag56
atRp157
sg3
VN
sg26
I00
sg27
Nsg28
g10
sg50
g51
sg66
I1
sg13
S'N'
sg14
I00
sg67
(F-107.70270174179538
F71.116930058573629
F0.36143535943459015
tp158
sg69
(lp159
F4.2111921269422634
asg12
g1
sg71
g8
((ltRp160
sg73
g8
((lp161
g86
ag90
ag75
atRp162
sg65
I00
sbag35
atRp163
sg65
I00
sbag29
ag61
ag43
atRp164
sS'ccpMolType'
p165
S'other'
p166
sS'details'
p167
V
sg95
(dp168
g25
g29
sg60
g61
sg42
g43
sVN
g10
ssS'keywords'
p169
g8
((ltRp170
sg71
g8
((ltRp171
sS'variants'
p172
g8
((lp173
g51
ag111
atRp174
sS'defaultVars'
p175
g8
((ltRp176
sb.