(imodel.Compound
Compound
p1
(dp2
S'name'
p3
S'Unnamed'
p4
sS'isModified'
p5
I01
sS'ccpCode'
p6
NsS'atoms'
p7
c__builtin__
set
p8
((lp9
(imodel.Atom
Atom
p10
(dp11
g3
S'N1'
p12
sS'compound'
p13
g1
sS'element'
p14
S'N'
sS'isVariable'
p15
I00
sS'varAtoms'
p16
g8
((lp17
(imodel.VarAtom
VarAtom
p18
(dp19
S'neighbours'
p20
g8
((lp21
(imodel.VarAtom
VarAtom
p22
(dp23
g20
g8
((lp24
(imodel.VarAtom
VarAtom
p25
(dp26
g20
g8
((lp27
g22
atRp28
sg3
S'N3'
p29
sS'isLabile'
p30
I00
sS'chirality'
p31
NsS'atom'
p32
(imodel.Atom
Atom
p33
(dp34
g3
g29
sg13
g1
sg14
S'N'
sg15
I00
sg16
g8
((lp35
g25
atRp36
sS'isDeleted'
p37
I00
sbsS'variant'
p38
(imodel.Variant
Variant
p39
(dp40
S'elementDict'
p41
(dp42
S'H'
g8
((ltRp43
sS'C'
g8
((ltRp44
sS'N'
g8
((lp45
g18
ag22
ag25
atRp46
ssS'bonds'
p47
g8
((lp48
(imodel.Bond
Bond
p49
(dp50
S'bondType'
p51
S'double'
p52
sg13
g1
sg38
g39
sg16
g8
((lp53
g22
ag25
atRp54
sba(imodel.Bond
Bond
p55
(dp56
g51
g52
sg13
g1
sg38
g39
sg16
g8
((lp57
g18
ag22
atRp58
sbatRp59
sg13
g1
sS'atomDict'
p60
(dp61
g10
g18
s(imodel.Atom
Atom
p62
(dp63
g3
S'N2'
p64
sg13
g1
sg14
S'N'
sg15
I00
sg16
g8
((lp65
g22
atRp66
sg37
I00
sbg22
sg33
g25
ssS'descriptor'
p67
(S'neutral'
p68
S'none'
p69
S'default'
p70
tp71
sg16
g8
((lp72
g18
ag22
ag25
atRp73
sS'atomGroups'
p74
g8
((ltRp75
sS'polyLink'
p76
g69
sbsS'charge'
p77
I-1
sg14
S'N'
sg15
I00
sS'coords'
p78
(F-128.30555555555557
F33
F0
tp79
sS'freeValences'
p80
(lp81
sg13
g1
sg74
g8
((ltRp82
sg47
g8
((lp83
g49
atRp84
sg37
I00
sbag18
atRp85
sg3
g64
sg30
I00
sg31
Nsg32
g62
sg38
g39
sg77
I1
sg14
S'N'
sg15
I00
sg78
(F-190
F32
F0
tp86
sg80
(lp87
sg13
g1
sg74
g8
((ltRp88
sg47
g8
((lp89
g49
ag55
atRp90
sg37
I00
sbatRp91
sg3
g12
sg30
I00
sg31
Nsg32
g10
sg38
g39
sg77
I0
sg14
S'N'
sg15
I00
sg78
(F-255
F28
F0
tp92
sg80
(lp93
F4.6509280245019307
asg13
g1
sg74
g8
((ltRp94
sg47
g8
((lp95
g55
atRp96
sg37
I00
sbatRp97
sg37
I00
sbag62
ag33
atRp98
sS'ccpMolType'
p99
S'other'
p100
sS'details'
p101
V
sg60
(dp102
g12
g10
sg64
g62
sg29
g33
ssS'keywords'
p103
g8
((ltRp104
sg74
g8
((ltRp105
sS'variants'
p106
g8
((lp107
g39
atRp108
sS'defaultVars'
p109
g8
((ltRp110
sb.