(imodel.Compound
Compound
p1
(dp2
S'name'
p3
S'Unnamed'
p4
sS'isModified'
p5
I01
sS'ccpCode'
p6
NsS'atoms'
p7
c__builtin__
set
p8
((lp9
(imodel.Atom
Atom
p10
(dp11
g3
S'N1'
p12
sS'compound'
p13
g1
sS'element'
p14
S'N'
sS'isVariable'
p15
I00
sS'varAtoms'
p16
g8
((lp17
(imodel.VarAtom
VarAtom
p18
(dp19
S'neighbours'
p20
g8
((lp21
(imodel.VarAtom
VarAtom
p22
(dp23
g20
g8
((lp24
g18
atRp25
sg3
S'N2'
p26
sS'isLabile'
p27
I00
sS'chirality'
p28
NsS'atom'
p29
(imodel.Atom
Atom
p30
(dp31
g3
g26
sg13
g1
sg14
S'N'
sg15
I00
sg16
g8
((lp32
g22
atRp33
sS'isDeleted'
p34
I00
sbsS'variant'
p35
(imodel.Variant
Variant
p36
(dp37
S'elementDict'
p38
(dp39
S'H'
g8
((ltRp40
sS'C'
g8
((ltRp41
sS'N'
g8
((lp42
g18
ag22
atRp43
ssS'bonds'
p44
g8
((lp45
(imodel.Bond
Bond
p46
(dp47
S'bondType'
p48
S'double'
p49
sg13
g1
sg35
g36
sg16
g8
((lp50
g18
ag22
atRp51
sbatRp52
sg13
g1
sS'atomDict'
p53
(dp54
g10
g18
sg30
g22
ssS'descriptor'
p55
(S'neutral'
p56
S'none'
p57
S'default'
p58
tp59
sg16
g8
((lp60
g18
ag22
atRp61
sS'atomGroups'
p62
g8
((ltRp63
sS'polyLink'
p64
g57
sbsS'charge'
p65
I0
sg14
S'N'
sg15
I00
sS'coords'
p66
(F-191.00012000960061
F32
F0
tp67
sS'freeValences'
p68
(lp69
F1.5083774000578707
asg13
g1
sg62
g8
((ltRp70
sg44
g8
((lp71
g46
atRp72
sg34
I00
sbatRp73
sg3
g12
sg27
I00
sg28
Nsg29
g10
sg35
g36
sg65
I0
sg14
S'N'
sg15
I00
sg66
(F-255
F28
F0
tp74
sg68
(lp75
F4.6499700536476647
asg13
g1
sg62
g8
((ltRp76
sg44
g8
((lp77
g46
atRp78
sg34
I00
sbatRp79
sg34
I00
sbag30
atRp80
sS'ccpMolType'
p81
S'other'
p82
sS'details'
p83
V
sg53
(dp84
g12
g10
sg26
g30
ssS'keywords'
p85
g8
((ltRp86
sg62
g8
((ltRp87
sS'variants'
p88
g8
((lp89
g36
atRp90
sS'defaultVars'
p91
g8
((ltRp92
sb.