(imodel.Compound
Compound
p1
(dp2
S'name'
p3
S'Unnamed'
p4
sS'isModified'
p5
I01
sS'ccpCode'
p6
NsS'atoms'
p7
c__builtin__
set
p8
((lp9
(imodel.Atom
Atom
p10
(dp11
g3
VC
sS'compound'
p12
g1
sS'element'
p13
S'C'
sS'isVariable'
p14
I00
sS'varAtoms'
p15
g8
((lp16
(imodel.VarAtom
VarAtom
p17
(dp18
S'neighbours'
p19
g8
((lp20
(imodel.VarAtom
VarAtom
p21
(dp22
g19
g8
((lp23
(imodel.VarAtom
VarAtom
p24
(dp25
g19
g8
((lp26
g21
atRp27
sg3
VH
sS'isLabile'
p28
I00
sS'chirality'
p29
NsS'atom'
p30
(imodel.Atom
Atom
p31
(dp32
g3
VH
sg12
g1
sg13
S'H'
sg14
I00
sg15
g8
((lp33
g24
atRp34
sS'isDeleted'
p35
I00
sbsS'variant'
p36
(imodel.Variant
Variant
p37
(dp38
S'elementDict'
p39
(dp40
S'H'
g8
((lp41
g24
atRp42
sS'C'
g8
((lp43
g17
atRp44
sS'N'
g8
((lp45
g21
atRp46
ssS'bonds'
p47
g8
((lp48
(imodel.Bond
Bond
p49
(dp50
S'bondType'
p51
S'single'
p52
sg12
g1
sg36
g37
sg15
g8
((lp53
g21
ag24
atRp54
sba(imodel.Bond
Bond
p55
(dp56
g51
S'double'
p57
sg12
g1
sg36
g37
sg15
g8
((lp58
g17
ag21
atRp59
sbatRp60
sg12
g1
sS'atomDict'
p61
(dp62
g10
g17
s(imodel.Atom
Atom
p63
(dp64
g3
VN
sg12
g1
sg13
S'N'
sg14
I00
sg15
g8
((lp65
g21
atRp66
sg35
I00
sbg21
sg31
g24
ssS'descriptor'
p67
(S'neutral'
p68
S'none'
p69
S'default'
p70
tp71
sg15
g8
((lp72
g17
ag21
ag24
atRp73
sS'atomGroups'
p74
g8
((ltRp75
sS'polyLink'
p76
g69
sbsS'charge'
p77
I0
sg13
S'H'
sg14
I00
sS'coords'
p78
(F-105
F-2
F0
tp79
sS'freeValences'
p80
(lp81
sg12
g1
sg74
g8
((ltRp82
sg47
g8
((lp83
g49
atRp84
sg35
I00
sbag17
atRp85
sg3
VN
sg28
I00
sg29
Nsg30
g63
sg36
g37
sg77
I0
sg13
S'N'
sg14
I00
sg78
(F-150
F46
F0
tp86
sg80
(lp87
sg12
g1
sg74
g8
((ltRp88
sg47
g8
((lp89
g49
ag55
atRp90
sg35
I00
sbatRp91
sg3
VC
sg28
I00
sg29
Nsg30
g10
sg36
g37
sg77
I0
sg13
S'C'
sg14
I00
sg78
(F-147
F122
F0
tp92
sg80
(lp93
F5.2754409570800469
aF1.0866507522936466
asg12
g1
sg74
g8
((ltRp94
sg47
g8
((lp95
g55
atRp96
sg35
I00
sbatRp97
sg35
I00
sbag63
ag31
atRp98
sS'ccpMolType'
p99
S'other'
p100
sS'details'
p101
V
sg61
(dp102
VH
g31
sVC
g10
sVN
g63
ssS'keywords'
p103
g8
((ltRp104
sg74
g8
((ltRp105
sS'variants'
p106
g8
((lp107
g37
atRp108
sS'defaultVars'
p109
g8
((ltRp110
sb.