(imodel.Compound
Compound
p1
(dp2
S'name'
p3
S'Unnamed'
p4
sS'isModified'
p5
I01
sS'ccpCode'
p6
NsS'atoms'
p7
c__builtin__
set
p8
((lp9
(imodel.Atom
Atom
p10
(dp11
g3
VC
sS'compound'
p12
g1
sS'element'
p13
S'C'
sS'isVariable'
p14
I00
sS'varAtoms'
p15
g8
((lp16
(imodel.VarAtom
VarAtom
p17
(dp18
S'neighbours'
p19
g8
((lp20
(imodel.VarAtom
VarAtom
p21
(dp22
g19
g8
((lp23
g17
atRp24
sg3
VN
sS'isLabile'
p25
I00
sS'chirality'
p26
NsS'atom'
p27
(imodel.Atom
Atom
p28
(dp29
g3
VN
sg12
g1
sg13
S'N'
sg14
I00
sg15
g8
((lp30
g21
atRp31
sS'isDeleted'
p32
I00
sbsS'variant'
p33
(imodel.Variant
Variant
p34
(dp35
S'elementDict'
p36
(dp37
S'H'
g8
((ltRp38
sS'C'
g8
((lp39
g17
atRp40
sS'O'
g8
((lp41
(imodel.VarAtom
VarAtom
p42
(dp43
g19
g8
((lp44
g17
atRp45
sg3
VO
sg25
I00
sg26
Nsg27
(imodel.Atom
Atom
p46
(dp47
g3
VO
sg12
g1
sg13
S'O'
sg14
I00
sg15
g8
((lp48
g42
atRp49
sg32
I00
sbsg33
g34
sS'charge'
p50
I0
sg13
S'O'
sg14
I00
sS'coords'
p51
(F-299.71989428583322
F29.972051882963385
F1.5867526594589405
tp52
sS'freeValences'
p53
(lp54
sg12
g1
sS'atomGroups'
p55
g8
((ltRp56
sS'bonds'
p57
g8
((lp58
(imodel.Bond
Bond
p59
(dp60
S'bondType'
p61
S'double'
p62
sg12
g1
sg33
g34
sg15
g8
((lp63
g17
ag42
atRp64
sbatRp65
sg32
I00
sbatRp66
sS'N'
g8
((lp67
g21
atRp68
ssg57
g8
((lp69
(imodel.Bond
Bond
p70
(dp71
g61
g62
sg12
g1
sg33
g34
sg15
g8
((lp72
g17
ag21
atRp73
sbag59
atRp74
sg12
g1
sS'atomDict'
p75
(dp76
g10
g17
sg28
g21
sg46
g42
ssS'descriptor'
p77
(S'neutral'
p78
S'none'
p79
S'default'
p80
tp81
sg15
g8
((lp82
g17
ag21
ag42
atRp83
sg55
g8
((ltRp84
sS'polyLink'
p85
g79
sbsg50
I0
sg13
S'N'
sg14
I00
sg51
(F-213.91003467773044
F13.997992480804925
F0.90933942871844164
tp86
sg53
(lp87
F1.7176274537905201
asg12
g1
sg55
g8
((ltRp88
sg57
g8
((lp89
g70
atRp90
sg32
I00
sbag42
atRp91
sg3
VC
sg25
I00
sg26
Nsg27
g10
sg33
g34
sg50
I0
sg13
S'C'
sg14
I00
sg51
(F-257.10838960871826
F20.386834906313545
F0.45720418321807055
tp92
sg53
(lp93
sg12
g1
sg55
g8
((ltRp94
sg57
g8
((lp95
g70
ag59
atRp96
sg32
I00
sbatRp97
sg32
I00
sbag28
ag46
atRp98
sS'ccpMolType'
p99
S'other'
p100
sS'details'
p101
V
sg75
(dp102
VC
g10
sVO
g46
sVN
g28
ssS'keywords'
p103
g8
((ltRp104
sg55
g8
((ltRp105
sS'variants'
p106
g8
((lp107
g34
atRp108
sS'defaultVars'
p109
g8
((ltRp110
sb.