(imodel.Compound
Compound
p1
(dp2
S'name'
p3
S'Unnamed'
p4
sS'isModified'
p5
I01
sS'ccpCode'
p6
NsS'atoms'
p7
c__builtin__
set
p8
((lp9
(imodel.Atom
Atom
p10
(dp11
g3
VN
sS'compound'
p12
g1
sS'element'
p13
S'N'
sS'isVariable'
p14
I00
sS'varAtoms'
p15
g8
((lp16
(imodel.VarAtom
VarAtom
p17
(dp18
S'neighbours'
p19
g8
((lp20
(imodel.VarAtom
VarAtom
p21
(dp22
g19
g8
((lp23
g17
atRp24
sg3
S'O1'
p25
sS'isLabile'
p26
I00
sS'chirality'
p27
NsS'atom'
p28
(imodel.Atom
Atom
p29
(dp30
g3
g25
sg12
g1
sg13
S'O'
sg14
I00
sg15
g8
((lp31
g21
atRp32
sS'isDeleted'
p33
I00
sbsS'variant'
p34
(imodel.Variant
Variant
p35
(dp36
S'elementDict'
p37
(dp38
S'O'
g8
((lp39
g21
atRp40
sS'N'
g8
((lp41
g17
atRp42
ssS'bonds'
p43
g8
((lp44
(imodel.Bond
Bond
p45
(dp46
S'bondType'
p47
S'double'
p48
sg12
g1
sg34
g35
sg15
g8
((lp49
g17
ag21
atRp50
sbatRp51
sg12
g1
sS'atomDict'
p52
(dp53
g10
g17
sg29
g21
ssS'descriptor'
p54
(S'neutral'
p55
S'none'
p56
S'default'
p57
tp58
sg15
g8
((lp59
g17
ag21
atRp60
sS'atomGroups'
p61
g8
((ltRp62
sS'polyLink'
p63
g56
sbsS'charge'
p64
I0
sg13
S'O'
sg14
I00
sS'coords'
p65
(F-14.23621027064058
F-1.1001979086795761
F1.84483737878652
tp66
sS'freeValences'
p67
(lp68
sg12
g1
sg61
g8
((ltRp69
sg43
g8
((lp70
g45
atRp71
sg33
I00
sbatRp72
sg3
VN
sg26
I00
sg27
Nsg28
g10
sg34
g35
sg64
I0
sg13
S'N'
sg14
I00
sg65
(F-59.583684280496982
F0.16966063702035161
F0.83400035117889904
tp73
sg67
(lp74
F4.7403845149884889
asg12
g1
sg61
g8
((ltRp75
sg43
g8
((lp76
g45
atRp77
sg33
I00
sbatRp78
sg33
I00
sbag29
atRp79
sS'ccpMolType'
p80
S'other'
p81
sS'details'
p82
V
sg52
(dp83
g25
g29
sVN
g10
ssS'keywords'
p84
g8
((ltRp85
sg61
g8
((ltRp86
sS'variants'
p87
g8
((lp88
g35
atRp89
sS'defaultVars'
p90
g8
((ltRp91
sb.