(imodel.Compound
Compound
p1
(dp2
S'name'
p3
S'Unnamed'
p4
sS'isModified'
p5
I01
sS'ccpCode'
p6
NsS'atoms'
p7
c__builtin__
set
p8
((lp9
(imodel.Atom
Atom
p10
(dp11
g3
VN
sS'compound'
p12
g1
sS'element'
p13
S'N'
sS'isVariable'
p14
I00
sS'varAtoms'
p15
g8
((lp16
(imodel.VarAtom
VarAtom
p17
(dp18
S'neighbours'
p19
g8
((lp20
(imodel.VarAtom
VarAtom
p21
(dp22
g19
g8
((lp23
g17
atRp24
sg3
S'O1'
p25
sS'isLabile'
p26
I00
sS'chirality'
p27
NsS'atom'
p28
(imodel.Atom
Atom
p29
(dp30
g3
g25
sg12
g1
sg13
S'O'
sg14
I00
sg15
g8
((lp31
g21
atRp32
sS'isDeleted'
p33
I00
sbsS'variant'
p34
(imodel.Variant
Variant
p35
(dp36
S'elementDict'
p37
(dp38
S'O'
g8
((lp39
g21
a(imodel.VarAtom
VarAtom
p40
(dp41
g19
g8
((lp42
g17
atRp43
sg3
S'O2'
p44
sg26
I00
sg27
Nsg28
(imodel.Atom
Atom
p45
(dp46
g3
g44
sg12
g1
sg13
S'O'
sg14
I00
sg15
g8
((lp47
g40
atRp48
sg33
I00
sbsg34
g35
sS'charge'
p49
I0
sg13
S'O'
sg14
I00
sS'coords'
p50
(F-65.176577835149629
F38.57739681660653
F0.14763590937702609
tp51
sS'freeValences'
p52
(lp53
F5.2656431042120602
asg12
g1
sS'atomGroups'
p54
g8
((ltRp55
sS'bonds'
p56
g8
((lp57
(imodel.Bond
Bond
p58
(dp59
S'bondType'
p60
S'single'
p61
sg12
g1
sg34
g35
sg15
g8
((lp62
g17
ag40
atRp63
sbatRp64
sg33
I00
sba(imodel.VarAtom
VarAtom
p65
(dp66
g19
g8
((lp67
g17
atRp68
sg3
S'O3'
p69
sg26
I00
sg27
Nsg28
(imodel.Atom
Atom
p70
(dp71
g3
g69
sg12
g1
sg13
S'O'
sg14
I00
sg15
g8
((lp72
g65
atRp73
sg33
I00
sbsg34
g35
sg49
I-1
sg13
S'O'
sg14
I00
sg50
(F9.850904714718105
F40.74007531104408
F0.25162107247423637
tp74
sg52
(lp75
sg12
g1
sg54
g8
((ltRp76
sg56
g8
((lp77
(imodel.Bond
Bond
p78
(dp79
g60
g61
sg12
g1
sg34
g35
sg15
g8
((lp80
g17
ag65
atRp81
sbatRp82
sg33
I00
sbatRp83
sS'N'
g8
((lp84
g17
atRp85
ssg56
g8
((lp86
(imodel.Bond
Bond
p87
(dp88
g60
S'double'
p89
sg12
g1
sg34
g35
sg15
g8
((lp90
g17
ag21
atRp91
sbag58
ag78
atRp92
sg12
g1
sS'atomDict'
p93
(dp94
g10
g17
sg29
g21
sg70
g65
sg45
g40
ssS'descriptor'
p95
(S'neutral'
p96
S'none'
p97
S'default'
p98
tp99
sg15
g8
((lp100
g17
ag21
ag40
ag65
atRp101
sg54
g8
((ltRp102
sS'polyLink'
p103
g97
sbsg49
I0
sg13
S'O'
sg14
I00
sg50
(F-27.514398038842323
F-24.949363522789454
F1.5784779294976743
tp104
sg52
(lp105
sg12
g1
sg54
g8
((ltRp106
sg56
g8
((lp107
g87
atRp108
sg33
I00
sbag40
ag65
atRp109
sg3
VN
sg26
I00
sg27
Nsg28
g10
sg34
g35
sg49
I1
sg13
S'N'
sg14
I00
sg50
(F-27.002160129606914
F15.00120007200384
F0
tp110
sg52
(lp111
sg12
g1
sg54
g8
((ltRp112
sg56
g8
((lp113
g87
ag58
ag78
atRp114
sg33
I00
sbatRp115
sg33
I00
sbag29
ag70
ag45
atRp116
sS'ccpMolType'
p117
S'other'
p118
sS'details'
p119
V
sg93
(dp120
g69
g70
sg44
g45
sg25
g29
sVN
g10
ssS'keywords'
p121
g8
((ltRp122
sg54
g8
((ltRp123
sS'variants'
p124
g8
((lp125
g35
atRp126
sS'defaultVars'
p127
g8
((ltRp128
sb.