(imodel.Compound
Compound
p1
(dp2
S'name'
p3
S'Unnamed'
p4
sS'isModified'
p5
I01
sS'ccpCode'
p6
NsS'atoms'
p7
c__builtin__
set
p8
((lp9
(imodel.Atom
Atom
p10
(dp11
g3
VN
sS'compound'
p12
g1
sS'element'
p13
S'N'
sS'isVariable'
p14
I00
sS'varAtoms'
p15
g8
((lp16
(imodel.VarAtom
VarAtom
p17
(dp18
S'neighbours'
p19
g8
((lp20
(imodel.VarAtom
VarAtom
p21
(dp22
g19
g8
((lp23
g17
atRp24
sg3
S'O1'
p25
sS'isLabile'
p26
I00
sS'chirality'
p27
NsS'atom'
p28
(imodel.Atom
Atom
p29
(dp30
g3
g25
sg12
g1
sg13
S'O'
sg14
I00
sg15
g8
((lp31
g21
atRp32
sS'isDeleted'
p33
I00
sbsS'variant'
p34
(imodel.Variant
Variant
p35
(dp36
S'elementDict'
p37
(dp38
S'O'
g8
((lp39
g21
a(imodel.VarAtom
VarAtom
p40
(dp41
g19
g8
((lp42
g17
atRp43
sg3
S'O2'
p44
sg26
I00
sg27
Nsg28
(imodel.Atom
Atom
p45
(dp46
g3
g44
sg12
g1
sg13
S'O'
sg14
I00
sg15
g8
((lp47
g40
atRp48
sg33
I00
sbsg34
g35
sS'charge'
p49
I0
sg13
S'O'
sg14
I00
sS'coords'
p50
(F-77.930004148144164
F38.641199540490689
F0.98713880047846037
tp51
sS'freeValences'
p52
(lp53
F5.3140689084722403
asg12
g1
sS'atomGroups'
p54
g8
((ltRp55
sS'bonds'
p56
g8
((lp57
(imodel.Bond
Bond
p58
(dp59
S'bondType'
p60
S'single'
p61
sg12
g1
sg34
g35
sg15
g8
((lp62
g17
ag40
atRp63
sbatRp64
sg33
I00
sbatRp65
sS'N'
g8
((lp66
g17
atRp67
ssg56
g8
((lp68
(imodel.Bond
Bond
p69
(dp70
g60
S'double'
p71
sg12
g1
sg34
g35
sg15
g8
((lp72
g17
ag21
atRp73
sbag58
atRp74
sg12
g1
sS'atomDict'
p75
(dp76
g10
g17
sg29
g21
sg45
g40
ssS'descriptor'
p77
(S'neutral'
p78
S'none'
p79
S'default'
p80
tp81
sg15
g8
((lp82
g17
ag21
ag40
atRp83
sg54
g8
((ltRp84
sS'polyLink'
p85
g79
sbsg49
I0
sg13
S'O'
sg14
I00
sg50
(F3.6133972414348428
F34.846579968668784
F1.7955018820310953
tp86
sg52
(lp87
sg12
g1
sg54
g8
((ltRp88
sg56
g8
((lp89
g69
atRp90
sg33
I00
sbag40
atRp91
sg3
VN
sg26
I00
sg27
Nsg28
g10
sg34
g35
sg49
I0
sg13
S'N'
sg14
I00
sg50
(F-36.613498326540189
F10.273044722804455
F0.56430385944103889
tp92
sg52
(lp93
sg12
g1
sg54
g8
((ltRp94
sg56
g8
((lp95
g69
ag58
atRp96
sg33
I00
sbatRp97
sg33
I00
sbag29
ag45
atRp98
sS'ccpMolType'
p99
S'other'
p100
sS'details'
p101
V
sg75
(dp102
g44
g45
sg25
g29
sVN
g10
ssS'keywords'
p103
g8
((ltRp104
sg54
g8
((ltRp105
sS'variants'
p106
g8
((lp107
g35
atRp108
sS'defaultVars'
p109
g8
((ltRp110
sb.