(imodel.Compound
Compound
p1
(dp2
S'name'
p3
S'Unnamed'
p4
sS'isModified'
p5
I01
sS'ccpCode'
p6
NsS'atoms'
p7
c__builtin__
set
p8
((lp9
(imodel.Atom
Atom
p10
(dp11
g3
VC
sS'compound'
p12
g1
sS'element'
p13
S'C'
sS'isVariable'
p14
I00
sS'varAtoms'
p15
g8
((lp16
(imodel.VarAtom
VarAtom
p17
(dp18
S'neighbours'
p19
g8
((lp20
(imodel.VarAtom
VarAtom
p21
(dp22
g19
g8
((lp23
g17
atRp24
sg3
VN
sS'isLabile'
p25
I00
sS'chirality'
p26
NsS'atom'
p27
(imodel.Atom
Atom
p28
(dp29
g3
VN
sg12
g1
sg13
S'N'
sg14
I00
sg15
g8
((lp30
g21
atRp31
sS'isDeleted'
p32
I00
sbsS'variant'
p33
(imodel.Variant
Variant
p34
(dp35
S'elementDict'
p36
(dp37
S'H'
g8
((ltRp38
sS'C'
g8
((lp39
g17
atRp40
sS'O'
g8
((ltRp41
sS'N'
g8
((lp42
g21
atRp43
ssS'bonds'
p44
g8
((lp45
(imodel.Bond
Bond
p46
(dp47
S'bondType'
p48
S'triple'
p49
sg12
g1
sg33
g34
sg15
g8
((lp50
g17
ag21
atRp51
sbatRp52
sg12
g1
sS'atomDict'
p53
(dp54
g10
g17
sg28
g21
ssS'descriptor'
p55
(S'neutral'
p56
S'none'
p57
S'default'
p58
tp59
sg15
g8
((lp60
g17
ag21
atRp61
sS'atomGroups'
p62
g8
((ltRp63
sS'polyLink'
p64
g57
sbsS'charge'
p65
I0
sg13
S'N'
sg14
I00
sS'coords'
p66
(F-274.95820547830647
F1.8997540510981727
F0.69883655027965563
tp67
sS'freeValences'
p68
(lp69
sg12
g1
sg62
g8
((ltRp70
sg44
g8
((lp71
g46
atRp72
sg32
I00
sbatRp73
sg3
VC
sg25
I00
sg26
Nsg27
g10
sg33
g34
sg65
I0
sg13
S'C'
sg14
I00
sg66
(F-318.42079977175251
F3.2669505676574091
F0.87839720299934998
tp74
sg68
(lp75
F4.7438354654366419
asg12
g1
sg62
g8
((ltRp76
sg44
g8
((lp77
g46
atRp78
sg32
I00
sbatRp79
sg32
I00
sbag28
atRp80
sS'ccpMolType'
p81
S'other'
p82
sS'details'
p83
V
sg53
(dp84
VC
g10
sVN
g28
ssS'keywords'
p85
g8
((ltRp86
sg62
g8
((ltRp87
sS'variants'
p88
g8
((lp89
g34
atRp90
sS'defaultVars'
p91
g8
((ltRp92
sb.