(imodel.Compound
Compound
p1
(dp2
S'name'
p3
VUnnamed
p4
sS'isModified'
p5
I01
sS'ccpCode'
p6
NsS'atoms'
p7
c__builtin__
set
p8
((lp9
(imodel.Atom
Atom
p10
(dp11
g3
S'C5'
p12
sS'compound'
p13
g1
sS'element'
p14
S'C'
sS'isVariable'
p15
I00
sS'varAtoms'
p16
g8
((lp17
(imodel.VarAtom
VarAtom
p18
(dp19
g3
g12
sS'isLabile'
p20
I00
sS'chirality'
p21
NsS'atom'
p22
g10
sS'variant'
p23
(imodel.Variant
Variant
p24
(dp25
S'elementDict'
p26
(dp27
S'H'
g8
((lp28
(imodel.VarAtom
VarAtom
p29
(dp30
g3
VH3
p31
sg20
I00
sg21
Nsg22
(imodel.Atom
Atom
p32
(dp33
g3
g31
sg13
g1
sg14
S'H'
sg15
I00
sg16
g8
((lp34
g29
atRp35
sS'isDeleted'
p36
I00
sbsg23
g24
sS'neighbours'
p37
g8
((lp38
(imodel.VarAtom
VarAtom
p39
(dp40
S'neighbours'
p41
g8
((lp42
g29
a(imodel.VarAtom
VarAtom
p43
(dp44
g41
g8
((lp45
g39
a(imodel.VarAtom
VarAtom
p46
(dp47
g3
VH4
p48
sg20
I00
sg21
Nsg22
(imodel.Atom
Atom
p49
(dp50
g3
g48
sg13
g1
sg14
S'H'
sg15
I00
sg16
g8
((lp51
g46
atRp52
sg36
I00
sbsg23
g24
sg37
g8
((lp53
g43
atRp54
sg14
S'H'
sS'charge'
p55
I0
sg15
I00
sS'coords'
p56
(F50.99039392330485
F10.557723638439056
F2.9353187339501101
tp57
sS'freeValences'
p58
(lp59
sg13
g1
sS'atomGroups'
p60
g8
((ltRp61
sS'bonds'
p62
g8
((lp63
(imodel.Bond
Bond
p64
(dp65
S'bondType'
p66
S'single'
p67
sS'compound'
p68
g1
sS'variant'
p69
g24
sS'varAtoms'
p70
g8
((lp71
g43
ag46
atRp72
sbatRp73
sg36
I00
sbag18
atRp74
sS'name'
p75
VC4
p76
sS'isLabile'
p77
I00
sS'chirality'
p78
NsS'atom'
p79
(imodel.Atom
Atom
p80
(dp81
g75
g76
sg68
g1
sS'element'
p82
S'C'
sS'isVariable'
p83
I00
sg70
g8
((lp84
g43
atRp85
sS'isDeleted'
p86
I00
sbsg69
g24
sS'charge'
p87
I0
sg82
S'C'
sg83
I00
sS'coords'
p88
(F12.939260392878349
F13.669850994151071
F2.2161890404345304
tp89
sS'freeValences'
p90
(lp91
sg68
g1
sS'atomGroups'
p92
g8
((lp93
(imodel.AtomGroup
AtomGroup
p94
(dp95
S'groupType'
p96
S'aromatic'
p97
sS'subGroups'
p98
g8
((ltRp99
sg70
g8
((lp100
(imodel.VarAtom
VarAtom
p101
(dp102
g3
S'C6'
p103
sg20
I00
sg21
Nsg22
(imodel.Atom
Atom
p104
(dp105
g3
g103
sg13
g1
sg14
S'C'
sg15
I00
sg16
g8
((lp106
g101
atRp107
sg36
I00
sbsg23
g24
sg37
g8
((lp108
g18
a(imodel.VarAtom
VarAtom
p109
(dp110
g3
S'H6'
p111
sg20
I00
sg21
Nsg22
(imodel.Atom
Atom
p112
(dp113
g3
g111
sg13
g1
sg14
S'H'
sg15
I00
sg16
g8
((lp114
g109
atRp115
sg36
I00
sbsg23
g24
sg37
g8
((lp116
g101
atRp117
sg14
S'H'
sg55
I0
sg15
I00
sg56
(F-81.875627032839645
F90.542974450270492
F1.6789770069789074
tp118
sg58
(lp119
sg13
g1
sg60
g8
((ltRp120
sg62
g8
((lp121
(imodel.Bond
Bond
p122
(dp123
g13
g1
sS'bondType'
p124
S'single'
p125
sg23
g24
sg16
g8
((lp126
g101
ag109
atRp127
sbatRp128
sg36
I00
sba(imodel.VarAtom
VarAtom
p129
(dp130
g3
S'C1'
p131
sg20
I00
sg21
Nsg22
(imodel.Atom
Atom
p132
(dp133
g3
g131
sg13
g1
sg14
S'C'
sg15
I00
sg16
g8
((lp134
g129
atRp135
sg36
I00
sbsg23
g24
sg37
g8
((lp136
(imodel.VarAtom
VarAtom
p137
(dp138
g41
g8
((lp139
g129
ag39
atRp140
sg75
VN2
p141
sg77
I00
sg78
Nsg79
(imodel.Atom
Atom
p142
(dp143
g75
g141
sg68
g1
sg82
S'N'
sg83
I00
sg70
g8
((lp144
g137
atRp145
sg86
I00
sbsg69
g24
sg87
I0
sg82
S'N'
sg83
I00
sg88
(F-61.496974310667326
F-30.717265972733742
F0.49273039889322401
tp146
sg90
(lp147
sg68
g1
sg92
g8
((lp148
g94
atRp149
sS'bonds'
p150
g8
((lp151
(imodel.Bond
Bond
p152
(dp153
g66
g97
sg68
g1
sg69
g24
sg70
g8
((lp154
g129
ag137
atRp155
sba(imodel.Bond
Bond
p156
(dp157
g66
g97
sg68
g1
sg69
g24
sg70
g8
((lp158
g39
ag137
atRp159
sbatRp160
sg86
I00
sbag101
atRp161
sg14
S'C'
sg55
I0
sg15
I00
sg56
(F-87.063759246280554
F12.001435948388403
F1.6896220628604226
tp162
sg58
(lp163
F4.693978103652098
asg13
g1
sg60
g8
((lp164
g94
atRp165
sg62
g8
((lp166
g152
a(imodel.Bond
Bond
p167
(dp168
g13
g1
sg124
g97
sg23
g24
sg16
g8
((lp169
g101
ag129
atRp170
sbatRp171
sg36
I00
sbatRp172
sg14
S'C'
sg55
I0
sg15
I00
sg56
(F-62.965538067224031
F55.853274795107737
F1.2371119383819358
tp173
sg58
(lp174
sg13
g1
sg60
g8
((lp175
g94
atRp176
sg62
g8
((lp177
(imodel.Bond
Bond
p178
(dp179
g13
g1
sg124
g97
sg23
g24
sg16
g8
((lp180
g101
ag18
atRp181
sbag167
ag122
atRp182
sg36
I00
sbag43
ag39
ag129
ag18
ag137
atRp183
sg69
g24
sg68
g1
sbatRp184
sg150
g8
((lp185
(imodel.Bond
Bond
p186
(dp187
g66
g97
sg68
g1
sg69
g24
sg70
g8
((lp188
g43
ag39
atRp189
sba(imodel.Bond
Bond
p190
(dp191
g66
g97
sg68
g1
sg69
g24
sg70
g8
((lp192
g18
ag43
atRp193
sbag64
atRp194
sg86
I00
sbag137
atRp195
sg75
VC3
p196
sg77
I00
sg78
Nsg79
(imodel.Atom
Atom
p197
(dp198
g75
g196
sg68
g1
sg82
S'C'
sg83
I00
sg70
g8
((lp199
g39
atRp200
sg86
I00
sbsg69
g24
sg87
I0
sg82
S'C'
sg83
I00
sg88
(F-11.458254803408197
F-30.181691641591023
F1.2253618621018365
tp201
sg90
(lp202
sg68
g1
sg92
g8
((lp203
g94
atRp204
sg150
g8
((lp205
(imodel.Bond
Bond
p206
(dp207
g66
g67
sg68
g1
sg69
g24
sg70
g8
((lp208
g29
ag39
atRp209
sbag186
ag156
atRp210
sg86
I00
sbatRp211
sg14
S'H'
sg55
I0
sg15
I00
sg56
(F8.9149748433002252
F-65.218650575073326
F1.1365180714014449
tp212
sg58
(lp213
sg13
g1
sg60
g8
((ltRp214
sg62
g8
((lp215
g206
atRp216
sg36
I00
sbag109
ag46
a(imodel.VarAtom
VarAtom
p217
(dp218
g3
S'H5'
p219
sg20
I00
sg21
Nsg22
(imodel.Atom
Atom
p220
(dp221
g3
g219
sg13
g1
sg14
S'H'
sg15
I00
sg16
g8
((lp222
g217
atRp223
sg36
I00
sbsg23
g24
sg37
g8
((lp224
g18
atRp225
sg14
S'H'
sg55
I0
sg15
I00
sg56
(F2.7301200824840706
F91.540320736573335
F1.8024386882975905
tp226
sg58
(lp227
sg13
g1
sg60
g8
((ltRp228
sg62
g8
((lp229
(imodel.Bond
Bond
p230
(dp231
g13
g1
sg124
g125
sg23
g24
sg16
g8
((lp232
g18
ag217
atRp233
sbatRp234
sg36
I00
sbatRp235
sS'C'
g8
((lp236
g43
ag101
ag129
ag39
ag18
atRp237
sS'N'
g8
((lp238
g137
atRp239
ssg62
g8
((lp240
g178
ag156
ag206
ag230
ag152
ag64
ag167
ag186
ag122
ag190
atRp241
sg13
g1
sS'descriptor'
p242
(S'neutral'
p243
S'none'
p244
S'default'
p245
tp246
sS'atomDict'
p247
(dp248
g10
g18
sg80
g43
sg32
g29
sg220
g217
sg142
g137
sg104
g101
sg112
g109
sg197
g39
sg132
g129
sg49
g46
ssg16
g8
((lp249
g217
ag46
ag109
ag18
ag101
ag129
ag39
ag29
ag43
ag137
atRp250
sg60
g8
((lp251
g94
atRp252
sS'polyLink'
p253
g244
sbsg37
g8
((lp254
g101
ag43
ag217
atRp255
sg14
S'C'
sg55
I0
sg15
I00
sg56
(F-12.780502543687444
F56.650860722911077
F0.69808096490270033
tp256
sg58
(lp257
sg13
g1
sg60
g8
((lp258
g94
atRp259
sg62
g8
((lp260
g178
ag190
ag230
atRp261
sg36
I00
sbatRp262
sg36
I00
sbag80
ag32
ag220
ag142
ag104
ag112
ag197
ag132
ag49
atRp263
sS'ccpMolType'
p264
S'other'
p265
sS'details'
p266
V
sg247
(dp267
g141
g142
sg31
g32
sg111
g112
sg48
g49
sg219
g220
sg196
g197
sg131
g132
sg103
g104
sg12
g10
sg76
g80
ssS'keywords'
p268
g8
((ltRp269
sg60
g8
((lp270
g94
atRp271
sS'variants'
p272
g8
((lp273
g24
atRp274
sS'defaultVars'
p275
g8
((ltRp276
sb.