(imodel.Compound
Compound
p1
(dp2
S'name'
p3
S'Unnamed'
p4
sS'isModified'
p5
I01
sS'ccpCode'
p6
NsS'atoms'
p7
c__builtin__
set
p8
((lp9
(imodel.Atom
Atom
p10
(dp11
g3
S'C2'
p12
sS'compound'
p13
g1
sS'element'
p14
S'C'
sS'isVariable'
p15
I00
sS'varAtoms'
p16
g8
((lp17
(imodel.VarAtom
VarAtom
p18
(dp19
S'neighbours'
p20
g8
((lp21
(imodel.VarAtom
VarAtom
p22
(dp23
g20
g8
((lp24
g18
a(imodel.VarAtom
VarAtom
p25
(dp26
g20
g8
((lp27
(imodel.VarAtom
VarAtom
p28
(dp29
g20
g8
((lp30
g25
a(imodel.VarAtom
VarAtom
p31
(dp32
g20
g8
((lp33
g28
atRp34
sg3
S'H5'
p35
sS'isLabile'
p36
I00
sS'chirality'
p37
NsS'atom'
p38
(imodel.Atom
Atom
p39
(dp40
g3
g35
sg13
g1
sg14
S'H'
sg15
I00
sg16
g8
((lp41
g31
atRp42
sS'isDeleted'
p43
I00
sbsS'variant'
p44
(imodel.Variant
Variant
p45
(dp46
S'elementDict'
p47
(dp48
S'H'
g8
((lp49
(imodel.VarAtom
VarAtom
p50
(dp51
g20
g8
((lp52
g18
atRp53
sg3
S'H2'
p54
sg36
I00
sg37
Nsg38
(imodel.Atom
Atom
p55
(dp56
g3
g54
sg13
g1
sg14
S'H'
sg15
I00
sg16
g8
((lp57
g50
atRp58
sg43
I00
sbsg44
g45
sS'charge'
p59
I0
sg14
S'H'
sg15
I00
sS'coords'
p60
(F-80.789787606888638
F-59.058688163944552
F0.53496058353671305
tp61
sS'freeValences'
p62
(lp63
sg13
g1
sS'atomGroups'
p64
g8
((ltRp65
sS'bonds'
p66
g8
((lp67
(imodel.Bond
Bond
p68
(dp69
S'bondType'
p70
S'single'
p71
sg13
g1
sg44
g45
sg16
g8
((lp72
g18
ag50
atRp73
sbatRp74
sg43
I00
sba(imodel.VarAtom
VarAtom
p75
(dp76
g20
g8
((lp77
g25
atRp78
sg3
S'H6'
p79
sg36
I00
sg37
Nsg38
(imodel.Atom
Atom
p80
(dp81
g3
g79
sg13
g1
sg14
S'H'
sg15
I00
sg16
g8
((lp82
g75
atRp83
sg43
I00
sbsg44
g45
sg59
I0
sg14
S'H'
sg15
I00
sg60
(F-83.087655308245104
F91.952903023599362
F1.3532800920199999
tp84
sg62
(lp85
sg13
g1
sg64
g8
((ltRp86
sg66
g8
((lp87
(imodel.Bond
Bond
p88
(dp89
g70
g71
sg13
g1
sg44
g45
sg16
g8
((lp90
g25
ag75
atRp91
sbatRp92
sg43
I00
sbag31
a(imodel.VarAtom
VarAtom
p93
(dp94
g20
g8
((lp95
(imodel.VarAtom
VarAtom
p96
(dp97
g20
g8
((lp98
(imodel.VarAtom
VarAtom
p99
(dp100
g20
g8
((lp101
g96
ag28
atRp102
sg3
VN4
p103
sg36
I00
sg37
Nsg38
(imodel.Atom
Atom
p104
(dp105
g3
g103
sg13
g1
sg14
S'N'
sg15
I00
sg16
g8
((lp106
g99
atRp107
sg43
I00
sbsg44
g45
sg59
I0
sg14
S'N'
sg15
I00
sg60
(F13.50247436445963
F17.344877642951019
F0.43632657987217061
tp108
sg62
(lp109
sg13
g1
sg64
g8
((lp110
(imodel.AtomGroup
AtomGroup
p111
(dp112
S'groupType'
p113
S'aromatic'
p114
sS'subGroups'
p115
g8
((ltRp116
sg16
g8
((lp117
g25
ag18
ag99
ag22
ag28
ag96
atRp118
sg44
g45
sg13
g1
sbatRp119
sg66
g8
((lp120
(imodel.Bond
Bond
p121
(dp122
g70
g114
sg13
g1
sg44
g45
sg16
g8
((lp123
g96
ag99
atRp124
sba(imodel.Bond
Bond
p125
(dp126
g70
g114
sg13
g1
sg44
g45
sg16
g8
((lp127
g99
ag28
atRp128
sbatRp129
sg43
I00
sbag93
ag18
atRp130
sg3
S'C3'
p131
sg36
I00
sg37
Nsg38
(imodel.Atom
Atom
p132
(dp133
g3
g131
sg13
g1
sg14
S'C'
sg15
I00
sg16
g8
((lp134
g96
atRp135
sg43
I00
sbsg44
g45
sg59
I0
sg14
S'C'
sg15
I00
sg60
(F-11.024185624151698
F-26.108322380748906
F0.066149429391791581
tp136
sg62
(lp137
sg13
g1
sg64
g8
((lp138
g111
atRp139
sg66
g8
((lp140
g121
a(imodel.Bond
Bond
p141
(dp142
g70
g114
sg13
g1
sg44
g45
sg16
g8
((lp143
g18
ag96
atRp144
sba(imodel.Bond
Bond
p145
(dp146
g70
g71
sg13
g1
sg44
g45
sg16
g8
((lp147
g96
ag93
atRp148
sbatRp149
sg43
I00
sbatRp150
sg3
S'H3'
p151
sg36
I00
sg37
Nsg38
(imodel.Atom
Atom
p152
(dp153
g3
g151
sg13
g1
sg14
S'H'
sg15
I00
sg16
g8
((lp154
g93
atRp155
sg43
I00
sbsg44
g45
sg59
I0
sg14
S'H'
sg15
I00
sg60
(F10.079392009509149
F-57.957391000219403
F1.0692251773045234
tp156
sg62
(lp157
sg13
g1
sg64
g8
((ltRp158
sg66
g8
((lp159
g145
atRp160
sg43
I00
sbatRp161
sS'C'
g8
((lp162
g18
ag25
ag22
ag96
ag28
atRp163
sS'N'
g8
((lp164
g99
atRp165
ssg66
g8
((lp166
g125
ag141
ag145
a(imodel.Bond
Bond
p167
(dp168
g70
g114
sg13
g1
sg44
g45
sg16
g8
((lp169
g25
ag28
atRp170
sbag68
a(imodel.Bond
Bond
p171
(dp172
g70
g114
sg13
g1
sg44
g45
sg16
g8
((lp173
g18
ag22
atRp174
sbag121
ag88
a(imodel.Bond
Bond
p175
(dp176
g70
g114
sg13
g1
sg44
g45
sg16
g8
((lp177
g25
ag22
atRp178
sba(imodel.Bond
Bond
p179
(dp180
g70
g71
sg13
g1
sg44
g45
sg16
g8
((lp181
g28
ag31
atRp182
sbatRp183
sg13
g1
sS'atomDict'
p184
(dp185
g10
g18
s(imodel.Atom
Atom
p186
(dp187
g3
S'C5'
p188
sg13
g1
sg14
S'C'
sg15
I00
sg16
g8
((lp189
g28
atRp190
sg43
I00
sbg28
sg80
g75
s(imodel.Atom
Atom
p191
(dp192
g3
S'C6'
p193
sg13
g1
sg14
S'C'
sg15
I00
sg16
g8
((lp194
g25
atRp195
sg43
I00
sbg25
sg132
g96
s(imodel.Atom
Atom
p196
(dp197
g3
S'C1'
p198
sg13
g1
sg14
S'C'
sg15
I00
sg16
g8
((lp199
g22
atRp200
sg43
I00
sbg22
sg39
g31
sg104
g99
sg152
g93
sg55
g50
ssS'descriptor'
p201
(S'neutral'
p202
S'none'
p203
S'default'
p204
tp205
sg16
g8
((lp206
g18
ag25
ag31
ag22
ag93
ag50
ag75
ag99
ag96
ag28
atRp207
sg64
g8
((lp208
g111
atRp209
sS'polyLink'
p210
g203
sbsg59
I0
sg14
S'H'
sg15
I00
sg60
(F10.939606172280907
F93.84186566043752
F0.88487876949043209
tp211
sg62
(lp212
sg13
g1
sg64
g8
((ltRp213
sg66
g8
((lp214
g179
atRp215
sg43
I00
sbag99
atRp216
sg3
g188
sg36
I00
sg37
Nsg38
g186
sg44
g45
sg59
I0
sg14
S'C'
sg15
I00
sg60
(F-11.332880104013181
F60.628202432354442
F0.27909568418085273
tp217
sg62
(lp218
sg13
g1
sg64
g8
((lp219
g111
atRp220
sg66
g8
((lp221
g167
ag125
ag179
atRp222
sg43
I00
sbag75
ag22
atRp223
sg3
g193
sg36
I00
sg37
Nsg38
g191
sg44
g45
sg59
I0
sg14
S'C'
sg15
I00
sg60
(F-61.660052670063259
F60.470606834953571
F0.70159308766715089
tp224
sg62
(lp225
sg13
g1
sg64
g8
((lp226
g111
atRp227
sg66
g8
((lp228
g167
ag175
ag88
atRp229
sg43
I00
sbatRp230
sg3
g198
sg36
I00
sg37
Nsg38
g196
sg44
g45
sg59
I0
sg14
S'C'
sg15
I00
sg60
(F-86.221693926323027
F16.989317963307741
F0.6432259092566589
tp231
sg62
(lp232
F4.7088180905447992
asg13
g1
sg64
g8
((lp233
g111
atRp234
sg66
g8
((lp235
g171
ag175
atRp236
sg43
I00
sbag96
ag50
atRp237
sg3
g12
sg36
I00
sg37
Nsg38
g10
sg44
g45
sg59
I0
sg14
S'C'
sg15
I00
sg60
(F-61.349707601145326
F-26.316216321748559
F0.58306798651140079
tp238
sg62
(lp239
sg13
g1
sg64
g8
((lp240
g111
atRp241
sg66
g8
((lp242
g171
ag141
ag68
atRp243
sg43
I00
sbatRp244
sg43
I00
sbag186
ag80
ag191
ag132
ag196
ag39
ag104
ag152
ag55
atRp245
sS'ccpMolType'
p246
S'other'
p247
sS'details'
p248
V
sg184
(dp249
g151
g152
sg79
g80
sg54
g55
sg131
g132
sg12
g10
sg198
g196
sg35
g39
sg103
g104
sg193
g191
sg188
g186
ssS'keywords'
p250
g8
((ltRp251
sg64
g8
((lp252
g111
atRp253
sS'variants'
p254
g8
((lp255
g45
atRp256
sS'defaultVars'
p257
g8
((ltRp258
sb.