(imodel.Compound
Compound
p1
(dp2
S'name'
p3
VUnnamed
p4
sS'isModified'
p5
I01
sS'ccpCode'
p6
NsS'atoms'
p7
c__builtin__
set
p8
((lp9
(imodel.Atom
Atom
p10
(dp11
g3
S'C5'
p12
sS'compound'
p13
g1
sS'element'
p14
S'C'
sS'isVariable'
p15
I00
sS'varAtoms'
p16
g8
((lp17
(imodel.VarAtom
VarAtom
p18
(dp19
g3
g12
sS'isLabile'
p20
I00
sS'chirality'
p21
NsS'atom'
p22
g10
sS'variant'
p23
(imodel.Variant
Variant
p24
(dp25
S'elementDict'
p26
(dp27
S'H'
g8
((lp28
(imodel.VarAtom
VarAtom
p29
(dp30
g3
S'H2'
p31
sg20
I00
sg21
Nsg22
(imodel.Atom
Atom
p32
(dp33
g3
g31
sg13
g1
sg14
S'H'
sg15
I00
sg16
g8
((lp34
g29
atRp35
sS'isDeleted'
p36
I00
sbsg23
g24
sS'neighbours'
p37
g8
((lp38
(imodel.VarAtom
VarAtom
p39
(dp40
g3
S'C2'
p41
sg20
I00
sg21
Nsg22
(imodel.Atom
Atom
p42
(dp43
g3
g41
sg13
g1
sg14
S'C'
sg15
I00
sg16
g8
((lp44
g39
atRp45
sg36
I00
sbsg23
g24
sg37
g8
((lp46
(imodel.VarAtom
VarAtom
p47
(dp48
g3
S'C1'
p49
sg20
I00
sg21
Nsg22
(imodel.Atom
Atom
p50
(dp51
g3
g49
sg13
g1
sg14
S'C'
sg15
I00
sg16
g8
((lp52
g47
atRp53
sg36
I00
sbsg23
g24
sg37
g8
((lp54
g39
a(imodel.VarAtom
VarAtom
p55
(dp56
g3
S'C6'
p57
sg20
I00
sg21
Nsg22
(imodel.Atom
Atom
p58
(dp59
g3
g57
sg13
g1
sg14
S'C'
sg15
I00
sg16
g8
((lp60
g55
atRp61
sg36
I00
sbsg23
g24
sg37
g8
((lp62
g18
a(imodel.VarAtom
VarAtom
p63
(dp64
g3
S'H6'
p65
sg20
I00
sg21
Nsg22
(imodel.Atom
Atom
p66
(dp67
g3
g65
sg13
g1
sg14
S'H'
sg15
I00
sg16
g8
((lp68
g63
atRp69
sg36
I00
sbsg23
g24
sg37
g8
((lp70
g55
atRp71
sg14
S'H'
sS'charge'
p72
I0
sg15
I00
sS'coords'
p73
(F-84.45185004302877
F89.491206044111664
F1.4226523837766827
tp74
sS'freeValences'
p75
(lp76
sg13
g1
sS'atomGroups'
p77
g8
((ltRp78
sS'bonds'
p79
g8
((lp80
(imodel.Bond
Bond
p81
(dp82
g13
g1
sS'bondType'
p83
S'single'
p84
sg23
g24
sg16
g8
((lp85
g55
ag63
atRp86
sbatRp87
sg36
I00
sbag47
atRp88
sg14
S'C'
sg72
I0
sg15
I00
sg73
(F-62.852890042171154
F58.158764769217882
F0.8201553265337278
tp89
sg75
(lp90
sg13
g1
sg77
g8
((lp91
(imodel.AtomGroup
AtomGroup
p92
(dp93
S'groupType'
p94
S'aromatic'
p95
sS'subGroups'
p96
g8
((ltRp97
sS'varAtoms'
p98
g8
((lp99
(imodel.VarAtom
VarAtom
p100
(dp101
S'neighbours'
p102
g8
((lp103
(imodel.VarAtom
VarAtom
p104
(dp105
g102
g8
((lp106
g100
a(imodel.VarAtom
VarAtom
p107
(dp108
g3
VH4
p109
sg20
I00
sg21
Nsg22
(imodel.Atom
Atom
p110
(dp111
g3
g109
sg13
g1
sg14
S'H'
sg15
I00
sg16
g8
((lp112
g107
atRp113
sg36
I00
sbsg23
g24
sg37
g8
((lp114
g104
atRp115
sg14
S'H'
sg72
I0
sg15
I00
sg73
(F47.866823186397681
F6.0589424864850603
F2.7686978303944358
tp116
sg75
(lp117
sg13
g1
sg77
g8
((ltRp118
sg79
g8
((lp119
(imodel.Bond
Bond
p120
(dp121
S'bondType'
p122
S'single'
p123
sS'compound'
p124
g1
sS'variant'
p125
g24
sg98
g8
((lp126
g104
ag107
atRp127
sbatRp128
sg36
I00
sbag18
atRp129
sS'name'
p130
VC4
p131
sS'isLabile'
p132
I00
sS'chirality'
p133
NsS'atom'
p134
(imodel.Atom
Atom
p135
(dp136
g130
g131
sg124
g1
sS'element'
p137
S'C'
sS'isVariable'
p138
I00
sg98
g8
((lp139
g104
atRp140
sS'isDeleted'
p141
I00
sbsg125
g24
sS'charge'
p142
I0
sg137
S'C'
sg138
I00
sS'coords'
p143
(F10.128098678371941
F11.235034552122032
F1.3684476259655791
tp144
sS'freeValences'
p145
(lp146
sg124
g1
sS'atomGroups'
p147
g8
((lp148
g92
atRp149
sS'bonds'
p150
g8
((lp151
(imodel.Bond
Bond
p152
(dp153
g122
g95
sg124
g1
sg125
g24
sg98
g8
((lp154
g104
ag100
atRp155
sba(imodel.Bond
Bond
p156
(dp157
g122
g95
sg124
g1
sg125
g24
sg98
g8
((lp158
g18
ag104
atRp159
sbag120
atRp160
sg141
I00
sbag39
atRp161
sg130
VN3
p162
sg132
I00
sg133
Nsg134
(imodel.Atom
Atom
p163
(dp164
g130
g162
sg124
g1
sg137
S'N'
sg138
I00
sg98
g8
((lp165
g100
atRp166
sg141
I00
sbsg125
g24
sg142
I0
sg137
S'N'
sg138
I00
sg143
(F-16.972071337064708
F-30.695838772895648
F1.1170185080273292
tp167
sg145
(lp168
sg124
g1
sg147
g8
((lp169
g92
atRp170
sg150
g8
((lp171
g152
a(imodel.Bond
Bond
p172
(dp173
g122
g95
sg124
g1
sg125
g24
sg98
g8
((lp174
g39
ag100
atRp175
sbatRp176
sg141
I00
sbag39
ag47
ag104
ag55
ag18
atRp177
sg125
g24
sg124
g1
sbatRp178
sg79
g8
((lp179
(imodel.Bond
Bond
p180
(dp181
g13
g1
sg83
g95
sg23
g24
sg16
g8
((lp182
g55
ag18
atRp183
sba(imodel.Bond
Bond
p184
(dp185
g13
g1
sg83
g95
sg23
g24
sg16
g8
((lp186
g55
ag47
atRp187
sbag81
atRp188
sg36
I00
sbatRp189
sg14
S'C'
sg72
I0
sg15
I00
sg73
(F-89.760058047366087
F16.122403675918584
F0.82334419138476977
tp190
sg75
(lp191
F4.7608455377982839
asg13
g1
sg77
g8
((lp192
g92
atRp193
sg79
g8
((lp194
(imodel.Bond
Bond
p195
(dp196
g13
g1
sg83
g95
sg23
g24
sg16
g8
((lp197
g39
ag47
atRp198
sbag184
atRp199
sg36
I00
sbag29
ag100
atRp200
sg14
S'C'
sg72
I0
sg15
I00
sg73
(F-66.981605429843214
F-28.447554052936411
F0.72477624007130603
tp201
sg75
(lp202
sg13
g1
sg77
g8
((lp203
g92
atRp204
sg79
g8
((lp205
g195
ag172
a(imodel.Bond
Bond
p206
(dp207
g13
g1
sg83
g84
sg23
g24
sg16
g8
((lp208
g39
ag29
atRp209
sbatRp210
sg36
I00
sbatRp211
sg14
S'H'
sg72
I0
sg15
I00
sg73
(F-92.365809681285754
F-56.732668067063479
F0.99563463644248107
tp212
sg75
(lp213
sg13
g1
sg77
g8
((ltRp214
sg79
g8
((lp215
g206
atRp216
sg36
I00
sbag63
ag107
a(imodel.VarAtom
VarAtom
p217
(dp218
g3
S'H5'
p219
sg20
I00
sg21
Nsg22
(imodel.Atom
Atom
p220
(dp221
g3
g219
sg13
g1
sg14
S'H'
sg15
I00
sg16
g8
((lp222
g217
atRp223
sg36
I00
sbsg23
g24
sg37
g8
((lp224
g18
atRp225
sg14
S'H'
sg72
I0
sg15
I00
sg73
(F7.2752834996406293
F88.377618955265774
F1.644397576845958
tp226
sg75
(lp227
sg13
g1
sg77
g8
((ltRp228
sg79
g8
((lp229
(imodel.Bond
Bond
p230
(dp231
g13
g1
sg83
g84
sg23
g24
sg16
g8
((lp232
g18
ag217
atRp233
sbatRp234
sg36
I00
sbatRp235
sS'C'
g8
((lp236
g39
ag104
ag55
ag47
ag18
atRp237
sS'N'
g8
((lp238
g100
atRp239
ssg79
g8
((lp240
g180
ag172
ag230
ag195
ag120
ag184
ag152
ag206
ag81
ag156
atRp241
sg13
g1
sS'descriptor'
p242
(S'neutral'
p243
S'none'
p244
S'default'
p245
tp246
sS'atomDict'
p247
(dp248
g10
g18
sg135
g104
sg163
g100
sg32
g29
sg220
g217
sg58
g55
sg66
g63
sg42
g39
sg50
g47
sg110
g107
ssg16
g8
((lp249
g39
ag217
ag100
ag107
ag63
ag18
ag55
ag47
ag29
ag104
atRp250
sg77
g8
((lp251
g92
atRp252
sS'polyLink'
p253
g244
sbsg37
g8
((lp254
g55
ag104
ag217
atRp255
sg14
S'C'
sg72
I0
sg15
I00
sg73
(F-12.71947663422895
F55.91750644073079
F0.28475595298824286
tp256
sg75
(lp257
sg13
g1
sg77
g8
((lp258
g92
atRp259
sg79
g8
((lp260
g180
ag156
ag230
atRp261
sg36
I00
sbatRp262
sg36
I00
sbag135
ag163
ag32
ag220
ag58
ag66
ag42
ag50
ag110
atRp263
sS'ccpMolType'
p264
S'other'
p265
sS'details'
p266
V
sg247
(dp267
g31
g32
sg65
g66
sg109
g110
sg219
g220
sg41
g42
sg49
g50
sg162
g163
sg57
g58
sg12
g10
sg131
g135
ssS'keywords'
p268
g8
((ltRp269
sg77
g8
((lp270
g92
atRp271
sS'variants'
p272
g8
((lp273
g24
atRp274
sS'defaultVars'
p275
g8
((ltRp276
sb.