(iccpnmr.chemBuild.model.Compound
Compound
p1
(dp2
S'name'
p3
S'Unnamed'
p4
sS'isModified'
p5
I01
sS'ccpCode'
p6
NsS'atoms'
p7
c__builtin__
set
p8
((lp9
(iccpnmr.chemBuild.model.Atom
Atom
p10
(dp11
g3
S'H14'
p12
sS'compound'
p13
g1
sS'baseValences'
p14
I1
sS'element'
p15
S'H'
sS'isVariable'
p16
I00
sS'varAtoms'
p17
g8
((lp18
(iccpnmr.chemBuild.model.VarAtom
VarAtom
p19
(dp20
S'stereo'
p21
(lp22
sg3
g12
sS'isLabile'
p23
I00
sS'variant'
p24
(iccpnmr.chemBuild.model.Variant
Variant
p25
(dp26
S'elementDict'
p27
(dp28
S'H'
g8
((lp29
(iccpnmr.chemBuild.model.VarAtom
VarAtom
p30
(dp31
g21
(lp32
sg3
S'H1_1'
p33
sg23
I00
sg24
g25
sg13
g1
sS'chirality'
p34
NsS'neighbours'
p35
g8
((lp36
(iccpnmr.chemBuild.model.VarAtom
VarAtom
p37
(dp38
g21
(lp39
sg3
S'C1'
p40
sg23
I00
sg24
g25
sg13
g1
sg34
Nsg35
g8
((lp41
(iccpnmr.chemBuild.model.VarAtom
VarAtom
p42
(dp43
g21
(lp44
sg3
S'C2'
p45
sg23
I00
sg24
g25
sg13
g1
sg34
Nsg35
g8
((lp46
(iccpnmr.chemBuild.model.VarAtom
VarAtom
p47
(dp48
g21
(lp49
(iccpnmr.chemBuild.model.VarAtom
VarAtom
p50
(dp51
g21
(lp52
sg3
S'C4'
p53
sg23
I00
sg24
g25
sg13
g1
sg34
Nsg35
g8
((lp54
(iccpnmr.chemBuild.model.VarAtom
VarAtom
p55
(dp56
g21
(lp57
sg3
S'H4_2'
p58
sg23
I00
sg24
g25
sg13
g1
sg34
Nsg35
g8
((lp59
g50
atRp60
sg15
S'H'
sS'charge'
p61
I0
sg16
I00
sS'coords'
p62
(F-270.14035488285469
F29.721691939025241
F0
tp63
sS'freeValences'
p64
(lp65
sS'atom'
p66
(iccpnmr.chemBuild.model.Atom
Atom
p67
(dp68
g3
g58
sg13
g1
sg14
I1
sg15
S'H'
sg16
I00
sg17
g8
((lp69
g55
atRp70
sS'isDeleted'
p71
I00
sbsS'atomGroups'
p72
g8
((lp73
(iccpnmr.chemBuild.model.AtomGroup
AtomGroup
p74
(dp75
S'groupType'
p76
S'prochiral'
p77
sS'subGroups'
p78
g8
((ltRp79
sg17
g8
((lp80
g55
a(iccpnmr.chemBuild.model.VarAtom
VarAtom
p81
(dp82
g21
(lp83
sg3
S'H4_1'
p84
sg23
I00
sg24
g25
sg13
g1
sg34
Nsg35
g8
((lp85
g50
atRp86
sg15
S'H'
sg61
I0
sg16
I00
sg62
(F-306.46298499986779
F54.447539793360789
F0
tp87
sg64
(lp88
sg66
(iccpnmr.chemBuild.model.Atom
Atom
p89
(dp90
g3
g84
sg13
g1
sg14
I1
sg15
S'H'
sg16
I00
sg17
g8
((lp91
g81
atRp92
sg71
I00
sbsg72
g8
((lp93
g74
atRp94
sS'bonds'
p95
g8
((lp96
(iccpnmr.chemBuild.model.Bond
Bond
p97
(dp98
S'direction'
p99
NsS'bondType'
p100
S'single'
p101
sg24
g25
sg13
g1
sg17
g8
((lp102
g81
ag50
atRp103
sbatRp104
sg71
I00
sbatRp105
sg24
g25
sg13
g1
sbatRp106
sg95
g8
((lp107
(iccpnmr.chemBuild.model.Bond
Bond
p108
(dp109
g99
Nsg100
g101
sg24
g25
sg13
g1
sg17
g8
((lp110
g55
ag50
atRp111
sbatRp112
sg71
I00
sba(iccpnmr.chemBuild.model.VarAtom
VarAtom
p113
(dp114
g21
(lp115
sg3
S'C5'
p116
sg23
I00
sg24
g25
sg13
g1
sg34
Nsg35
g8
((lp117
(iccpnmr.chemBuild.model.VarAtom
VarAtom
p118
(dp119
g21
(lp120
(iccpnmr.chemBuild.model.VarAtom
VarAtom
p121
(dp122
g21
(lp123
(iccpnmr.chemBuild.model.VarAtom
VarAtom
p124
(dp125
g21
(lp126
g121
a(iccpnmr.chemBuild.model.VarAtom
VarAtom
p127
(dp128
g21
(lp129
sg3
S'C7'
p130
sg23
I00
sg24
g25
sg13
g1
sg34
Nsg35
g8
((lp131
g124
a(iccpnmr.chemBuild.model.VarAtom
VarAtom
p132
(dp133
g21
(lp134
sg3
S'H7_1'
p135
sg23
I00
sg24
g25
sg13
g1
sg34
Nsg35
g8
((lp136
g127
atRp137
sg15
S'H'
sg61
I0
sg16
I00
sg62
(F-164.56166762712351
F-6.1004878215072109
F0
tp138
sg64
(lp139
sg66
(iccpnmr.chemBuild.model.Atom
Atom
p140
(dp141
g3
g135
sg13
g1
sg14
I1
sg15
S'H'
sg16
I00
sg17
g8
((lp142
g132
atRp143
sg71
I00
sbsg72
g8
((lp144
(iccpnmr.chemBuild.model.AtomGroup
AtomGroup
p145
(dp146
g76
g77
sg78
g8
((ltRp147
sg17
g8
((lp148
g132
a(iccpnmr.chemBuild.model.VarAtom
VarAtom
p149
(dp150
g21
(lp151
sg3
S'H7_2'
p152
sg23
I00
sg24
g25
sg13
g1
sg34
Nsg35
g8
((lp153
g127
atRp154
sg15
S'H'
sg61
I0
sg16
I00
sg62
(F-140.50537702806508
F-43.931558657602089
F0
tp155
sg64
(lp156
sg66
(iccpnmr.chemBuild.model.Atom
Atom
p157
(dp158
g3
g152
sg13
g1
sg14
I1
sg15
S'H'
sg16
I00
sg17
g8
((lp159
g149
atRp160
sg71
I00
sbsg72
g8
((lp161
g145
atRp162
sg95
g8
((lp163
(iccpnmr.chemBuild.model.Bond
Bond
p164
(dp165
g99
Nsg100
g101
sg24
g25
sg13
g1
sg17
g8
((lp166
g149
ag127
atRp167
sbatRp168
sg71
I00
sbatRp169
sg24
g25
sg13
g1
sbatRp170
sg95
g8
((lp171
(iccpnmr.chemBuild.model.Bond
Bond
p172
(dp173
g99
Nsg100
g101
sg24
g25
sg13
g1
sg17
g8
((lp174
g132
ag127
atRp175
sbatRp176
sg71
I00
sba(iccpnmr.chemBuild.model.VarAtom
VarAtom
p177
(dp178
g21
(lp179
sg3
S'C6'
p180
sg23
I00
sg24
g25
sg13
g1
sg34
Nsg35
g8
((lp181
(iccpnmr.chemBuild.model.VarAtom
VarAtom
p182
(dp183
g21
(lp184
sg3
S'H6'
p185
sg23
I00
sg24
g25
sg13
g1
sg34
Nsg35
g8
((lp186
g177
atRp187
sg15
S'H'
sg61
I0
sg16
I00
sg62
(F-218.8005131976966
F17.918637820644868
F0
tp188
sg64
(lp189
sg66
(iccpnmr.chemBuild.model.Atom
Atom
p190
(dp191
g3
g185
sg13
g1
sg14
I1
sg15
S'H'
sg16
I00
sg17
g8
((lp192
g182
atRp193
sg71
I00
sbsg72
g8
((ltRp194
sg95
g8
((lp195
(iccpnmr.chemBuild.model.Bond
Bond
p196
(dp197
g99
Nsg100
g101
sg24
g25
sg13
g1
sg17
g8
((lp198
g182
ag177
atRp199
sbatRp200
sg71
I00
sbag113
ag127
atRp201
sg15
S'C'
sg61
I0
sg16
I00
sg62
(F-226.97241263680121
F-22.28494471610863
F0
tp202
sg64
(lp203
sg66
(iccpnmr.chemBuild.model.Atom
Atom
p204
(dp205
g3
g180
sg13
g1
sg14
I4
sg15
S'C'
sg16
I00
sg17
g8
((lp206
g177
atRp207
sg71
I00
sbsg72
g8
((ltRp208
sg95
g8
((lp209
(iccpnmr.chemBuild.model.Bond
Bond
p210
(dp211
g99
Nsg100
S'double'
p212
sg24
g25
sg13
g1
sg17
g8
((lp213
g113
ag177
atRp214
sba(iccpnmr.chemBuild.model.Bond
Bond
p215
(dp216
g99
Nsg100
S'single'
p217
sg24
g25
sg13
g1
sg17
g8
((lp218
g177
ag127
atRp219
sbag196
atRp220
sg71
I00
sbag149
atRp221
sg15
S'C'
sg61
I0
sg16
I00
sg62
(F-179.15266764134756
F-42.240958112216255
F0
tp222
sg64
(lp223
sg66
(iccpnmr.chemBuild.model.Atom
Atom
p224
(dp225
g3
g130
sg13
g1
sg14
I4
sg15
S'C'
sg16
I00
sg17
g8
((lp226
g127
atRp227
sg71
I00
sbsg72
g8
((ltRp228
sg95
g8
((lp229
(iccpnmr.chemBuild.model.Bond
Bond
p230
(dp231
g99
Nsg100
g217
sg24
g25
sg13
g1
sg17
g8
((lp232
g124
ag127
atRp233
sbag172
ag215
ag164
atRp234
sg71
I00
sba(iccpnmr.chemBuild.model.VarAtom
VarAtom
p235
(dp236
g21
(lp237
(iccpnmr.chemBuild.model.VarAtom
VarAtom
p238
(dp239
g21
(lp240
(iccpnmr.chemBuild.model.VarAtom
VarAtom
p241
(dp242
g21
(lp243
g238
a(iccpnmr.chemBuild.model.VarAtom
VarAtom
p244
(dp245
g21
(lp246
sg3
S'H17'
p247
sg23
I00
sg24
g25
sg13
g1
sg34
Nsg35
g8
((lp248
g241
atRp249
sg15
S'H'
sg61
I0
sg16
I00
sg62
(F-46.54626815771482
F-221.41854857641306
F0
tp250
sg64
(lp251
sg66
(iccpnmr.chemBuild.model.Atom
Atom
p252
(dp253
g3
g247
sg13
g1
sg14
I1
sg15
S'H'
sg16
I00
sg17
g8
((lp254
g244
atRp255
sg71
I00
sbsg72
g8
((ltRp256
sg95
g8
((lp257
(iccpnmr.chemBuild.model.Bond
Bond
p258
(dp259
g99
Nsg100
g101
sg24
g25
sg13
g1
sg17
g8
((lp260
g244
ag241
atRp261
sbatRp262
sg71
I00
sba(iccpnmr.chemBuild.model.VarAtom
VarAtom
p263
(dp264
g21
(lp265
sg3
S'C16'
p266
sg23
I00
sg24
g25
sg13
g1
sg34
Nsg35
g8
((lp267
(iccpnmr.chemBuild.model.VarAtom
VarAtom
p268
(dp269
g21
(lp270
sg3
S'C15'
p271
sg23
I00
sg24
g25
sg13
g1
sg34
Nsg35
g8
((lp272
(iccpnmr.chemBuild.model.VarAtom
VarAtom
p273
(dp274
g21
(lp275
sg3
S'H15_2'
p276
sg23
I00
sg24
g25
sg13
g1
sg34
Nsg35
g8
((lp277
g268
atRp278
sg15
S'H'
sg61
I0
sg16
I00
sg62
(F-47.51100355817276
F-106.1458140879836
F0
tp279
sg64
(lp280
sg66
(iccpnmr.chemBuild.model.Atom
Atom
p281
(dp282
g3
g276
sg13
g1
sg14
I1
sg15
S'H'
sg16
I00
sg17
g8
((lp283
g273
atRp284
sg71
I00
sbsg72
g8
((lp285
(iccpnmr.chemBuild.model.AtomGroup
AtomGroup
p286
(dp287
g76
g77
sg78
g8
((ltRp288
sg17
g8
((lp289
g273
a(iccpnmr.chemBuild.model.VarAtom
VarAtom
p290
(dp291
g21
(lp292
sg3
S'H15_1'
p293
sg23
I00
sg24
g25
sg13
g1
sg34
Nsg35
g8
((lp294
g268
atRp295
sg15
S'H'
sg61
I0
sg16
I00
sg62
(F-86.796186029412524
F-88.395606932563339
F0
tp296
sg64
(lp297
sg66
(iccpnmr.chemBuild.model.Atom
Atom
p298
(dp299
g3
g293
sg13
g1
sg14
I1
sg15
S'H'
sg16
I00
sg17
g8
((lp300
g290
atRp301
sg71
I00
sbsg72
g8
((lp302
g286
atRp303
sg95
g8
((lp304
(iccpnmr.chemBuild.model.Bond
Bond
p305
(dp306
g99
Nsg100
g101
sg24
g25
sg13
g1
sg17
g8
((lp307
g290
ag268
atRp308
sbatRp309
sg71
I00
sbatRp310
sg24
g25
sg13
g1
sbatRp311
sg95
g8
((lp312
(iccpnmr.chemBuild.model.Bond
Bond
p313
(dp314
g99
Nsg100
g101
sg24
g25
sg13
g1
sg17
g8
((lp315
g273
ag268
atRp316
sbatRp317
sg71
I00
sbag263
ag290
ag235
atRp318
sg15
S'C'
sg61
I0
sg16
I00
sg62
(F-80.80438667803962
F-126.80759851443065
F0
tp319
sg64
(lp320
sg66
(iccpnmr.chemBuild.model.Atom
Atom
p321
(dp322
g3
g271
sg13
g1
sg14
I4
sg15
S'C'
sg16
I00
sg17
g8
((lp323
g268
atRp324
sg71
I00
sbsg72
g8
((ltRp325
sg95
g8
((lp326
(iccpnmr.chemBuild.model.Bond
Bond
p327
(dp328
g99
Nsg100
g217
sg24
g25
sg13
g1
sg17
g8
((lp329
g268
ag235
atRp330
sbag305
a(iccpnmr.chemBuild.model.Bond
Bond
p331
(dp332
g99
Nsg100
g217
sg24
g25
sg13
g1
sg17
g8
((lp333
g263
ag268
atRp334
sbag313
atRp335
sg71
I00
sba(iccpnmr.chemBuild.model.VarAtom
VarAtom
p336
(dp337
g21
(lp338
sg3
S'H16_1'
p339
sg23
I00
sg24
g25
sg13
g1
sg34
Nsg35
g8
((lp340
g263
atRp341
sg15
S'H'
sg61
I0
sg16
I00
sg62
(F-26.934494062619546
F-194.58965836781459
F0
tp342
sg64
(lp343
sg66
(iccpnmr.chemBuild.model.Atom
Atom
p344
(dp345
g3
g339
sg13
g1
sg14
I1
sg15
S'H'
sg16
I00
sg17
g8
((lp346
g336
atRp347
sg71
I00
sbsg72
g8
((lp348
(iccpnmr.chemBuild.model.AtomGroup
AtomGroup
p349
(dp350
g76
g77
sg78
g8
((ltRp351
sg17
g8
((lp352
g336
a(iccpnmr.chemBuild.model.VarAtom
VarAtom
p353
(dp354
g21
(lp355
sg3
S'H16_2'
p356
sg23
I00
sg24
g25
sg13
g1
sg34
Nsg35
g8
((lp357
g263
atRp358
sg15
S'H'
sg61
I0
sg16
I00
sg62
(F-26.044389214299525
F-151.89145430426012
F0
tp359
sg64
(lp360
sg66
(iccpnmr.chemBuild.model.Atom
Atom
p361
(dp362
g3
g356
sg13
g1
sg14
I1
sg15
S'H'
sg16
I00
sg17
g8
((lp363
g353
atRp364
sg71
I00
sbsg72
g8
((lp365
g349
atRp366
sg95
g8
((lp367
(iccpnmr.chemBuild.model.Bond
Bond
p368
(dp369
g99
Nsg100
g101
sg24
g25
sg13
g1
sg17
g8
((lp370
g263
ag353
atRp371
sbatRp372
sg71
I00
sbatRp373
sg24
g25
sg13
g1
sbatRp374
sg95
g8
((lp375
(iccpnmr.chemBuild.model.Bond
Bond
p376
(dp377
g99
Nsg100
g101
sg24
g25
sg13
g1
sg17
g8
((lp378
g263
ag336
atRp379
sbatRp380
sg71
I00
sbag241
ag353
atRp381
sg15
S'C'
sg61
I0
sg16
I00
sg62
(F-51.809592816822864
F-166.73468574349275
F0
tp382
sg64
(lp383
sg66
(iccpnmr.chemBuild.model.Atom
Atom
p384
(dp385
g3
g266
sg13
g1
sg14
I4
sg15
S'C'
sg16
I00
sg17
g8
((lp386
g263
atRp387
sg71
I00
sbsg72
g8
((ltRp388
sg95
g8
((lp389
g376
ag368
a(iccpnmr.chemBuild.model.Bond
Bond
p390
(dp391
g99
Nsg100
g217
sg24
g25
sg13
g1
sg17
g8
((lp392
g263
ag241
atRp393
sbag331
atRp394
sg71
I00
sba(iccpnmr.chemBuild.model.VarAtom
VarAtom
p395
(dp396
g21
(lp397
g241
a(iccpnmr.chemBuild.model.VarAtom
VarAtom
p398
(dp399
g21
(lp400
sg3
S'C21'
p401
sg23
I00
sg24
g25
sg13
g1
sg34
Nsg35
g8
((lp402
(iccpnmr.chemBuild.model.VarAtom
VarAtom
p403
(dp404
g21
(lp405
sg3
S'H21_3'
p406
sg23
I00
sg24
g25
sg13
g1
sg34
Nsg35
g8
((lp407
g398
atRp408
sg15
S'H'
sg61
I0
sg16
I00
sg62
(F-64.496985006727215
F-368.30635335163032
F0
tp409
sg64
(lp410
sg66
(iccpnmr.chemBuild.model.Atom
Atom
p411
(dp412
g3
g406
sg13
g1
sg14
I1
sg15
S'H'
sg16
I00
sg17
g8
((lp413
g403
atRp414
sg71
I00
sbsg72
g8
((lp415
(iccpnmr.chemBuild.model.AtomGroup
AtomGroup
p416
(dp417
g76
S'equivalent'
p418
sg78
g8
((ltRp419
sg17
g8
((lp420
g403
a(iccpnmr.chemBuild.model.VarAtom
VarAtom
p421
(dp422
g21
(lp423
sg3
S'H21_1'
p424
sg23
I00
sg24
g25
sg13
g1
sg34
Nsg35
g8
((lp425
g398
atRp426
sg15
S'H'
sg61
I0
sg16
I00
sg62
(F-93.873129540201973
F-334.34871019757003
F0
tp427
sg64
(lp428
sg66
(iccpnmr.chemBuild.model.Atom
Atom
p429
(dp430
g3
g424
sg13
g1
sg14
I1
sg15
S'H'
sg16
I00
sg17
g8
((lp431
g421
atRp432
sg71
I00
sbsg72
g8
((lp433
g416
atRp434
sg95
g8
((lp435
(iccpnmr.chemBuild.model.Bond
Bond
p436
(dp437
g99
Nsg100
g101
sg24
g25
sg13
g1
sg17
g8
((lp438
g421
ag398
atRp439
sbatRp440
sg71
I00
sba(iccpnmr.chemBuild.model.VarAtom
VarAtom
p441
(dp442
g21
(lp443
sg3
S'H21_2'
p444
sg23
I00
sg24
g25
sg13
g1
sg34
Nsg35
g8
((lp445
g398
atRp446
sg15
S'H'
sg61
I0
sg16
I00
sg62
(F-23.904804323021203
F-350.83769133966149
F0
tp447
sg64
(lp448
sg66
(iccpnmr.chemBuild.model.Atom
Atom
p449
(dp450
g3
g444
sg13
g1
sg14
I1
sg15
S'H'
sg16
I00
sg17
g8
((lp451
g441
atRp452
sg71
I00
sbsg72
g8
((lp453
g416
atRp454
sg95
g8
((lp455
(iccpnmr.chemBuild.model.Bond
Bond
p456
(dp457
g99
Nsg100
g101
sg24
g25
sg13
g1
sg17
g8
((lp458
g398
ag441
atRp459
sbatRp460
sg71
I00
sbatRp461
sg24
g25
sg13
g1
sbatRp462
sg95
g8
((lp463
(iccpnmr.chemBuild.model.Bond
Bond
p464
(dp465
g99
Nsg100
g101
sg24
g25
sg13
g1
sg17
g8
((lp466
g403
ag398
atRp467
sbatRp468
sg71
I00
sbag421
ag441
ag395
atRp469
sg15
S'C'
sg61
I0
sg16
I00
sg62
(F-55.679508047666594
F-328.88650037287124
F0
tp470
sg64
(lp471
sg66
(iccpnmr.chemBuild.model.Atom
Atom
p472
(dp473
g3
g401
sg13
g1
sg14
I4
sg15
S'C'
sg16
I00
sg17
g8
((lp474
g398
atRp475
sg71
I00
sbsg72
g8
((ltRp476
sg95
g8
((lp477
g456
ag436
a(iccpnmr.chemBuild.model.Bond
Bond
p478
(dp479
g99
Nsg100
g101
sg24
g25
sg13
g1
sg17
g8
((lp480
g398
ag395
atRp481
sbag464
atRp482
sg71
I00
sba(iccpnmr.chemBuild.model.VarAtom
VarAtom
p483
(dp484
g21
(lp485
sg3
S'C22'
p486
sg23
I00
sg24
g25
sg13
g1
sg34
Nsg35
g8
((lp487
(iccpnmr.chemBuild.model.VarAtom
VarAtom
p488
(dp489
g21
(lp490
sg3
S'C23'
p491
sg23
I00
sg24
g25
sg13
g1
sg34
Nsg35
g8
((lp492
g483
a(iccpnmr.chemBuild.model.VarAtom
VarAtom
p493
(dp494
g21
(lp495
sg3
S'C24'
p496
sg23
I00
sg24
g25
sg13
g1
sg34
Nsg35
g8
((lp497
(iccpnmr.chemBuild.model.VarAtom
VarAtom
p498
(dp499
g21
(lp500
sg3
S'H24_2'
p501
sg23
I00
sg24
g25
sg13
g1
sg34
Nsg35
g8
((lp502
g493
atRp503
sg15
S'H'
sg61
I0
sg16
I00
sg62
(F140.5452008856463
F-261.80193312131786
F0
tp504
sg64
(lp505
sg66
(iccpnmr.chemBuild.model.Atom
Atom
p506
(dp507
g3
g501
sg13
g1
sg14
I1
sg15
S'H'
sg16
I00
sg17
g8
((lp508
g498
atRp509
sg71
I00
sbsg72
g8
((lp510
(iccpnmr.chemBuild.model.AtomGroup
AtomGroup
p511
(dp512
g76
g77
sg78
g8
((ltRp513
sg17
g8
((lp514
g498
a(iccpnmr.chemBuild.model.VarAtom
VarAtom
p515
(dp516
g21
(lp517
sg3
S'H24_1'
p518
sg23
I00
sg24
g25
sg13
g1
sg34
Nsg35
g8
((lp519
g493
atRp520
sg15
S'H'
sg61
I0
sg16
I00
sg62
(F100.86128447692469
F-279.91520148853903
F0
tp521
sg64
(lp522
sg66
(iccpnmr.chemBuild.model.Atom
Atom
p523
(dp524
g3
g518
sg13
g1
sg14
I1
sg15
S'H'
sg16
I00
sg17
g8
((lp525
g515
atRp526
sg71
I00
sbsg72
g8
((lp527
g511
atRp528
sg95
g8
((lp529
(iccpnmr.chemBuild.model.Bond
Bond
p530
(dp531
g99
Nsg100
g101
sg24
g25
sg13
g1
sg17
g8
((lp532
g515
ag493
atRp533
sbatRp534
sg71
I00
sbatRp535
sg24
g25
sg13
g1
sbatRp536
sg95
g8
((lp537
(iccpnmr.chemBuild.model.Bond
Bond
p538
(dp539
g99
Nsg100
g101
sg24
g25
sg13
g1
sg17
g8
((lp540
g498
ag493
atRp541
sbatRp542
sg71
I00
sbag515
ag488
a(iccpnmr.chemBuild.model.VarAtom
VarAtom
p543
(dp544
g21
(lp545
sg3
S'C25'
p546
sg23
I00
sg24
g25
sg13
g1
sg34
Nsg35
g8
((lp547
(iccpnmr.chemBuild.model.VarAtom
VarAtom
p548
(dp549
g21
(lp550
sg3
S'C26'
p551
sg23
I00
sg24
g25
sg13
g1
sg34
Nsg35
g8
((lp552
(iccpnmr.chemBuild.model.VarAtom
VarAtom
p553
(dp554
g21
(lp555
sg3
S'H26_3'
p556
sg23
I00
sg24
g25
sg13
g1
sg34
Nsg35
g8
((lp557
g548
atRp558
sg15
S'H'
sg61
I0
sg16
I00
sg62
(F220.9446028511756
F-186.11013820233975
F0
tp559
sg64
(lp560
sg66
(iccpnmr.chemBuild.model.Atom
Atom
p561
(dp562
g3
g556
sg13
g1
sg14
I1
sg15
S'H'
sg16
I00
sg17
g8
((lp563
g553
atRp564
sg71
I00
sbsg72
g8
((lp565
(iccpnmr.chemBuild.model.AtomGroup
AtomGroup
p566
(dp567
g76
g418
sg78
g8
((ltRp568
sg17
g8
((lp569
g553
a(iccpnmr.chemBuild.model.VarAtom
VarAtom
p570
(dp571
g21
(lp572
sg3
S'H26_1'
p573
sg23
I00
sg24
g25
sg13
g1
sg34
Nsg35
g8
((lp574
g548
atRp575
sg15
S'H'
sg61
I0
sg16
I00
sg62
(F198.11095471524422
F-257.47350145524842
F0
tp576
sg64
(lp577
sg66
(iccpnmr.chemBuild.model.Atom
Atom
p578
(dp579
g3
g573
sg13
g1
sg14
I1
sg15
S'H'
sg16
I00
sg17
g8
((lp580
g570
atRp581
sg71
I00
sbsg72
g8
((lp582
g566
atRp583
sg95
g8
((lp584
(iccpnmr.chemBuild.model.Bond
Bond
p585
(dp586
g99
Nsg100
g101
sg24
g25
sg13
g1
sg17
g8
((lp587
g570
ag548
atRp588
sbatRp589
sg71
I00
sba(iccpnmr.chemBuild.model.VarAtom
VarAtom
p590
(dp591
g21
(lp592
sg3
S'H26_2'
p593
sg23
I00
sg24
g25
sg13
g1
sg34
Nsg35
g8
((lp594
g548
atRp595
sg15
S'H'
sg61
I0
sg16
I00
sg62
(F236.93278276797031
F-231.63378678594069
F0
tp596
sg64
(lp597
sg66
(iccpnmr.chemBuild.model.Atom
Atom
p598
(dp599
g3
g593
sg13
g1
sg14
I1
sg15
S'H'
sg16
I00
sg17
g8
((lp600
g590
atRp601
sg71
I00
sbsg72
g8
((lp602
g566
atRp603
sg95
g8
((lp604
(iccpnmr.chemBuild.model.Bond
Bond
p605
(dp606
g99
Nsg100
g101
sg24
g25
sg13
g1
sg17
g8
((lp607
g548
ag590
atRp608
sbatRp609
sg71
I00
sbatRp610
sg24
g25
sg13
g1
sbatRp611
sg95
g8
((lp612
(iccpnmr.chemBuild.model.Bond
Bond
p613
(dp614
g99
Nsg100
g101
sg24
g25
sg13
g1
sg17
g8
((lp615
g553
ag548
atRp616
sbatRp617
sg71
I00
sbag543
ag570
ag590
atRp618
sg15
S'C'
sg61
I0
sg16
I00
sg62
(F199.93655433229449
F-218.72684616077169
F0
tp619
sg64
(lp620
sg66
(iccpnmr.chemBuild.model.Atom
Atom
p621
(dp622
g3
g551
sg13
g1
sg14
I4
sg15
S'C'
sg16
I00
sg17
g8
((lp623
g548
atRp624
sg71
I00
sbsg72
g8
((ltRp625
sg95
g8
((lp626
g605
ag613
a(iccpnmr.chemBuild.model.Bond
Bond
p627
(dp628
g99
Nsg100
g101
sg24
g25
sg13
g1
sg17
g8
((lp629
g543
ag548
atRp630
sbag585
atRp631
sg71
I00
sba(iccpnmr.chemBuild.model.VarAtom
VarAtom
p632
(dp633
g21
(lp634
sg3
S'C27'
p635
sg23
I00
sg24
g25
sg13
g1
sg34
Nsg35
g8
((lp636
(iccpnmr.chemBuild.model.VarAtom
VarAtom
p637
(dp638
g21
(lp639
sg3
S'H27_3'
p640
sg23
I00
sg24
g25
sg13
g1
sg34
Nsg35
g8
((lp641
g632
atRp642
sg15
S'H'
sg61
I0
sg16
I00
sg62
(F80.092560029896347
F-147.44342089842715
F0
tp643
sg64
(lp644
sg66
(iccpnmr.chemBuild.model.Atom
Atom
p645
(dp646
g3
g640
sg13
g1
sg14
I1
sg15
S'H'
sg16
I00
sg17
g8
((lp647
g637
atRp648
sg71
I00
sbsg72
g8
((lp649
(iccpnmr.chemBuild.model.AtomGroup
AtomGroup
p650
(dp651
g76
g418
sg78
g8
((ltRp652
sg17
g8
((lp653
g637
a(iccpnmr.chemBuild.model.VarAtom
VarAtom
p654
(dp655
g21
(lp656
sg3
S'H27_1'
p657
sg23
I00
sg24
g25
sg13
g1
sg34
Nsg35
g8
((lp658
g632
atRp659
sg15
S'H'
sg61
I0
sg16
I00
sg62
(F148.23261222802603
F-117.46706385547121
F0
tp660
sg64
(lp661
sg66
(iccpnmr.chemBuild.model.Atom
Atom
p662
(dp663
g3
g657
sg13
g1
sg14
I1
sg15
S'H'
sg16
I00
sg17
g8
((lp664
g654
atRp665
sg71
I00
sbsg72
g8
((lp666
g650
atRp667
sg95
g8
((lp668
(iccpnmr.chemBuild.model.Bond
Bond
p669
(dp670
g99
Nsg100
g101
sg24
g25
sg13
g1
sg17
g8
((lp671
g632
ag654
atRp672
sbatRp673
sg71
I00
sba(iccpnmr.chemBuild.model.VarAtom
VarAtom
p674
(dp675
g21
(lp676
sg3
S'H27_2'
p677
sg23
I00
sg24
g25
sg13
g1
sg34
Nsg35
g8
((lp678
g632
atRp679
sg15
S'H'
sg61
I0
sg16
I00
sg62
(F101.54414003482789
F-106.82951313557976
F0
tp680
sg64
(lp681
sg66
(iccpnmr.chemBuild.model.Atom
Atom
p682
(dp683
g3
g677
sg13
g1
sg14
I1
sg15
S'H'
sg16
I00
sg17
g8
((lp684
g674
atRp685
sg71
I00
sbsg72
g8
((lp686
g650
atRp687
sg95
g8
((lp688
(iccpnmr.chemBuild.model.Bond
Bond
p689
(dp690
g99
Nsg100
g101
sg24
g25
sg13
g1
sg17
g8
((lp691
g632
ag674
atRp692
sbatRp693
sg71
I00
sbatRp694
sg24
g25
sg13
g1
sbatRp695
sg95
g8
((lp696
(iccpnmr.chemBuild.model.Bond
Bond
p697
(dp698
g99
Nsg100
g101
sg24
g25
sg13
g1
sg17
g8
((lp699
g632
ag637
atRp700
sbatRp701
sg71
I00
sbag543
ag654
ag674
atRp702
sg15
S'C'
sg61
I0
sg16
I00
sg62
(F118.31484137518869
F-142.28854339519918
F0
tp703
sg64
(lp704
sg66
(iccpnmr.chemBuild.model.Atom
Atom
p705
(dp706
g3
g635
sg13
g1
sg14
I4
sg15
S'C'
sg16
I00
sg17
g8
((lp707
g632
atRp708
sg71
I00
sbsg72
g8
((ltRp709
sg95
g8
((lp710
g697
ag669
ag689
a(iccpnmr.chemBuild.model.Bond
Bond
p711
(dp712
g99
Nsg100
g101
sg24
g25
sg13
g1
sg17
g8
((lp713
g543
ag632
atRp714
sbatRp715
sg71
I00
sbag493
a(iccpnmr.chemBuild.model.VarAtom
VarAtom
p716
(dp717
g21
(lp718
sg3
S'H25'
p719
sg23
I00
sg24
g25
sg13
g1
sg34
Nsg35
g8
((lp720
g543
atRp721
sg15
S'H'
sg61
I0
sg16
I00
sg62
(F167.51555561683637
F-169.67251672240423
F0
tp722
sg64
(lp723
sg66
(iccpnmr.chemBuild.model.Atom
Atom
p724
(dp725
g3
g719
sg13
g1
sg14
I1
sg15
S'H'
sg16
I00
sg17
g8
((lp726
g716
atRp727
sg71
I00
sbsg72
g8
((ltRp728
sg95
g8
((lp729
(iccpnmr.chemBuild.model.Bond
Bond
p730
(dp731
g99
Nsg100
g101
sg24
g25
sg13
g1
sg17
g8
((lp732
g543
ag716
atRp733
sbatRp734
sg71
I00
sbatRp735
sg15
S'C'
sg61
I0
sg16
I00
sg62
(F142.78666917425309
F-197.92542709134196
F0
tp736
sg64
(lp737
sg66
(iccpnmr.chemBuild.model.Atom
Atom
p738
(dp739
g3
g546
sg13
g1
sg14
I4
sg15
S'C'
sg16
I00
sg17
g8
((lp740
g543
atRp741
sg71
I00
sbsg72
g8
((ltRp742
sg95
g8
((lp743
g730
ag627
ag711
a(iccpnmr.chemBuild.model.Bond
Bond
p744
(dp745
g99
Nsg100
g101
sg24
g25
sg13
g1
sg17
g8
((lp746
g543
ag493
atRp747
sbatRp748
sg71
I00
sbatRp749
sg15
S'C'
sg61
I0
sg16
I00
sg62
(F107.96088671907428
F-241.75247441213125
F0
tp750
sg64
(lp751
sg66
(iccpnmr.chemBuild.model.Atom
Atom
p752
(dp753
g3
g496
sg13
g1
sg14
I4
sg15
S'C'
sg16
I00
sg17
g8
((lp754
g493
atRp755
sg71
I00
sbsg72
g8
((ltRp756
sg95
g8
((lp757
(iccpnmr.chemBuild.model.Bond
Bond
p758
(dp759
g99
Nsg100
g101
sg24
g25
sg13
g1
sg17
g8
((lp760
g493
ag488
atRp761
sbag538
ag744
ag530
atRp762
sg71
I00
sba(iccpnmr.chemBuild.model.VarAtom
VarAtom
p763
(dp764
g21
(lp765
sg3
S'H23_1'
p766
sg23
I00
sg24
g25
sg13
g1
sg34
Nsg35
g8
((lp767
g488
atRp768
sg15
S'H'
sg61
I0
sg16
I00
sg62
(F63.847775931031741
F-203.75778905762181
F0
tp769
sg64
(lp770
sg66
(iccpnmr.chemBuild.model.Atom
Atom
p771
(dp772
g3
g766
sg13
g1
sg14
I1
sg15
S'H'
sg16
I00
sg17
g8
((lp773
g763
atRp774
sg71
I00
sbsg72
g8
((lp775
(iccpnmr.chemBuild.model.AtomGroup
AtomGroup
p776
(dp777
g76
g77
sg78
g8
((ltRp778
sg17
g8
((lp779
g763
a(iccpnmr.chemBuild.model.VarAtom
VarAtom
p780
(dp781
g21
(lp782
sg3
S'H23_2'
p783
sg23
I00
sg24
g25
sg13
g1
sg34
Nsg35
g8
((lp784
g488
atRp785
sg15
S'H'
sg61
I0
sg16
I00
sg62
(F22.634572836771923
F-222.46967226227426
F0
tp786
sg64
(lp787
sg66
(iccpnmr.chemBuild.model.Atom
Atom
p788
(dp789
g3
g783
sg13
g1
sg14
I1
sg15
S'H'
sg16
I00
sg17
g8
((lp790
g780
atRp791
sg71
I00
sbsg72
g8
((lp792
g776
atRp793
sg95
g8
((lp794
(iccpnmr.chemBuild.model.Bond
Bond
p795
(dp796
g99
Nsg100
g101
sg24
g25
sg13
g1
sg17
g8
((lp797
g488
ag780
atRp798
sbatRp799
sg71
I00
sbatRp800
sg24
g25
sg13
g1
sbatRp801
sg95
g8
((lp802
(iccpnmr.chemBuild.model.Bond
Bond
p803
(dp804
g99
Nsg100
g101
sg24
g25
sg13
g1
sg17
g8
((lp805
g488
ag763
atRp806
sbatRp807
sg71
I00
sbag780
atRp808
sg15
S'C'
sg61
I0
sg16
I00
sg62
(F55.510530396378449
F-241.10318041619863
F0
tp809
sg64
(lp810
sg66
(iccpnmr.chemBuild.model.Atom
Atom
p811
(dp812
g3
g491
sg13
g1
sg14
I4
sg15
S'C'
sg16
I00
sg17
g8
((lp813
g488
atRp814
sg71
I00
sbsg72
g8
((ltRp815
sg95
g8
((lp816
g758
ag795
a(iccpnmr.chemBuild.model.Bond
Bond
p817
(dp818
g99
Nsg100
g101
sg24
g25
sg13
g1
sg17
g8
((lp819
g483
ag488
atRp820
sbag803
atRp821
sg71
I00
sba(iccpnmr.chemBuild.model.VarAtom
VarAtom
p822
(dp823
g21
(lp824
sg3
S'H22_2'
p825
sg23
I00
sg24
g25
sg13
g1
sg34
Nsg35
g8
((lp826
g483
atRp827
sg15
S'H'
sg61
I0
sg16
I00
sg62
(F45.144755591583504
F-299.36133299345505
F0
tp828
sg64
(lp829
sg66
(iccpnmr.chemBuild.model.Atom
Atom
p830
(dp831
g3
g825
sg13
g1
sg14
I1
sg15
S'H'
sg16
I00
sg17
g8
((lp832
g822
atRp833
sg71
I00
sbsg72
g8
((lp834
(iccpnmr.chemBuild.model.AtomGroup
AtomGroup
p835
(dp836
g76
g77
sg78
g8
((ltRp837
sg17
g8
((lp838
g822
a(iccpnmr.chemBuild.model.VarAtom
VarAtom
p839
(dp840
g21
(lp841
sg3
S'H22_1'
p842
sg23
I00
sg24
g25
sg13
g1
sg34
Nsg35
g8
((lp843
g483
atRp844
sg15
S'H'
sg61
I0
sg16
I00
sg62
(F4.4367960807907902
F-311.20173984495943
F0
tp845
sg64
(lp846
sg66
(iccpnmr.chemBuild.model.Atom
Atom
p847
(dp848
g3
g842
sg13
g1
sg14
I1
sg15
S'H'
sg16
I00
sg17
g8
((lp849
g839
atRp850
sg71
I00
sbsg72
g8
((lp851
g835
atRp852
sg95
g8
((lp853
(iccpnmr.chemBuild.model.Bond
Bond
p854
(dp855
g99
Nsg100
g101
sg24
g25
sg13
g1
sg17
g8
((lp856
g483
ag839
atRp857
sbatRp858
sg71
I00
sbatRp859
sg24
g25
sg13
g1
sbatRp860
sg95
g8
((lp861
(iccpnmr.chemBuild.model.Bond
Bond
p862
(dp863
g99
Nsg100
g101
sg24
g25
sg13
g1
sg17
g8
((lp864
g483
ag822
atRp865
sbatRp866
sg71
I00
sbag839
ag395
atRp867
sg15
S'C'
sg61
I0
sg16
I00
sg62
(F14.808523604740948
F-275.13044998936539
F0
tp868
sg64
(lp869
sg66
(iccpnmr.chemBuild.model.Atom
Atom
p870
(dp871
g3
g486
sg13
g1
sg14
I4
sg15
S'C'
sg16
I00
sg17
g8
((lp872
g483
atRp873
sg71
I00
sbsg72
g8
((ltRp874
sg95
g8
((lp875
g854
ag817
ag862
a(iccpnmr.chemBuild.model.Bond
Bond
p876
(dp877
g99
Nsg100
g101
sg24
g25
sg13
g1
sg17
g8
((lp878
g483
ag395
atRp879
sbatRp880
sg71
I00
sba(iccpnmr.chemBuild.model.VarAtom
VarAtom
p881
(dp882
g21
(lp883
sg3
S'H20'
p884
sg23
I00
sg24
g25
sg13
g1
sg34
Nsg35
g8
((lp885
g395
atRp886
sg15
S'H'
sg61
I0
sg16
I00
sg62
(F-84.285507437597587
F-288.4979720693911
F0
tp887
sg64
(lp888
sg66
(iccpnmr.chemBuild.model.Atom
Atom
p889
(dp890
g3
g884
sg13
g1
sg14
I1
sg15
S'H'
sg16
I00
sg17
g8
((lp891
g881
atRp892
sg71
I00
sbsg72
g8
((ltRp893
sg95
g8
((lp894
(iccpnmr.chemBuild.model.Bond
Bond
p895
(dp896
g99
Nsg100
g101
sg24
g25
sg13
g1
sg17
g8
((lp897
g881
ag395
atRp898
sbatRp899
sg71
I00
sbasg3
S'C20'
p900
sg23
I00
sg24
g25
sg13
g1
sg34
Nsg35
g8
((lp901
g881
ag398
ag483
ag241
atRp902
sg15
S'C'
sg61
I0
sg16
I00
sg62
(F-44.820936738143963
F-271.57880136795325
F0
tp903
sg64
(lp904
sg66
(iccpnmr.chemBuild.model.Atom
Atom
p905
(dp906
g3
g900
sg13
g1
sg14
I4
sg15
S'C'
sg16
I00
sg17
g8
((lp907
g395
atRp908
sg71
I00
sbsg72
g8
((ltRp909
sg95
g8
((lp910
(iccpnmr.chemBuild.model.Bond
Bond
p911
(dp912
g99
Nsg100
g101
sg24
g25
sg13
g1
sg17
g8
((lp913
g241
ag395
atRp914
sbag876
ag478
ag895
atRp915
sg71
I00
sbasg3
S'C17'
p916
sg23
I00
sg24
g25
sg13
g1
sg34
Nsg35
g8
((lp917
g263
ag244
ag238
ag395
atRp918
sg15
S'C'
sg61
I0
sg16
I00
sg62
(F-87.327017858526887
F-209.8792577740092
F0
tp919
sg64
(lp920
sg66
(iccpnmr.chemBuild.model.Atom
Atom
p921
(dp922
g3
g916
sg13
g1
sg14
I4
sg15
S'C'
sg16
I00
sg17
g8
((lp923
g241
atRp924
sg71
I00
sbsg72
g8
((ltRp925
sg95
g8
((lp926
g911
ag258
ag390
a(iccpnmr.chemBuild.model.Bond
Bond
p927
(dp928
g99
Nsg100
g217
sg24
g25
sg13
g1
sg17
g8
((lp929
g241
ag238
atRp930
sbatRp931
sg71
I00
sba(iccpnmr.chemBuild.model.VarAtom
VarAtom
p932
(dp933
g21
(lp934
sg3
S'C12'
p935
sg23
I00
sg24
g25
sg13
g1
sg34
Nsg35
g8
((lp936
(iccpnmr.chemBuild.model.VarAtom
VarAtom
p937
(dp938
g21
(lp939
sg3
S'C11'
p940
sg23
I00
sg24
g25
sg13
g1
sg34
Nsg35
g8
((lp941
g932
a(iccpnmr.chemBuild.model.VarAtom
VarAtom
p942
(dp943
g21
(lp944
sg3
S'H11_1'
p945
sg23
I00
sg24
g25
sg13
g1
sg34
Nsg35
g8
((lp946
g937
atRp947
sg15
S'H'
sg61
I0
sg16
I00
sg62
(F-272.96367038139505
F-181.49922497354814
F0
tp948
sg64
(lp949
sg66
(iccpnmr.chemBuild.model.Atom
Atom
p950
(dp951
g3
g945
sg13
g1
sg14
I1
sg15
S'H'
sg16
I00
sg17
g8
((lp952
g942
atRp953
sg71
I00
sbsg72
g8
((lp954
(iccpnmr.chemBuild.model.AtomGroup
AtomGroup
p955
(dp956
g76
g77
sg78
g8
((ltRp957
sg17
g8
((lp958
g942
a(iccpnmr.chemBuild.model.VarAtom
VarAtom
p959
(dp960
g21
(lp961
sg3
S'H11_2'
p962
sg23
I00
sg24
g25
sg13
g1
sg34
Nsg35
g8
((lp963
g937
atRp964
sg15
S'H'
sg61
I0
sg16
I00
sg62
(F-250.99813304735343
F-218.25255853810094
F0
tp965
sg64
(lp966
sg66
(iccpnmr.chemBuild.model.Atom
Atom
p967
(dp968
g3
g962
sg13
g1
sg14
I1
sg15
S'H'
sg16
I00
sg17
g8
((lp969
g959
atRp970
sg71
I00
sbsg72
g8
((lp971
g955
atRp972
sg95
g8
((lp973
(iccpnmr.chemBuild.model.Bond
Bond
p974
(dp975
g99
Nsg100
g101
sg24
g25
sg13
g1
sg17
g8
((lp976
g937
ag959
atRp977
sbatRp978
sg71
I00
sbatRp979
sg24
g25
sg13
g1
sbatRp980
sg95
g8
((lp981
(iccpnmr.chemBuild.model.Bond
Bond
p982
(dp983
g99
Nsg100
g101
sg24
g25
sg13
g1
sg17
g8
((lp984
g937
ag942
atRp985
sbatRp986
sg71
I00
sbag121
ag959
atRp987
sg15
S'C'
sg61
I0
sg16
I00
sg62
(F-235.11509252960232
F-182.42959993958942
F0
tp988
sg64
(lp989
sg66
(iccpnmr.chemBuild.model.Atom
Atom
p990
(dp991
g3
g940
sg13
g1
sg14
I4
sg15
S'C'
sg16
I00
sg17
g8
((lp992
g937
atRp993
sg71
I00
sbsg72
g8
((ltRp994
sg95
g8
((lp995
(iccpnmr.chemBuild.model.Bond
Bond
p996
(dp997
g99
Nsg100
g217
sg24
g25
sg13
g1
sg17
g8
((lp998
g932
ag937
atRp999
sba(iccpnmr.chemBuild.model.Bond
Bond
p1000
(dp1001
g99
Nsg100
g217
sg24
g25
sg13
g1
sg17
g8
((lp1002
g937
ag121
atRp1003
sbag982
ag974
atRp1004
sg71
I00
sba(iccpnmr.chemBuild.model.VarAtom
VarAtom
p1005
(dp1006
g21
(lp1007
sg3
S'H12_1'
p1008
sg23
I00
sg24
g25
sg13
g1
sg34
Nsg35
g8
((lp1009
g932
atRp1010
sg15
S'H'
sg61
I0
sg16
I00
sg62
(F-178.30019166697807
F-233.77711988620959
F0
tp1011
sg64
(lp1012
sg66
(iccpnmr.chemBuild.model.Atom
Atom
p1013
(dp1014
g3
g1008
sg13
g1
sg14
I1
sg15
S'H'
sg16
I00
sg17
g8
((lp1015
g1005
atRp1016
sg71
I00
sbsg72
g8
((lp1017
(iccpnmr.chemBuild.model.AtomGroup
AtomGroup
p1018
(dp1019
g76
g77
sg78
g8
((ltRp1020
sg17
g8
((lp1021
(iccpnmr.chemBuild.model.VarAtom
VarAtom
p1022
(dp1023
g21
(lp1024
sg3
S'H12_2'
p1025
sg23
I00
sg24
g25
sg13
g1
sg34
Nsg35
g8
((lp1026
g932
atRp1027
sg15
S'H'
sg61
I0
sg16
I00
sg62
(F-204.53745639141886
F-235.01346227929787
F0
tp1028
sg64
(lp1029
sg66
(iccpnmr.chemBuild.model.Atom
Atom
p1030
(dp1031
g3
g1025
sg13
g1
sg14
I1
sg15
S'H'
sg16
I00
sg17
g8
((lp1032
g1022
atRp1033
sg71
I00
sbsg72
g8
((lp1034
g1018
atRp1035
sg95
g8
((lp1036
(iccpnmr.chemBuild.model.Bond
Bond
p1037
(dp1038
g99
Nsg100
g101
sg24
g25
sg13
g1
sg17
g8
((lp1039
g932
ag1022
atRp1040
sbatRp1041
sg71
I00
sbag1005
atRp1042
sg24
g25
sg13
g1
sbatRp1043
sg95
g8
((lp1044
(iccpnmr.chemBuild.model.Bond
Bond
p1045
(dp1046
g99
Nsg100
g101
sg24
g25
sg13
g1
sg17
g8
((lp1047
g932
ag1005
atRp1048
sbatRp1049
sg71
I00
sbag238
ag1022
atRp1050
sg15
S'C'
sg61
I0
sg16
I00
sg62
(F-186.86616603250206
F-201.72083283884461
F0
tp1051
sg64
(lp1052
sg66
(iccpnmr.chemBuild.model.Atom
Atom
p1053
(dp1054
g3
g935
sg13
g1
sg14
I4
sg15
S'C'
sg16
I00
sg17
g8
((lp1055
g932
atRp1056
sg71
I00
sbsg72
g8
((ltRp1057
sg95
g8
((lp1058
g1045
ag996
a(iccpnmr.chemBuild.model.Bond
Bond
p1059
(dp1060
g99
Nsg100
g217
sg24
g25
sg13
g1
sg17
g8
((lp1061
g932
ag238
atRp1062
sbag1037
atRp1063
sg71
I00
sbag235
a(iccpnmr.chemBuild.model.VarAtom
VarAtom
p1064
(dp1065
g21
(lp1066
sg3
S'C18'
p1067
sg23
I00
sg24
g25
sg13
g1
sg34
Nsg35
g8
((lp1068
(iccpnmr.chemBuild.model.VarAtom
VarAtom
p1069
(dp1070
g21
(lp1071
sg3
S'H18_3'
p1072
sg23
I00
sg24
g25
sg13
g1
sg34
Nsg35
g8
((lp1073
g1064
atRp1074
sg15
S'H'
sg61
I0
sg16
I00
sg62
(F-167.58855285812263
F-276.69746885455748
F0
tp1075
sg64
(lp1076
sg66
(iccpnmr.chemBuild.model.Atom
Atom
p1077
(dp1078
g3
g1072
sg13
g1
sg14
I1
sg15
S'H'
sg16
I00
sg17
g8
((lp1079
g1069
atRp1080
sg71
I00
sbsg72
g8
((lp1081
(iccpnmr.chemBuild.model.AtomGroup
AtomGroup
p1082
(dp1083
g76
g418
sg78
g8
((ltRp1084
sg17
g8
((lp1085
g1069
a(iccpnmr.chemBuild.model.VarAtom
VarAtom
p1086
(dp1087
g21
(lp1088
sg3
S'H18_2'
p1089
sg23
I00
sg24
g25
sg13
g1
sg34
Nsg35
g8
((lp1090
g1064
atRp1091
sg15
S'H'
sg61
I0
sg16
I00
sg62
(F-105.84054597936975
F-260.80678858052585
F0
tp1092
sg64
(lp1093
sg66
(iccpnmr.chemBuild.model.Atom
Atom
p1094
(dp1095
g3
g1089
sg13
g1
sg14
I1
sg15
S'H'
sg16
I00
sg17
g8
((lp1096
g1086
atRp1097
sg71
I00
sbsg72
g8
((lp1098
g1082
atRp1099
sg95
g8
((lp1100
(iccpnmr.chemBuild.model.Bond
Bond
p1101
(dp1102
g99
Nsg100
g101
sg24
g25
sg13
g1
sg17
g8
((lp1103
g1086
ag1064
atRp1104
sbatRp1105
sg71
I00
sba(iccpnmr.chemBuild.model.VarAtom
VarAtom
p1106
(dp1107
g21
(lp1108
sg3
S'H18_1'
p1109
sg23
I00
sg24
g25
sg13
g1
sg34
Nsg35
g8
((lp1110
g1064
atRp1111
sg15
S'H'
sg61
I0
sg16
I00
sg62
(F-133.91663960061729
F-289.42755585015732
F0
tp1112
sg64
(lp1113
sg66
(iccpnmr.chemBuild.model.Atom
Atom
p1114
(dp1115
g3
g1109
sg13
g1
sg14
I1
sg15
S'H'
sg16
I00
sg17
g8
((lp1116
g1106
atRp1117
sg71
I00
sbsg72
g8
((lp1118
g1082
atRp1119
sg95
g8
((lp1120
(iccpnmr.chemBuild.model.Bond
Bond
p1121
(dp1122
g99
Nsg100
g101
sg24
g25
sg13
g1
sg17
g8
((lp1123
g1106
ag1064
atRp1124
sbatRp1125
sg71
I00
sbatRp1126
sg24
g25
sg13
g1
sbatRp1127
sg95
g8
((lp1128
(iccpnmr.chemBuild.model.Bond
Bond
p1129
(dp1130
g99
Nsg100
g101
sg24
g25
sg13
g1
sg17
g8
((lp1131
g1069
ag1064
atRp1132
sbatRp1133
sg71
I00
sbag1086
ag1106
ag238
atRp1134
sg15
S'C'
sg61
I0
sg16
I00
sg62
(F-133.79214823436561
F-246.6605248488188
F0
tp1135
sg64
(lp1136
sg66
(iccpnmr.chemBuild.model.Atom
Atom
p1137
(dp1138
g3
g1067
sg13
g1
sg14
I4
sg15
S'C'
sg16
I00
sg17
g8
((lp1139
g1064
atRp1140
sg71
I00
sbsg72
g8
((ltRp1141
sg95
g8
((lp1142
(iccpnmr.chemBuild.model.Bond
Bond
p1143
(dp1144
g99
Nsg100
g217
sg24
g25
sg13
g1
sg17
g8
((lp1145
g238
ag1064
atRp1146
sbag1129
ag1101
ag1121
atRp1147
sg71
I00
sbasg3
S'C13'
p1148
sg23
I00
sg24
g25
sg13
g1
sg34
Nsg35
g8
((lp1149
g932
ag241
ag235
ag1064
atRp1150
sg15
S'C'
sg61
I0
sg16
I00
sg62
(F-139.39369893698688
F-185.11625587669874
F0
tp1151
sg64
(lp1152
sg66
(iccpnmr.chemBuild.model.Atom
Atom
p1153
(dp1154
g3
g1148
sg13
g1
sg14
I4
sg15
S'C'
sg16
I00
sg17
g8
((lp1155
g238
atRp1156
sg71
I00
sbsg72
g8
((ltRp1157
sg95
g8
((lp1158
(iccpnmr.chemBuild.model.Bond
Bond
p1159
(dp1160
g99
Nsg100
g217
sg24
g25
sg13
g1
sg17
g8
((lp1161
g238
ag235
atRp1162
sbag927
ag1143
ag1059
atRp1163
sg71
I00
sbag19
ag268
ag124
asg3
S'C14'
p1164
sg23
I00
sg24
g25
sg13
g1
sg34
Nsg35
g8
((lp1165
g124
ag268
ag19
ag238
atRp1166
sg15
S'C'
sg61
I0
sg16
I00
sg62
(F-134.99893539961278
F-130.73657659151135
F0
tp1167
sg64
(lp1168
sg66
(iccpnmr.chemBuild.model.Atom
Atom
p1169
(dp1170
g3
g1164
sg13
g1
sg14
I4
sg15
S'C'
sg16
I00
sg17
g8
((lp1171
g235
atRp1172
sg71
I00
sbsg72
g8
((ltRp1173
sg95
g8
((lp1174
(iccpnmr.chemBuild.model.Bond
Bond
p1175
(dp1176
g99
Nsg100
g217
sg24
g25
sg13
g1
sg17
g8
((lp1177
g124
ag235
atRp1178
sba(iccpnmr.chemBuild.model.Bond
Bond
p1179
(dp1180
g99
Nsg100
g101
sg24
g25
sg13
g1
sg17
g8
((lp1181
g19
ag235
atRp1182
sbag1159
ag327
atRp1183
sg71
I00
sba(iccpnmr.chemBuild.model.VarAtom
VarAtom
p1184
(dp1185
g21
(lp1186
sg3
S'H8'
p1187
sg23
I00
sg24
g25
sg13
g1
sg34
Nsg35
g8
((lp1188
g124
atRp1189
sg15
S'H'
sg61
I0
sg16
I00
sg62
(F-192.67468030121026
F-138.47969840293291
F0
tp1190
sg64
(lp1191
sg66
(iccpnmr.chemBuild.model.Atom
Atom
p1192
(dp1193
g3
g1187
sg13
g1
sg14
I1
sg15
S'H'
sg16
I00
sg17
g8
((lp1194
g1184
atRp1195
sg71
I00
sbsg72
g8
((ltRp1196
sg95
g8
((lp1197
(iccpnmr.chemBuild.model.Bond
Bond
p1198
(dp1199
g99
Nsg100
g101
sg24
g25
sg13
g1
sg17
g8
((lp1200
g124
ag1184
atRp1201
sbatRp1202
sg71
I00
sbasg3
S'C8'
p1203
sg23
I00
sg24
g25
sg13
g1
sg34
Nsg35
g8
((lp1204
g121
ag1184
ag235
ag127
atRp1205
sg15
S'C'
sg61
I0
sg16
I00
sg62
(F-186.49690859064418
F-96.12535432789106
F0
tp1206
sg64
(lp1207
sg66
(iccpnmr.chemBuild.model.Atom
Atom
p1208
(dp1209
g3
g1203
sg13
g1
sg14
I4
sg15
S'C'
sg16
I00
sg17
g8
((lp1210
g124
atRp1211
sg71
I00
sbsg72
g8
((ltRp1212
sg95
g8
((lp1213
g1175
a(iccpnmr.chemBuild.model.Bond
Bond
p1214
(dp1215
g99
Nsg100
g217
sg24
g25
sg13
g1
sg17
g8
((lp1216
g124
ag121
atRp1217
sbag1198
ag230
atRp1218
sg71
I00
sba(iccpnmr.chemBuild.model.VarAtom
VarAtom
p1219
(dp1220
g21
(lp1221
sg3
S'H9'
p1222
sg23
I00
sg24
g25
sg13
g1
sg34
Nsg35
g8
((lp1223
g121
atRp1224
sg15
S'H'
sg61
I0
sg16
I00
sg62
(F-238.18856363109202
F-83.788729471853657
F0
tp1225
sg64
(lp1226
sg66
(iccpnmr.chemBuild.model.Atom
Atom
p1227
(dp1228
g3
g1222
sg13
g1
sg14
I1
sg15
S'H'
sg16
I00
sg17
g8
((lp1229
g1219
atRp1230
sg71
I00
sbsg72
g8
((ltRp1231
sg95
g8
((lp1232
(iccpnmr.chemBuild.model.Bond
Bond
p1233
(dp1234
g99
Nsg100
g101
sg24
g25
sg13
g1
sg17
g8
((lp1235
g1219
ag121
atRp1236
sbatRp1237
sg71
I00
sbag118
ag937
asg3
S'C9'
p1238
sg23
I00
sg24
g25
sg13
g1
sg34
Nsg35
g8
((lp1239
g124
ag937
ag1219
ag118
atRp1240
sg15
S'C'
sg61
I0
sg16
I00
sg62
(F-243.35314861257191
F-120.93356355034055
F0
tp1241
sg64
(lp1242
sg66
(iccpnmr.chemBuild.model.Atom
Atom
p1243
(dp1244
g3
g1238
sg13
g1
sg14
I4
sg15
S'C'
sg16
I00
sg17
g8
((lp1245
g121
atRp1246
sg71
I00
sbsg72
g8
((ltRp1247
sg95
g8
((lp1248
g1214
ag1233
ag1000
a(iccpnmr.chemBuild.model.Bond
Bond
p1249
(dp1250
g99
Nsg100
g217
sg24
g25
sg13
g1
sg17
g8
((lp1251
g118
ag121
atRp1252
sbatRp1253
sg71
I00
sbag113
ag37
a(iccpnmr.chemBuild.model.VarAtom
VarAtom
p1254
(dp1255
g21
(lp1256
sg3
S'C19'
p1257
sg23
I00
sg24
g25
sg13
g1
sg34
Nsg35
g8
((lp1258
(iccpnmr.chemBuild.model.VarAtom
VarAtom
p1259
(dp1260
g21
(lp1261
sg3
S'H19_1'
p1262
sg23
I00
sg24
g25
sg13
g1
sg34
Nsg35
g8
((lp1263
g1254
atRp1264
sg15
S'H'
sg61
I0
sg16
I00
sg62
(F-309.28311519063163
F-152.36255234741782
F0
tp1265
sg64
(lp1266
sg66
(iccpnmr.chemBuild.model.Atom
Atom
p1267
(dp1268
g3
g1262
sg13
g1
sg14
I1
sg15
S'H'
sg16
I00
sg17
g8
((lp1269
g1259
atRp1270
sg71
I00
sbsg72
g8
((lp1271
(iccpnmr.chemBuild.model.AtomGroup
AtomGroup
p1272
(dp1273
g76
g418
sg78
g8
((ltRp1274
sg17
g8
((lp1275
g1259
a(iccpnmr.chemBuild.model.VarAtom
VarAtom
p1276
(dp1277
g21
(lp1278
sg3
S'H19_2'
p1279
sg23
I00
sg24
g25
sg13
g1
sg34
Nsg35
g8
((lp1280
g1254
atRp1281
sg15
S'H'
sg61
I0
sg16
I00
sg62
(F-367.66033566079233
F-147.06967416280801
F0
tp1282
sg64
(lp1283
sg66
(iccpnmr.chemBuild.model.Atom
Atom
p1284
(dp1285
g3
g1279
sg13
g1
sg14
I1
sg15
S'H'
sg16
I00
sg17
g8
((lp1286
g1276
atRp1287
sg71
I00
sbsg72
g8
((lp1288
g1272
atRp1289
sg95
g8
((lp1290
(iccpnmr.chemBuild.model.Bond
Bond
p1291
(dp1292
g99
Nsg100
g101
sg24
g25
sg13
g1
sg17
g8
((lp1293
g1276
ag1254
atRp1294
sbatRp1295
sg71
I00
sba(iccpnmr.chemBuild.model.VarAtom
VarAtom
p1296
(dp1297
g21
(lp1298
sg3
S'H19_3'
p1299
sg23
I00
sg24
g25
sg13
g1
sg34
Nsg35
g8
((lp1300
g1254
atRp1301
sg15
S'H'
sg61
I0
sg16
I00
sg62
(F-345.08955654738924
F-170.6907117195214
F0
tp1302
sg64
(lp1303
sg66
(iccpnmr.chemBuild.model.Atom
Atom
p1304
(dp1305
g3
g1299
sg13
g1
sg14
I1
sg15
S'H'
sg16
I00
sg17
g8
((lp1306
g1296
atRp1307
sg71
I00
sbsg72
g8
((lp1308
g1272
atRp1309
sg95
g8
((lp1310
(iccpnmr.chemBuild.model.Bond
Bond
p1311
(dp1312
g99
Nsg100
g101
sg24
g25
sg13
g1
sg17
g8
((lp1313
g1296
ag1254
atRp1314
sbatRp1315
sg71
I00
sbatRp1316
sg24
g25
sg13
g1
sbatRp1317
sg95
g8
((lp1318
(iccpnmr.chemBuild.model.Bond
Bond
p1319
(dp1320
g99
Nsg100
g101
sg24
g25
sg13
g1
sg17
g8
((lp1321
g1259
ag1254
atRp1322
sbatRp1323
sg71
I00
sbag118
ag1276
ag1296
atRp1324
sg15
S'C'
sg61
I0
sg16
I00
sg62
(F-330.12885904922013
F-134.17154797353962
F0
tp1325
sg64
(lp1326
sg66
(iccpnmr.chemBuild.model.Atom
Atom
p1327
(dp1328
g3
g1257
sg13
g1
sg14
I4
sg15
S'C'
sg16
I00
sg17
g8
((lp1329
g1254
atRp1330
sg71
I00
sbsg72
g8
((ltRp1331
sg95
g8
((lp1332
g1311
ag1291
a(iccpnmr.chemBuild.model.Bond
Bond
p1333
(dp1334
g99
Nsg100
g101
sg24
g25
sg13
g1
sg17
g8
((lp1335
g118
ag1254
atRp1336
sbag1319
atRp1337
sg71
I00
sbasg3
S'C10'
p1338
sg23
I00
sg24
g25
sg13
g1
sg34
Nsg35
g8
((lp1339
g37
ag113
ag121
ag1254
atRp1340
sg15
S'C'
sg61
I0
sg16
I00
sg62
(F-302.17678115797315
F-81.098629804908128
F0
tp1341
sg64
(lp1342
sg66
(iccpnmr.chemBuild.model.Atom
Atom
p1343
(dp1344
g3
g1338
sg13
g1
sg14
I4
sg15
S'C'
sg16
I00
sg17
g8
((lp1345
g118
atRp1346
sg71
I00
sbsg72
g8
((ltRp1347
sg95
g8
((lp1348
g1333
a(iccpnmr.chemBuild.model.Bond
Bond
p1349
(dp1350
g99
Nsg100
g217
sg24
g25
sg13
g1
sg17
g8
((lp1351
g118
ag37
atRp1352
sba(iccpnmr.chemBuild.model.Bond
Bond
p1353
(dp1354
g99
Nsg100
g217
sg24
g25
sg13
g1
sg17
g8
((lp1355
g118
ag113
atRp1356
sbag1249
atRp1357
sg71
I00
sbag177
ag50
atRp1358
sg15
S'C'
sg61
I0
sg16
I00
sg62
(F-272.91720011512064
F-32.899998634141696
F0
tp1359
sg64
(lp1360
sg66
(iccpnmr.chemBuild.model.Atom
Atom
p1361
(dp1362
g3
g116
sg13
g1
sg14
I4
sg15
S'C'
sg16
I00
sg17
g8
((lp1363
g113
atRp1364
sg71
I00
sbsg72
g8
((ltRp1365
sg95
g8
((lp1366
g210
a(iccpnmr.chemBuild.model.Bond
Bond
p1367
(dp1368
g99
Nsg100
g217
sg24
g25
sg13
g1
sg17
g8
((lp1369
g113
ag50
atRp1370
sbag1353
atRp1371
sg71
I00
sbag81
ag47
atRp1372
sg15
S'C'
sg61
I0
sg16
I00
sg62
(F-305.72854813215349
F15.521194813989203
F0
tp1373
sg64
(lp1374
sg66
(iccpnmr.chemBuild.model.Atom
Atom
p1375
(dp1376
g3
g53
sg13
g1
sg14
I4
sg15
S'C'
sg16
I00
sg17
g8
((lp1377
g50
atRp1378
sg71
I00
sbsg72
g8
((ltRp1379
sg95
g8
((lp1380
g108
a(iccpnmr.chemBuild.model.Bond
Bond
p1381
(dp1382
g99
Nsg100
g217
sg24
g25
sg13
g1
sg17
g8
((lp1383
g47
ag50
atRp1384
sbag1367
ag97
atRp1385
sg71
I00
sba(iccpnmr.chemBuild.model.VarAtom
VarAtom
p1386
(dp1387
g21
(lp1388
sg3
S'H3'
p1389
sg23
I00
sg24
g25
sg13
g1
sg34
Nsg35
g8
((lp1390
g47
atRp1391
sg15
S'H'
sg61
I0
sg16
I00
sg62
(F-358.72626167485856
F54.803483674902495
F0
tp1392
sg64
(lp1393
sg66
(iccpnmr.chemBuild.model.Atom
Atom
p1394
(dp1395
g3
g1389
sg13
g1
sg14
I1
sg15
S'H'
sg16
I00
sg17
g8
((lp1396
g1386
atRp1397
sg71
I00
sbsg72
g8
((ltRp1398
sg95
g8
((lp1399
(iccpnmr.chemBuild.model.Bond
Bond
p1400
(dp1401
g99
Nsg100
g101
sg24
g25
sg13
g1
sg17
g8
((lp1402
g1386
ag47
atRp1403
sbatRp1404
sg71
I00
sbag42
a(iccpnmr.chemBuild.model.VarAtom
VarAtom
p1405
(dp1406
g21
(lp1407
sg3
VO3
p1408
sg23
I00
sg24
g25
sg13
g1
sg34
Nsg35
g8
((lp1409
g47
a(iccpnmr.chemBuild.model.VarAtom
VarAtom
p1410
(dp1411
g21
(lp1412
sg3
VHO3
p1413
sg23
I01
sg24
g25
sg13
g1
sg34
Nsg35
g8
((lp1414
g1405
atRp1415
sg15
S'H'
sg61
I0
sg16
I00
sg62
(F-436.694723035251
F64.377287778473004
F0
tp1416
sg64
(lp1417
sg66
(iccpnmr.chemBuild.model.Atom
Atom
p1418
(dp1419
g3
g1413
sg13
g1
sg14
I1
sg15
S'H'
sg16
I00
sg17
g8
((lp1420
g1410
atRp1421
sg71
I00
sbsg72
g8
((ltRp1422
sg95
g8
((lp1423
(iccpnmr.chemBuild.model.Bond
Bond
p1424
(dp1425
g99
Nsg100
g101
sg24
g25
sg13
g1
sg17
g8
((lp1426
g1405
ag1410
atRp1427
sbatRp1428
sg71
I00
sbatRp1429
sg15
S'O'
sg61
I0
sg16
I00
sg62
(F-405.47734721028036
F42.566598002164362
F0
tp1430
sg64
(lp1431
sg66
(iccpnmr.chemBuild.model.Atom
Atom
p1432
(dp1433
g3
g1408
sg13
g1
sg14
I2
sg15
S'O'
sg16
I00
sg17
g8
((lp1434
g1405
atRp1435
sg71
I00
sbsg72
g8
((ltRp1436
sg95
g8
((lp1437
(iccpnmr.chemBuild.model.Bond
Bond
p1438
(dp1439
g99
Nsg100
g101
sg24
g25
sg13
g1
sg17
g8
((lp1440
g47
ag1405
atRp1441
sbag1424
atRp1442
sg71
I00
sbasg3
S'C3'
p1443
sg23
I00
sg24
g25
sg13
g1
sg34
Nsg35
g8
((lp1444
g42
ag50
ag1405
ag1386
atRp1445
sg15
S'C'
sg61
I0
sg16
I00
sg62
(F-361.16013985580128
F16.441848144723355
F0
tp1446
sg64
(lp1447
sg66
(iccpnmr.chemBuild.model.Atom
Atom
p1448
(dp1449
g3
g1443
sg13
g1
sg14
I4
sg15
S'C'
sg16
I00
sg17
g8
((lp1450
g47
atRp1451
sg71
I00
sbsg72
g8
((ltRp1452
sg95
g8
((lp1453
g1381
a(iccpnmr.chemBuild.model.Bond
Bond
p1454
(dp1455
g99
Nsg100
g217
sg24
g25
sg13
g1
sg17
g8
((lp1456
g42
ag47
atRp1457
sbag1400
ag1438
atRp1458
sg71
I00
sbag37
a(iccpnmr.chemBuild.model.VarAtom
VarAtom
p1459
(dp1460
g21
(lp1461
sg3
S'H2_2'
p1462
sg23
I00
sg24
g25
sg13
g1
sg34
Nsg35
g8
((lp1463
g42
atRp1464
sg15
S'H'
sg61
I0
sg16
I00
sg62
(F-418.74049292492185
F-14.385255818602371
F0
tp1465
sg64
(lp1466
sg66
(iccpnmr.chemBuild.model.Atom
Atom
p1467
(dp1468
g3
g1462
sg13
g1
sg14
I1
sg15
S'H'
sg16
I00
sg17
g8
((lp1469
g1459
atRp1470
sg71
I00
sbsg72
g8
((lp1471
(iccpnmr.chemBuild.model.AtomGroup
AtomGroup
p1472
(dp1473
g76
g77
sg78
g8
((ltRp1474
sg17
g8
((lp1475
g1459
a(iccpnmr.chemBuild.model.VarAtom
VarAtom
p1476
(dp1477
g21
(lp1478
sg3
S'H2_1'
p1479
sg23
I00
sg24
g25
sg13
g1
sg34
Nsg35
g8
((lp1480
g42
atRp1481
sg15
S'H'
sg61
I0
sg16
I00
sg62
(F-411.86517592429612
F-57.228570032781491
F0
tp1482
sg64
(lp1483
sg66
(iccpnmr.chemBuild.model.Atom
Atom
p1484
(dp1485
g3
g1479
sg13
g1
sg14
I1
sg15
S'H'
sg16
I00
sg17
g8
((lp1486
g1476
atRp1487
sg71
I00
sbsg72
g8
((lp1488
g1472
atRp1489
sg95
g8
((lp1490
(iccpnmr.chemBuild.model.Bond
Bond
p1491
(dp1492
g99
Nsg100
g101
sg24
g25
sg13
g1
sg17
g8
((lp1493
g42
ag1476
atRp1494
sbatRp1495
sg71
I00
sbatRp1496
sg24
g25
sg13
g1
sbatRp1497
sg95
g8
((lp1498
(iccpnmr.chemBuild.model.Bond
Bond
p1499
(dp1500
g99
Nsg100
g101
sg24
g25
sg13
g1
sg17
g8
((lp1501
g42
ag1459
atRp1502
sbatRp1503
sg71
I00
sbag1476
atRp1504
sg15
S'C'
sg61
I0
sg16
I00
sg62
(F-383.40995776714362
F-30.510307930962899
F0
tp1505
sg64
(lp1506
sg66
(iccpnmr.chemBuild.model.Atom
Atom
p1507
(dp1508
g3
g45
sg13
g1
sg14
I4
sg15
S'C'
sg16
I00
sg17
g8
((lp1509
g42
atRp1510
sg71
I00
sbsg72
g8
((ltRp1511
sg95
g8
((lp1512
g1454
ag1491
a(iccpnmr.chemBuild.model.Bond
Bond
p1513
(dp1514
g99
Nsg100
g217
sg24
g25
sg13
g1
sg17
g8
((lp1515
g42
ag37
atRp1516
sbag1499
atRp1517
sg71
I00
sba(iccpnmr.chemBuild.model.VarAtom
VarAtom
p1518
(dp1519
g21
(lp1520
sg3
S'H1_2'
p1521
sg23
I00
sg24
g25
sg13
g1
sg34
Nsg35
g8
((lp1522
g37
atRp1523
sg15
S'H'
sg61
I0
sg16
I00
sg62
(F-390.94539654502148
F-93.163466682554613
F0
tp1524
sg64
(lp1525
sg66
(iccpnmr.chemBuild.model.Atom
Atom
p1526
(dp1527
g3
g1521
sg13
g1
sg14
I1
sg15
S'H'
sg16
I00
sg17
g8
((lp1528
g1518
atRp1529
sg71
I00
sbsg72
g8
((lp1530
(iccpnmr.chemBuild.model.AtomGroup
AtomGroup
p1531
(dp1532
g76
g77
sg78
g8
((ltRp1533
sg17
g8
((lp1534
g1518
ag30
atRp1535
sg24
g25
sg13
g1
sbatRp1536
sg95
g8
((lp1537
(iccpnmr.chemBuild.model.Bond
Bond
p1538
(dp1539
g99
Nsg100
g101
sg24
g25
sg13
g1
sg17
g8
((lp1540
g1518
ag37
atRp1541
sbatRp1542
sg71
I00
sbag30
ag118
atRp1543
sg15
S'C'
sg61
I0
sg16
I00
sg62
(F-357.98388138707719
F-74.401254664561662
F0
tp1544
sg64
(lp1545
sg66
(iccpnmr.chemBuild.model.Atom
Atom
p1546
(dp1547
g3
g40
sg13
g1
sg14
I4
sg15
S'C'
sg16
I00
sg17
g8
((lp1548
g37
atRp1549
sg71
I00
sbsg72
g8
((ltRp1550
sg95
g8
((lp1551
(iccpnmr.chemBuild.model.Bond
Bond
p1552
(dp1553
g99
Nsg100
g101
sg24
g25
sg13
g1
sg17
g8
((lp1554
g37
ag30
atRp1555
sbag1538
ag1349
ag1513
atRp1556
sg71
I00
sbatRp1557
sg15
S'H'
sg61
I0
sg16
I00
sg62
(F-367.55565633742685
F-110.11264945073373
F0
tp1558
sg64
(lp1559
sg66
(iccpnmr.chemBuild.model.Atom
Atom
p1560
(dp1561
g3
g33
sg13
g1
sg14
I1
sg15
S'H'
sg16
I00
sg17
g8
((lp1562
g30
atRp1563
sg71
I00
sbsg72
g8
((lp1564
g1531
atRp1565
sg95
g8
((lp1566
g1552
atRp1567
sg71
I00
sbag590
ag498
ag881
ag1459
ag421
ag1518
ag81
ag244
ag674
ag1259
ag1276
ag822
ag1005
ag55
ag19
ag553
ag515
ag942
ag353
ag132
ag780
ag441
ag654
ag273
ag1086
ag839
ag1069
ag1022
ag1106
ag1476
ag182
ag1410
ag570
ag959
ag149
ag336
ag403
ag637
ag1386
ag716
ag1184
ag290
ag1219
ag1296
ag763
atRp1568
sS'C'
g8
((lp1569
g241
ag937
ag488
ag121
ag543
ag124
ag118
ag113
ag483
ag1064
ag238
ag268
ag177
ag50
ag42
ag127
ag235
ag47
ag395
ag398
ag1254
ag632
ag37
ag932
ag263
ag548
ag493
atRp1570
sS'O'
g8
((lp1571
g1405
atRp1572
ssg95
g8
((lp1573
g172
ag331
ag258
ag876
ag478
ag744
ag697
ag108
ag210
ag215
ag368
ag1349
ag996
ag1438
ag1513
ag1333
ag803
ag585
ag327
ag1143
ag1129
ag1249
ag627
ag313
ag1037
ag1000
ag1367
ag1424
ag230
ag1381
ag1159
ag436
ag1311
ag1454
ag689
ag1059
ag1045
ag982
ag974
ag911
ag605
ag1400
ag795
ag1179
ag1491
ag669
ag1214
ag538
ag164
ag1101
ag530
ag1233
ag97
ag376
ag456
ag1319
ag1499
ag817
ag390
ag711
ag1175
ag1291
ag895
ag758
ag730
ag464
ag854
ag196
ag862
ag305
ag1552
ag613
ag1198
ag927
ag1353
ag1121
ag1538
atRp1574
sg13
g1
sS'descriptor'
p1575
(S'neutral'
S'none'
S'default'
tp1576
sS'atomDict'
p1577
(dp1578
g10
g19
sg811
g488
sg1192
g1184
sg682
g674
sg950
g942
sg990
g937
sg157
g149
sg1137
g1064
sg344
g336
sg298
g290
sg1432
g1405
sg1114
g1106
sg1077
g1069
sg1284
g1276
sg1361
g113
sg1304
g1296
sg1327
g1254
sg1053
g932
sg889
g881
sg578
g570
sg724
g716
sg621
g548
sg1208
g124
sg506
g498
sg67
g55
sg771
g763
sg252
g244
sg1448
g47
sg89
g81
sg1394
g1386
sg1227
g1219
sg967
g959
sg830
g822
sg1560
g30
sg905
g395
sg1375
g50
sg224
g127
sg1030
g1022
sg598
g590
sg738
g543
sg561
g553
sg204
g177
sg523
g515
sg752
g493
sg429
g421
sg788
g780
sg1343
g118
sg1267
g1259
sg662
g654
sg921
g241
sg1169
g235
sg449
g441
sg1094
g1086
sg847
g839
sg281
g273
sg1484
g1476
sg1013
g1005
sg190
g182
sg705
g632
sg472
g398
sg1546
g37
sg1243
g121
sg321
g268
sg361
g353
sg870
g483
sg384
g263
sg645
g637
sg1507
g42
sg1153
g238
sg140
g132
sg1418
g1410
sg411
g403
sg1467
g1459
sg1526
g1518
ssg17
g8
((lp1579
g1410
ag1476
ag30
ag395
ag590
ag498
ag881
ag121
ag19
ag421
ag1518
ag241
ag763
ag118
ag244
ag674
ag937
ag1259
ag113
ag1276
ag483
ag822
ag932
ag55
ag124
ag238
ag543
ag268
ag515
ag942
ag353
ag50
ag1386
ag177
ag127
ag780
ag47
ag441
ag654
ag235
ag273
ag488
ag1086
ag132
ag839
ag553
ag1022
ag1005
ag1106
ag1459
ag1405
ag42
ag182
ag398
ag1254
ag570
ag632
ag959
ag149
ag1069
ag403
ag493
ag37
ag1064
ag637
ag336
ag290
ag716
ag1184
ag263
ag548
ag1219
ag1296
ag81
atRp1580
sg72
g8
((lp1581
g1018
ag650
ag835
ag566
ag145
ag416
ag511
ag1082
ag955
ag286
ag74
ag1272
ag349
ag776
ag1472
ag1531
atRp1582
sS'polyLink'
p1583
S'free'
p1584
sbsg13
g1
sg34
Nsg35
g8
((lp1585
g235
atRp1586
sg15
S'H'
sg61
I0
sg16
I00
sg62
(F-131.69885527630223
F-86.786857233343838
F0
tp1587
sg64
(lp1588
sg66
g10
sg72
g8
((ltRp1589
sg95
g8
((lp1590
g1179
atRp1591
sg71
I00
sbatRp1592
sg71
I00
sbag811
ag1192
ag682
ag950
ag990
ag157
ag1137
ag344
ag298
ag1432
ag1114
ag1077
ag1284
ag1361
ag1304
ag1327
ag1053
ag889
ag578
ag724
ag621
ag1208
ag506
ag67
ag771
ag252
ag1448
ag89
ag1394
ag1227
ag967
ag830
ag1560
ag905
ag1375
ag224
ag1030
ag598
ag738
ag561
ag204
ag523
ag752
ag429
ag788
ag1343
ag1267
ag662
ag921
ag1169
ag449
ag1094
ag847
ag281
ag1484
ag1013
ag190
ag705
ag472
ag1546
ag1243
ag321
ag361
ag870
ag384
ag645
ag1507
ag1153
ag140
ag1418
ag411
ag1467
ag1526
atRp1593
sS'ccpMolType'
p1594
S'other'
p1595
sS'details'
p1596
V
sg1577
(dp1597
g152
g157
sg842
g847
sg825
g830
sg719
g724
sg884
g889
sg1257
g1327
sg135
g140
sg1148
g1153
sg935
g1053
sg940
g990
sg1338
g1343
sg1408
g1432
sg266
g384
sg271
g321
sg783
g788
sg406
g411
sg573
g578
sg424
g429
sg556
g561
sg84
g89
sg58
g67
sg916
g921
sg1238
g1243
sg1203
g1208
sg1072
g1077
sg1413
g1418
sg1109
g1114
sg518
g523
sg657
g662
sg501
g506
sg640
g645
sg1164
g1169
sg130
g224
sg180
g204
sg116
g1361
sg53
g1375
sg486
g870
sg491
g811
sg900
g905
sg401
g472
sg551
g621
sg635
g705
sg496
g752
sg546
g738
sg945
g950
sg12
g10
sg593
g598
sg247
g252
sg1089
g1094
sg1443
g1448
sg766
g771
sg1462
g1467
sg1479
g1484
sg45
g1507
sg33
g1560
sg1521
g1526
sg1025
g1030
sg339
g344
sg40
g1546
sg1279
g1284
sg356
g361
sg1187
g1192
sg1222
g1227
sg276
g281
sg444
g449
sg293
g298
sg185
g190
sg1299
g1304
sg677
g682
sg1067
g1137
sg962
g967
sg1389
g1394
sg1008
g1013
sg1262
g1267
ssS'keywords'
p1598
g8
((ltRp1599
sg72
g8
((lp1600
g1018
ag650
ag835
ag566
ag145
ag416
ag511
ag1082
ag955
ag286
ag74
ag1272
ag349
ag776
ag1472
ag1531
atRp1601
sS'variants'
p1602
g8
((lp1603
g25
atRp1604
sS'defaultVars'
p1605
g8
((ltRp1606
sb.