(imodel.Compound
Compound
p1
(dp2
S'name'
p3
VDioleoylphosphatidylcholine
p4
sS'ccpCode'
p5
Vdopc
p6
sS'atoms'
p7
c__builtin__
set
p8
((lp9
(imodel.Atom
Atom
p10
(dp11
g3
VH17A_1
p12
sS'compound'
p13
g1
sS'element'
p14
S'H'
sS'isVariable'
p15
I00
sS'varAtoms'
p16
g8
((lp17
(imodel.VarAtom
VarAtom
p18
(dp19
g3
g12
sS'isLabile'
p20
I00
sS'chirality'
p21
NsS'atom'
p22
g10
sS'variant'
p23
(imodel.Variant
Variant
p24
(dp25
S'elementDict'
p26
(dp27
S'P'
g8
((lp28
(imodel.VarAtom
VarAtom
p29
(dp30
g3
S'P1'
p31
sg20
I00
sg21
Nsg22
(imodel.Atom
Atom
p32
(dp33
g3
g31
sg13
g1
sg14
S'P'
sg15
I00
sg16
g8
((lp34
g29
atRp35
sS'isDeleted'
p36
I00
sbsg23
g24
sS'neighbours'
p37
g8
((lp38
(imodel.VarAtom
VarAtom
p39
(dp40
g3
VOP1
p41
sg20
I00
sg21
Nsg22
(imodel.Atom
Atom
p42
(dp43
g3
g41
sg13
g1
sg14
S'O'
sg15
I00
sg16
g8
((lp44
g39
atRp45
sg36
I00
sbsg23
g24
sg37
g8
((lp46
g29
atRp47
sg14
S'O'
sS'charge'
p48
I-1
sg15
I00
sS'coords'
p49
(F-22.169169945413387
F94.241099524695755
F1.7222412074098596
tp50
sS'freeValences'
p51
(lp52
sg13
g1
sS'atomGroups'
p53
g8
((ltRp54
sS'bonds'
p55
g8
((lp56
(imodel.Bond
Bond
p57
(dp58
g13
g1
sS'bondType'
p59
S'single'
p60
sg23
g24
sg16
g8
((lp61
g29
ag39
atRp62
sbatRp63
sg36
I00
sba(imodel.VarAtom
VarAtom
p64
(dp65
g3
VO3
p66
sg20
I00
sg21
Nsg22
(imodel.Atom
Atom
p67
(dp68
g3
g66
sg13
g1
sg14
S'O'
sg15
I00
sg16
g8
((lp69
g64
atRp70
sg36
I00
sbsg23
g24
sg37
g8
((lp71
g29
a(imodel.VarAtom
VarAtom
p72
(dp73
g3
VC3
p74
sg20
I00
sg21
Nsg22
(imodel.Atom
Atom
p75
(dp76
g3
g74
sg13
g1
sg14
S'C'
sg15
I00
sg16
g8
((lp77
g72
atRp78
sg36
I00
sbsg23
g24
sg37
g8
((lp79
g64
a(imodel.VarAtom
VarAtom
p80
(dp81
g3
VH3_1
p82
sg20
I00
sg21
Nsg22
(imodel.Atom
Atom
p83
(dp84
g3
g82
sg13
g1
sg14
S'H'
sg15
I00
sg16
g8
((lp85
g80
atRp86
sg36
I00
sbsg23
g24
sg37
g8
((lp87
g72
atRp88
sg14
S'H'
sg48
I0
sg15
I00
sg49
(F46.684288652637974
F79.59640645000195
F1.6307731674232369
tp89
sg51
(lp90
sg13
g1
sg53
g8
((lp91
(imodel.AtomGroup
AtomGroup
p92
(dp93
S'groupType'
p94
S'prochiral'
p95
sS'subGroups'
p96
g8
((ltRp97
sg16
g8
((lp98
g80
a(imodel.VarAtom
VarAtom
p99
(dp100
g3
VH3_2
p101
sg20
I00
sg21
Nsg22
(imodel.Atom
Atom
p102
(dp103
g3
g101
sg13
g1
sg14
S'H'
sg15
I00
sg16
g8
((lp104
g99
atRp105
sg36
I00
sbsg23
g24
sg37
g8
((lp106
g72
atRp107
sg14
S'H'
sg48
I0
sg15
I00
sg49
(F76.75494757809463
F156.0106938202876
F3.0355518295273773
tp108
sg51
(lp109
sg13
g1
sg53
g8
((lp110
g92
atRp111
sg55
g8
((lp112
(imodel.Bond
Bond
p113
(dp114
g13
g1
sg59
g60
sg23
g24
sg16
g8
((lp115
g72
ag99
atRp116
sbatRp117
sg36
I00
sbatRp118
sg23
g24
sg13
g1
sbatRp119
sg55
g8
((lp120
(imodel.Bond
Bond
p121
(dp122
g13
g1
sg59
g60
sg23
g24
sg16
g8
((lp123
g72
ag80
atRp124
sbatRp125
sg36
I00
sba(imodel.VarAtom
VarAtom
p126
(dp127
g3
VC2
p128
sg20
I00
sg21
Nsg22
(imodel.Atom
Atom
p129
(dp130
g3
g128
sg13
g1
sg14
S'C'
sg15
I00
sg16
g8
((lp131
g126
atRp132
sg36
I00
sbsg23
g24
sg37
g8
((lp133
(imodel.VarAtom
VarAtom
p134
(dp135
g3
VO2
p136
sg20
I00
sg21
Nsg22
(imodel.Atom
Atom
p137
(dp138
g3
g136
sg13
g1
sg14
S'O'
sg15
I00
sg16
g8
((lp139
g134
atRp140
sg36
I00
sbsg23
g24
sg37
g8
((lp141
g126
a(imodel.VarAtom
VarAtom
p142
(dp143
g3
VC1B
p144
sg20
I00
sg21
Nsg22
(imodel.Atom
Atom
p145
(dp146
g3
g144
sg13
g1
sg14
S'C'
sg15
I00
sg16
g8
((lp147
g142
atRp148
sg36
I00
sbsg23
g24
sg37
g8
((lp149
g134
a(imodel.VarAtom
VarAtom
p150
(dp151
g3
VO1B
p152
sg20
I00
sg21
Nsg22
(imodel.Atom
Atom
p153
(dp154
g3
g152
sg13
g1
sg14
S'O'
sg15
I00
sg16
g8
((lp155
g150
atRp156
sg36
I00
sbsg23
g24
sg37
g8
((lp157
g142
atRp158
sg14
S'O'
sg48
I0
sg15
I00
sg49
(F111.50672322301682
F-30.286923589519141
F1.4700857048977169
tp159
sg51
(lp160
sg13
g1
sg53
g8
((ltRp161
sg55
g8
((lp162
(imodel.Bond
Bond
p163
(dp164
g13
g1
sg59
S'double'
p165
sg23
g24
sg16
g8
((lp166
g142
ag150
atRp167
sbatRp168
sg36
I00
sba(imodel.VarAtom
VarAtom
p169
(dp170
g3
VC2B
p171
sg20
I00
sg21
Nsg22
(imodel.Atom
Atom
p172
(dp173
g3
g171
sg13
g1
sg14
S'C'
sg15
I00
sg16
g8
((lp174
g169
atRp175
sg36
I00
sbsg23
g24
sg37
g8
((lp176
(imodel.VarAtom
VarAtom
p177
(dp178
g3
VH2B_1
p179
sg20
I00
sg21
Nsg22
(imodel.Atom
Atom
p180
(dp181
g3
g179
sg13
g1
sg14
S'H'
sg15
I00
sg16
g8
((lp182
g177
atRp183
sg36
I00
sbsg23
g24
sg37
g8
((lp184
g169
atRp185
sg14
S'H'
sg48
I0
sg15
I00
sg49
(F193.05125008512414
F-104.8315747571946
F2.7739440290999444
tp186
sg51
(lp187
sg13
g1
sg53
g8
((lp188
(imodel.AtomGroup
AtomGroup
p189
(dp190
g94
g95
sg96
g8
((ltRp191
sg16
g8
((lp192
g177
a(imodel.VarAtom
VarAtom
p193
(dp194
g3
VH2B_2
p195
sg20
I00
sg21
Nsg22
(imodel.Atom
Atom
p196
(dp197
g3
g195
sg13
g1
sg14
S'H'
sg15
I00
sg16
g8
((lp198
g193
atRp199
sg36
I00
sbsg23
g24
sg37
g8
((lp200
g169
atRp201
sg14
S'H'
sg48
I0
sg15
I00
sg49
(F146.00446916670694
F-84.664854527717864
F3.244009986919036
tp202
sg51
(lp203
sg13
g1
sg53
g8
((lp204
g189
atRp205
sg55
g8
((lp206
(imodel.Bond
Bond
p207
(dp208
g13
g1
sg59
g60
sg23
g24
sg16
g8
((lp209
g169
ag193
atRp210
sbatRp211
sg36
I00
sbatRp212
sg23
g24
sg13
g1
sbatRp213
sg55
g8
((lp214
(imodel.Bond
Bond
p215
(dp216
g13
g1
sg59
g60
sg23
g24
sg16
g8
((lp217
g169
ag177
atRp218
sbatRp219
sg36
I00
sbag142
ag193
a(imodel.VarAtom
VarAtom
p220
(dp221
g3
VC3B
p222
sg20
I00
sg21
Nsg22
(imodel.Atom
Atom
p223
(dp224
g3
g222
sg13
g1
sg14
S'C'
sg15
I00
sg16
g8
((lp225
g220
atRp226
sg36
I00
sbsg23
g24
sg37
g8
((lp227
g169
a(imodel.VarAtom
VarAtom
p228
(dp229
g3
VC4B
p230
sg20
I00
sg21
Nsg22
(imodel.Atom
Atom
p231
(dp232
g3
g230
sg13
g1
sg14
S'C'
sg15
I00
sg16
g8
((lp233
g228
atRp234
sg36
I00
sbsg23
g24
sg37
g8
((lp235
g220
a(imodel.VarAtom
VarAtom
p236
(dp237
g3
VC5B
p238
sg20
I00
sg21
Nsg22
(imodel.Atom
Atom
p239
(dp240
g3
g238
sg13
g1
sg14
S'C'
sg15
I00
sg16
g8
((lp241
g236
atRp242
sg36
I00
sbsg23
g24
sg37
g8
((lp243
(imodel.VarAtom
VarAtom
p244
(dp245
g3
VH5B_1
p246
sg20
I00
sg21
Nsg22
(imodel.Atom
Atom
p247
(dp248
g3
g246
sg13
g1
sg14
S'H'
sg15
I00
sg16
g8
((lp249
g244
atRp250
sg36
I00
sbsg23
g24
sg37
g8
((lp251
g236
atRp252
sg14
S'H'
sg48
I0
sg15
I00
sg49
(F358.84413473389077
F-105.8432555603092
F4.0922672426598066
tp253
sg51
(lp254
sg13
g1
sg53
g8
((lp255
(imodel.AtomGroup
AtomGroup
p256
(dp257
S'groupType'
p258
S'prochiral'
p259
sS'subGroups'
p260
g8
((ltRp261
sS'varAtoms'
p262
g8
((lp263
g244
a(imodel.VarAtom
VarAtom
p264
(dp265
S'name'
p266
VH5B_2
p267
sS'isLabile'
p268
I00
sS'chirality'
p269
NsS'atom'
p270
(imodel.Atom
Atom
p271
(dp272
g266
g267
sS'compound'
p273
g1
sS'element'
p274
S'H'
sS'isVariable'
p275
I00
sg262
g8
((lp276
g264
atRp277
sS'isDeleted'
p278
I00
sbsS'variant'
p279
g24
sS'neighbours'
p280
g8
((lp281
g236
atRp282
sg274
S'H'
sS'charge'
p283
I0
sg275
I00
sS'coords'
p284
(F310.03831224844953
F-102.08362782350602
F2.955674441047869
tp285
sS'freeValences'
p286
(lp287
sg273
g1
sS'atomGroups'
p288
g8
((lp289
g256
atRp290
sS'bonds'
p291
g8
((lp292
(imodel.Bond
Bond
p293
(dp294
g273
g1
sS'bondType'
p295
S'single'
p296
sg279
g24
sg262
g8
((lp297
g236
ag264
atRp298
sbatRp299
sg278
I00
sbatRp300
sg279
g24
sg273
g1
sbatRp301
sg55
g8
((lp302
(imodel.Bond
Bond
p303
(dp304
g13
g1
sg59
g60
sg23
g24
sg16
g8
((lp305
g236
ag244
atRp306
sbatRp307
sg36
I00
sbag228
ag264
a(imodel.VarAtom
VarAtom
p308
(dp309
g3
VC6B
p310
sg20
I00
sg21
Nsg22
(imodel.Atom
Atom
p311
(dp312
g3
g310
sg13
g1
sg14
S'C'
sg15
I00
sg16
g8
((lp313
g308
atRp314
sg36
I00
sbsg23
g24
sg37
g8
((lp315
(imodel.VarAtom
VarAtom
p316
(dp317
g266
VH6B_1
p318
sg268
I00
sg269
Nsg270
(imodel.Atom
Atom
p319
(dp320
g266
g318
sg273
g1
sg274
S'H'
sg275
I00
sg262
g8
((lp321
g316
atRp322
sg278
I00
sbsg279
g24
sg280
g8
((lp323
g308
atRp324
sg274
S'H'
sg283
I0
sg275
I00
sg284
(F422.809484216908
F-24.014651875973207
F1.9029378065077398
tp325
sg286
(lp326
sg273
g1
sg288
g8
((lp327
(imodel.AtomGroup
AtomGroup
p328
(dp329
g258
g259
sg260
g8
((ltRp330
sg262
g8
((lp331
g316
a(imodel.VarAtom
VarAtom
p332
(dp333
g3
VH6B_2
p334
sg20
I00
sg21
Nsg22
(imodel.Atom
Atom
p335
(dp336
g3
g334
sg13
g1
sg14
S'H'
sg15
I00
sg16
g8
((lp337
g332
atRp338
sg36
I00
sbsg23
g24
sg37
g8
((lp339
g308
atRp340
sg14
S'H'
sg48
I0
sg15
I00
sg49
(F381.71437056318609
F-3.1737198726272737
F1.3529842289458123
tp341
sg51
(lp342
sg13
g1
sg53
g8
((lp343
g328
atRp344
sg55
g8
((lp345
(imodel.Bond
Bond
p346
(dp347
g13
g1
sg59
g60
sg23
g24
sg16
g8
((lp348
g308
ag332
atRp349
sbatRp350
sg36
I00
sbatRp351
sg279
g24
sg273
g1
sbatRp352
sg291
g8
((lp353
(imodel.Bond
Bond
p354
(dp355
g273
g1
sg295
g296
sg279
g24
sg262
g8
((lp356
g308
ag316
atRp357
sbatRp358
sg278
I00
sbag236
a(imodel.VarAtom
VarAtom
p359
(dp360
g3
VC7B
p361
sg20
I00
sg21
Nsg22
(imodel.Atom
Atom
p362
(dp363
g3
g361
sg13
g1
sg14
S'C'
sg15
I00
sg16
g8
((lp364
g359
atRp365
sg36
I00
sbsg23
g24
sg37
g8
((lp366
g308
a(imodel.VarAtom
VarAtom
p367
(dp368
g3
VH7B_1
p369
sg20
I00
sg21
Nsg22
(imodel.Atom
Atom
p370
(dp371
g3
g369
sg13
g1
sg14
S'H'
sg15
I00
sg16
g8
((lp372
g367
atRp373
sg36
I00
sbsg23
g24
sg37
g8
((lp374
g359
atRp375
sg14
S'H'
sg48
I0
sg15
I00
sg49
(F463.59428183167415
F-115.31819704371813
F3.6726418814029493
tp376
sg51
(lp377
sg13
g1
sg53
g8
((lp378
(imodel.AtomGroup
AtomGroup
p379
(dp380
g94
g95
sg96
g8
((ltRp381
sg16
g8
((lp382
g367
a(imodel.VarAtom
VarAtom
p383
(dp384
g3
VH7B_2
p385
sg20
I00
sg21
Nsg22
(imodel.Atom
Atom
p386
(dp387
g3
g385
sg13
g1
sg14
S'H'
sg15
I00
sg16
g8
((lp388
g383
atRp389
sg36
I00
sbsg23
g24
sg37
g8
((lp390
g359
atRp391
sg14
S'H'
sg48
I0
sg15
I00
sg49
(F416.95615943592361
F-123.84390365476835
F1.7219849945856596
tp392
sg51
(lp393
sg13
g1
sg53
g8
((lp394
g379
atRp395
sg55
g8
((lp396
(imodel.Bond
Bond
p397
(dp398
g13
g1
sg59
g60
sg23
g24
sg16
g8
((lp399
g359
ag383
atRp400
sbatRp401
sg36
I00
sbatRp402
sg23
g24
sg13
g1
sbatRp403
sg55
g8
((lp404
(imodel.Bond
Bond
p405
(dp406
g13
g1
sg59
g60
sg23
g24
sg16
g8
((lp407
g359
ag367
atRp408
sbatRp409
sg36
I00
sba(imodel.VarAtom
VarAtom
p410
(dp411
g3
VC8B
p412
sg20
I00
sg21
Nsg22
(imodel.Atom
Atom
p413
(dp414
g3
g412
sg13
g1
sg14
S'C'
sg15
I00
sg16
g8
((lp415
g410
atRp416
sg36
I00
sbsg23
g24
sg37
g8
((lp417
(imodel.VarAtom
VarAtom
p418
(dp419
g3
VC9B
p420
sg20
I00
sg21
Nsg22
(imodel.Atom
Atom
p421
(dp422
g3
g420
sg13
g1
sg14
S'C'
sg15
I00
sg16
g8
((lp423
g418
atRp424
sg36
I00
sbsg23
g24
sg37
g8
((lp425
g410
a(imodel.VarAtom
VarAtom
p426
(dp427
g3
VH9B
p428
sg20
I00
sg21
Nsg22
(imodel.Atom
Atom
p429
(dp430
g3
g428
sg13
g1
sg14
S'H'
sg15
I00
sg16
g8
((lp431
g426
atRp432
sg36
I00
sbsg23
g24
sg37
g8
((lp433
g418
atRp434
sg14
S'H'
sg48
I0
sg15
I00
sg49
(F527.46586188708636
F-133.01523458387831
F3.5283920200251782
tp435
sg51
(lp436
sg13
g1
sg53
g8
((ltRp437
sg55
g8
((lp438
(imodel.Bond
Bond
p439
(dp440
g13
g1
sg59
g60
sg23
g24
sg16
g8
((lp441
g418
ag426
atRp442
sbatRp443
sg36
I00
sba(imodel.VarAtom
VarAtom
p444
(dp445
g3
VC10B
p446
sg20
I00
sg21
Nsg22
(imodel.Atom
Atom
p447
(dp448
g3
g446
sg13
g1
sg14
S'C'
sg15
I00
sg16
g8
((lp449
g444
atRp450
sg36
I00
sbsg23
g24
sg37
g8
((lp451
g418
a(imodel.VarAtom
VarAtom
p452
(dp453
S'name'
p454
VH10B
p455
sS'isLabile'
p456
I00
sS'chirality'
p457
NsS'atom'
p458
(imodel.Atom
Atom
p459
(dp460
g454
g455
sS'compound'
p461
g1
sS'element'
p462
S'H'
sS'isVariable'
p463
I00
sS'varAtoms'
p464
g8
((lp465
g452
atRp466
sS'isDeleted'
p467
I00
sbsS'variant'
p468
g24
sS'neighbours'
p469
g8
((lp470
g444
atRp471
sg462
S'H'
sS'charge'
p472
I0
sg463
I00
sS'coords'
p473
(F593.42122575315409
F-135.1579684190323
F2.1916040388629008
tp474
sS'freeValences'
p475
(lp476
sg461
g1
sS'atomGroups'
p477
g8
((ltRp478
sS'bonds'
p479
g8
((lp480
(imodel.Bond
Bond
p481
(dp482
g461
g1
sS'bondType'
p483
S'single'
p484
sg468
g24
sg464
g8
((lp485
g444
ag452
atRp486
sbatRp487
sg467
I00
sba(imodel.VarAtom
VarAtom
p488
(dp489
g3
VC11B
p490
sg20
I00
sg21
Nsg22
(imodel.Atom
Atom
p491
(dp492
g3
g490
sg13
g1
sg14
S'C'
sg15
I00
sg16
g8
((lp493
g488
atRp494
sg36
I00
sbsg23
g24
sg37
g8
((lp495
g444
a(imodel.VarAtom
VarAtom
p496
(dp497
g3
VH11B_1
p498
sg20
I00
sg21
Nsg22
(imodel.Atom
Atom
p499
(dp500
g3
g498
sg13
g1
sg14
S'H'
sg15
I00
sg16
g8
((lp501
g496
atRp502
sg36
I00
sbsg23
g24
sg37
g8
((lp503
g488
atRp504
sg14
S'H'
sg48
I0
sg15
I00
sg49
(F645.81756671578307
F-18.035277807475957
F2.1906026803945511
tp505
sg51
(lp506
sg13
g1
sg53
g8
((lp507
(imodel.AtomGroup
AtomGroup
p508
(dp509
S'groupType'
p510
S'prochiral'
p511
sS'subGroups'
p512
g8
((ltRp513
sg464
g8
((lp514
g496
a(imodel.VarAtom
VarAtom
p515
(dp516
g454
VH11B_2
p517
sg456
I00
sg457
Nsg458
(imodel.Atom
Atom
p518
(dp519
g454
g517
sg461
g1
sg462
S'H'
sg463
I00
sg464
g8
((lp520
g515
atRp521
sg467
I00
sbsg468
g24
sg469
g8
((lp522
g488
atRp523
sg462
S'H'
sg472
I0
sg463
I00
sg473
(F597.18430150971074
F-31.968946138114369
F2.3903035818315379
tp524
sg475
(lp525
sg461
g1
sg477
g8
((lp526
g508
atRp527
sg479
g8
((lp528
(imodel.Bond
Bond
p529
(dp530
g461
g1
sg483
g484
sg468
g24
sg464
g8
((lp531
g488
ag515
atRp532
sbatRp533
sg467
I00
sbatRp534
sg468
g24
sg461
g1
sbatRp535
sg55
g8
((lp536
(imodel.Bond
Bond
p537
(dp538
g13
g1
sg59
g60
sg23
g24
sg16
g8
((lp539
g488
ag496
atRp540
sbatRp541
sg36
I00
sbag515
a(imodel.VarAtom
VarAtom
p542
(dp543
g3
VC12B
p544
sg20
I00
sg21
Nsg22
(imodel.Atom
Atom
p545
(dp546
g3
g544
sg13
g1
sg14
S'C'
sg15
I00
sg16
g8
((lp547
g542
atRp548
sg36
I00
sbsg23
g24
sg37
g8
((lp549
g488
a(imodel.VarAtom
VarAtom
p550
(dp551
g3
VH12B_1
p552
sg20
I00
sg21
Nsg22
(imodel.Atom
Atom
p553
(dp554
g3
g552
sg13
g1
sg14
S'H'
sg15
I00
sg16
g8
((lp555
g550
atRp556
sg36
I00
sbsg23
g24
sg37
g8
((lp557
g542
atRp558
sg14
S'H'
sg48
I0
sg15
I00
sg49
(F654.13609400049938
F-122.09895938735096
F2.9062890080187844
tp559
sg51
(lp560
sg13
g1
sg53
g8
((lp561
(imodel.AtomGroup
AtomGroup
p562
(dp563
g94
g95
sg96
g8
((ltRp564
sg16
g8
((lp565
g550
a(imodel.VarAtom
VarAtom
p566
(dp567
g3
VH12B_2
p568
sg20
I00
sg21
Nsg22
(imodel.Atom
Atom
p569
(dp570
g3
g568
sg13
g1
sg14
S'H'
sg15
I00
sg16
g8
((lp571
g566
atRp572
sg36
I00
sbsg23
g24
sg37
g8
((lp573
g542
atRp574
sg14
S'H'
sg48
I0
sg15
I00
sg49
(F701.51805202231492
F-128.22950473259206
F3.2030010913341771
tp575
sg51
(lp576
sg13
g1
sg53
g8
((lp577
g562
atRp578
sg55
g8
((lp579
(imodel.Bond
Bond
p580
(dp581
g13
g1
sg59
g60
sg23
g24
sg16
g8
((lp582
g542
ag566
atRp583
sbatRp584
sg36
I00
sbatRp585
sg23
g24
sg13
g1
sbatRp586
sg55
g8
((lp587
(imodel.Bond
Bond
p588
(dp589
g13
g1
sg59
g60
sg23
g24
sg16
g8
((lp590
g542
ag550
atRp591
sbatRp592
sg36
I00
sbag566
a(imodel.VarAtom
VarAtom
p593
(dp594
g3
VC13B
p595
sg20
I00
sg21
Nsg22
(imodel.Atom
Atom
p596
(dp597
g3
g595
sg13
g1
sg14
S'C'
sg15
I00
sg16
g8
((lp598
g593
atRp599
sg36
I00
sbsg23
g24
sg37
g8
((lp600
(imodel.VarAtom
VarAtom
p601
(dp602
g3
VH13B_1
p603
sg20
I00
sg21
Nsg22
(imodel.Atom
Atom
p604
(dp605
g3
g603
sg13
g1
sg14
S'H'
sg15
I00
sg16
g8
((lp606
g601
atRp607
sg36
I00
sbsg23
g24
sg37
g8
((lp608
g593
atRp609
sg14
S'H'
sg48
I0
sg15
I00
sg49
(F758.22423159336324
F-22.944466321949015
F1.7565131334532735
tp610
sg51
(lp611
sg13
g1
sg53
g8
((lp612
(imodel.AtomGroup
AtomGroup
p613
(dp614
g94
g95
sg96
g8
((ltRp615
sg16
g8
((lp616
g601
a(imodel.VarAtom
VarAtom
p617
(dp618
g3
VH13B_2
p619
sg20
I00
sg21
Nsg22
(imodel.Atom
Atom
p620
(dp621
g3
g619
sg13
g1
sg14
S'H'
sg15
I00
sg16
g8
((lp622
g617
atRp623
sg36
I00
sbsg23
g24
sg37
g8
((lp624
g593
atRp625
sg14
S'H'
sg48
I0
sg15
I00
sg49
(F709.07881567454308
F-22.747419751863355
F3.3564179168628545
tp626
sg51
(lp627
sg13
g1
sg53
g8
((lp628
g613
atRp629
sg55
g8
((lp630
(imodel.Bond
Bond
p631
(dp632
g13
g1
sg59
g60
sg23
g24
sg16
g8
((lp633
g593
ag617
atRp634
sbatRp635
sg36
I00
sbatRp636
sg23
g24
sg13
g1
sbatRp637
sg55
g8
((lp638
(imodel.Bond
Bond
p639
(dp640
g13
g1
sg59
g60
sg23
g24
sg16
g8
((lp641
g593
ag601
atRp642
sbatRp643
sg36
I00
sba(imodel.VarAtom
VarAtom
p644
(dp645
g3
VC14B
p646
sg20
I00
sg21
Nsg22
(imodel.Atom
Atom
p647
(dp648
g3
g646
sg13
g1
sg14
S'C'
sg15
I00
sg16
g8
((lp649
g644
atRp650
sg36
I00
sbsg23
g24
sg37
g8
((lp651
g593
a(imodel.VarAtom
VarAtom
p652
(dp653
g3
VC15B
p654
sg20
I00
sg21
Nsg22
(imodel.Atom
Atom
p655
(dp656
g3
g654
sg13
g1
sg14
S'C'
sg15
I00
sg16
g8
((lp657
g652
atRp658
sg36
I00
sbsg23
g24
sg37
g8
((lp659
g644
a(imodel.VarAtom
VarAtom
p660
(dp661
g3
VC16B
p662
sg20
I00
sg21
Nsg22
(imodel.Atom
Atom
p663
(dp664
g3
g662
sg13
g1
sg14
S'C'
sg15
I00
sg16
g8
((lp665
g660
atRp666
sg36
I00
sbsg23
g24
sg37
g8
((lp667
(imodel.VarAtom
VarAtom
p668
(dp669
g3
VH16B_1
p670
sg20
I00
sg21
Nsg22
(imodel.Atom
Atom
p671
(dp672
g3
g670
sg13
g1
sg14
S'H'
sg15
I00
sg16
g8
((lp673
g668
atRp674
sg36
I00
sbsg23
g24
sg37
g8
((lp675
g660
atRp676
sg14
S'H'
sg48
I0
sg15
I00
sg49
(F910.35118661637864
F-135.08122901754908
F2.8626552824950542
tp677
sg51
(lp678
sg13
g1
sg53
g8
((lp679
(imodel.AtomGroup
AtomGroup
p680
(dp681
g94
g95
sg96
g8
((ltRp682
sg16
g8
((lp683
g668
a(imodel.VarAtom
VarAtom
p684
(dp685
g3
VH16B_2
p686
sg20
I00
sg21
Nsg22
(imodel.Atom
Atom
p687
(dp688
g3
g686
sg13
g1
sg14
S'H'
sg15
I00
sg16
g8
((lp689
g684
atRp690
sg36
I00
sbsg23
g24
sg37
g8
((lp691
g660
atRp692
sg14
S'H'
sg48
I0
sg15
I00
sg49
(F864.00641993388547
F-146.18050522760811
F1.8696308628566887
tp693
sg51
(lp694
sg13
g1
sg53
g8
((lp695
g680
atRp696
sg55
g8
((lp697
(imodel.Bond
Bond
p698
(dp699
g13
g1
sg59
g60
sg23
g24
sg16
g8
((lp700
g660
ag684
atRp701
sbatRp702
sg36
I00
sbatRp703
sg23
g24
sg13
g1
sbatRp704
sg55
g8
((lp705
(imodel.Bond
Bond
p706
(dp707
g13
g1
sg59
g60
sg23
g24
sg16
g8
((lp708
g660
ag668
atRp709
sbatRp710
sg36
I00
sbag652
a(imodel.VarAtom
VarAtom
p711
(dp712
g3
VC17B
p713
sg20
I00
sg21
Nsg22
(imodel.Atom
Atom
p714
(dp715
g3
g713
sg13
g1
sg14
S'C'
sg15
I00
sg16
g8
((lp716
g711
atRp717
sg36
I00
sbsg23
g24
sg37
g8
((lp718
(imodel.VarAtom
VarAtom
p719
(dp720
g3
VH17B_1
p721
sg20
I00
sg21
Nsg22
(imodel.Atom
Atom
p722
(dp723
g3
g721
sg13
g1
sg14
S'H'
sg15
I00
sg16
g8
((lp724
g719
atRp725
sg36
I00
sbsg23
g24
sg37
g8
((lp726
g711
atRp727
sg14
S'H'
sg48
I0
sg15
I00
sg49
(F928.62879970272763
F-38.825245247627628
F3.6484523717189172
tp728
sg51
(lp729
sg13
g1
sg53
g8
((lp730
(imodel.AtomGroup
AtomGroup
p731
(dp732
g94
g95
sg96
g8
((ltRp733
sg16
g8
((lp734
g719
a(imodel.VarAtom
VarAtom
p735
(dp736
g3
VH17B_2
p737
sg20
I00
sg21
Nsg22
(imodel.Atom
Atom
p738
(dp739
g3
g737
sg13
g1
sg14
S'H'
sg15
I00
sg16
g8
((lp740
g735
atRp741
sg36
I00
sbsg23
g24
sg37
g8
((lp742
g711
atRp743
sg14
S'H'
sg48
I0
sg15
I00
sg49
(F977.69541926457043
F-50.405092618401802
F1.8140789933185719
tp744
sg51
(lp745
sg13
g1
sg53
g8
((lp746
g731
atRp747
sg55
g8
((lp748
(imodel.Bond
Bond
p749
(dp750
g13
g1
sg59
g60
sg23
g24
sg16
g8
((lp751
g711
ag735
atRp752
sbatRp753
sg36
I00
sbatRp754
sg23
g24
sg13
g1
sbatRp755
sg55
g8
((lp756
(imodel.Bond
Bond
p757
(dp758
g13
g1
sg59
g60
sg23
g24
sg16
g8
((lp759
g711
ag719
atRp760
sbatRp761
sg36
I00
sbag660
ag735
a(imodel.VarAtom
VarAtom
p762
(dp763
g3
VC18B
p764
sg20
I00
sg21
Nsg22
(imodel.Atom
Atom
p765
(dp766
g3
g764
sg13
g1
sg14
S'C'
sg15
I00
sg16
g8
((lp767
g762
atRp768
sg36
I00
sbsg23
g24
sg37
g8
((lp769
(imodel.VarAtom
VarAtom
p770
(dp771
g3
VH18B_1
p772
sg20
I00
sg21
Nsg22
(imodel.Atom
Atom
p773
(dp774
g3
g772
sg13
g1
sg14
S'H'
sg15
I00
sg16
g8
((lp775
g770
atRp776
sg36
I00
sbsg23
g24
sg37
g8
((lp777
g762
atRp778
sg14
S'H'
sg48
I0
sg15
I00
sg49
(F1023.2958549585798
F-141.12558152295688
F2.4152623303075691
tp779
sg51
(lp780
sg13
g1
sg53
g8
((lp781
(imodel.AtomGroup
AtomGroup
p782
(dp783
g94
S'equivalent'
p784
sg96
g8
((ltRp785
sg16
g8
((lp786
g770
a(imodel.VarAtom
VarAtom
p787
(dp788
g3
VH18B_2
p789
sg20
I00
sg21
Nsg22
(imodel.Atom
Atom
p790
(dp791
g3
g789
sg13
g1
sg14
S'H'
sg15
I00
sg16
g8
((lp792
g787
atRp793
sg36
I00
sbsg23
g24
sg37
g8
((lp794
g762
atRp795
sg14
S'H'
sg48
I0
sg15
I00
sg49
(F972.75464624718381
F-154.62487083072941
F2.2149576524595358
tp796
sg51
(lp797
sg13
g1
sg53
g8
((lp798
g782
atRp799
sg55
g8
((lp800
(imodel.Bond
Bond
p801
(dp802
g13
g1
sg59
g60
sg23
g24
sg16
g8
((lp803
g762
ag787
atRp804
sbatRp805
sg36
I00
sba(imodel.VarAtom
VarAtom
p806
(dp807
g3
VH18B_3
p808
sg20
I00
sg21
Nsg22
(imodel.Atom
Atom
p809
(dp810
g3
g808
sg13
g1
sg14
S'H'
sg15
I00
sg16
g8
((lp811
g806
atRp812
sg36
I00
sbsg23
g24
sg37
g8
((lp813
g762
atRp814
sg14
S'H'
sg48
I0
sg15
I00
sg49
(F1027.4900181783187
F-86.964906094327148
F2.6743497273677868
tp815
sg51
(lp816
sg13
g1
sg53
g8
((lp817
g782
atRp818
sg55
g8
((lp819
(imodel.Bond
Bond
p820
(dp821
g13
g1
sg59
g60
sg23
g24
sg16
g8
((lp822
g762
ag806
atRp823
sbatRp824
sg36
I00
sbatRp825
sg23
g24
sg13
g1
sbatRp826
sg55
g8
((lp827
(imodel.Bond
Bond
p828
(dp829
g13
g1
sg59
g60
sg23
g24
sg16
g8
((lp830
g762
ag770
atRp831
sbatRp832
sg36
I00
sbag787
ag711
ag806
atRp833
sg14
S'C'
sg48
I0
sg15
I00
sg49
(F989.07108611758588
F-116.82222006005443
F2.3828316780992704
tp834
sg51
(lp835
sg13
g1
sg53
g8
((ltRp836
sg55
g8
((lp837
(imodel.Bond
Bond
p838
(dp839
g13
g1
sg59
g60
sg23
g24
sg16
g8
((lp840
g762
ag711
atRp841
sbag820
ag828
ag801
atRp842
sg36
I00
sbatRp843
sg14
S'C'
sg48
I0
sg15
I00
sg49
(F944.95806014729772
F-83.493469142835693
F2.8737960329400147
tp844
sg51
(lp845
sg13
g1
sg53
g8
((ltRp846
sg55
g8
((lp847
(imodel.Bond
Bond
p848
(dp849
g13
g1
sg59
g60
sg23
g24
sg16
g8
((lp850
g711
ag660
atRp851
sbag838
ag749
ag757
atRp852
sg36
I00
sbag684
atRp853
sg14
S'C'
sg48
I0
sg15
I00
sg49
(F886.54123178190332
F-103.96016403599398
F3.0162925164521304
tp854
sg51
(lp855
sg13
g1
sg53
g8
((ltRp856
sg55
g8
((lp857
(imodel.Bond
Bond
p858
(dp859
g13
g1
sg59
g60
sg23
g24
sg16
g8
((lp860
g660
ag652
atRp861
sbag848
ag706
ag698
atRp862
sg36
I00
sba(imodel.VarAtom
VarAtom
p863
(dp864
g3
VH15B_1
p865
sg20
I00
sg21
Nsg22
(imodel.Atom
Atom
p866
(dp867
g3
g865
sg13
g1
sg14
S'H'
sg15
I00
sg16
g8
((lp868
g863
atRp869
sg36
I00
sbsg23
g24
sg37
g8
((lp870
g652
atRp871
sg14
S'H'
sg48
I0
sg15
I00
sg49
(F866.38683602549474
F-45.262743927233792
F2.5602169385719247
tp872
sg51
(lp873
sg13
g1
sg53
g8
((lp874
(imodel.AtomGroup
AtomGroup
p875
(dp876
g94
g95
sg96
g8
((ltRp877
sg16
g8
((lp878
g863
a(imodel.VarAtom
VarAtom
p879
(dp880
g3
VH15B_2
p881
sg20
I00
sg21
Nsg22
(imodel.Atom
Atom
p882
(dp883
g3
g881
sg13
g1
sg14
S'H'
sg15
I00
sg16
g8
((lp884
g879
atRp885
sg36
I00
sbsg23
g24
sg37
g8
((lp886
g652
atRp887
sg14
S'H'
sg48
I0
sg15
I00
sg49
(F819.77335012974038
F-37.876003650856795
F1.6649700374601641
tp888
sg51
(lp889
sg13
g1
sg53
g8
((lp890
g875
atRp891
sg55
g8
((lp892
(imodel.Bond
Bond
p893
(dp894
g13
g1
sg59
g60
sg23
g24
sg16
g8
((lp895
g652
ag879
atRp896
sbatRp897
sg36
I00
sbatRp898
sg23
g24
sg13
g1
sbatRp899
sg55
g8
((lp900
(imodel.Bond
Bond
p901
(dp902
g13
g1
sg59
g60
sg23
g24
sg16
g8
((lp903
g652
ag863
atRp904
sbatRp905
sg36
I00
sbag879
atRp906
sg14
S'C'
sg48
I0
sg15
I00
sg49
(F838.84957905064459
F-74.248532777227524
F2.2645235992699053
tp907
sg51
(lp908
sg13
g1
sg53
g8
((ltRp909
sg55
g8
((lp910
(imodel.Bond
Bond
p911
(dp912
g13
g1
sg59
g60
sg23
g24
sg16
g8
((lp913
g652
ag644
atRp914
sbag858
ag901
ag893
atRp915
sg36
I00
sba(imodel.VarAtom
VarAtom
p916
(dp917
g3
VH14B_2
p918
sg20
I00
sg21
Nsg22
(imodel.Atom
Atom
p919
(dp920
g3
g918
sg13
g1
sg14
S'H'
sg15
I00
sg16
g8
((lp921
g916
atRp922
sg36
I00
sbsg23
g24
sg37
g8
((lp923
g644
atRp924
sg14
S'H'
sg48
I0
sg15
I00
sg49
(F759.14016110637351
F-122.50458961354028
F3.6624399306228201
tp925
sg51
(lp926
sg13
g1
sg53
g8
((lp927
(imodel.AtomGroup
AtomGroup
p928
(dp929
g94
g95
sg96
g8
((ltRp930
sg16
g8
((lp931
(imodel.VarAtom
VarAtom
p932
(dp933
g3
VH14B_1
p934
sg20
I00
sg21
Nsg22
(imodel.Atom
Atom
p935
(dp936
g3
g934
sg13
g1
sg14
S'H'
sg15
I00
sg16
g8
((lp937
g932
atRp938
sg36
I00
sbsg23
g24
sg37
g8
((lp939
g644
atRp940
sg14
S'H'
sg48
I0
sg15
I00
sg49
(F804.65255157103013
F-130.26078286796431
F1.9440685530315434
tp941
sg51
(lp942
sg13
g1
sg53
g8
((lp943
g928
atRp944
sg55
g8
((lp945
(imodel.Bond
Bond
p946
(dp947
g13
g1
sg59
g60
sg23
g24
sg16
g8
((lp948
g644
ag932
atRp949
sbatRp950
sg36
I00
sbag916
atRp951
sg23
g24
sg13
g1
sbatRp952
sg55
g8
((lp953
(imodel.Bond
Bond
p954
(dp955
g13
g1
sg59
g60
sg23
g24
sg16
g8
((lp956
g644
ag916
atRp957
sbatRp958
sg36
I00
sbag932
atRp959
sg14
S'C'
sg48
I0
sg15
I00
sg49
(F786.47561802559505
F-93.606440725414203
F2.6237037228862956
tp960
sg51
(lp961
sg13
g1
sg53
g8
((ltRp962
sg55
g8
((lp963
(imodel.Bond
Bond
p964
(dp965
g13
g1
sg59
g60
sg23
g24
sg16
g8
((lp966
g644
ag593
atRp967
sbag911
ag954
ag946
atRp968
sg36
I00
sbag617
ag542
atRp969
sg14
S'C'
sg48
I0
sg15
I00
sg49
(F731.98986014530794
F-62.614329377583552
F3.9463479395003702
tp970
sg51
(lp971
sg13
g1
sg53
g8
((ltRp972
sg55
g8
((lp973
(imodel.Bond
Bond
p974
(dp975
g13
g1
sg59
g60
sg23
g24
sg16
g8
((lp976
g593
ag542
atRp977
sbag964
ag639
ag631
atRp978
sg36
I00
sbatRp979
sg14
S'C'
sg48
I0
sg15
I00
sg49
(F681.72629338000309
F-85.378300302320554
F3.1719919808157293
tp980
sg51
(lp981
sg13
g1
sg53
g8
((ltRp982
sg55
g8
((lp983
(imodel.Bond
Bond
p984
(dp985
g13
g1
sg59
g60
sg23
g24
sg16
g8
((lp986
g542
ag488
atRp987
sbag974
ag588
ag580
atRp988
sg36
I00
sbatRp989
sg14
S'C'
sg48
I0
sg15
I00
sg49
(F631.95958369564516
F-62.746470624599915
F3.6195750821905328
tp990
sg51
(lp991
sg13
g1
sg53
g8
((ltRp992
sg55
g8
((lp993
(imodel.Bond
Bond
p994
(dp995
g13
g1
sg59
g484
sg23
g24
sg16
g8
((lp996
g488
ag444
atRp997
sbag984
ag537
ag529
atRp998
sg36
I00
sbatRp999
sg14
S'C'
sg48
I0
sg15
I00
sg49
(F583.58379018827247
F-96.312422242750472
F3.7536877053766871
tp1000
sg51
(lp1001
sg13
g1
sg53
g8
((ltRp1002
sg55
g8
((lp1003
(imodel.Bond
Bond
p1004
(dp1005
g13
g1
sg59
g165
sg23
g24
sg16
g8
((lp1006
g418
ag444
atRp1007
sbag994
ag481
atRp1008
sg36
I00
sbatRp1009
sg14
S'C'
sg48
I0
sg15
I00
sg49
(F535.95718392662468
F-96.04204037447505
F3.1276436851085281
tp1010
sg51
(lp1011
sg13
g1
sg53
g8
((ltRp1012
sg55
g8
((lp1013
(imodel.Bond
Bond
p1014
(dp1015
g13
g1
sg59
g60
sg23
g24
sg16
g8
((lp1016
g418
ag410
atRp1017
sbag1004
ag439
atRp1018
sg36
I00
sbag359
a(imodel.VarAtom
VarAtom
p1019
(dp1020
g3
VH8B_2
p1021
sg20
I00
sg21
Nsg22
(imodel.Atom
Atom
p1022
(dp1023
g3
g1021
sg13
g1
sg14
S'H'
sg15
I00
sg16
g8
((lp1024
g1019
atRp1025
sg36
I00
sbsg23
g24
sg37
g8
((lp1026
g410
atRp1027
sg14
S'H'
sg48
I0
sg15
I00
sg49
(F482.71625956777518
F-20.415461826998417
F2.9563458288486131
tp1028
sg51
(lp1029
sg13
g1
sg53
g8
((lp1030
(imodel.AtomGroup
AtomGroup
p1031
(dp1032
g94
g95
sg96
g8
((ltRp1033
sg16
g8
((lp1034
(imodel.VarAtom
VarAtom
p1035
(dp1036
g3
VH8B_1
p1037
sg20
I00
sg21
Nsg22
(imodel.Atom
Atom
p1038
(dp1039
g3
g1037
sg13
g1
sg14
S'H'
sg15
I00
sg16
g8
((lp1040
g1035
atRp1041
sg36
I00
sbsg23
g24
sg37
g8
((lp1042
g410
atRp1043
sg14
S'H'
sg48
I0
sg15
I00
sg49
(F527.11372317281587
F-35.985233884973432
F2.1955752019388313
tp1044
sg51
(lp1045
sg13
g1
sg53
g8
((lp1046
g1031
atRp1047
sg55
g8
((lp1048
(imodel.Bond
Bond
p1049
(dp1050
g13
g1
sg59
g60
sg23
g24
sg16
g8
((lp1051
g410
ag1035
atRp1052
sbatRp1053
sg36
I00
sbag1019
atRp1054
sg23
g24
sg13
g1
sbatRp1055
sg55
g8
((lp1056
(imodel.Bond
Bond
p1057
(dp1058
g13
g1
sg59
g60
sg23
g24
sg16
g8
((lp1059
g410
ag1019
atRp1060
sbatRp1061
sg36
I00
sbag1035
atRp1062
sg14
S'C'
sg48
I0
sg15
I00
sg49
(F494.43902455039608
F-60.627045715129846
F2.4700722169029645
tp1063
sg51
(lp1064
sg13
g1
sg53
g8
((ltRp1065
sg55
g8
((lp1066
(imodel.Bond
Bond
p1067
(dp1068
g13
g1
sg59
g60
sg23
g24
sg16
g8
((lp1069
g410
ag359
atRp1070
sbag1014
ag1057
ag1049
atRp1071
sg36
I00
sbag383
atRp1072
sg14
S'C'
sg48
I0
sg15
I00
sg49
(F441.45090181499813
F-82.012589259493893
F3.6289205661239863
tp1073
sg51
(lp1074
sg13
g1
sg53
g8
((ltRp1075
sg55
g8
((lp1076
(imodel.Bond
Bond
p1077
(dp1078
g13
g1
sg59
g60
sg23
g24
sg16
g8
((lp1079
g359
ag308
atRp1080
sbag1067
ag405
ag397
atRp1081
sg36
I00
sbag332
atRp1082
sg14
S'C'
sg48
I0
sg15
I00
sg49
(F393.92750254291036
F-50.245207254410396
F2.4375255091650163
tp1083
sg51
(lp1084
sg13
g1
sg53
g8
((ltRp1085
sg55
g8
((lp1086
(imodel.Bond
Bond
p1087
(dp1088
g13
g1
sg59
g296
sg23
g24
sg16
g8
((lp1089
g308
ag236
atRp1090
sbag1077
ag346
ag354
atRp1091
sg36
I00
sbatRp1092
sg14
S'C'
sg48
I0
sg15
I00
sg49
(F339.17963985875599
F-64.22127038476583
F4.0461270225503343
tp1093
sg51
(lp1094
sg13
g1
sg53
g8
((ltRp1095
sg55
g8
((lp1096
(imodel.Bond
Bond
p1097
(dp1098
g13
g1
sg59
g60
sg23
g24
sg16
g8
((lp1099
g236
ag228
atRp1100
sbag1087
ag293
ag303
atRp1101
sg36
I00
sba(imodel.VarAtom
VarAtom
p1102
(dp1103
g3
VH4B_2
p1104
sg20
I00
sg21
Nsg22
(imodel.Atom
Atom
p1105
(dp1106
g3
g1104
sg13
g1
sg14
S'H'
sg15
I00
sg16
g8
((lp1107
g1102
atRp1108
sg36
I00
sbsg23
g24
sg37
g8
((lp1109
g228
atRp1110
sg14
S'H'
sg48
I0
sg15
I00
sg49
(F278.24954106360269
F8.7294746764845073
F3.6499035268119329
tp1111
sg51
(lp1112
sg13
g1
sg53
g8
((lp1113
(imodel.AtomGroup
AtomGroup
p1114
(dp1115
g258
g259
sg260
g8
((ltRp1116
sg262
g8
((lp1117
(imodel.VarAtom
VarAtom
p1118
(dp1119
g266
VH4B_1
p1120
sg268
I00
sg269
Nsg270
(imodel.Atom
Atom
p1121
(dp1122
g266
g1120
sg273
g1
sg274
S'H'
sg275
I00
sg262
g8
((lp1123
g1118
atRp1124
sg278
I00
sbsg279
g24
sg280
g8
((lp1125
g228
atRp1126
sg274
S'H'
sg283
I0
sg275
I00
sg284
(F323.22963735523285
F-3.3880342583813245
F3.0571653586827634
tp1127
sg286
(lp1128
sg273
g1
sg288
g8
((lp1129
g1114
atRp1130
sg291
g8
((lp1131
(imodel.Bond
Bond
p1132
(dp1133
g273
g1
sg295
g296
sg279
g24
sg262
g8
((lp1134
g228
ag1118
atRp1135
sbatRp1136
sg278
I00
sbag1102
atRp1137
sg279
g24
sg273
g1
sbatRp1138
sg55
g8
((lp1139
(imodel.Bond
Bond
p1140
(dp1141
g13
g1
sg59
g60
sg23
g24
sg16
g8
((lp1142
g228
ag1102
atRp1143
sbatRp1144
sg36
I00
sbag1118
atRp1145
sg14
S'C'
sg48
I0
sg15
I00
sg49
(F293.43510478728808
F-30.445085519814619
F3.4239492502861189
tp1146
sg51
(lp1147
sg13
g1
sg53
g8
((ltRp1148
sg55
g8
((lp1149
(imodel.Bond
Bond
p1150
(dp1151
g13
g1
sg59
g296
sg23
g24
sg16
g8
((lp1152
g228
ag220
atRp1153
sbag1097
ag1140
ag1132
atRp1154
sg36
I00
sba(imodel.VarAtom
VarAtom
p1155
(dp1156
g3
VH3B_2
p1157
sg20
I00
sg21
Nsg22
(imodel.Atom
Atom
p1158
(dp1159
g3
g1157
sg13
g1
sg14
S'H'
sg15
I00
sg16
g8
((lp1160
g1155
atRp1161
sg36
I00
sbsg23
g24
sg37
g8
((lp1162
g220
atRp1163
sg14
S'H'
sg48
I0
sg15
I00
sg49
(F248.46030192029002
F-84.069842490902488
F2.2053025095525629
tp1164
sg51
(lp1165
sg13
g1
sg53
g8
((lp1166
(imodel.AtomGroup
AtomGroup
p1167
(dp1168
g258
g259
sg260
g8
((ltRp1169
sg262
g8
((lp1170
(imodel.VarAtom
VarAtom
p1171
(dp1172
g266
VH3B_1
p1173
sg268
I00
sg269
Nsg270
(imodel.Atom
Atom
p1174
(dp1175
g266
g1173
sg273
g1
sg274
S'H'
sg275
I00
sg262
g8
((lp1176
g1171
atRp1177
sg278
I00
sbsg279
g24
sg280
g8
((lp1178
g220
atRp1179
sg274
S'H'
sg283
I0
sg275
I00
sg284
(F223.42116344119449
F-9.5546197540326787
F2.3751209132250506
tp1180
sg286
(lp1181
sg273
g1
sg288
g8
((lp1182
g1167
atRp1183
sg291
g8
((lp1184
(imodel.Bond
Bond
p1185
(dp1186
g273
g1
sg295
g296
sg279
g24
sg262
g8
((lp1187
g220
ag1171
atRp1188
sbatRp1189
sg278
I00
sbag1155
atRp1190
sg279
g24
sg273
g1
sbatRp1191
sg55
g8
((lp1192
(imodel.Bond
Bond
p1193
(dp1194
g13
g1
sg59
g60
sg23
g24
sg16
g8
((lp1195
g220
ag1155
atRp1196
sbatRp1197
sg36
I00
sbag1171
atRp1198
sg14
S'C'
sg48
I0
sg15
I00
sg49
(F238.6212403244715
F-45.77781164296939
F4.410153336847551
tp1199
sg51
(lp1200
sg13
g1
sg53
g8
((ltRp1201
sg55
g8
((lp1202
(imodel.Bond
Bond
p1203
(dp1204
g13
g1
sg59
g60
sg23
g24
sg16
g8
((lp1205
g220
ag169
atRp1206
sbag1150
ag1193
ag1185
atRp1207
sg36
I00
sbatRp1208
sg14
S'C'
sg48
I0
sg15
I00
sg49
(F184.47939972891277
F-56.95131453749152
F3.8504727784170405
tp1209
sg51
(lp1210
sg13
g1
sg53
g8
((ltRp1211
sg55
g8
((lp1212
(imodel.Bond
Bond
p1213
(dp1214
g13
g1
sg59
g60
sg23
g24
sg16
g8
((lp1215
g169
ag142
atRp1216
sbag1203
ag215
ag207
atRp1217
sg36
I00
sbatRp1218
sg14
S'C'
sg48
I0
sg15
I00
sg49
(F152.66539170096985
F-17.936834331457767
F3.1663980240728349
tp1219
sg51
(lp1220
sg13
g1
sg53
g8
((ltRp1221
sg55
g8
((lp1222
(imodel.Bond
Bond
p1223
(dp1224
g13
g1
sg59
g60
sg23
g24
sg16
g8
((lp1225
g142
ag134
atRp1226
sbag1213
ag163
atRp1227
sg36
I00
sbatRp1228
sg14
S'O'
sg48
I0
sg15
I00
sg49
(F140.39860858208976
F30.256551300575531
F2.446299955173743
tp1229
sg51
(lp1230
sg13
g1
sg53
g8
((ltRp1231
sg55
g8
((lp1232
(imodel.Bond
Bond
p1233
(dp1234
g13
g1
sg59
g60
sg23
g24
sg16
g8
((lp1235
g126
ag134
atRp1236
sbag1223
atRp1237
sg36
I00
sba(imodel.VarAtom
VarAtom
p1238
(dp1239
g3
VC1
p1240
sg20
I00
sg21
Nsg22
(imodel.Atom
Atom
p1241
(dp1242
g3
g1240
sg13
g1
sg14
S'C'
sg15
I00
sg16
g8
((lp1243
g1238
atRp1244
sg36
I00
sbsg23
g24
sg37
g8
((lp1245
(imodel.VarAtom
VarAtom
p1246
(dp1247
g3
VH1_1
p1248
sg20
I00
sg21
Nsg22
(imodel.Atom
Atom
p1249
(dp1250
g3
g1248
sg13
g1
sg14
S'H'
sg15
I00
sg16
g8
((lp1251
g1246
atRp1252
sg36
I00
sbsg23
g24
sg37
g8
((lp1253
g1238
atRp1254
sg14
S'H'
sg48
I0
sg15
I00
sg49
(F140.48062710387148
F147.46775332483253
F3.5667334756470943
tp1255
sg51
(lp1256
sg13
g1
sg53
g8
((lp1257
(imodel.AtomGroup
AtomGroup
p1258
(dp1259
g94
g95
sg96
g8
((ltRp1260
sg16
g8
((lp1261
g1246
a(imodel.VarAtom
VarAtom
p1262
(dp1263
g3
VH1_2
p1264
sg20
I00
sg21
Nsg22
(imodel.Atom
Atom
p1265
(dp1266
g3
g1264
sg13
g1
sg14
S'H'
sg15
I00
sg16
g8
((lp1267
g1262
atRp1268
sg36
I00
sbsg23
g24
sg37
g8
((lp1269
g1238
atRp1270
sg14
S'H'
sg48
I0
sg15
I00
sg49
(F187.98099457513058
F79.412109858299914
F2.7258314379133775
tp1271
sg51
(lp1272
sg13
g1
sg53
g8
((lp1273
g1258
atRp1274
sg55
g8
((lp1275
(imodel.Bond
Bond
p1276
(dp1277
g13
g1
sg59
g60
sg23
g24
sg16
g8
((lp1278
g1238
ag1262
atRp1279
sbatRp1280
sg36
I00
sbatRp1281
sg23
g24
sg13
g1
sbatRp1282
sg55
g8
((lp1283
(imodel.Bond
Bond
p1284
(dp1285
g13
g1
sg59
g60
sg23
g24
sg16
g8
((lp1286
g1238
ag1246
atRp1287
sbatRp1288
sg36
I00
sba(imodel.VarAtom
VarAtom
p1289
(dp1290
g3
VO1
p1291
sg20
I00
sg21
Nsg22
(imodel.Atom
Atom
p1292
(dp1293
g3
g1291
sg13
g1
sg14
S'O'
sg15
I00
sg16
g8
((lp1294
g1289
atRp1295
sg36
I00
sbsg23
g24
sg37
g8
((lp1296
g1238
a(imodel.VarAtom
VarAtom
p1297
(dp1298
g3
VC1A
p1299
sg20
I00
sg21
Nsg22
(imodel.Atom
Atom
p1300
(dp1301
g3
g1299
sg13
g1
sg14
S'C'
sg15
I00
sg16
g8
((lp1302
g1297
atRp1303
sg36
I00
sbsg23
g24
sg37
g8
((lp1304
g1289
a(imodel.VarAtom
VarAtom
p1305
(dp1306
g3
VC2A
p1307
sg20
I00
sg21
Nsg22
(imodel.Atom
Atom
p1308
(dp1309
g3
g1307
sg13
g1
sg14
S'C'
sg15
I00
sg16
g8
((lp1310
g1305
atRp1311
sg36
I00
sbsg23
g24
sg37
g8
((lp1312
(imodel.VarAtom
VarAtom
p1313
(dp1314
g3
VC3A
p1315
sg20
I00
sg21
Nsg22
(imodel.Atom
Atom
p1316
(dp1317
g3
g1315
sg13
g1
sg14
S'C'
sg15
I00
sg16
g8
((lp1318
g1313
atRp1319
sg36
I00
sbsg23
g24
sg37
g8
((lp1320
g1305
a(imodel.VarAtom
VarAtom
p1321
(dp1322
g3
VH3A_1
p1323
sg20
I00
sg21
Nsg22
(imodel.Atom
Atom
p1324
(dp1325
g3
g1323
sg13
g1
sg14
S'H'
sg15
I00
sg16
g8
((lp1326
g1321
atRp1327
sg36
I00
sbsg23
g24
sg37
g8
((lp1328
g1313
atRp1329
sg14
S'H'
sg48
I0
sg15
I00
sg49
(F344.90984402922322
F204.17973059029137
F1.9650223025212594
tp1330
sg51
(lp1331
sg13
g1
sg53
g8
((lp1332
(imodel.AtomGroup
AtomGroup
p1333
(dp1334
g94
g95
sg96
g8
((ltRp1335
sg16
g8
((lp1336
g1321
a(imodel.VarAtom
VarAtom
p1337
(dp1338
g3
VH3A_2
p1339
sg20
I00
sg21
Nsg22
(imodel.Atom
Atom
p1340
(dp1341
g3
g1339
sg13
g1
sg14
S'H'
sg15
I00
sg16
g8
((lp1342
g1337
atRp1343
sg36
I00
sbsg23
g24
sg37
g8
((lp1344
g1313
atRp1345
sg14
S'H'
sg48
I0
sg15
I00
sg49
(F297.13154560978751
F213.41251360072323
F1.6412789411088737
tp1346
sg51
(lp1347
sg13
g1
sg53
g8
((lp1348
g1333
atRp1349
sg55
g8
((lp1350
(imodel.Bond
Bond
p1351
(dp1352
g13
g1
sg59
g60
sg23
g24
sg16
g8
((lp1353
g1313
ag1337
atRp1354
sbatRp1355
sg36
I00
sbatRp1356
sg23
g24
sg13
g1
sbatRp1357
sg55
g8
((lp1358
(imodel.Bond
Bond
p1359
(dp1360
g13
g1
sg59
g60
sg23
g24
sg16
g8
((lp1361
g1313
ag1321
atRp1362
sbatRp1363
sg36
I00
sba(imodel.VarAtom
VarAtom
p1364
(dp1365
g3
VC4A
p1366
sg20
I00
sg21
Nsg22
(imodel.Atom
Atom
p1367
(dp1368
g3
g1366
sg13
g1
sg14
S'C'
sg15
I00
sg16
g8
((lp1369
g1364
atRp1370
sg36
I00
sbsg23
g24
sg37
g8
((lp1371
g1313
a(imodel.VarAtom
VarAtom
p1372
(dp1373
g3
VH4A_1
p1374
sg20
I00
sg21
Nsg22
(imodel.Atom
Atom
p1375
(dp1376
g3
g1374
sg13
g1
sg14
S'H'
sg15
I00
sg16
g8
((lp1377
g1372
atRp1378
sg36
I00
sbsg23
g24
sg37
g8
((lp1379
g1364
atRp1380
sg14
S'H'
sg48
I0
sg15
I00
sg49
(F396.58582501023648
F116.6102006539428
F1.6661542089679013
tp1381
sg51
(lp1382
sg13
g1
sg53
g8
((lp1383
(imodel.AtomGroup
AtomGroup
p1384
(dp1385
g94
g95
sg96
g8
((ltRp1386
sg16
g8
((lp1387
g1372
a(imodel.VarAtom
VarAtom
p1388
(dp1389
g3
VH4A_2
p1390
sg20
I00
sg21
Nsg22
(imodel.Atom
Atom
p1391
(dp1392
g3
g1390
sg13
g1
sg14
S'H'
sg15
I00
sg16
g8
((lp1393
g1388
atRp1394
sg36
I00
sbsg23
g24
sg37
g8
((lp1395
g1364
atRp1396
sg14
S'H'
sg48
I0
sg15
I00
sg49
(F352.54866203054985
F103.06999158191917
F2.1001605376444266
tp1397
sg51
(lp1398
sg13
g1
sg53
g8
((lp1399
g1384
atRp1400
sg55
g8
((lp1401
(imodel.Bond
Bond
p1402
(dp1403
g13
g1
sg59
g60
sg23
g24
sg16
g8
((lp1404
g1364
ag1388
atRp1405
sbatRp1406
sg36
I00
sbatRp1407
sg23
g24
sg13
g1
sbatRp1408
sg55
g8
((lp1409
(imodel.Bond
Bond
p1410
(dp1411
g13
g1
sg59
g60
sg23
g24
sg16
g8
((lp1412
g1364
ag1372
atRp1413
sbatRp1414
sg36
I00
sba(imodel.VarAtom
VarAtom
p1415
(dp1416
g3
VC5A
p1417
sg20
I00
sg21
Nsg22
(imodel.Atom
Atom
p1418
(dp1419
g3
g1417
sg13
g1
sg14
S'C'
sg15
I00
sg16
g8
((lp1420
g1415
atRp1421
sg36
I00
sbsg23
g24
sg37
g8
((lp1422
g1364
a(imodel.VarAtom
VarAtom
p1423
(dp1424
g3
VH5A_1
p1425
sg20
I00
sg21
Nsg22
(imodel.Atom
Atom
p1426
(dp1427
g3
g1425
sg13
g1
sg14
S'H'
sg15
I00
sg16
g8
((lp1428
g1423
atRp1429
sg36
I00
sbsg23
g24
sg37
g8
((lp1430
g1415
atRp1431
sg14
S'H'
sg48
I0
sg15
I00
sg49
(F402.52223997052988
F216.05819145519266
F2.5903471611510414
tp1432
sg51
(lp1433
sg13
g1
sg53
g8
((lp1434
(imodel.AtomGroup
AtomGroup
p1435
(dp1436
g94
g95
sg96
g8
((ltRp1437
sg16
g8
((lp1438
g1423
a(imodel.VarAtom
VarAtom
p1439
(dp1440
g3
VH5A_2
p1441
sg20
I00
sg21
Nsg22
(imodel.Atom
Atom
p1442
(dp1443
g3
g1441
sg13
g1
sg14
S'H'
sg15
I00
sg16
g8
((lp1444
g1439
atRp1445
sg36
I00
sbsg23
g24
sg37
g8
((lp1446
g1415
atRp1447
sg14
S'H'
sg48
I0
sg15
I00
sg49
(F449.33433576876882
F209.5205954916494
F2.2337677525644182
tp1448
sg51
(lp1449
sg13
g1
sg53
g8
((lp1450
g1435
atRp1451
sg55
g8
((lp1452
(imodel.Bond
Bond
p1453
(dp1454
g13
g1
sg59
g60
sg23
g24
sg16
g8
((lp1455
g1415
ag1439
atRp1456
sbatRp1457
sg36
I00
sbatRp1458
sg23
g24
sg13
g1
sbatRp1459
sg55
g8
((lp1460
(imodel.Bond
Bond
p1461
(dp1462
g13
g1
sg59
g60
sg23
g24
sg16
g8
((lp1463
g1415
ag1423
atRp1464
sbatRp1465
sg36
I00
sbag1439
a(imodel.VarAtom
VarAtom
p1466
(dp1467
g3
VC6A
p1468
sg20
I00
sg21
Nsg22
(imodel.Atom
Atom
p1469
(dp1470
g3
g1468
sg13
g1
sg14
S'C'
sg15
I00
sg16
g8
((lp1471
g1466
atRp1472
sg36
I00
sbsg23
g24
sg37
g8
((lp1473
g1415
a(imodel.VarAtom
VarAtom
p1474
(dp1475
g3
VC7A
p1476
sg20
I00
sg21
Nsg22
(imodel.Atom
Atom
p1477
(dp1478
g3
g1476
sg13
g1
sg14
S'C'
sg15
I00
sg16
g8
((lp1479
g1474
atRp1480
sg36
I00
sbsg23
g24
sg37
g8
((lp1481
g1466
a(imodel.VarAtom
VarAtom
p1482
(dp1483
g3
VC8A
p1484
sg20
I00
sg21
Nsg22
(imodel.Atom
Atom
p1485
(dp1486
g3
g1484
sg13
g1
sg14
S'C'
sg15
I00
sg16
g8
((lp1487
g1482
atRp1488
sg36
I00
sbsg23
g24
sg37
g8
((lp1489
(imodel.VarAtom
VarAtom
p1490
(dp1491
g3
VH8A_1
p1492
sg20
I00
sg21
Nsg22
(imodel.Atom
Atom
p1493
(dp1494
g3
g1492
sg13
g1
sg14
S'H'
sg15
I00
sg16
g8
((lp1495
g1490
atRp1496
sg36
I00
sbsg23
g24
sg37
g8
((lp1497
g1482
atRp1498
sg14
S'H'
sg48
I0
sg15
I00
sg49
(F603.47374836629672
F107.46318958012972
F2.8498975473282435
tp1499
sg51
(lp1500
sg13
g1
sg53
g8
((lp1501
(imodel.AtomGroup
AtomGroup
p1502
(dp1503
g94
g95
sg96
g8
((ltRp1504
sg16
g8
((lp1505
g1490
a(imodel.VarAtom
VarAtom
p1506
(dp1507
g3
VH8A_2
p1508
sg20
I00
sg21
Nsg22
(imodel.Atom
Atom
p1509
(dp1510
g3
g1508
sg13
g1
sg14
S'H'
sg15
I00
sg16
g8
((lp1511
g1506
atRp1512
sg36
I00
sbsg23
g24
sg37
g8
((lp1513
g1482
atRp1514
sg14
S'H'
sg48
I0
sg15
I00
sg49
(F555.30057466984056
F96.415882386195506
F3.1679762773393261
tp1515
sg51
(lp1516
sg13
g1
sg53
g8
((lp1517
g1502
atRp1518
sg55
g8
((lp1519
(imodel.Bond
Bond
p1520
(dp1521
g13
g1
sg59
g60
sg23
g24
sg16
g8
((lp1522
g1482
ag1506
atRp1523
sbatRp1524
sg36
I00
sbatRp1525
sg23
g24
sg13
g1
sbatRp1526
sg55
g8
((lp1527
(imodel.Bond
Bond
p1528
(dp1529
g13
g1
sg59
g60
sg23
g24
sg16
g8
((lp1530
g1482
ag1490
atRp1531
sbatRp1532
sg36
I00
sbag1506
ag1474
a(imodel.VarAtom
VarAtom
p1533
(dp1534
g3
VC9A
p1535
sg20
I00
sg21
Nsg22
(imodel.Atom
Atom
p1536
(dp1537
g3
g1535
sg13
g1
sg14
S'C'
sg15
I00
sg16
g8
((lp1538
g1533
atRp1539
sg36
I00
sbsg23
g24
sg37
g8
((lp1540
g1482
a(imodel.VarAtom
VarAtom
p1541
(dp1542
g3
VC10A
p1543
sg20
I00
sg21
Nsg22
(imodel.Atom
Atom
p1544
(dp1545
g3
g1543
sg13
g1
sg14
S'C'
sg15
I00
sg16
g8
((lp1546
g1541
atRp1547
sg36
I00
sbsg23
g24
sg37
g8
((lp1548
g1533
a(imodel.VarAtom
VarAtom
p1549
(dp1550
g3
VH10A
p1551
sg20
I00
sg21
Nsg22
(imodel.Atom
Atom
p1552
(dp1553
g3
g1551
sg13
g1
sg14
S'H'
sg15
I00
sg16
g8
((lp1554
g1549
atRp1555
sg36
I00
sbsg23
g24
sg37
g8
((lp1556
g1541
atRp1557
sg14
S'H'
sg48
I0
sg15
I00
sg49
(F676.72195732286139
F210.31483899202456
F2.5829240867346059
tp1558
sg51
(lp1559
sg13
g1
sg53
g8
((ltRp1560
sg55
g8
((lp1561
(imodel.Bond
Bond
p1562
(dp1563
g13
g1
sg59
g60
sg23
g24
sg16
g8
((lp1564
g1541
ag1549
atRp1565
sbatRp1566
sg36
I00
sba(imodel.VarAtom
VarAtom
p1567
(dp1568
g3
VC11A
p1569
sg20
I00
sg21
Nsg22
(imodel.Atom
Atom
p1570
(dp1571
g3
g1569
sg13
g1
sg14
S'C'
sg15
I00
sg16
g8
((lp1572
g1567
atRp1573
sg36
I00
sbsg23
g24
sg37
g8
((lp1574
(imodel.VarAtom
VarAtom
p1575
(dp1576
g3
VH11A_1
p1577
sg20
I00
sg21
Nsg22
(imodel.Atom
Atom
p1578
(dp1579
g3
g1577
sg13
g1
sg14
S'H'
sg15
I00
sg16
g8
((lp1580
g1575
atRp1581
sg36
I00
sbsg23
g24
sg37
g8
((lp1582
g1567
atRp1583
sg14
S'H'
sg48
I0
sg15
I00
sg49
(F665.39548687354647
F106.98204448706116
F3.3104362103741209
tp1584
sg51
(lp1585
sg13
g1
sg53
g8
((lp1586
(imodel.AtomGroup
AtomGroup
p1587
(dp1588
g94
g95
sg96
g8
((ltRp1589
sg16
g8
((lp1590
g1575
a(imodel.VarAtom
VarAtom
p1591
(dp1592
g3
VH11A_2
p1593
sg20
I00
sg21
Nsg22
(imodel.Atom
Atom
p1594
(dp1595
g3
g1593
sg13
g1
sg14
S'H'
sg15
I00
sg16
g8
((lp1596
g1591
atRp1597
sg36
I00
sbsg23
g24
sg37
g8
((lp1598
g1567
atRp1599
sg14
S'H'
sg48
I0
sg15
I00
sg49
(F709.90695202067684
F90.650019981408093
F2.7936624351860564
tp1600
sg51
(lp1601
sg13
g1
sg53
g8
((lp1602
g1587
atRp1603
sg55
g8
((lp1604
(imodel.Bond
Bond
p1605
(dp1606
g13
g1
sg59
g60
sg23
g24
sg16
g8
((lp1607
g1567
ag1591
atRp1608
sbatRp1609
sg36
I00
sbatRp1610
sg23
g24
sg13
g1
sbatRp1611
sg55
g8
((lp1612
(imodel.Bond
Bond
p1613
(dp1614
g13
g1
sg59
g60
sg23
g24
sg16
g8
((lp1615
g1567
ag1575
atRp1616
sbatRp1617
sg36
I00
sbag1541
ag1591
a(imodel.VarAtom
VarAtom
p1618
(dp1619
g3
VC12A
p1620
sg20
I00
sg21
Nsg22
(imodel.Atom
Atom
p1621
(dp1622
g3
g1620
sg13
g1
sg14
S'C'
sg15
I00
sg16
g8
((lp1623
g1618
atRp1624
sg36
I00
sbsg23
g24
sg37
g8
((lp1625
(imodel.VarAtom
VarAtom
p1626
(dp1627
g3
VH12A_1
p1628
sg20
I00
sg21
Nsg22
(imodel.Atom
Atom
p1629
(dp1630
g3
g1628
sg13
g1
sg14
S'H'
sg15
I00
sg16
g8
((lp1631
g1626
atRp1632
sg36
I00
sbsg23
g24
sg37
g8
((lp1633
g1618
atRp1634
sg14
S'H'
sg48
I0
sg15
I00
sg49
(F736.28462495264068
F187.10811026941298
F3.1121015321504113
tp1635
sg51
(lp1636
sg13
g1
sg53
g8
((lp1637
(imodel.AtomGroup
AtomGroup
p1638
(dp1639
g94
g95
sg96
g8
((ltRp1640
sg16
g8
((lp1641
g1626
a(imodel.VarAtom
VarAtom
p1642
(dp1643
g3
VH12A_2
p1644
sg20
I00
sg21
Nsg22
(imodel.Atom
Atom
p1645
(dp1646
g3
g1644
sg13
g1
sg14
S'H'
sg15
I00
sg16
g8
((lp1647
g1642
atRp1648
sg36
I00
sbsg23
g24
sg37
g8
((lp1649
g1618
atRp1650
sg14
S'H'
sg48
I0
sg15
I00
sg49
(F782.97146815169492
F191.12234731640791
F3.4410153390098785
tp1651
sg51
(lp1652
sg13
g1
sg53
g8
((lp1653
g1638
atRp1654
sg55
g8
((lp1655
(imodel.Bond
Bond
p1656
(dp1657
g13
g1
sg59
g60
sg23
g24
sg16
g8
((lp1658
g1618
ag1642
atRp1659
sbatRp1660
sg36
I00
sbatRp1661
sg23
g24
sg13
g1
sbatRp1662
sg55
g8
((lp1663
(imodel.Bond
Bond
p1664
(dp1665
g13
g1
sg59
g60
sg23
g24
sg16
g8
((lp1666
g1618
ag1626
atRp1667
sbatRp1668
sg36
I00
sbag1567
a(imodel.VarAtom
VarAtom
p1669
(dp1670
g3
VC13A
p1671
sg20
I00
sg21
Nsg22
(imodel.Atom
Atom
p1672
(dp1673
g3
g1671
sg13
g1
sg14
S'C'
sg15
I00
sg16
g8
((lp1674
g1669
atRp1675
sg36
I00
sbsg23
g24
sg37
g8
((lp1676
(imodel.VarAtom
VarAtom
p1677
(dp1678
g3
VH13A_1
p1679
sg20
I00
sg21
Nsg22
(imodel.Atom
Atom
p1680
(dp1681
g3
g1679
sg13
g1
sg14
S'H'
sg15
I00
sg16
g8
((lp1682
g1677
atRp1683
sg36
I00
sbsg23
g24
sg37
g8
((lp1684
g1669
atRp1685
sg14
S'H'
sg48
I0
sg15
I00
sg49
(F766.09487992341394
F83.412566909383088
F1.8127852255106132
tp1686
sg51
(lp1687
sg13
g1
sg53
g8
((lp1688
(imodel.AtomGroup
AtomGroup
p1689
(dp1690
g94
g95
sg96
g8
((ltRp1691
sg16
g8
((lp1692
g1677
a(imodel.VarAtom
VarAtom
p1693
(dp1694
g3
VH13A_2
p1695
sg20
I00
sg21
Nsg22
(imodel.Atom
Atom
p1696
(dp1697
g3
g1695
sg13
g1
sg14
S'H'
sg15
I00
sg16
g8
((lp1698
g1693
atRp1699
sg36
I00
sbsg23
g24
sg37
g8
((lp1700
g1669
atRp1701
sg14
S'H'
sg48
I0
sg15
I00
sg49
(F811.15873225767939
F67.04808489475954
F1.3408148045537445
tp1702
sg51
(lp1703
sg13
g1
sg53
g8
((lp1704
g1689
atRp1705
sg55
g8
((lp1706
(imodel.Bond
Bond
p1707
(dp1708
g13
g1
sg59
g60
sg23
g24
sg16
g8
((lp1709
g1669
ag1693
atRp1710
sbatRp1711
sg36
I00
sbatRp1712
sg23
g24
sg13
g1
sbatRp1713
sg55
g8
((lp1714
(imodel.Bond
Bond
p1715
(dp1716
g13
g1
sg59
g60
sg23
g24
sg16
g8
((lp1717
g1669
ag1677
atRp1718
sbatRp1719
sg36
I00
sbag1618
ag1693
a(imodel.VarAtom
VarAtom
p1720
(dp1721
g3
VC14A
p1722
sg20
I00
sg21
Nsg22
(imodel.Atom
Atom
p1723
(dp1724
g3
g1722
sg13
g1
sg14
S'C'
sg15
I00
sg16
g8
((lp1725
g1720
atRp1726
sg36
I00
sbsg23
g24
sg37
g8
((lp1727
(imodel.VarAtom
VarAtom
p1728
(dp1729
g3
VC15A
p1730
sg20
I00
sg21
Nsg22
(imodel.Atom
Atom
p1731
(dp1732
g3
g1730
sg13
g1
sg14
S'C'
sg15
I00
sg16
g8
((lp1733
g1728
atRp1734
sg36
I00
sbsg23
g24
sg37
g8
((lp1735
(imodel.VarAtom
VarAtom
p1736
(dp1737
g3
VC16A
p1738
sg20
I00
sg21
Nsg22
(imodel.Atom
Atom
p1739
(dp1740
g3
g1738
sg13
g1
sg14
S'C'
sg15
I00
sg16
g8
((lp1741
g1736
atRp1742
sg36
I00
sbsg23
g24
sg37
g8
((lp1743
g1728
a(imodel.VarAtom
VarAtom
p1744
(dp1745
g3
VH16A_1
p1746
sg20
I00
sg21
Nsg22
(imodel.Atom
Atom
p1747
(dp1748
g3
g1746
sg13
g1
sg14
S'H'
sg15
I00
sg16
g8
((lp1749
g1744
atRp1750
sg36
I00
sbsg23
g24
sg37
g8
((lp1751
g1736
atRp1752
sg14
S'H'
sg48
I0
sg15
I00
sg49
(F941.35431920903341
F160.85817782159967
F2.5200350304747294
tp1753
sg51
(lp1754
sg13
g1
sg53
g8
((lp1755
(imodel.AtomGroup
AtomGroup
p1756
(dp1757
g94
g95
sg96
g8
((ltRp1758
sg16
g8
((lp1759
g1744
a(imodel.VarAtom
VarAtom
p1760
(dp1761
g3
VH16A_2
p1762
sg20
I00
sg21
Nsg22
(imodel.Atom
Atom
p1763
(dp1764
g3
g1762
sg13
g1
sg14
S'H'
sg15
I00
sg16
g8
((lp1765
g1760
atRp1766
sg36
I00
sbsg23
g24
sg37
g8
((lp1767
g1736
atRp1768
sg14
S'H'
sg48
I0
sg15
I00
sg49
(F988.8517628693545
F150.76873685676986
F1.8044713388657518
tp1769
sg51
(lp1770
sg13
g1
sg53
g8
((lp1771
g1756
atRp1772
sg55
g8
((lp1773
(imodel.Bond
Bond
p1774
(dp1775
g13
g1
sg59
g60
sg23
g24
sg16
g8
((lp1776
g1736
ag1760
atRp1777
sbatRp1778
sg36
I00
sbatRp1779
sg23
g24
sg13
g1
sbatRp1780
sg55
g8
((lp1781
(imodel.Bond
Bond
p1782
(dp1783
g13
g1
sg59
g60
sg23
g24
sg16
g8
((lp1784
g1736
ag1744
atRp1785
sbatRp1786
sg36
I00
sbag1760
a(imodel.VarAtom
VarAtom
p1787
(dp1788
g3
VC17A
p1789
sg20
I00
sg21
Nsg22
(imodel.Atom
Atom
p1790
(dp1791
g3
g1789
sg13
g1
sg14
S'C'
sg15
I00
sg16
g8
((lp1792
g1787
atRp1793
sg36
I00
sbsg23
g24
sg37
g8
((lp1794
g18
ag1736
a(imodel.VarAtom
VarAtom
p1795
(dp1796
g3
VH17A_2
p1797
sg20
I00
sg21
Nsg22
(imodel.Atom
Atom
p1798
(dp1799
g3
g1797
sg13
g1
sg14
S'H'
sg15
I00
sg16
g8
((lp1800
g1795
atRp1801
sg36
I00
sbsg23
g24
sg37
g8
((lp1802
g1787
atRp1803
sg14
S'H'
sg48
I0
sg15
I00
sg49
(F975.39182688903895
F49.568196860986333
F2.8899387091329052
tp1804
sg51
(lp1805
sg13
g1
sg53
g8
((lp1806
(imodel.AtomGroup
AtomGroup
p1807
(dp1808
g94
g95
sg96
g8
((ltRp1809
sg16
g8
((lp1810
g18
ag1795
atRp1811
sg23
g24
sg13
g1
sbatRp1812
sg55
g8
((lp1813
(imodel.Bond
Bond
p1814
(dp1815
g13
g1
sg59
g60
sg23
g24
sg16
g8
((lp1816
g1787
ag1795
atRp1817
sbatRp1818
sg36
I00
sba(imodel.VarAtom
VarAtom
p1819
(dp1820
g3
VC18A
p1821
sg20
I00
sg21
Nsg22
(imodel.Atom
Atom
p1822
(dp1823
g3
g1821
sg13
g1
sg14
S'C'
sg15
I00
sg16
g8
((lp1824
g1819
atRp1825
sg36
I00
sbsg23
g24
sg37
g8
((lp1826
g1787
a(imodel.VarAtom
VarAtom
p1827
(dp1828
g3
VH18A_1
p1829
sg20
I00
sg21
Nsg22
(imodel.Atom
Atom
p1830
(dp1831
g3
g1829
sg13
g1
sg14
S'H'
sg15
I00
sg16
g8
((lp1832
g1827
atRp1833
sg36
I00
sbsg23
g24
sg37
g8
((lp1834
g1819
atRp1835
sg14
S'H'
sg48
I0
sg15
I00
sg49
(F1053.3039037355879
F143.02571156991513
F3.1544498911480239
tp1836
sg51
(lp1837
sg13
g1
sg53
g8
((lp1838
(imodel.AtomGroup
AtomGroup
p1839
(dp1840
g94
g784
sg96
g8
((ltRp1841
sg16
g8
((lp1842
g1827
a(imodel.VarAtom
VarAtom
p1843
(dp1844
g3
VH18A_2
p1845
sg20
I00
sg21
Nsg22
(imodel.Atom
Atom
p1846
(dp1847
g3
g1845
sg13
g1
sg14
S'H'
sg15
I00
sg16
g8
((lp1848
g1843
atRp1849
sg36
I00
sbsg23
g24
sg37
g8
((lp1850
g1819
atRp1851
sg14
S'H'
sg48
I0
sg15
I00
sg49
(F1078.6445008205869
F66.258072855697662
F2.2322722410828306
tp1852
sg51
(lp1853
sg13
g1
sg53
g8
((lp1854
g1839
atRp1855
sg55
g8
((lp1856
(imodel.Bond
Bond
p1857
(dp1858
g13
g1
sg59
g60
sg23
g24
sg16
g8
((lp1859
g1819
ag1843
atRp1860
sbatRp1861
sg36
I00
sba(imodel.VarAtom
VarAtom
p1862
(dp1863
g3
VH18A_3
p1864
sg20
I00
sg21
Nsg22
(imodel.Atom
Atom
p1865
(dp1866
g3
g1864
sg13
g1
sg14
S'H'
sg15
I00
sg16
g8
((lp1867
g1862
atRp1868
sg36
I00
sbsg23
g24
sg37
g8
((lp1869
g1819
atRp1870
sg14
S'H'
sg48
I0
sg15
I00
sg49
(F1097.939283654287
F115.39926941271546
F1.9567714206600453
tp1871
sg51
(lp1872
sg13
g1
sg53
g8
((lp1873
g1839
atRp1874
sg55
g8
((lp1875
(imodel.Bond
Bond
p1876
(dp1877
g13
g1
sg59
g60
sg23
g24
sg16
g8
((lp1878
g1819
ag1862
atRp1879
sbatRp1880
sg36
I00
sbatRp1881
sg23
g24
sg13
g1
sbatRp1882
sg55
g8
((lp1883
(imodel.Bond
Bond
p1884
(dp1885
g13
g1
sg59
g60
sg23
g24
sg16
g8
((lp1886
g1819
ag1827
atRp1887
sbatRp1888
sg36
I00
sbag1862
ag1843
atRp1889
sg14
S'C'
sg48
I0
sg15
I00
sg49
(F1057.5203501835526
F102.1232177907321
F2.8509806834577152
tp1890
sg51
(lp1891
sg13
g1
sg53
g8
((ltRp1892
sg55
g8
((lp1893
(imodel.Bond
Bond
p1894
(dp1895
g13
g1
sg59
g60
sg23
g24
sg16
g8
((lp1896
g1819
ag1787
atRp1897
sbag1884
ag1857
ag1876
atRp1898
sg36
I00
sbatRp1899
sg14
S'C'
sg48
I0
sg15
I00
sg49
(F1004.7255601623357
F85.048739186930277
F2.6422501202942437
tp1900
sg51
(lp1901
sg13
g1
sg53
g8
((ltRp1902
sg55
g8
((lp1903
(imodel.Bond
Bond
p1904
(dp1905
g13
g1
sg59
g60
sg23
g24
sg16
g8
((lp1906
g1787
ag1736
atRp1907
sbag1894
a(imodel.Bond
Bond
p1908
(dp1909
g13
g1
sg59
g60
sg23
g24
sg16
g8
((lp1910
g1787
ag18
atRp1911
sbag1814
atRp1912
sg36
I00
sbatRp1913
sg14
S'C'
sg48
I0
sg15
I00
sg49
(F958.53745406186874
F116.35606431554476
F1.8695774080959993
tp1914
sg51
(lp1915
sg13
g1
sg53
g8
((ltRp1916
sg55
g8
((lp1917
(imodel.Bond
Bond
p1918
(dp1919
g13
g1
sg59
g60
sg23
g24
sg16
g8
((lp1920
g1736
ag1728
atRp1921
sbag1904
ag1782
ag1774
atRp1922
sg36
I00
sba(imodel.VarAtom
VarAtom
p1923
(dp1924
g3
VH15A_1
p1925
sg20
I00
sg21
Nsg22
(imodel.Atom
Atom
p1926
(dp1927
g3
g1925
sg13
g1
sg14
S'H'
sg15
I00
sg16
g8
((lp1928
g1923
atRp1929
sg36
I00
sbsg23
g24
sg37
g8
((lp1930
g1728
atRp1931
sg14
S'H'
sg48
I0
sg15
I00
sg49
(F918.85487271800605
F63.472597502870869
F1.9115619925134948
tp1932
sg51
(lp1933
sg13
g1
sg53
g8
((lp1934
(imodel.AtomGroup
AtomGroup
p1935
(dp1936
g94
g95
sg96
g8
((ltRp1937
sg16
g8
((lp1938
g1923
a(imodel.VarAtom
VarAtom
p1939
(dp1940
g3
VH15A_2
p1941
sg20
I00
sg21
Nsg22
(imodel.Atom
Atom
p1942
(dp1943
g3
g1941
sg13
g1
sg14
S'H'
sg15
I00
sg16
g8
((lp1944
g1939
atRp1945
sg36
I00
sbsg23
g24
sg37
g8
((lp1946
g1728
atRp1947
sg14
S'H'
sg48
I0
sg15
I00
sg49
(F872.19126649949533
F57.760760180710903
F2.1672726780786333
tp1948
sg51
(lp1949
sg13
g1
sg53
g8
((lp1950
g1935
atRp1951
sg55
g8
((lp1952
(imodel.Bond
Bond
p1953
(dp1954
g13
g1
sg59
g60
sg23
g24
sg16
g8
((lp1955
g1728
ag1939
atRp1956
sbatRp1957
sg36
I00
sbatRp1958
sg23
g24
sg13
g1
sbatRp1959
sg55
g8
((lp1960
(imodel.Bond
Bond
p1961
(dp1962
g13
g1
sg59
g60
sg23
g24
sg16
g8
((lp1963
g1728
ag1923
atRp1964
sbatRp1965
sg36
I00
sbag1720
ag1939
atRp1966
sg14
S'C'
sg48
I0
sg15
I00
sg49
(F899.39373062991547
F97.252664989827338
F3.340880297232824
tp1967
sg51
(lp1968
sg13
g1
sg53
g8
((ltRp1969
sg55
g8
((lp1970
(imodel.Bond
Bond
p1971
(dp1972
g13
g1
sg59
g60
sg23
g24
sg16
g8
((lp1973
g1728
ag1720
atRp1974
sbag1918
ag1961
ag1953
atRp1975
sg36
I00
sbag1669
a(imodel.VarAtom
VarAtom
p1976
(dp1977
g3
VH14A_2
p1978
sg20
I00
sg21
Nsg22
(imodel.Atom
Atom
p1979
(dp1980
g3
g1978
sg13
g1
sg14
S'H'
sg15
I00
sg16
g8
((lp1981
g1976
atRp1982
sg36
I00
sbsg23
g24
sg37
g8
((lp1983
g1720
atRp1984
sg14
S'H'
sg48
I0
sg15
I00
sg49
(F881.17385395750046
F157.356409337353
F2.2045808850431761
tp1985
sg51
(lp1986
sg13
g1
sg53
g8
((lp1987
(imodel.AtomGroup
AtomGroup
p1988
(dp1989
g94
g95
sg96
g8
((ltRp1990
sg16
g8
((lp1991
(imodel.VarAtom
VarAtom
p1992
(dp1993
g3
VH14A_1
p1994
sg20
I00
sg21
Nsg22
(imodel.Atom
Atom
p1995
(dp1996
g3
g1994
sg13
g1
sg14
S'H'
sg15
I00
sg16
g8
((lp1997
g1992
atRp1998
sg36
I00
sbsg23
g24
sg37
g8
((lp1999
g1720
atRp2000
sg14
S'H'
sg48
I0
sg15
I00
sg49
(F835.45915696905843
F164.04887590508878
F3.0226630334682225
tp2001
sg51
(lp2002
sg13
g1
sg53
g8
((lp2003
g1988
atRp2004
sg55
g8
((lp2005
(imodel.Bond
Bond
p2006
(dp2007
g13
g1
sg59
g60
sg23
g24
sg16
g8
((lp2008
g1720
ag1992
atRp2009
sbatRp2010
sg36
I00
sbag1976
atRp2011
sg23
g24
sg13
g1
sbatRp2012
sg55
g8
((lp2013
(imodel.Bond
Bond
p2014
(dp2015
g13
g1
sg59
g60
sg23
g24
sg16
g8
((lp2016
g1720
ag1976
atRp2017
sbatRp2018
sg36
I00
sbag1992
atRp2019
sg14
S'C'
sg48
I0
sg15
I00
sg49
(F853.44168486884621
F128.03574856395625
F2.2679944452218934
tp2020
sg51
(lp2021
sg13
g1
sg53
g8
((ltRp2022
sg55
g8
((lp2023
(imodel.Bond
Bond
p2024
(dp2025
g13
g1
sg59
g60
sg23
g24
sg16
g8
((lp2026
g1720
ag1669
atRp2027
sbag1971
ag2014
ag2006
atRp2028
sg36
I00
sbatRp2029
sg14
S'C'
sg48
I0
sg15
I00
sg49
(F800.68228421839478
F113.12635150820205
F3.2681625327369161
tp2030
sg51
(lp2031
sg13
g1
sg53
g8
((ltRp2032
sg55
g8
((lp2033
(imodel.Bond
Bond
p2034
(dp2035
g13
g1
sg59
g60
sg23
g24
sg16
g8
((lp2036
g1669
ag1618
atRp2037
sbag2024
ag1715
ag1707
atRp2038
sg36
I00
sbag1642
atRp2039
sg14
S'C'
sg48
I0
sg15
I00
sg49
(F754.04683920697846
F152.10647426183408
F4.2222545656482833
tp2040
sg51
(lp2041
sg13
g1
sg53
g8
((ltRp2042
sg55
g8
((lp2043
(imodel.Bond
Bond
p2044
(dp2045
g13
g1
sg59
g60
sg23
g24
sg16
g8
((lp2046
g1618
ag1567
atRp2047
sbag2034
ag1664
ag1656
atRp2048
sg36
I00
sbatRp2049
sg14
S'C'
sg48
I0
sg15
I00
sg49
(F700.77262236354284
F137.29697232273907
F2.7105140789392994
tp2050
sg51
(lp2051
sg13
g1
sg53
g8
((ltRp2052
sg55
g8
((lp2053
(imodel.Bond
Bond
p2054
(dp2055
g13
g1
sg59
g60
sg23
g24
sg16
g8
((lp2056
g1567
ag1541
atRp2057
sbag2044
ag1613
ag1605
atRp2058
sg36
I00
sbatRp2059
sg14
S'C'
sg48
I0
sg15
I00
sg49
(F667.58043168330971
F170.30326237739604
F1.6734593143984622
tp2060
sg51
(lp2061
sg13
g1
sg53
g8
((ltRp2062
sg55
g8
((lp2063
(imodel.Bond
Bond
p2064
(dp2065
g13
g1
sg59
g165
sg23
g24
sg16
g8
((lp2066
g1533
ag1541
atRp2067
sbag2054
ag1562
atRp2068
sg36
I00
sba(imodel.VarAtom
VarAtom
p2069
(dp2070
g3
VH9A
p2071
sg20
I00
sg21
Nsg22
(imodel.Atom
Atom
p2072
(dp2073
g3
g2071
sg13
g1
sg14
S'H'
sg15
I00
sg16
g8
((lp2074
g2069
atRp2075
sg36
I00
sbsg23
g24
sg37
g8
((lp2076
g1533
atRp2077
sg14
S'H'
sg48
I0
sg15
I00
sg49
(F613.0731740304642
F210.09175602866961
F2.3621351815923513
tp2078
sg51
(lp2079
sg13
g1
sg53
g8
((ltRp2080
sg55
g8
((lp2081
(imodel.Bond
Bond
p2082
(dp2083
g13
g1
sg59
g60
sg23
g24
sg16
g8
((lp2084
g1533
ag2069
atRp2085
sbatRp2086
sg36
I00
sbatRp2087
sg14
S'C'
sg48
I0
sg15
I00
sg49
(F620.37376255569245
F173.50501315039605
F3.1103924152968805
tp2088
sg51
(lp2089
sg13
g1
sg53
g8
((ltRp2090
sg55
g8
((lp2091
(imodel.Bond
Bond
p2092
(dp2093
g13
g1
sg59
g60
sg23
g24
sg16
g8
((lp2094
g1533
ag1482
atRp2095
sbag2064
ag2082
atRp2096
sg36
I00
sbatRp2097
sg14
S'C'
sg48
I0
sg15
I00
sg49
(F572.1469978353731
F140.43089637783208
F1.9272320278138215
tp2098
sg51
(lp2099
sg13
g1
sg53
g8
((ltRp2100
sg55
g8
((lp2101
(imodel.Bond
Bond
p2102
(dp2103
g13
g1
sg59
g60
sg23
g24
sg16
g8
((lp2104
g1482
ag1474
atRp2105
sbag2092
ag1528
ag1520
atRp2106
sg36
I00
sba(imodel.VarAtom
VarAtom
p2107
(dp2108
g266
VH7A_2
p2109
sg268
I00
sg269
Nsg270
(imodel.Atom
Atom
p2110
(dp2111
g266
g2109
sg273
g1
sg274
S'H'
sg275
I00
sg262
g8
((lp2112
g2107
atRp2113
sg278
I00
sbsg279
g24
sg280
g8
((lp2114
g1474
atRp2115
sg274
S'H'
sg283
I0
sg275
I00
sg284
(F551.11136873325461
F196.95779043795818
F1.4205927266251397
tp2116
sg286
(lp2117
sg273
g1
sg288
g8
((lp2118
(imodel.AtomGroup
AtomGroup
p2119
(dp2120
g258
g259
sg260
g8
((ltRp2121
sg262
g8
((lp2122
(imodel.VarAtom
VarAtom
p2123
(dp2124
g3
VH7A_1
p2125
sg20
I00
sg21
Nsg22
(imodel.Atom
Atom
p2126
(dp2127
g3
g2125
sg13
g1
sg14
S'H'
sg15
I00
sg16
g8
((lp2128
g2123
atRp2129
sg36
I00
sbsg23
g24
sg37
g8
((lp2130
g1474
atRp2131
sg14
S'H'
sg48
I0
sg15
I00
sg49
(F506.80273970344217
F210.87500684950626
F2.387594635998556
tp2132
sg51
(lp2133
sg13
g1
sg53
g8
((lp2134
g2119
atRp2135
sg55
g8
((lp2136
(imodel.Bond
Bond
p2137
(dp2138
g13
g1
sg59
g60
sg23
g24
sg16
g8
((lp2139
g1474
ag2123
atRp2140
sbatRp2141
sg36
I00
sbag2107
atRp2142
sg279
g24
sg273
g1
sbatRp2143
sg291
g8
((lp2144
(imodel.Bond
Bond
p2145
(dp2146
g273
g1
sg295
g296
sg279
g24
sg262
g8
((lp2147
g1474
ag2107
atRp2148
sbatRp2149
sg278
I00
sbag2123
atRp2150
sg14
S'C'
sg48
I0
sg15
I00
sg49
(F520.76959255429767
F171.62473758462085
F2.6069110036946519
tp2151
sg51
(lp2152
sg13
g1
sg53
g8
((ltRp2153
sg55
g8
((lp2154
(imodel.Bond
Bond
p2155
(dp2156
g13
g1
sg59
g296
sg23
g24
sg16
g8
((lp2157
g1474
ag1466
atRp2158
sbag2102
ag2137
ag2145
atRp2159
sg36
I00
sba(imodel.VarAtom
VarAtom
p2160
(dp2161
g3
VH6A_2
p2162
sg20
I00
sg21
Nsg22
(imodel.Atom
Atom
p2163
(dp2164
g3
g2162
sg13
g1
sg14
S'H'
sg15
I00
sg16
g8
((lp2165
g2160
atRp2166
sg36
I00
sbsg23
g24
sg37
g8
((lp2167
g1466
atRp2168
sg14
S'H'
sg48
I0
sg15
I00
sg49
(F496.89431971416082
F112.94314170917863
F2.400626202549073
tp2169
sg51
(lp2170
sg13
g1
sg53
g8
((lp2171
(imodel.AtomGroup
AtomGroup
p2172
(dp2173
g258
g259
sg260
g8
((ltRp2174
sg262
g8
((lp2175
(imodel.VarAtom
VarAtom
p2176
(dp2177
g266
VH6A_1
p2178
sg268
I00
sg269
Nsg270
(imodel.Atom
Atom
p2179
(dp2180
g266
g2178
sg273
g1
sg274
S'H'
sg275
I00
sg262
g8
((lp2181
g2176
atRp2182
sg278
I00
sbsg279
g24
sg280
g8
((lp2183
g1466
atRp2184
sg274
S'H'
sg283
I0
sg275
I00
sg284
(F452.3363177410838
F109.56478557117242
F3.6027621740667093
tp2185
sg286
(lp2186
sg273
g1
sg288
g8
((lp2187
g2172
atRp2188
sg291
g8
((lp2189
(imodel.Bond
Bond
p2190
(dp2191
g273
g1
sg295
g296
sg279
g24
sg262
g8
((lp2192
g1466
ag2176
atRp2193
sbatRp2194
sg278
I00
sbag2160
atRp2195
sg279
g24
sg273
g1
sbatRp2196
sg55
g8
((lp2197
(imodel.Bond
Bond
p2198
(dp2199
g13
g1
sg59
g60
sg23
g24
sg16
g8
((lp2200
g1466
ag2160
atRp2201
sbatRp2202
sg36
I00
sbag2176
atRp2203
sg14
S'C'
sg48
I0
sg15
I00
sg49
(F472.25910406358264
F145.36739153215348
F3.9914739732299109
tp2204
sg51
(lp2205
sg13
g1
sg53
g8
((ltRp2206
sg55
g8
((lp2207
(imodel.Bond
Bond
p2208
(dp2209
g13
g1
sg59
g60
sg23
g24
sg16
g8
((lp2210
g1466
ag1415
atRp2211
sbag2155
ag2190
ag2198
atRp2212
sg36
I00
sbatRp2213
sg14
S'C'
sg48
I0
sg15
I00
sg49
(F422.47815659331764
F172.26164727322447
F3.6870695347509703
tp2214
sg51
(lp2215
sg13
g1
sg53
g8
((ltRp2216
sg55
g8
((lp2217
(imodel.Bond
Bond
p2218
(dp2219
g13
g1
sg59
g60
sg23
g24
sg16
g8
((lp2220
g1415
ag1364
atRp2221
sbag2208
ag1461
ag1453
atRp2222
sg36
I00
sbag1388
atRp2223
sg14
S'C'
sg48
I0
sg15
I00
sg49
(F372.27996856618961
F147.43825630064288
F2.4921886464967193
tp2224
sg51
(lp2225
sg13
g1
sg53
g8
((ltRp2226
sg55
g8
((lp2227
(imodel.Bond
Bond
p2228
(dp2229
g13
g1
sg59
g60
sg23
g24
sg16
g8
((lp2230
g1364
ag1313
atRp2231
sbag2218
ag1410
ag1402
atRp2232
sg36
I00
sbag1337
atRp2233
sg14
S'C'
sg48
I0
sg15
I00
sg49
(F322.47941651882934
F172.40077239953149
F3.5420698750581683
tp2234
sg51
(lp2235
sg13
g1
sg53
g8
((ltRp2236
sg55
g8
((lp2237
(imodel.Bond
Bond
p2238
(dp2239
g13
g1
sg59
g60
sg23
g24
sg16
g8
((lp2240
g1313
ag1305
atRp2241
sbag2228
ag1359
ag1351
atRp2242
sg36
I00
sba(imodel.VarAtom
VarAtom
p2243
(dp2244
g3
VH2A_1
p2245
sg20
I00
sg21
Nsg22
(imodel.Atom
Atom
p2246
(dp2247
g3
g2245
sg13
g1
sg14
S'H'
sg15
I00
sg16
g8
((lp2248
g2243
atRp2249
sg36
I00
sbsg23
g24
sg37
g8
((lp2250
g1305
atRp2251
sg14
S'H'
sg48
I0
sg15
I00
sg49
(F250.11151584148683
F108.04994629060951
F1.6016921742977681
tp2252
sg51
(lp2253
sg13
g1
sg53
g8
((lp2254
(imodel.AtomGroup
AtomGroup
p2255
(dp2256
g94
g95
sg96
g8
((ltRp2257
sg16
g8
((lp2258
g2243
a(imodel.VarAtom
VarAtom
p2259
(dp2260
g3
VH2A_2
p2261
sg20
I00
sg21
Nsg22
(imodel.Atom
Atom
p2262
(dp2263
g3
g2261
sg13
g1
sg14
S'H'
sg15
I00
sg16
g8
((lp2264
g2259
atRp2265
sg36
I00
sbsg23
g24
sg37
g8
((lp2266
g1305
atRp2267
sg14
S'H'
sg48
I0
sg15
I00
sg49
(F297.05498080249095
F106.94516578615162
F2.4123025614552507
tp2268
sg51
(lp2269
sg13
g1
sg53
g8
((lp2270
g2255
atRp2271
sg55
g8
((lp2272
(imodel.Bond
Bond
p2273
(dp2274
g13
g1
sg59
g60
sg23
g24
sg16
g8
((lp2275
g1305
ag2259
atRp2276
sbatRp2277
sg36
I00
sbatRp2278
sg23
g24
sg13
g1
sbatRp2279
sg55
g8
((lp2280
(imodel.Bond
Bond
p2281
(dp2282
g13
g1
sg59
g60
sg23
g24
sg16
g8
((lp2283
g1305
ag2243
atRp2284
sbatRp2285
sg36
I00
sbag2259
ag1297
atRp2286
sg14
S'C'
sg48
I0
sg15
I00
sg49
(F275.39641540780667
F147.60115654580585
F2.0642892193174283
tp2287
sg51
(lp2288
sg13
g1
sg53
g8
((ltRp2289
sg55
g8
((lp2290
(imodel.Bond
Bond
p2291
(dp2292
g13
g1
sg59
g60
sg23
g24
sg16
g8
((lp2293
g1305
ag1297
atRp2294
sbag2238
ag2273
ag2281
atRp2295
sg36
I00
sba(imodel.VarAtom
VarAtom
p2296
(dp2297
g3
VO1A
p2298
sg20
I00
sg21
Nsg22
(imodel.Atom
Atom
p2299
(dp2300
g3
g2298
sg13
g1
sg14
S'O'
sg15
I00
sg16
g8
((lp2301
g2296
atRp2302
sg36
I00
sbsg23
g24
sg37
g8
((lp2303
g1297
atRp2304
sg14
S'O'
sg48
I0
sg15
I00
sg49
(F218.71919687211289
F210.78584855906385
F2.9526988475245215
tp2305
sg51
(lp2306
sg13
g1
sg53
g8
((ltRp2307
sg55
g8
((lp2308
(imodel.Bond
Bond
p2309
(dp2310
g13
g1
sg59
g165
sg23
g24
sg16
g8
((lp2311
g1297
ag2296
atRp2312
sbatRp2313
sg36
I00
sbatRp2314
sg14
S'C'
sg48
I0
sg15
I00
sg49
(F233.71541411338399
F170.37170489022532
F2.7065021099404754
tp2315
sg51
(lp2316
sg13
g1
sg53
g8
((ltRp2317
sg55
g8
((lp2318
(imodel.Bond
Bond
p2319
(dp2320
g13
g1
sg59
g60
sg23
g24
sg16
g8
((lp2321
g1297
ag1289
atRp2322
sbag2291
ag2309
atRp2323
sg36
I00
sbatRp2324
sg14
S'O'
sg48
I0
sg15
I00
sg49
(F195.93910998570823
F147.7373281527818
F3.1802231964488383
tp2325
sg51
(lp2326
sg13
g1
sg53
g8
((ltRp2327
sg55
g8
((lp2328
(imodel.Bond
Bond
p2329
(dp2330
g13
g1
sg59
g60
sg23
g24
sg16
g8
((lp2331
g1238
ag1289
atRp2332
sbag2319
atRp2333
sg36
I00
sbag126
ag1262
atRp2334
sg14
S'C'
sg48
I0
sg15
I00
sg49
(F154.52249535731903
F110.48217983190642
F1.8006102535089012
tp2335
sg51
(lp2336
sg13
g1
sg53
g8
((ltRp2337
sg55
g8
((lp2338
g2329
a(imodel.Bond
Bond
p2339
(dp2340
g13
g1
sg59
g60
sg23
g24
sg16
g8
((lp2341
g126
ag1238
atRp2342
sbag1276
ag1284
atRp2343
sg36
I00
sbag72
a(imodel.VarAtom
VarAtom
p2344
(dp2345
g3
VH2
p2346
sg20
I00
sg21
Nsg22
(imodel.Atom
Atom
p2347
(dp2348
g3
g2346
sg13
g1
sg14
S'H'
sg15
I00
sg16
g8
((lp2349
g2344
atRp2350
sg36
I00
sbsg23
g24
sg37
g8
((lp2351
g126
atRp2352
sg14
S'H'
sg48
I0
sg15
I00
sg49
(F85.416175571622375
F40.376088974507681
F1.6317754782121181
tp2353
sg51
(lp2354
sg13
g1
sg53
g8
((ltRp2355
sg55
g8
((lp2356
(imodel.Bond
Bond
p2357
(dp2358
g13
g1
sg59
g60
sg23
g24
sg16
g8
((lp2359
g126
ag2344
atRp2360
sbatRp2361
sg36
I00
sbatRp2362
sg14
S'C'
sg48
I0
sg15
I00
sg49
(F115.93694584556783
F75.619302153562671
F3.10591091663871
tp2363
sg51
(lp2364
sg13
g1
sg53
g8
((ltRp2365
sg55
g8
((lp2366
g2339
a(imodel.Bond
Bond
p2367
(dp2368
g13
g1
sg59
g60
sg23
g24
sg16
g8
((lp2369
g72
ag126
atRp2370
sbag1233
ag2357
atRp2371
sg36
I00
sbag99
atRp2372
sg14
S'C'
sg48
I0
sg15
I00
sg49
(F72.859189320295286
F108.84153190385922
F2.7619916440069749
tp2373
sg51
(lp2374
sg13
g1
sg53
g8
((ltRp2375
sg55
g8
((lp2376
g2367
a(imodel.Bond
Bond
p2377
(dp2378
g13
g1
sg59
g60
sg23
g24
sg16
g8
((lp2379
g72
ag64
atRp2380
sbag121
ag113
atRp2381
sg36
I00
sbatRp2382
sg14
S'O'
sg48
I0
sg15
I00
sg49
(F23.737752447334856
F135.98622585750616
F2.9019660208292839
tp2383
sg51
(lp2384
sg13
g1
sg53
g8
((ltRp2385
sg55
g8
((lp2386
(imodel.Bond
Bond
p2387
(dp2388
g13
g1
sg59
g60
sg23
g24
sg16
g8
((lp2389
g29
ag64
atRp2390
sbag2377
atRp2391
sg36
I00
sba(imodel.VarAtom
VarAtom
p2392
(dp2393
g3
VOP2
p2394
sg20
I00
sg21
Nsg22
(imodel.Atom
Atom
p2395
(dp2396
g3
g2394
sg13
g1
sg14
S'O'
sg15
I00
sg16
g8
((lp2397
g2392
atRp2398
sg36
I00
sbsg23
g24
sg37
g8
((lp2399
g29
a(imodel.VarAtom
VarAtom
p2400
(dp2401
g3
VC4
p2402
sg20
I00
sg21
Nsg22
(imodel.Atom
Atom
p2403
(dp2404
g3
g2402
sg13
g1
sg14
S'C'
sg15
I00
sg16
g8
((lp2405
g2400
atRp2406
sg36
I00
sbsg23
g24
sg37
g8
((lp2407
(imodel.VarAtom
VarAtom
p2408
(dp2409
g3
VC5
p2410
sg20
I00
sg21
Nsg22
(imodel.Atom
Atom
p2411
(dp2412
g3
g2410
sg13
g1
sg14
S'C'
sg15
I00
sg16
g8
((lp2413
g2408
atRp2414
sg36
I00
sbsg23
g24
sg37
g8
((lp2415
g2400
a(imodel.VarAtom
VarAtom
p2416
(dp2417
g3
S'N1'
p2418
sg20
I00
sg21
Nsg22
(imodel.Atom
Atom
p2419
(dp2420
g3
g2418
sg13
g1
sg14
S'N'
sg15
I00
sg16
g8
((lp2421
g2416
atRp2422
sg36
I00
sbsg23
g24
sg37
g8
((lp2423
(imodel.VarAtom
VarAtom
p2424
(dp2425
g3
VCN3
p2426
sg20
I00
sg21
Nsg22
(imodel.Atom
Atom
p2427
(dp2428
g3
g2426
sg13
g1
sg14
S'C'
sg15
I00
sg16
g8
((lp2429
g2424
atRp2430
sg36
I00
sbsg23
g24
sg37
g8
((lp2431
g2416
a(imodel.VarAtom
VarAtom
p2432
(dp2433
g3
VHN3_1
p2434
sg20
I00
sg21
Nsg22
(imodel.Atom
Atom
p2435
(dp2436
g3
g2434
sg13
g1
sg14
S'H'
sg15
I00
sg16
g8
((lp2437
g2432
atRp2438
sg36
I00
sbsg23
g24
sg37
g8
((lp2439
g2424
atRp2440
sg14
S'H'
sg48
I0
sg15
I00
sg49
(F-172.83833224655041
F-75.170394037186156
F1.845612575819469
tp2441
sg51
(lp2442
sg13
g1
sg53
g8
((lp2443
(imodel.AtomGroup
AtomGroup
p2444
(dp2445
S'groupType'
p2446
S'equivalent'
p2447
sS'subGroups'
p2448
g8
((ltRp2449
sS'varAtoms'
p2450
g8
((lp2451
(imodel.VarAtom
VarAtom
p2452
(dp2453
g3
VHN1_1
p2454
sg20
I00
sg21
Nsg22
(imodel.Atom
Atom
p2455
(dp2456
g3
g2454
sg13
g1
sg14
S'H'
sg15
I00
sg16
g8
((lp2457
g2452
atRp2458
sg36
I00
sbsg23
g24
sg37
g8
((lp2459
(imodel.VarAtom
VarAtom
p2460
(dp2461
g3
VCN1
p2462
sg20
I00
sg21
Nsg22
(imodel.Atom
Atom
p2463
(dp2464
g3
g2462
sg13
g1
sg14
S'C'
sg15
I00
sg16
g8
((lp2465
g2460
atRp2466
sg36
I00
sbsg23
g24
sg37
g8
((lp2467
g2416
ag2452
a(imodel.VarAtom
VarAtom
p2468
(dp2469
g3
VHN1_2
p2470
sg20
I00
sg21
Nsg22
(imodel.Atom
Atom
p2471
(dp2472
g3
g2470
sg13
g1
sg14
S'H'
sg15
I00
sg16
g8
((lp2473
g2468
atRp2474
sg36
I00
sbsg23
g24
sg37
g8
((lp2475
g2460
atRp2476
sg14
S'H'
sg48
I0
sg15
I00
sg49
(F-229.88091078560723
F85.513065307585236
F2.8842397245630638
tp2477
sg51
(lp2478
sg13
g1
sg53
g8
((lp2479
g2444
atRp2480
sg55
g8
((lp2481
(imodel.Bond
Bond
p2482
(dp2483
g13
g1
sg59
g60
sg23
g24
sg16
g8
((lp2484
g2460
ag2468
atRp2485
sbatRp2486
sg36
I00
sba(imodel.VarAtom
VarAtom
p2487
(dp2488
g3
VHN1_3
p2489
sg20
I00
sg21
Nsg22
(imodel.Atom
Atom
p2490
(dp2491
g3
g2489
sg13
g1
sg14
S'H'
sg15
I00
sg16
g8
((lp2492
g2487
atRp2493
sg36
I00
sbsg23
g24
sg37
g8
((lp2494
g2460
atRp2495
sg14
S'H'
sg48
I0
sg15
I00
sg49
(F-276.85521026648468
F81.369200048215589
F0.91964556920166118
tp2496
sg51
(lp2497
sg13
g1
sg53
g8
((lp2498
g2444
atRp2499
sg55
g8
((lp2500
(imodel.Bond
Bond
p2501
(dp2502
g13
g1
sg59
g60
sg23
g24
sg16
g8
((lp2503
g2460
ag2487
atRp2504
sbatRp2505
sg36
I00
sbatRp2506
sg14
S'C'
sg48
I0
sg15
I00
sg49
(F-247.40089531896439
F48.971596099523296
F3.2235147423527919
tp2507
sg51
(lp2508
sg13
g1
sg53
g8
((lp2509
(imodel.AtomGroup
AtomGroup
p2510
(dp2511
g2446
g2447
sg2448
g8
((ltRp2512
sg2450
g8
((lp2513
(imodel.VarAtom
VarAtom
p2514
(dp2515
g3
VCN2
p2516
sg20
I00
sg21
Nsg22
(imodel.Atom
Atom
p2517
(dp2518
g3
g2516
sg13
g1
sg14
S'C'
sg15
I00
sg16
g8
((lp2519
g2514
atRp2520
sg36
I00
sbsg23
g24
sg37
g8
((lp2521
g2416
a(imodel.VarAtom
VarAtom
p2522
(dp2523
g3
VHN2_1
p2524
sg20
I00
sg21
Nsg22
(imodel.Atom
Atom
p2525
(dp2526
g3
g2524
sg13
g1
sg14
S'H'
sg15
I00
sg16
g8
((lp2527
g2522
atRp2528
sg36
I00
sbsg23
g24
sg37
g8
((lp2529
g2514
atRp2530
sg14
S'H'
sg48
I0
sg15
I00
sg49
(F-227.07900182174325
F-81.205164007687074
F2.4185769007745086
tp2531
sg51
(lp2532
sg13
g1
sg53
g8
((lp2533
g2444
atRp2534
sg55
g8
((lp2535
(imodel.Bond
Bond
p2536
(dp2537
g13
g1
sg59
g60
sg23
g24
sg16
g8
((lp2538
g2514
ag2522
atRp2539
sbatRp2540
sg36
I00
sba(imodel.VarAtom
VarAtom
p2541
(dp2542
g3
VHN2_3
p2543
sg20
I00
sg21
Nsg22
(imodel.Atom
Atom
p2544
(dp2545
g3
g2543
sg13
g1
sg14
S'H'
sg15
I00
sg16
g8
((lp2546
g2541
atRp2547
sg36
I00
sbsg23
g24
sg37
g8
((lp2548
g2514
atRp2549
sg14
S'H'
sg48
I0
sg15
I00
sg49
(F-272.57125373653111
F-65.539133094007184
F1.5090363858481624
tp2550
sg51
(lp2551
sg13
g1
sg53
g8
((lp2552
g2444
atRp2553
sg55
g8
((lp2554
(imodel.Bond
Bond
p2555
(dp2556
g13
g1
sg59
g60
sg23
g24
sg16
g8
((lp2557
g2514
ag2541
atRp2558
sbatRp2559
sg36
I00
sba(imodel.VarAtom
VarAtom
p2560
(dp2561
g3
VHN2_2
p2562
sg20
I00
sg21
Nsg22
(imodel.Atom
Atom
p2563
(dp2564
g3
g2562
sg13
g1
sg14
S'H'
sg15
I00
sg16
g8
((lp2565
g2560
atRp2566
sg36
I00
sbsg23
g24
sg37
g8
((lp2567
g2514
atRp2568
sg14
S'H'
sg48
I0
sg15
I00
sg49
(F-268.10287586747876
F-18.247576681205892
F1.0981011302207413
tp2569
sg51
(lp2570
sg13
g1
sg53
g8
((lp2571
g2444
atRp2572
sg55
g8
((lp2573
(imodel.Bond
Bond
p2574
(dp2575
g13
g1
sg59
g60
sg23
g24
sg16
g8
((lp2576
g2514
ag2560
atRp2577
sbatRp2578
sg36
I00
sbatRp2579
sg14
S'C'
sg48
I0
sg15
I00
sg49
(F-236.71208385304539
F-40.692782930209169
F1.8826740192590323
tp2580
sg51
(lp2581
sg13
g1
sg53
g8
((lp2582
g2510
atRp2583
sg55
g8
((lp2584
(imodel.Bond
Bond
p2585
(dp2586
g13
g1
sg59
g60
sg23
g24
sg16
g8
((lp2587
g2416
ag2514
atRp2588
sbag2536
ag2555
ag2574
atRp2589
sg36
I00
sbag2460
ag2424
atRp2590
sS'variant'
p2591
g24
sS'compound'
p2592
g1
sbatRp2593
sg55
g8
((lp2594
(imodel.Bond
Bond
p2595
(dp2596
g13
g1
sg59
g60
sg23
g24
sg16
g8
((lp2597
g2416
ag2460
atRp2598
sba(imodel.Bond
Bond
p2599
(dp2600
g13
g1
sg59
g60
sg23
g24
sg16
g8
((lp2601
g2460
ag2452
atRp2602
sbag2501
ag2482
atRp2603
sg36
I00
sbatRp2604
sg14
S'H'
sg48
I0
sg15
I00
sg49
(F-285.89433988720799
F33.695712854144581
F2.1633896248070221
tp2605
sg51
(lp2606
sg13
g1
sg53
g8
((lp2607
g2444
atRp2608
sg55
g8
((lp2609
g2599
atRp2610
sg36
I00
sbag2560
ag2541
ag2468
a(imodel.VarAtom
VarAtom
p2611
(dp2612
g3
VHN3_3
p2613
sg20
I00
sg21
Nsg22
(imodel.Atom
Atom
p2614
(dp2615
g3
g2613
sg13
g1
sg14
S'H'
sg15
I00
sg16
g8
((lp2616
g2611
atRp2617
sg36
I00
sbsg23
g24
sg37
g8
((lp2618
g2424
atRp2619
sg14
S'H'
sg48
I0
sg15
I00
sg49
(F-126.19974578331534
F-70.855283628063717
F2.7864478023134027
tp2620
sg51
(lp2621
sg13
g1
sg53
g8
((lp2622
g2444
atRp2623
sg55
g8
((lp2624
(imodel.Bond
Bond
p2625
(dp2626
g13
g1
sg59
g60
sg23
g24
sg16
g8
((lp2627
g2424
ag2611
atRp2628
sbatRp2629
sg36
I00
sbag2522
a(imodel.VarAtom
VarAtom
p2630
(dp2631
g3
VHN3_2
p2632
sg20
I00
sg21
Nsg22
(imodel.Atom
Atom
p2633
(dp2634
g3
g2632
sg13
g1
sg14
S'H'
sg15
I00
sg16
g8
((lp2635
g2630
atRp2636
sg36
I00
sbsg23
g24
sg37
g8
((lp2637
g2424
atRp2638
sg14
S'H'
sg48
I0
sg15
I00
sg49
(F-117.24709058361731
F-24.861986998308502
F3.031077608340992
tp2639
sg51
(lp2640
sg13
g1
sg53
g8
((lp2641
g2444
atRp2642
sg55
g8
((lp2643
(imodel.Bond
Bond
p2644
(dp2645
g13
g1
sg59
g60
sg23
g24
sg16
g8
((lp2646
g2424
ag2630
atRp2647
sbatRp2648
sg36
I00
sbag2432
ag2487
atRp2649
sg2591
g24
sg2592
g1
sbatRp2650
sg55
g8
((lp2651
(imodel.Bond
Bond
p2652
(dp2653
g13
g1
sg59
g60
sg23
g24
sg16
g8
((lp2654
g2424
ag2432
atRp2655
sbatRp2656
sg36
I00
sbag2611
ag2630
atRp2657
sg14
S'C'
sg48
I0
sg15
I00
sg49
(F-156.05799611868889
F-38.58869519609069
F2.9860110179627619
tp2658
sg51
(lp2659
sg13
g1
sg53
g8
((lp2660
g2510
atRp2661
sg55
g8
((lp2662
(imodel.Bond
Bond
p2663
(dp2664
g13
g1
sg59
g60
sg23
g24
sg16
g8
((lp2665
g2416
ag2424
atRp2666
sbag2644
ag2625
ag2652
atRp2667
sg36
I00
sbag2408
ag2460
ag2514
atRp2668
sg14
S'N'
sg48
I1
sg15
I00
sg49
(F-198.86695907286503
F2.1587908042667223
F2.6588645715847745
tp2669
sg51
(lp2670
sg13
g1
sg53
g8
((ltRp2671
sg55
g8
((lp2672
(imodel.Bond
Bond
p2673
(dp2674
g13
g1
sg59
g60
sg23
g24
sg16
g8
((lp2675
g2408
ag2416
atRp2676
sbag2663
ag2595
ag2585
atRp2677
sg36
I00
sba(imodel.VarAtom
VarAtom
p2678
(dp2679
g3
VH5_2
p2680
sg20
I00
sg21
Nsg22
(imodel.Atom
Atom
p2681
(dp2682
g3
g2680
sg13
g1
sg14
S'H'
sg15
I00
sg16
g8
((lp2683
g2678
atRp2684
sg36
I00
sbsg23
g24
sg37
g8
((lp2685
g2408
atRp2686
sg14
S'H'
sg48
I0
sg15
I00
sg49
(F-127.88390642962082
F29.488598604033207
F1.3776603949733963
tp2687
sg51
(lp2688
sg13
g1
sg53
g8
((lp2689
(imodel.AtomGroup
AtomGroup
p2690
(dp2691
g94
g95
sg96
g8
((ltRp2692
sg16
g8
((lp2693
(imodel.VarAtom
VarAtom
p2694
(dp2695
g3
VH5_1
p2696
sg20
I00
sg21
Nsg22
(imodel.Atom
Atom
p2697
(dp2698
g3
g2696
sg13
g1
sg14
S'H'
sg15
I00
sg16
g8
((lp2699
g2694
atRp2700
sg36
I00
sbsg23
g24
sg37
g8
((lp2701
g2408
atRp2702
sg14
S'H'
sg48
I0
sg15
I00
sg49
(F-176.85875735697311
F79.805700175596883
F1.5239045951942827
tp2703
sg51
(lp2704
sg13
g1
sg53
g8
((lp2705
g2690
atRp2706
sg55
g8
((lp2707
(imodel.Bond
Bond
p2708
(dp2709
g13
g1
sg59
g60
sg23
g24
sg16
g8
((lp2710
g2408
ag2694
atRp2711
sbatRp2712
sg36
I00
sbag2678
atRp2713
sg23
g24
sg13
g1
sbatRp2714
sg55
g8
((lp2715
(imodel.Bond
Bond
p2716
(dp2717
g13
g1
sg59
g60
sg23
g24
sg16
g8
((lp2718
g2408
ag2678
atRp2719
sbatRp2720
sg36
I00
sbag2694
atRp2721
sg14
S'C'
sg48
I0
sg15
I00
sg49
(F-161.66353659291713
F45.321973383223835
F2.000460669936293
tp2722
sg51
(lp2723
sg13
g1
sg53
g8
((ltRp2724
sg55
g8
((lp2725
(imodel.Bond
Bond
p2726
(dp2727
g13
g1
sg59
g60
sg23
g24
sg16
g8
((lp2728
g2400
ag2408
atRp2729
sbag2673
ag2708
ag2716
atRp2730
sg36
I00
sba(imodel.VarAtom
VarAtom
p2731
(dp2732
g3
VH4_1
p2733
sg20
I00
sg21
Nsg22
(imodel.Atom
Atom
p2734
(dp2735
g3
g2733
sg13
g1
sg14
S'H'
sg15
I00
sg16
g8
((lp2736
g2731
atRp2737
sg36
I00
sbsg23
g24
sg37
g8
((lp2738
g2400
atRp2739
sg14
S'H'
sg48
I0
sg15
I00
sg49
(F-80.618261559359155
F63.794893705925389
F2.5330300807622477
tp2740
sg51
(lp2741
sg13
g1
sg53
g8
((lp2742
(imodel.AtomGroup
AtomGroup
p2743
(dp2744
g94
g95
sg96
g8
((ltRp2745
sg16
g8
((lp2746
g2731
a(imodel.VarAtom
VarAtom
p2747
(dp2748
g3
VH4_2
p2749
sg20
I00
sg21
Nsg22
(imodel.Atom
Atom
p2750
(dp2751
g3
g2749
sg13
g1
sg14
S'H'
sg15
I00
sg16
g8
((lp2752
g2747
atRp2753
sg36
I00
sbsg23
g24
sg37
g8
((lp2754
g2400
atRp2755
sg14
S'H'
sg48
I0
sg15
I00
sg49
(F-140.17899549369741
F134.82643482635717
F2.1682655964324025
tp2756
sg51
(lp2757
sg13
g1
sg53
g8
((lp2758
g2743
atRp2759
sg55
g8
((lp2760
(imodel.Bond
Bond
p2761
(dp2762
g13
g1
sg59
g60
sg23
g24
sg16
g8
((lp2763
g2400
ag2747
atRp2764
sbatRp2765
sg36
I00
sbatRp2766
sg23
g24
sg13
g1
sbatRp2767
sg55
g8
((lp2768
(imodel.Bond
Bond
p2769
(dp2770
g13
g1
sg59
g60
sg23
g24
sg16
g8
((lp2771
g2400
ag2731
atRp2772
sbatRp2773
sg36
I00
sbag2747
ag2392
atRp2774
sg14
S'C'
sg48
I0
sg15
I00
sg49
(F-117.93431746448522
F92.591319515301336
F3.0385840305865921
tp2775
sg51
(lp2776
sg13
g1
sg53
g8
((ltRp2777
sg55
g8
((lp2778
(imodel.Bond
Bond
p2779
(dp2780
g13
g1
sg59
g60
sg23
g24
sg16
g8
((lp2781
g2392
ag2400
atRp2782
sbag2726
ag2769
ag2761
atRp2783
sg36
I00
sbatRp2784
sg14
S'O'
sg48
I0
sg15
I00
sg49
(F-81.118572236320745
F125.22527823184504
F1.6008960154872507
tp2785
sg51
(lp2786
sg13
g1
sg53
g8
((ltRp2787
sg55
g8
((lp2788
(imodel.Bond
Bond
p2789
(dp2790
g13
g1
sg59
g60
sg23
g24
sg16
g8
((lp2791
g29
ag2392
atRp2792
sbag2779
atRp2793
sg36
I00
sba(imodel.VarAtom
VarAtom
p2794
(dp2795
g3
VOP3
p2796
sg20
I00
sg21
Nsg22
(imodel.Atom
Atom
p2797
(dp2798
g3
g2796
sg13
g1
sg14
S'O'
sg15
I00
sg16
g8
((lp2799
g2794
atRp2800
sg36
I00
sbsg23
g24
sg37
g8
((lp2801
g29
atRp2802
sg14
S'O'
sg48
I0
sg15
I00
sg49
(F-32.010133074961345
F191.6249498146895
F2.0570605138571207
tp2803
sg51
(lp2804
sg13
g1
sg53
g8
((ltRp2805
sg55
g8
((lp2806
(imodel.Bond
Bond
p2807
(dp2808
g13
g1
sg59
g165
sg23
g24
sg16
g8
((lp2809
g29
ag2794
atRp2810
sbatRp2811
sg36
I00
sbatRp2812
sg14
S'P'
sg48
I0
sg15
I00
sg49
(F-31.384293922346274
F142.41387535061227
F1.6254853666742746
tp2813
sg51
(lp2814
sg13
g1
sg53
g8
((ltRp2815
sg55
g8
((lp2816
g57
ag2789
ag2807
ag2387
atRp2817
sg36
I00
sbatRp2818
sS'C'
g8
((lp2819
g1474
ag1305
ag1541
ag2460
ag762
ag410
ag1415
ag126
ag1736
ag2424
ag1618
ag236
ag1720
ag169
ag660
ag308
ag1819
ag2514
ag644
ag359
ag142
ag2400
ag1466
ag1533
ag1787
ag72
ag1669
ag418
ag444
ag220
ag652
ag593
ag1313
ag1567
ag2408
ag488
ag542
ag228
ag711
ag1482
ag1728
ag1297
ag1238
ag1364
atRp2820
sS'H'
g8
((lp2821
g2694
ag1693
ag1423
ag1102
ag932
ag383
ag2107
ag2069
ag1795
ag1992
ag332
ag1843
ag601
ag1321
ag1642
ag2522
ag2243
ag2160
ag2176
ag193
ag515
ag1171
ag99
ag80
ag1677
ag1591
ag550
ag2259
ag1246
ag177
ag617
ag1439
ag1019
ag2432
ag863
ag770
ag1337
ag1372
ag18
ag1155
ag2452
ag684
ag2344
ag719
ag1262
ag2468
ag1388
ag1760
ag2678
ag735
ag2487
ag1939
ag1827
ag1923
ag2747
ag806
ag264
ag916
ag2611
ag1506
ag1976
ag1862
ag1744
ag2560
ag1549
ag879
ag787
ag2541
ag496
ag452
ag2630
ag1626
ag426
ag2123
ag1035
ag367
ag2731
ag566
ag1490
ag1575
ag244
ag668
ag316
ag1118
atRp2822
sS'O'
g8
((lp2823
g1289
ag134
ag39
ag2794
ag2392
ag150
ag2296
ag64
atRp2824
sS'N'
g8
((lp2825
g2416
atRp2826
ssg55
g8
((lp2827
g820
ag946
ag1857
ag2054
ag2006
ag2555
ag1461
ag1656
ag2673
ag1014
ag1132
ag801
ag2082
ag1894
ag2198
ag303
ag537
ag2044
ag2309
ag858
ag1562
ag2092
ag1884
ag529
ag2228
ag1707
ag1004
ag113
ag1057
ag2190
ag2208
ag1284
ag2291
ag1087
ag2726
ag1213
ag2708
ag2357
ag706
ag2377
ag1097
ag1402
ag2145
ag2034
ag848
ag215
ag439
ag580
ag1971
ag207
ag405
ag1715
ag2501
ag639
ag2585
ag1453
ag984
ag1908
ag2574
ag2339
ag163
ag354
ag828
ag2273
ag2807
ag2779
ag2014
ag2155
ag1774
ag2652
ag911
ag2102
ag2663
ag893
ag1613
ag1520
ag1049
ag2329
ag397
ag1904
ag974
ag1223
ag1605
ag698
ag1185
ag1359
ag757
ag1528
ag901
ag1876
ag1140
ag2482
ag1150
ag1953
ag1961
ag2761
ag2716
ag2319
ag994
ag631
ag2789
ag2625
ag2644
ag954
ag2281
ag1664
ag1203
ag1193
ag1410
ag481
ag1276
ag1067
ag2595
ag1814
ag121
ag1233
ag1918
ag2536
ag293
ag1077
ag2238
ag346
ag1782
ag2387
ag964
ag2024
ag1351
ag2367
ag749
ag2218
ag57
ag2137
ag2064
ag838
ag2769
ag588
ag2599
atRp2828
sg13
g1
sS'descriptor'
p2829
(S'default'
p2830
S'none'
p2831
g2830
tp2832
sS'atomDict'
p2833
(dp2834
g10
g18
sg1680
g1677
sg1926
g1923
sg663
g660
sg2347
g2344
sg335
g332
sg919
g916
sg1696
g1693
sg2614
g2611
sg545
g542
sg1265
g1262
sg1536
g1533
sg370
g367
sg1830
g1827
sg1747
g1744
sg1578
g1575
sg655
g652
sg714
g711
sg1324
g1321
sg239
g236
sg569
g566
sg1038
g1035
sg2110
g2107
sg172
g169
sg738
g735
sg153
g150
sg137
g134
sg765
g762
sg2427
g2424
sg2463
g2460
sg647
g644
sg32
g29
sg1731
g1728
sg1621
g1618
sg722
g719
sg2681
g2678
sg447
g444
sg809
g806
sg362
g359
sg386
g383
sg2633
g2630
sg1442
g1439
sg421
g418
sg1241
g1238
sg2246
g2243
sg1477
g1474
sg102
g99
sg935
g932
sg1672
g1669
sg1493
g1490
sg518
g515
sg2797
g2794
sg1292
g1289
sg2455
g2452
sg67
g64
sg2163
g2160
sg2750
g2747
sg247
g244
sg1316
g1313
sg790
g787
sg1790
g1787
sg687
g684
sg773
g770
sg180
g177
sg223
g220
sg1308
g1305
sg1367
g1364
sg1022
g1019
sg1629
g1626
sg1375
g1372
sg311
g308
sg1942
g1939
sg2471
g2468
sg604
g601
sg2262
g2259
sg620
g617
sg1552
g1549
sg1485
g1482
sg1158
g1155
sg1594
g1591
sg1763
g1760
sg1995
g1992
sg2517
g2514
sg83
g80
sg2734
g2731
sg271
g264
sg1391
g1388
sg1846
g1843
sg2525
g2522
sg2490
g2487
sg2563
g2560
sg413
g410
sg491
g488
sg866
g863
sg319
g316
sg2126
g2123
sg671
g668
sg1570
g1567
sg1723
g1720
sg1105
g1102
sg1426
g1423
sg42
g39
sg499
g496
sg1645
g1642
sg2435
g2432
sg1979
g1976
sg882
g879
sg1174
g1171
sg1340
g1337
sg596
g593
sg2072
g2069
sg1249
g1246
sg2395
g2392
sg1121
g1118
sg1418
g1415
sg2697
g2694
sg429
g426
sg459
g452
sg1509
g1506
sg231
g228
sg1798
g1795
sg2411
g2408
sg2299
g2296
sg1544
g1541
sg1865
g1862
sg145
g142
sg553
g550
sg2179
g2176
sg129
g126
sg1739
g1736
sg75
g72
sg1469
g1466
sg1822
g1819
sg2544
g2541
sg1300
g1297
sg196
g193
sg2419
g2416
sg2403
g2400
ssg16
g8
((lp2835
g1321
ag1843
ag2460
ag644
ag29
ag1618
ag1439
ag1720
ag169
ag2678
ag134
ag142
ag383
ag177
ag359
ag72
ag418
ag2452
ag2487
ag719
ag1533
ag2416
ag806
ag1677
ag1728
ag1506
ag1415
ag332
ag2747
ag542
ag2630
ag1693
ag99
ag593
ag426
ag1490
ag1238
ag1372
ag1305
ag1364
ag2794
ag308
ag244
ag601
ag236
ag2522
ag2160
ag193
ag228
ag617
ag2392
ag496
ag1019
ag2069
ag1626
ag1155
ag1591
ag1827
ag2424
ag150
ag1939
ag220
ag2731
ag64
ag2560
ag1669
ag444
ag410
ag488
ag2344
ag668
ag762
ag684
ag1388
ag1474
ag1423
ag39
ag515
ag863
ag1482
ag316
ag2243
ag2432
ag1567
ag1171
ag1337
ag735
ag1862
ag2694
ag1289
ag2408
ag652
ag1787
ag879
ag2296
ag1246
ag1313
ag1976
ag1466
ag2468
ag550
ag264
ag566
ag1642
ag932
ag1035
ag1297
ag1541
ag1992
ag1795
ag787
ag126
ag1736
ag80
ag660
ag1102
ag2514
ag2541
ag2176
ag18
ag1819
ag2400
ag1923
ag1549
ag452
ag916
ag711
ag2611
ag770
ag1262
ag2107
ag367
ag2123
ag1760
ag2259
ag1575
ag1744
ag1118
atRp2836
sg53
g8
((lp2837
g1988
ag1839
ag1258
ag2743
ag189
ag1384
ag2119
ag1638
ag680
ag256
ag782
ag2444
ag1502
ag2172
ag1167
ag928
ag1435
ag1756
ag1114
ag562
ag1807
ag379
ag1689
ag731
ag1031
ag2510
ag2255
ag328
ag508
ag1333
ag2690
ag613
ag92
ag1935
ag875
ag1587
atRp2838
sS'polyLink'
p2839
S'none'
p2840
sbsg37
g8
((lp2841
g1787
atRp2842
sg14
S'H'
sg48
I0
sg15
I00
sg49
(F1023.8880065282889
F40.844173207671744
F2.803559743330045
tp2843
sg51
(lp2844
sg13
g1
sg53
g8
((lp2845
g1807
atRp2846
sg55
g8
((lp2847
g1908
atRp2848
sg36
I00
sbatRp2849
sg36
I00
sbag1680
ag1926
ag663
ag2347
ag335
ag919
ag1696
ag2614
ag545
ag1265
ag1536
ag370
ag1830
ag1747
ag1578
ag655
ag714
ag1324
ag239
ag569
ag1038
ag2110
ag172
ag738
ag153
ag137
ag765
ag2427
ag2463
ag647
ag32
ag1731
ag1621
ag722
ag2681
ag447
ag809
ag362
ag386
ag2633
ag1442
ag421
ag1241
ag2246
ag1477
ag102
ag935
ag1672
ag1493
ag518
ag2797
ag1292
ag2455
ag67
ag2163
ag2750
ag247
ag1316
ag790
ag1790
ag687
ag773
ag180
ag223
ag1308
ag1367
ag1022
ag1629
ag1375
ag311
ag1942
ag2471
ag604
ag2262
ag620
ag1552
ag1485
ag1158
ag1594
ag1763
ag1995
ag2517
ag83
ag2734
ag271
ag1391
ag1846
ag2525
ag2490
ag2563
ag413
ag491
ag866
ag319
ag2126
ag671
ag1570
ag1723
ag1105
ag1426
ag42
ag499
ag1645
ag2435
ag1979
ag882
ag1174
ag1340
ag596
ag2072
ag1249
ag2395
ag1121
ag1418
ag2697
ag429
ag459
ag1509
ag231
ag1798
ag2411
ag2299
ag1544
ag1865
ag145
ag553
ag2179
ag129
ag1739
ag75
ag1469
ag1822
ag2544
ag1300
ag196
ag2419
ag2403
atRp2850
sS'ccpMolType'
p2851
S'other'
p2852
sS'details'
p2853
V
sg2833
(dp2854
g1628
g1629
sg1644
g1645
sg1104
g1105
sg1120
g1121
sg66
g67
sg136
g137
sg1291
g1292
sg1738
g1739
sg686
g687
sg670
g671
sg171
g172
sg1307
g1308
sg2261
g2262
sg1157
g1158
sg934
g935
sg918
g919
sg230
g231
sg2109
g2110
sg772
g773
sg789
g790
sg808
g809
sg654
g655
sg1730
g1731
sg517
g518
sg498
g499
sg1551
g1552
sg1864
g1865
sg1845
g1846
sg1829
g1830
sg1315
g1316
sg1925
g1926
sg1941
g1942
sg222
g223
sg179
g180
sg195
g196
sg1374
g1375
sg41
g42
sg2394
g2395
sg1390
g1391
sg568
g569
sg552
g553
sg1543
g1544
sg446
g447
sg1021
g1022
sg1037
g1038
sg2071
g2072
sg334
g335
sg662
g663
sg1366
g1367
sg1173
g1174
sg31
g32
sg246
g247
sg267
g271
sg1789
g1790
sg1248
g1249
sg1264
g1265
sg713
g714
sg1797
g1798
sg12
g10
sg2346
g2347
sg1484
g1485
sg1821
g1822
sg1417
g1418
sg318
g319
sg1492
g1493
sg1508
g1509
sg544
g545
sg1620
g1621
sg152
g153
sg2298
g2299
sg2524
g2525
sg2402
g2403
sg1978
g1979
sg1994
g1995
sg1323
g1324
sg1339
g1340
sg2796
g2797
sg101
g102
sg82
g83
sg74
g75
sg128
g129
sg1240
g1241
sg310
g311
sg2696
g2697
sg2680
g2681
sg1468
g1469
sg1695
g1696
sg1679
g1680
sg490
g491
sg1569
g1570
sg2434
g2435
sg2613
g2614
sg1425
g1426
sg2418
g2419
sg2489
g2490
sg2470
g2471
sg2454
g2455
sg455
g459
sg646
g647
sg721
g722
sg737
g738
sg2410
g2411
sg1476
g1477
sg361
g362
sg881
g882
sg865
g866
sg2162
g2163
sg2178
g2179
sg1722
g1723
sg412
g413
sg2125
g2126
sg2516
g2517
sg2426
g2427
sg2462
g2463
sg1746
g1747
sg1762
g1763
sg238
g239
sg603
g604
sg764
g765
sg619
g620
sg428
g429
sg2245
g2246
sg420
g421
sg1535
g1536
sg1671
g1672
sg595
g596
sg2733
g2734
sg2562
g2563
sg2543
g2544
sg385
g386
sg369
g370
sg144
g145
sg1299
g1300
sg2749
g2750
sg1441
g1442
sg1577
g1578
sg1593
g1594
sg2632
g2633
ssS'keywords'
p2855
g8
((ltRp2856
sg53
g8
((lp2857
g1988
ag1839
ag1258
ag2743
ag189
ag1384
ag2119
ag1638
ag680
ag256
ag782
ag2444
ag1502
ag2172
ag1167
ag928
ag1435
ag1756
ag1114
ag562
ag1807
ag379
ag1689
ag731
ag1031
ag2510
ag2255
ag328
ag508
ag1333
ag2690
ag613
ag92
ag1935
ag875
ag1587
atRp2858
sS'variants'
p2859
g8
((lp2860
g24
atRp2861
sS'defaultVars'
p2862
g8
((lp2863
g24
atRp2864
sb.