(imodel.Compound
Compound
p1
(dp2
S'name'
p3
VDioleoylphosphatidylethanolamine
p4
sS'ccpCode'
p5
Vdope
p6
sS'atoms'
p7
c__builtin__
set
p8
((lp9
(imodel.Atom
Atom
p10
(dp11
g3
VH12A_2
p12
sS'compound'
p13
g1
sS'element'
p14
S'H'
sS'isVariable'
p15
I00
sS'varAtoms'
p16
g8
((lp17
(imodel.VarAtom
VarAtom
p18
(dp19
g3
g12
sS'isLabile'
p20
I00
sS'chirality'
p21
NsS'atom'
p22
g10
sS'variant'
p23
(imodel.Variant
Variant
p24
(dp25
S'elementDict'
p26
(dp27
S'P'
g8
((lp28
(imodel.VarAtom
VarAtom
p29
(dp30
g3
S'P1'
p31
sg20
I00
sg21
Nsg22
(imodel.Atom
Atom
p32
(dp33
g3
g31
sg13
g1
sg14
S'P'
sg15
I00
sg16
g8
((lp34
g29
a(imodel.VarAtom
VarAtom
p35
(dp36
S'name'
p37
g31
sS'isLabile'
p38
I00
sS'chirality'
p39
NsS'atom'
p40
g32
sS'variant'
p41
(imodel.Variant
Variant
p42
(dp43
S'elementDict'
p44
(dp45
S'H'
g8
((lp46
(imodel.VarAtom
VarAtom
p47
(dp48
g37
VH12A_1
p49
sg38
I00
sg39
Nsg40
(imodel.Atom
Atom
p50
(dp51
g3
g49
sg13
g1
sg14
S'H'
sg15
I00
sg16
g8
((lp52
(imodel.VarAtom
VarAtom
p53
(dp54
g3
g49
sg20
I00
sg21
Nsg22
g50
sg23
g24
sS'neighbours'
p55
g8
((lp56
(imodel.VarAtom
VarAtom
p57
(dp58
g3
VC12A
p59
sg20
I00
sg21
Nsg22
(imodel.Atom
Atom
p60
(dp61
g3
g59
sg13
g1
sg14
S'C'
sg15
I00
sg16
g8
((lp62
g57
a(imodel.VarAtom
VarAtom
p63
(dp64
g37
g59
sg38
I00
sg39
Nsg40
g60
sg41
g42
sS'neighbours'
p65
g8
((lp66
(imodel.VarAtom
VarAtom
p67
(dp68
g37
g12
sg38
I00
sg39
Nsg40
g10
sg41
g42
sg65
g8
((lp69
g63
atRp70
sS'element'
p71
S'H'
sS'charge'
p72
I0
sS'isVariable'
p73
I00
sS'coords'
p74
(F660.73436396934767
F336.06864025270227
F0.52697684157087454
tp75
sS'freeValences'
p76
(lp77
sS'compound'
p78
g1
sS'atomGroups'
p79
g8
((lp80
(imodel.AtomGroup
AtomGroup
p81
(dp82
S'groupType'
p83
S'prochiral'
p84
sS'subGroups'
p85
g8
((ltRp86
sS'varAtoms'
p87
g8
((lp88
g47
ag67
atRp89
sg41
g42
sg78
g1
sbatRp90
sS'bonds'
p91
g8
((lp92
(imodel.Bond
Bond
p93
(dp94
g78
g1
sS'bondType'
p95
S'single'
p96
sg41
g42
sg87
g8
((lp97
g63
ag67
atRp98
sbatRp99
sS'isDeleted'
p100
I00
sba(imodel.VarAtom
VarAtom
p101
(dp102
g37
VC13A
p103
sg38
I00
sg39
Nsg40
(imodel.Atom
Atom
p104
(dp105
g3
g103
sg13
g1
sg14
S'C'
sg15
I00
sg16
g8
((lp106
(imodel.VarAtom
VarAtom
p107
(dp108
g3
g103
sg20
I00
sg21
Nsg22
g104
sg23
g24
sg55
g8
((lp109
(imodel.VarAtom
VarAtom
p110
(dp111
g3
VH13A_1
p112
sg20
I00
sg21
Nsg22
(imodel.Atom
Atom
p113
(dp114
g3
g112
sg13
g1
sg14
S'H'
sg15
I00
sg16
g8
((lp115
g110
a(imodel.VarAtom
VarAtom
p116
(dp117
g37
g112
sg38
I00
sg39
Nsg40
g113
sg41
g42
sg65
g8
((lp118
g101
atRp119
sg71
S'H'
sg72
I0
sg73
I00
sg74
(F645.73684524712746
F229.84937624794097
F0.48098740720277733
tp120
sg76
(lp121
sg78
g1
sg79
g8
((lp122
(imodel.AtomGroup
AtomGroup
p123
(dp124
g83
g84
sg85
g8
((ltRp125
sg87
g8
((lp126
g116
a(imodel.VarAtom
VarAtom
p127
(dp128
g37
VH13A_2
p129
sg38
I00
sg39
Nsg40
(imodel.Atom
Atom
p130
(dp131
g3
g129
sg13
g1
sg14
S'H'
sg15
I00
sg16
g8
((lp132
(imodel.VarAtom
VarAtom
p133
(dp134
g3
g129
sg20
I00
sg21
Nsg22
g130
sg23
g24
sg55
g8
((lp135
g107
atRp136
sg14
S'H'
sS'charge'
p137
I0
sg15
I00
sS'coords'
p138
(F682.94643257992993
F216.62262039051058
F0.039306149247010702
tp139
sS'freeValences'
p140
(lp141
sg13
g1
sS'atomGroups'
p142
g8
((lp143
(imodel.AtomGroup
AtomGroup
p144
(dp145
g83
S'prochiral'
p146
sg85
g8
((ltRp147
sg87
g8
((lp148
g110
ag133
atRp149
sg41
g24
sg78
g1
sbatRp150
sS'bonds'
p151
g8
((lp152
(imodel.Bond
Bond
p153
(dp154
g13
g1
sS'bondType'
p155
g96
sg23
g24
sg16
g8
((lp156
g107
ag133
atRp157
sbatRp158
sS'isDeleted'
p159
I00
sbag127
atRp160
sg159
I00
sbsg41
g42
sg65
g8
((lp161
g101
atRp162
sg71
S'H'
sg72
I0
sg73
I00
sg74
(F682.94643257992993
F216.62262039051058
F0.039306149247010702
tp163
sg76
(lp164
sg78
g1
sg79
g8
((lp165
g123
atRp166
sg91
g8
((lp167
(imodel.Bond
Bond
p168
(dp169
g78
g1
sg95
g96
sg41
g42
sg87
g8
((lp170
g101
ag127
atRp171
sbatRp172
sg100
I00
sbatRp173
sg41
g42
sg78
g1
sbatRp174
sg91
g8
((lp175
(imodel.Bond
Bond
p176
(dp177
g78
g1
sg95
g96
sg41
g42
sg87
g8
((lp178
g101
ag116
atRp179
sbatRp180
sg100
I00
sbatRp181
sg159
I00
sbsg23
g24
sg55
g8
((lp182
g107
atRp183
sg14
S'H'
sg137
I0
sg15
I00
sg138
(F645.73684524712746
F229.84937624794097
F0.48098740720277733
tp184
sg140
(lp185
sg13
g1
sg142
g8
((lp186
g144
atRp187
sg151
g8
((lp188
(imodel.Bond
Bond
p189
(dp190
g13
g1
sg155
g96
sg23
g24
sg16
g8
((lp191
g107
ag110
atRp192
sbatRp193
sg159
I00
sbag57
a(imodel.VarAtom
VarAtom
p194
(dp195
g3
VC14A
p196
sg20
I00
sg21
Nsg22
(imodel.Atom
Atom
p197
(dp198
g3
g196
sg13
g1
sg14
S'C'
sg15
I00
sg16
g8
((lp199
g194
a(imodel.VarAtom
VarAtom
p200
(dp201
g37
g196
sg38
I00
sg39
Nsg40
g197
sg41
g42
sg65
g8
((lp202
(imodel.VarAtom
VarAtom
p203
(dp204
g37
VH14A_1
p205
sg38
I00
sg39
Nsg40
(imodel.Atom
Atom
p206
(dp207
g3
g205
sg13
g1
sg14
S'H'
sg15
I00
sg16
g8
((lp208
(imodel.VarAtom
VarAtom
p209
(dp210
g3
g205
sg20
I00
sg21
Nsg22
g206
sg23
g24
sg55
g8
((lp211
g194
atRp212
sg14
S'H'
sg137
I0
sg15
I00
sg138
(F709.87275000415229
F319.24287483419926
F0.21273487644436118
tp213
sg140
(lp214
sg13
g1
sg142
g8
((lp215
(imodel.AtomGroup
AtomGroup
p216
(dp217
g83
g146
sg85
g8
((ltRp218
sg87
g8
((lp219
g209
a(imodel.VarAtom
VarAtom
p220
(dp221
g3
VH14A_2
p222
sg20
I00
sg21
Nsg22
(imodel.Atom
Atom
p223
(dp224
g3
g222
sg13
g1
sg14
S'H'
sg15
I00
sg16
g8
((lp225
g220
a(imodel.VarAtom
VarAtom
p226
(dp227
g37
g222
sg38
I00
sg39
Nsg40
g223
sg41
g42
sg65
g8
((lp228
g200
atRp229
sg71
S'H'
sg72
I0
sg73
I00
sg74
(F759.68493690269133
F321.54813567003998
F0.73140941119923608
tp230
sg76
(lp231
sg78
g1
sg79
g8
((lp232
(imodel.AtomGroup
AtomGroup
p233
(dp234
g83
g84
sg85
g8
((ltRp235
sg87
g8
((lp236
g203
ag226
atRp237
sg41
g42
sg78
g1
sbatRp238
sg91
g8
((lp239
(imodel.Bond
Bond
p240
(dp241
g78
g1
sg95
g96
sg41
g42
sg87
g8
((lp242
g200
ag226
atRp243
sbatRp244
sg100
I00
sbatRp245
sg159
I00
sbsg23
g24
sg55
g8
((lp246
g194
atRp247
sg14
S'H'
sg137
I0
sg15
I00
sg138
(F759.68493690269133
F321.54813567003998
F0.73140941119923608
tp248
sg140
(lp249
sg13
g1
sg142
g8
((lp250
g216
atRp251
sg151
g8
((lp252
(imodel.Bond
Bond
p253
(dp254
g13
g1
sg155
g96
sg23
g24
sg16
g8
((lp255
g194
ag220
atRp256
sbatRp257
sg159
I00
sbatRp258
sg41
g24
sg78
g1
sbatRp259
sg151
g8
((lp260
(imodel.Bond
Bond
p261
(dp262
g13
g1
sg155
g96
sg23
g24
sg16
g8
((lp263
g194
ag209
atRp264
sbatRp265
sg159
I00
sbag203
atRp266
sg159
I00
sbsg41
g42
sg65
g8
((lp267
g200
atRp268
sg71
S'H'
sg72
I0
sg73
I00
sg74
(F709.87275000415229
F319.24287483419926
F0.21273487644436118
tp269
sg76
(lp270
sg78
g1
sg79
g8
((lp271
g233
atRp272
sg91
g8
((lp273
(imodel.Bond
Bond
p274
(dp275
g78
g1
sg95
g96
sg41
g42
sg87
g8
((lp276
g200
ag203
atRp277
sbatRp278
sg100
I00
sbag226
ag101
a(imodel.VarAtom
VarAtom
p279
(dp280
g37
VC15A
p281
sg38
I00
sg39
Nsg40
(imodel.Atom
Atom
p282
(dp283
g3
g281
sg13
g1
sg14
S'C'
sg15
I00
sg16
g8
((lp284
(imodel.VarAtom
VarAtom
p285
(dp286
g3
g281
sg20
I00
sg21
Nsg22
g282
sg23
g24
sg55
g8
((lp287
(imodel.VarAtom
VarAtom
p288
(dp289
g3
VC16A
p290
sg20
I00
sg21
Nsg22
(imodel.Atom
Atom
p291
(dp292
g3
g290
sg13
g1
sg14
S'C'
sg15
I00
sg16
g8
((lp293
g288
a(imodel.VarAtom
VarAtom
p294
(dp295
g37
g290
sg38
I00
sg39
Nsg40
g291
sg41
g42
sg65
g8
((lp296
(imodel.VarAtom
VarAtom
p297
(dp298
g37
VH16A_1
p299
sg38
I00
sg39
Nsg40
(imodel.Atom
Atom
p300
(dp301
g3
g299
sg13
g1
sg14
S'H'
sg15
I00
sg16
g8
((lp302
(imodel.VarAtom
VarAtom
p303
(dp304
g3
g299
sg20
I00
sg21
Nsg22
g300
sg23
g24
sg55
g8
((lp305
g288
atRp306
sg14
S'H'
sg137
I0
sg15
I00
sg138
(F809.57646359623914
F305.14266430289899
F0.67931449529727617
tp307
sg140
(lp308
sg13
g1
sg142
g8
((lp309
(imodel.AtomGroup
AtomGroup
p310
(dp311
g83
g146
sg85
g8
((ltRp312
sg87
g8
((lp313
g303
a(imodel.VarAtom
VarAtom
p314
(dp315
g3
VH16A_2
p316
sg20
I00
sg21
Nsg22
(imodel.Atom
Atom
p317
(dp318
g3
g316
sg13
g1
sg14
S'H'
sg15
I00
sg16
g8
((lp319
g314
a(imodel.VarAtom
VarAtom
p320
(dp321
g37
g316
sg38
I00
sg39
Nsg40
g317
sg41
g42
sg65
g8
((lp322
g294
atRp323
sg71
S'H'
sg72
I0
sg73
I00
sg74
(F860.2422208520486
F309.06877924657022
F0.27904309892180312
tp324
sg76
(lp325
sg78
g1
sg79
g8
((lp326
(imodel.AtomGroup
AtomGroup
p327
(dp328
g83
g84
sg85
g8
((ltRp329
sg87
g8
((lp330
g297
ag320
atRp331
sg41
g42
sg78
g1
sbatRp332
sg91
g8
((lp333
(imodel.Bond
Bond
p334
(dp335
g78
g1
sg95
g96
sg41
g42
sg87
g8
((lp336
g294
ag320
atRp337
sbatRp338
sg100
I00
sbatRp339
sg159
I00
sbsg23
g24
sg55
g8
((lp340
g288
atRp341
sg14
S'H'
sg137
I0
sg15
I00
sg138
(F860.2422208520486
F309.06877924657022
F0.27904309892180312
tp342
sg140
(lp343
sg13
g1
sg142
g8
((lp344
g310
atRp345
sg151
g8
((lp346
(imodel.Bond
Bond
p347
(dp348
g13
g1
sg155
g96
sg23
g24
sg16
g8
((lp349
g288
ag314
atRp350
sbatRp351
sg159
I00
sbatRp352
sg41
g24
sg78
g1
sbatRp353
sg151
g8
((lp354
(imodel.Bond
Bond
p355
(dp356
g13
g1
sg155
g96
sg23
g24
sg16
g8
((lp357
g288
ag303
atRp358
sbatRp359
sg159
I00
sbag297
atRp360
sg159
I00
sbsg41
g42
sg65
g8
((lp361
g294
atRp362
sg71
S'H'
sg72
I0
sg73
I00
sg74
(F809.57646359623914
F305.14266430289899
F0.67931449529727617
tp363
sg76
(lp364
sg78
g1
sg79
g8
((lp365
g327
atRp366
sg91
g8
((lp367
(imodel.Bond
Bond
p368
(dp369
g78
g1
sg95
g96
sg41
g42
sg87
g8
((lp370
g294
ag297
atRp371
sbatRp372
sg100
I00
sbag320
ag279
a(imodel.VarAtom
VarAtom
p373
(dp374
g37
VC17A
p375
sg38
I00
sg39
Nsg40
(imodel.Atom
Atom
p376
(dp377
g3
g375
sg13
g1
sg14
S'C'
sg15
I00
sg16
g8
((lp378
(imodel.VarAtom
VarAtom
p379
(dp380
g3
g375
sg20
I00
sg21
Nsg22
g376
sg23
g24
sg55
g8
((lp381
(imodel.VarAtom
VarAtom
p382
(dp383
g3
VH17A_1
p384
sg20
I00
sg21
Nsg22
(imodel.Atom
Atom
p385
(dp386
g3
g384
sg13
g1
sg14
S'H'
sg15
I00
sg16
g8
((lp387
g382
a(imodel.VarAtom
VarAtom
p388
(dp389
g37
g384
sg38
I00
sg39
Nsg40
g385
sg41
g42
sg65
g8
((lp390
g373
atRp391
sg71
S'H'
sg72
I0
sg73
I00
sg74
(F885.03397307178079
F184.10816111143197
F0.97762349973584917
tp392
sg76
(lp393
sg78
g1
sg79
g8
((lp394
(imodel.AtomGroup
AtomGroup
p395
(dp396
g83
g84
sg85
g8
((ltRp397
sg87
g8
((lp398
g388
a(imodel.VarAtom
VarAtom
p399
(dp400
g37
VH17A_2
p401
sg38
I00
sg39
Nsg40
(imodel.Atom
Atom
p402
(dp403
g3
g401
sg13
g1
sg14
S'H'
sg15
I00
sg16
g8
((lp404
(imodel.VarAtom
VarAtom
p405
(dp406
g3
g401
sg20
I00
sg21
Nsg22
g402
sg23
g24
sg55
g8
((lp407
g379
atRp408
sg14
S'H'
sg137
I0
sg15
I00
sg138
(F847.88705264285977
F203.47463449324877
F0.54082099126656147
tp409
sg140
(lp410
sg13
g1
sg142
g8
((lp411
(imodel.AtomGroup
AtomGroup
p412
(dp413
g83
g146
sg85
g8
((ltRp414
sg87
g8
((lp415
g405
ag382
atRp416
sg41
g24
sg78
g1
sbatRp417
sg151
g8
((lp418
(imodel.Bond
Bond
p419
(dp420
g13
g1
sg155
g96
sg23
g24
sg16
g8
((lp421
g379
ag405
atRp422
sbatRp423
sg159
I00
sbag399
atRp424
sg159
I00
sbsg41
g42
sg65
g8
((lp425
g373
atRp426
sg71
S'H'
sg72
I0
sg73
I00
sg74
(F847.88705264285977
F203.47463449324877
F0.54082099126656147
tp427
sg76
(lp428
sg78
g1
sg79
g8
((lp429
g395
atRp430
sg91
g8
((lp431
(imodel.Bond
Bond
p432
(dp433
g78
g1
sg95
g96
sg41
g42
sg87
g8
((lp434
g373
ag399
atRp435
sbatRp436
sg100
I00
sbatRp437
sg41
g42
sg78
g1
sbatRp438
sg91
g8
((lp439
(imodel.Bond
Bond
p440
(dp441
g78
g1
sg95
g96
sg41
g42
sg87
g8
((lp442
g373
ag388
atRp443
sbatRp444
sg100
I00
sbatRp445
sg159
I00
sbsg23
g24
sg55
g8
((lp446
g379
atRp447
sg14
S'H'
sg137
I0
sg15
I00
sg138
(F885.03397307178079
F184.10816111143197
F0.97762349973584917
tp448
sg140
(lp449
sg13
g1
sg142
g8
((lp450
g412
atRp451
sg151
g8
((lp452
(imodel.Bond
Bond
p453
(dp454
g13
g1
sg155
g96
sg23
g24
sg16
g8
((lp455
g379
ag382
atRp456
sbatRp457
sg159
I00
sbag288
ag405
a(imodel.VarAtom
VarAtom
p458
(dp459
g3
VC18A
p460
sg20
I00
sg21
Nsg22
(imodel.Atom
Atom
p461
(dp462
g3
g460
sg13
g1
sg14
S'C'
sg15
I00
sg16
g8
((lp463
g458
a(imodel.VarAtom
VarAtom
p464
(dp465
g37
g460
sg38
I00
sg39
Nsg40
g461
sg41
g42
sg65
g8
((lp466
(imodel.VarAtom
VarAtom
p467
(dp468
g37
VH18A_2
p469
sg38
I00
sg39
Nsg40
(imodel.Atom
Atom
p470
(dp471
g3
g469
sg13
g1
sg14
S'H'
sg15
I00
sg16
g8
((lp472
(imodel.VarAtom
VarAtom
p473
(dp474
g3
g469
sg20
I00
sg21
Nsg22
g470
sg23
g24
sg55
g8
((lp475
g458
atRp476
sg14
S'H'
sg137
I0
sg15
I00
sg138
(F951.24664099956112
F212.65631574251418
F0.76096068188247556
tp477
sg140
(lp478
sg13
g1
sg142
g8
((lp479
(imodel.AtomGroup
AtomGroup
p480
(dp481
g83
S'equivalent'
p482
sg85
g8
((ltRp483
sg87
g8
((lp484
g473
a(imodel.VarAtom
VarAtom
p485
(dp486
g3
VH18A_3
p487
sg20
I00
sg21
Nsg22
(imodel.Atom
Atom
p488
(dp489
g3
g487
sg13
g1
sg14
S'H'
sg15
I00
sg16
g8
((lp490
g485
a(imodel.VarAtom
VarAtom
p491
(dp492
g37
g487
sg38
I00
sg39
Nsg40
g488
sg41
g42
sg65
g8
((lp493
g464
atRp494
sg71
S'H'
sg72
I0
sg73
I00
sg74
(F976.10870094073061
F274.11536368108898
F0.080893332414377572
tp495
sg76
(lp496
sg78
g1
sg79
g8
((lp497
(imodel.AtomGroup
AtomGroup
p498
(dp499
g83
S'equivalent'
p500
sg85
g8
((ltRp501
sg87
g8
((lp502
(imodel.VarAtom
VarAtom
p503
(dp504
g37
VH18A_1
p505
sg38
I00
sg39
Nsg40
(imodel.Atom
Atom
p506
(dp507
g3
g505
sg13
g1
sg14
S'H'
sg15
I00
sg16
g8
((lp508
(imodel.VarAtom
VarAtom
p509
(dp510
g3
g505
sg20
I00
sg21
Nsg22
g506
sg23
g24
sg55
g8
((lp511
g458
atRp512
sg14
S'H'
sg137
I0
sg15
I00
sg138
(F914.48936300589207
F296.63120099790035
F0.5878237296912906
tp513
sg140
(lp514
sg13
g1
sg142
g8
((lp515
g480
atRp516
sg151
g8
((lp517
(imodel.Bond
Bond
p518
(dp519
g13
g1
sg155
g96
sg23
g24
sg16
g8
((lp520
g458
ag509
atRp521
sbatRp522
sg159
I00
sbag503
atRp523
sg159
I00
sbsg41
g42
sg65
g8
((lp524
g464
atRp525
sg71
S'H'
sg72
I0
sg73
I00
sg74
(F914.48936300589207
F296.63120099790035
F0.5878237296912906
tp526
sg76
(lp527
sg78
g1
sg79
g8
((lp528
g498
atRp529
sg91
g8
((lp530
(imodel.Bond
Bond
p531
(dp532
g78
g1
sg95
g96
sg41
g42
sg87
g8
((lp533
g464
ag503
atRp534
sbatRp535
sg100
I00
sbag467
ag491
atRp536
sg41
g42
sg78
g1
sbatRp537
sg91
g8
((lp538
(imodel.Bond
Bond
p539
(dp540
g78
g1
sg95
g96
sg41
g42
sg87
g8
((lp541
g464
ag491
atRp542
sbatRp543
sg100
I00
sbatRp544
sg159
I00
sbsg23
g24
sg55
g8
((lp545
g458
atRp546
sg14
S'H'
sg137
I0
sg15
I00
sg138
(F976.10870094073061
F274.11536368108898
F0.080893332414377572
tp547
sg140
(lp548
sg13
g1
sg142
g8
((lp549
g480
atRp550
sg151
g8
((lp551
(imodel.Bond
Bond
p552
(dp553
g13
g1
sg155
g96
sg23
g24
sg16
g8
((lp554
g458
ag485
atRp555
sbatRp556
sg159
I00
sbag509
atRp557
sg41
g24
sg78
g1
sbatRp558
sg151
g8
((lp559
(imodel.Bond
Bond
p560
(dp561
g13
g1
sg155
g96
sg23
g24
sg16
g8
((lp562
g458
ag473
atRp563
sbatRp564
sg159
I00
sbag467
atRp565
sg159
I00
sbsg41
g42
sg65
g8
((lp566
g464
atRp567
sg71
S'H'
sg72
I0
sg73
I00
sg74
(F951.24664099956112
F212.65631574251418
F0.76096068188247556
tp568
sg76
(lp569
sg78
g1
sg79
g8
((lp570
g498
atRp571
sg91
g8
((lp572
(imodel.Bond
Bond
p573
(dp574
g78
g1
sg95
g96
sg41
g42
sg87
g8
((lp575
g464
ag467
atRp576
sbatRp577
sg100
I00
sbag373
ag491
ag503
atRp578
sg71
S'C'
sg72
I0
sg73
I00
sg74
(F930.26619293882504
F256.81553931267035
F0.7547779120901541
tp579
sg76
(lp580
sg78
g1
sg79
g8
((ltRp581
sg91
g8
((lp582
(imodel.Bond
Bond
p583
(dp584
g78
g1
sg95
g96
sg41
g42
sg87
g8
((lp585
g464
ag373
atRp586
sbag531
ag539
ag573
atRp587
sg100
I00
sbatRp588
sg159
I00
sbsg23
g24
sg55
g8
((lp589
g379
ag509
ag485
ag473
atRp590
sg14
S'C'
sg137
I0
sg15
I00
sg138
(F930.26619293882504
F256.81553931267035
F0.7547779120901541
tp591
sg140
(lp592
sg13
g1
sg142
g8
((ltRp593
sg151
g8
((lp594
(imodel.Bond
Bond
p595
(dp596
g13
g1
sg155
g96
sg23
g24
sg16
g8
((lp597
g458
ag379
atRp598
sbag518
ag552
ag560
atRp599
sg159
I00
sbatRp600
sg14
S'C'
sg137
I0
sg15
I00
sg138
(F878.60742035730766
F229.5378307057166
F0.69826640400363693
tp601
sg140
(lp602
sg13
g1
sg142
g8
((ltRp603
sg151
g8
((lp604
(imodel.Bond
Bond
p605
(dp606
g13
g1
sg155
g96
sg23
g24
sg16
g8
((lp607
g379
ag288
atRp608
sbag595
ag419
ag453
atRp609
sg159
I00
sbag373
atRp610
sg159
I00
sbsg41
g42
sg65
g8
((lp611
g399
ag388
ag464
ag294
atRp612
sg71
S'C'
sg72
I0
sg73
I00
sg74
(F878.60742035730766
F229.5378307057166
F0.69826640400363693
tp613
sg76
(lp614
sg78
g1
sg79
g8
((ltRp615
sg91
g8
((lp616
g440
ag432
ag583
a(imodel.Bond
Bond
p617
(dp618
g78
g1
sg95
g96
sg41
g42
sg87
g8
((lp619
g373
ag294
atRp620
sbatRp621
sg100
I00
sbatRp622
sg71
S'C'
sg72
I0
sg73
I00
sg74
(F833.66988739334738
F271.2988317260448
F0.2043552126440753
tp623
sg76
(lp624
sg78
g1
sg79
g8
((ltRp625
sg91
g8
((lp626
g334
a(imodel.Bond
Bond
p627
(dp628
g78
g1
sg95
g96
sg41
g42
sg87
g8
((lp629
g294
ag279
atRp630
sbag617
ag368
atRp631
sg100
I00
sbatRp632
sg159
I00
sbsg23
g24
sg55
g8
((lp633
g285
ag303
ag379
ag314
atRp634
sg14
S'C'
sg137
I0
sg15
I00
sg138
(F833.66988739334738
F271.2988317260448
F0.2043552126440753
tp635
sg140
(lp636
sg13
g1
sg142
g8
((ltRp637
sg151
g8
((lp638
(imodel.Bond
Bond
p639
(dp640
g13
g1
sg155
g96
sg23
g24
sg16
g8
((lp641
g288
ag285
atRp642
sbag605
ag355
ag347
atRp643
sg159
I00
sba(imodel.VarAtom
VarAtom
p644
(dp645
g3
VH15A_1
p646
sg20
I00
sg21
Nsg22
(imodel.Atom
Atom
p647
(dp648
g3
g646
sg13
g1
sg14
S'H'
sg15
I00
sg16
g8
((lp649
g644
a(imodel.VarAtom
VarAtom
p650
(dp651
g37
g646
sg38
I00
sg39
Nsg40
g647
sg41
g42
sg65
g8
((lp652
g279
atRp653
sg71
S'H'
sg72
I0
sg73
I00
sg74
(F783.55095694924694
F201.8876129095446
F0.24262786107558254
tp654
sg76
(lp655
sg78
g1
sg79
g8
((lp656
(imodel.AtomGroup
AtomGroup
p657
(dp658
g83
g84
sg85
g8
((ltRp659
sg87
g8
((lp660
g650
a(imodel.VarAtom
VarAtom
p661
(dp662
g37
VH15A_2
p663
sg38
I00
sg39
Nsg40
(imodel.Atom
Atom
p664
(dp665
g3
g663
sg13
g1
sg14
S'H'
sg15
I00
sg16
g8
((lp666
(imodel.VarAtom
VarAtom
p667
(dp668
g3
g663
sg20
I00
sg21
Nsg22
g664
sg23
g24
sg55
g8
((lp669
g285
atRp670
sg14
S'H'
sg137
I0
sg15
I00
sg138
(F746.29141766786699
F215.43117195887476
F0.86270354383822934
tp671
sg140
(lp672
sg13
g1
sg142
g8
((lp673
(imodel.AtomGroup
AtomGroup
p674
(dp675
g83
g146
sg85
g8
((ltRp676
sg87
g8
((lp677
g644
ag667
atRp678
sg41
g24
sg78
g1
sbatRp679
sg151
g8
((lp680
(imodel.Bond
Bond
p681
(dp682
g13
g1
sg155
g96
sg23
g24
sg16
g8
((lp683
g285
ag667
atRp684
sbatRp685
sg159
I00
sbag661
atRp686
sg159
I00
sbsg41
g42
sg65
g8
((lp687
g279
atRp688
sg71
S'H'
sg72
I0
sg73
I00
sg74
(F746.29141766786699
F215.43117195887476
F0.86270354383822934
tp689
sg76
(lp690
sg78
g1
sg79
g8
((lp691
g657
atRp692
sg91
g8
((lp693
(imodel.Bond
Bond
p694
(dp695
g78
g1
sg95
g96
sg41
g42
sg87
g8
((lp696
g279
ag661
atRp697
sbatRp698
sg100
I00
sbatRp699
sg41
g42
sg78
g1
sbatRp700
sg91
g8
((lp701
(imodel.Bond
Bond
p702
(dp703
g78
g1
sg95
g96
sg41
g42
sg87
g8
((lp704
g279
ag650
atRp705
sbatRp706
sg100
I00
sbatRp707
sg159
I00
sbsg23
g24
sg55
g8
((lp708
g285
atRp709
sg14
S'H'
sg137
I0
sg15
I00
sg138
(F783.55095694924694
F201.8876129095446
F0.24262786107558254
tp710
sg140
(lp711
sg13
g1
sg142
g8
((lp712
g674
atRp713
sg151
g8
((lp714
(imodel.Bond
Bond
p715
(dp716
g13
g1
sg155
g96
sg23
g24
sg16
g8
((lp717
g285
ag644
atRp718
sbatRp719
sg159
I00
sbag194
ag667
atRp720
sg14
S'C'
sg137
I0
sg15
I00
sg138
(F779.05513186892313
F241.27900461891352
F0.99194413034942563
tp721
sg140
(lp722
sg13
g1
sg142
g8
((ltRp723
sg151
g8
((lp724
(imodel.Bond
Bond
p725
(dp726
g13
g1
sg155
g96
sg23
g24
sg16
g8
((lp727
g285
ag194
atRp728
sbag639
ag715
ag681
atRp729
sg159
I00
sbag279
atRp730
sg159
I00
sbsg41
g42
sg65
g8
((lp731
g200
ag294
ag650
ag661
atRp732
sg71
S'C'
sg72
I0
sg73
I00
sg74
(F779.05513186892313
F241.27900461891352
F0.99194413034942563
tp733
sg76
(lp734
sg78
g1
sg79
g8
((ltRp735
sg91
g8
((lp736
(imodel.Bond
Bond
p737
(dp738
g78
g1
sg95
g96
sg41
g42
sg87
g8
((lp739
g279
ag200
atRp740
sbag702
ag694
ag627
atRp741
sg100
I00
sbatRp742
sg71
S'C'
sg72
I0
sg73
I00
sg74
(F733.88815356778946
F284.90777663231427
F0.77847271539212659
tp743
sg76
(lp744
sg78
g1
sg79
g8
((ltRp745
sg91
g8
((lp746
g274
ag737
ag240
a(imodel.Bond
Bond
p747
(dp748
g78
g1
sg95
g96
sg41
g42
sg87
g8
((lp749
g200
ag101
atRp750
sbatRp751
sg100
I00
sbatRp752
sg159
I00
sbsg23
g24
sg55
g8
((lp753
g285
ag107
ag220
ag209
atRp754
sg14
S'C'
sg137
I0
sg15
I00
sg138
(F733.88815356778946
F284.90777663231427
F0.77847271539212659
tp755
sg140
(lp756
sg13
g1
sg142
g8
((ltRp757
sg151
g8
((lp758
(imodel.Bond
Bond
p759
(dp760
g13
g1
sg155
g96
sg23
g24
sg16
g8
((lp761
g194
ag107
atRp762
sbag725
ag253
ag261
atRp763
sg159
I00
sbag133
atRp764
sg14
S'C'
sg137
I0
sg15
I00
sg138
(F678.81857685713908
F256.20146131170833
F0.35127252654464947
tp765
sg140
(lp766
sg13
g1
sg142
g8
((ltRp767
sg151
g8
((lp768
(imodel.Bond
Bond
p769
(dp770
g13
g1
sg155
g96
sg23
g24
sg16
g8
((lp771
g107
ag57
atRp772
sbag759
ag189
ag153
atRp773
sg159
I00
sbag101
atRp774
sg159
I00
sbsg41
g42
sg65
g8
((lp775
g116
ag63
ag127
ag200
atRp776
sg71
S'C'
sg72
I0
sg73
I00
sg74
(F678.81857685713908
F256.20146131170833
F0.35127252654464947
tp777
sg76
(lp778
sg78
g1
sg79
g8
((ltRp779
sg91
g8
((lp780
(imodel.Bond
Bond
p781
(dp782
g78
g1
sg95
g96
sg41
g42
sg87
g8
((lp783
g101
ag63
atRp784
sbag176
ag747
ag168
atRp785
sg100
I00
sba(imodel.VarAtom
VarAtom
p786
(dp787
g37
VC11A
p788
sg38
I00
sg39
Nsg40
(imodel.Atom
Atom
p789
(dp790
g3
g788
sg13
g1
sg14
S'C'
sg15
I00
sg16
g8
((lp791
(imodel.VarAtom
VarAtom
p792
(dp793
g3
g788
sg20
I00
sg21
Nsg22
g789
sg23
g24
sg55
g8
((lp794
(imodel.VarAtom
VarAtom
p795
(dp796
g3
VH11A_1
p797
sg20
I00
sg21
Nsg22
(imodel.Atom
Atom
p798
(dp799
g3
g797
sg13
g1
sg14
S'H'
sg15
I00
sg16
g8
((lp800
g795
a(imodel.VarAtom
VarAtom
p801
(dp802
g37
g797
sg38
I00
sg39
Nsg40
g798
sg41
g42
sg65
g8
((lp803
g786
atRp804
sg71
S'H'
sg72
I0
sg73
I00
sg74
(F543.34098325474747
F244.76893546132661
F0.49140400604342882
tp805
sg76
(lp806
sg78
g1
sg79
g8
((lp807
(imodel.AtomGroup
AtomGroup
p808
(dp809
g83
g84
sg85
g8
((ltRp810
sg87
g8
((lp811
g801
a(imodel.VarAtom
VarAtom
p812
(dp813
g37
VH11A_2
p814
sg38
I00
sg39
Nsg40
(imodel.Atom
Atom
p815
(dp816
g3
g814
sg13
g1
sg14
S'H'
sg15
I00
sg16
g8
((lp817
(imodel.VarAtom
VarAtom
p818
(dp819
g3
g814
sg20
I00
sg21
Nsg22
g815
sg23
g24
sg55
g8
((lp820
g792
atRp821
sg14
S'H'
sg137
I0
sg15
I00
sg138
(F583.46930922883553
F231.31839468344089
F0.71715756115618157
tp822
sg140
(lp823
sg13
g1
sg142
g8
((lp824
(imodel.AtomGroup
AtomGroup
p825
(dp826
g83
g146
sg85
g8
((ltRp827
sg87
g8
((lp828
g795
ag818
atRp829
sg41
g24
sg78
g1
sbatRp830
sg151
g8
((lp831
(imodel.Bond
Bond
p832
(dp833
g13
g1
sg155
g96
sg23
g24
sg16
g8
((lp834
g792
ag818
atRp835
sbatRp836
sg159
I00
sbag812
atRp837
sg159
I00
sbsg41
g42
sg65
g8
((lp838
g786
atRp839
sg71
S'H'
sg72
I0
sg73
I00
sg74
(F583.46930922883553
F231.31839468344089
F0.71715756115618157
tp840
sg76
(lp841
sg78
g1
sg79
g8
((lp842
g808
atRp843
sg91
g8
((lp844
(imodel.Bond
Bond
p845
(dp846
g78
g1
sg95
g96
sg41
g42
sg87
g8
((lp847
g786
ag812
atRp848
sbatRp849
sg100
I00
sbatRp850
sg41
g42
sg78
g1
sbatRp851
sg91
g8
((lp852
(imodel.Bond
Bond
p853
(dp854
g78
g1
sg95
g96
sg41
g42
sg87
g8
((lp855
g786
ag801
atRp856
sbatRp857
sg100
I00
sbatRp858
sg159
I00
sbsg23
g24
sg55
g8
((lp859
g792
atRp860
sg14
S'H'
sg137
I0
sg15
I00
sg138
(F543.34098325474747
F244.76893546132661
F0.49140400604342882
tp861
sg140
(lp862
sg13
g1
sg142
g8
((lp863
g825
atRp864
sg151
g8
((lp865
(imodel.Bond
Bond
p866
(dp867
g13
g1
sg155
g96
sg23
g24
sg16
g8
((lp868
g792
ag795
atRp869
sbatRp870
sg159
I00
sba(imodel.VarAtom
VarAtom
p871
(dp872
g3
VC10A
p873
sg20
I00
sg21
Nsg22
(imodel.Atom
Atom
p874
(dp875
g3
g873
sg13
g1
sg14
S'C'
sg15
I00
sg16
g8
((lp876
g871
a(imodel.VarAtom
VarAtom
p877
(dp878
g37
g873
sg38
I00
sg39
Nsg40
g874
sg41
g42
sg65
g8
((lp879
(imodel.VarAtom
VarAtom
p880
(dp881
g37
VH10A
p882
sg38
I00
sg39
Nsg40
(imodel.Atom
Atom
p883
(dp884
g3
g882
sg13
g1
sg14
S'H'
sg15
I00
sg16
g8
((lp885
(imodel.VarAtom
VarAtom
p886
(dp887
g3
g882
sg20
I00
sg21
Nsg22
g883
sg23
g24
sg55
g8
((lp888
g871
atRp889
sg14
S'H'
sg137
I0
sg15
I00
sg138
(F556.72693657562195
F349.76029197542152
F0.18271424754667409
tp890
sg140
(lp891
sg13
g1
sg142
g8
((ltRp892
sg151
g8
((lp893
(imodel.Bond
Bond
p894
(dp895
g13
g1
sg155
g96
sg23
g24
sg16
g8
((lp896
g871
ag886
atRp897
sbatRp898
sg159
I00
sbag880
atRp899
sg159
I00
sbsg41
g42
sg65
g8
((lp900
g877
atRp901
sg71
S'H'
sg72
I0
sg73
I00
sg74
(F556.72693657562195
F349.76029197542152
F0.18271424754667409
tp902
sg76
(lp903
sg78
g1
sg79
g8
((ltRp904
sg91
g8
((lp905
(imodel.Bond
Bond
p906
(dp907
g78
g1
sg95
g96
sg41
g42
sg87
g8
((lp908
g877
ag880
atRp909
sbatRp910
sg100
I00
sbag786
a(imodel.VarAtom
VarAtom
p911
(dp912
g37
VC9A
p913
sg38
I00
sg39
Nsg40
(imodel.Atom
Atom
p914
(dp915
g3
g913
sg13
g1
sg14
S'C'
sg15
I00
sg16
g8
((lp916
(imodel.VarAtom
VarAtom
p917
(dp918
g3
g913
sg20
I00
sg21
Nsg22
g914
sg23
g24
sg55
g8
((lp919
(imodel.VarAtom
VarAtom
p920
(dp921
g3
VC8A
p922
sg20
I00
sg21
Nsg22
(imodel.Atom
Atom
p923
(dp924
g3
g922
sg13
g1
sg14
S'C'
sg15
I00
sg16
g8
((lp925
g920
a(imodel.VarAtom
VarAtom
p926
(dp927
g37
g922
sg38
I00
sg39
Nsg40
g923
sg41
g42
sg65
g8
((lp928
(imodel.VarAtom
VarAtom
p929
(dp930
g37
VH8A_1
p931
sg38
I00
sg39
Nsg40
(imodel.Atom
Atom
p932
(dp933
g3
g931
sg13
g1
sg14
S'H'
sg15
I00
sg16
g8
((lp934
(imodel.VarAtom
VarAtom
p935
(dp936
g3
g931
sg20
I00
sg21
Nsg22
g932
sg23
g24
sg55
g8
((lp937
g920
atRp938
sg14
S'H'
sg137
I0
sg15
I00
sg138
(F468.82751520114152
F243.09906297780401
F0.66789670857960748
tp939
sg140
(lp940
sg13
g1
sg142
g8
((lp941
(imodel.AtomGroup
AtomGroup
p942
(dp943
g83
g146
sg85
g8
((ltRp944
sg87
g8
((lp945
g935
a(imodel.VarAtom
VarAtom
p946
(dp947
g3
VH8A_2
p948
sg20
I00
sg21
Nsg22
(imodel.Atom
Atom
p949
(dp950
g3
g948
sg13
g1
sg14
S'H'
sg15
I00
sg16
g8
((lp951
g946
a(imodel.VarAtom
VarAtom
p952
(dp953
g37
g948
sg38
I00
sg39
Nsg40
g949
sg41
g42
sg65
g8
((lp954
g926
atRp955
sg71
S'H'
sg72
I0
sg73
I00
sg74
(F428.03893235467319
F248.30108921846357
F0.63506984156081436
tp956
sg76
(lp957
sg78
g1
sg79
g8
((lp958
(imodel.AtomGroup
AtomGroup
p959
(dp960
g83
g84
sg85
g8
((ltRp961
sg87
g8
((lp962
g929
ag952
atRp963
sg41
g42
sg78
g1
sbatRp964
sg91
g8
((lp965
(imodel.Bond
Bond
p966
(dp967
g78
g1
sg95
g96
sg41
g42
sg87
g8
((lp968
g926
ag952
atRp969
sbatRp970
sg100
I00
sbatRp971
sg159
I00
sbsg23
g24
sg55
g8
((lp972
g920
atRp973
sg14
S'H'
sg137
I0
sg15
I00
sg138
(F428.03893235467319
F248.30108921846357
F0.63506984156081436
tp974
sg140
(lp975
sg13
g1
sg142
g8
((lp976
g942
atRp977
sg151
g8
((lp978
(imodel.Bond
Bond
p979
(dp980
g13
g1
sg155
g96
sg23
g24
sg16
g8
((lp981
g920
ag946
atRp982
sbatRp983
sg159
I00
sbatRp984
sg41
g24
sg78
g1
sbatRp985
sg151
g8
((lp986
(imodel.Bond
Bond
p987
(dp988
g13
g1
sg155
g96
sg23
g24
sg16
g8
((lp989
g920
ag935
atRp990
sbatRp991
sg159
I00
sbag929
atRp992
sg159
I00
sbsg41
g42
sg65
g8
((lp993
g926
atRp994
sg71
S'H'
sg72
I0
sg73
I00
sg74
(F468.82751520114152
F243.09906297780401
F0.66789670857960748
tp995
sg76
(lp996
sg78
g1
sg79
g8
((lp997
g959
atRp998
sg91
g8
((lp999
(imodel.Bond
Bond
p1000
(dp1001
g78
g1
sg95
g96
sg41
g42
sg87
g8
((lp1002
g926
ag929
atRp1003
sbatRp1004
sg100
I00
sbag952
ag911
a(imodel.VarAtom
VarAtom
p1005
(dp1006
g37
VC7A
p1007
sg38
I00
sg39
Nsg40
(imodel.Atom
Atom
p1008
(dp1009
g3
g1007
sg13
g1
sg14
S'C'
sg15
I00
sg16
g8
((lp1010
(imodel.VarAtom
VarAtom
p1011
(dp1012
g3
g1007
sg20
I00
sg21
Nsg22
g1008
sg23
g24
sg55
g8
((lp1013
(imodel.VarAtom
VarAtom
p1014
(dp1015
g3
VC6A
p1016
sg20
I00
sg21
Nsg22
(imodel.Atom
Atom
p1017
(dp1018
g3
g1016
sg13
g1
sg14
S'C'
sg15
I00
sg16
g8
((lp1019
g1014
a(imodel.VarAtom
VarAtom
p1020
(dp1021
g37
g1016
sg38
I00
sg39
Nsg40
g1017
sg41
g42
sg65
g8
((lp1022
(imodel.VarAtom
VarAtom
p1023
(dp1024
g37
VH6A_1
p1025
sg38
I00
sg39
Nsg40
(imodel.Atom
Atom
p1026
(dp1027
S'name'
p1028
g1025
sS'compound'
p1029
g1
sS'element'
p1030
S'H'
sS'isVariable'
p1031
I00
sS'varAtoms'
p1032
g8
((lp1033
(imodel.VarAtom
VarAtom
p1034
(dp1035
g1028
g1025
sS'isLabile'
p1036
I00
sS'chirality'
p1037
NsS'atom'
p1038
g1026
sS'variant'
p1039
g24
sS'neighbours'
p1040
g8
((lp1041
g1014
atRp1042
sg1030
S'H'
sS'charge'
p1043
I0
sg1031
I00
sS'coords'
p1044
(F326.53710942922936
F248.97203601882239
F0.38030223555121001
tp1045
sS'freeValences'
p1046
(lp1047
sg1029
g1
sS'atomGroups'
p1048
g8
((lp1049
(imodel.AtomGroup
AtomGroup
p1050
(dp1051
g83
g146
sg85
g8
((ltRp1052
sg87
g8
((lp1053
g1034
a(imodel.VarAtom
VarAtom
p1054
(dp1055
g3
VH6A_2
p1056
sg20
I00
sg21
Nsg22
(imodel.Atom
Atom
p1057
(dp1058
g3
g1056
sg13
g1
sg14
S'H'
sg15
I00
sg16
g8
((lp1059
g1054
a(imodel.VarAtom
VarAtom
p1060
(dp1061
g37
g1056
sg38
I00
sg39
Nsg40
g1057
sg41
g42
sg65
g8
((lp1062
g1020
atRp1063
sg71
S'H'
sg72
I0
sg73
I00
sg74
(F365.3618785682404
F242.89298179752387
F0.029403768118813511
tp1064
sg76
(lp1065
sg78
g1
sg79
g8
((lp1066
(imodel.AtomGroup
AtomGroup
p1067
(dp1068
g83
S'prochiral'
p1069
sg85
g8
((ltRp1070
sg87
g8
((lp1071
g1023
ag1060
atRp1072
sg41
g42
sg78
g1
sbatRp1073
sg91
g8
((lp1074
(imodel.Bond
Bond
p1075
(dp1076
g78
g1
sg95
g96
sg41
g42
sg87
g8
((lp1077
g1020
ag1060
atRp1078
sbatRp1079
sg100
I00
sbatRp1080
sg159
I00
sbsg23
g24
sg55
g8
((lp1081
g1014
atRp1082
sg14
S'H'
sg137
I0
sg15
I00
sg138
(F365.3618785682404
F242.89298179752387
F0.029403768118813511
tp1083
sg140
(lp1084
sg13
g1
sg142
g8
((lp1085
g1050
atRp1086
sg151
g8
((lp1087
(imodel.Bond
Bond
p1088
(dp1089
g13
g1
sg155
g96
sg23
g24
sg16
g8
((lp1090
g1014
ag1054
atRp1091
sbatRp1092
sg159
I00
sbatRp1093
sg41
g24
sg78
g1
sbatRp1094
sS'bonds'
p1095
g8
((lp1096
(imodel.Bond
Bond
p1097
(dp1098
g1029
g1
sS'bondType'
p1099
S'single'
p1100
sg1039
g24
sg1032
g8
((lp1101
g1014
ag1034
atRp1102
sbatRp1103
sS'isDeleted'
p1104
I00
sbag1023
atRp1105
sg1104
I00
sbsg41
g42
sg65
g8
((lp1106
g1020
atRp1107
sg71
S'H'
sg72
I0
sg73
I00
sg74
(F326.53710942922936
F248.97203601882239
F0.38030223555121001
tp1108
sg76
(lp1109
sg78
g1
sg79
g8
((lp1110
g1067
atRp1111
sg91
g8
((lp1112
(imodel.Bond
Bond
p1113
(dp1114
g78
g1
sg95
g1100
sg41
g42
sg87
g8
((lp1115
g1020
ag1023
atRp1116
sbatRp1117
sg100
I00
sbag1005
ag1060
a(imodel.VarAtom
VarAtom
p1118
(dp1119
g37
VC5A
p1120
sg38
I00
sg39
Nsg40
(imodel.Atom
Atom
p1121
(dp1122
g3
g1120
sg13
g1
sg14
S'C'
sg15
I00
sg16
g8
((lp1123
(imodel.VarAtom
VarAtom
p1124
(dp1125
g3
g1120
sg20
I00
sg21
Nsg22
g1121
sg23
g24
sg55
g8
((lp1126
(imodel.VarAtom
VarAtom
p1127
(dp1128
g3
VC4A
p1129
sg20
I00
sg21
Nsg22
(imodel.Atom
Atom
p1130
(dp1131
g3
g1129
sg13
g1
sg14
S'C'
sg15
I00
sg16
g8
((lp1132
g1127
a(imodel.VarAtom
VarAtom
p1133
(dp1134
g37
g1129
sg38
I00
sg39
Nsg40
g1130
sg41
g42
sg65
g8
((lp1135
(imodel.VarAtom
VarAtom
p1136
(dp1137
g37
VH4A_1
p1138
sg38
I00
sg39
Nsg40
(imodel.Atom
Atom
p1139
(dp1140
g3
g1138
sg13
g1
sg14
S'H'
sg15
I00
sg16
g8
((lp1141
(imodel.VarAtom
VarAtom
p1142
(dp1143
g3
g1138
sg20
I00
sg21
Nsg22
g1139
sg23
g24
sg55
g8
((lp1144
g1127
atRp1145
sg14
S'H'
sg137
I0
sg15
I00
sg138
(F264.30001769126784
F244.37084221702094
F0.83312275386579004
tp1146
sg140
(lp1147
sg13
g1
sg142
g8
((lp1148
(imodel.AtomGroup
AtomGroup
p1149
(dp1150
g83
g146
sg85
g8
((ltRp1151
sg87
g8
((lp1152
g1142
a(imodel.VarAtom
VarAtom
p1153
(dp1154
g3
VH4A_2
p1155
sg20
I00
sg21
Nsg22
(imodel.Atom
Atom
p1156
(dp1157
g3
g1155
sg13
g1
sg14
S'H'
sg15
I00
sg16
g8
((lp1158
g1153
a(imodel.VarAtom
VarAtom
p1159
(dp1160
g37
g1155
sg38
I00
sg39
Nsg40
g1156
sg41
g42
sg65
g8
((lp1161
g1133
atRp1162
sg71
S'H'
sg72
I0
sg73
I00
sg74
(F225.63813639457814
F252.04288970343055
F0.041902195793427022
tp1163
sg76
(lp1164
sg78
g1
sg79
g8
((lp1165
(imodel.AtomGroup
AtomGroup
p1166
(dp1167
g83
g84
sg85
g8
((ltRp1168
sg87
g8
((lp1169
g1136
ag1159
atRp1170
sg41
g42
sg78
g1
sbatRp1171
sg91
g8
((lp1172
(imodel.Bond
Bond
p1173
(dp1174
g78
g1
sg95
g96
sg41
g42
sg87
g8
((lp1175
g1133
ag1159
atRp1176
sbatRp1177
sg100
I00
sbatRp1178
sg159
I00
sbsg23
g24
sg55
g8
((lp1179
g1127
atRp1180
sg14
S'H'
sg137
I0
sg15
I00
sg138
(F225.63813639457814
F252.04288970343055
F0.041902195793427022
tp1181
sg140
(lp1182
sg13
g1
sg142
g8
((lp1183
g1149
atRp1184
sg151
g8
((lp1185
(imodel.Bond
Bond
p1186
(dp1187
g13
g1
sg155
g96
sg23
g24
sg16
g8
((lp1188
g1127
ag1153
atRp1189
sbatRp1190
sg159
I00
sbatRp1191
sg41
g24
sg78
g1
sbatRp1192
sg151
g8
((lp1193
(imodel.Bond
Bond
p1194
(dp1195
g13
g1
sg155
g96
sg23
g24
sg16
g8
((lp1196
g1127
ag1142
atRp1197
sbatRp1198
sg159
I00
sbag1136
atRp1199
sg159
I00
sbsg41
g42
sg65
g8
((lp1200
g1133
atRp1201
sg71
S'H'
sg72
I0
sg73
I00
sg74
(F264.30001769126784
F244.37084221702094
F0.83312275386579004
tp1202
sg76
(lp1203
sg78
g1
sg79
g8
((lp1204
g1166
atRp1205
sg91
g8
((lp1206
(imodel.Bond
Bond
p1207
(dp1208
g78
g1
sg95
g96
sg41
g42
sg87
g8
((lp1209
g1133
ag1136
atRp1210
sbatRp1211
sg100
I00
sbag1159
a(imodel.VarAtom
VarAtom
p1212
(dp1213
g37
VC3A
p1214
sg38
I00
sg39
Nsg40
(imodel.Atom
Atom
p1215
(dp1216
g3
g1214
sg13
g1
sg14
S'C'
sg15
I00
sg16
g8
((lp1217
(imodel.VarAtom
VarAtom
p1218
(dp1219
g3
g1214
sg20
I00
sg21
Nsg22
g1215
sg23
g24
sg55
g8
((lp1220
(imodel.VarAtom
VarAtom
p1221
(dp1222
g3
VC2A
p1223
sg20
I00
sg21
Nsg22
(imodel.Atom
Atom
p1224
(dp1225
g3
g1223
sg13
g1
sg14
S'C'
sg15
I00
sg16
g8
((lp1226
g1221
a(imodel.VarAtom
VarAtom
p1227
(dp1228
g37
g1223
sg38
I00
sg39
Nsg40
g1224
sg41
g42
sg65
g8
((lp1229
(imodel.VarAtom
VarAtom
p1230
(dp1231
g37
VH2A_2
p1232
sg38
I00
sg39
Nsg40
(imodel.Atom
Atom
p1233
(dp1234
g3
g1232
sg13
g1
sg14
S'H'
sg15
I00
sg16
g8
((lp1235
(imodel.VarAtom
VarAtom
p1236
(dp1237
g3
g1232
sg20
I00
sg21
Nsg22
g1233
sg23
g24
sg55
g8
((lp1238
g1221
atRp1239
sg14
S'H'
sg137
I0
sg15
I00
sg138
(F162.99520077181887
F247.31797130637085
F0.72428042629009193
tp1240
sg140
(lp1241
sg13
g1
sg142
g8
((lp1242
(imodel.AtomGroup
AtomGroup
p1243
(dp1244
g83
g146
sg85
g8
((ltRp1245
sg87
g8
((lp1246
g1236
a(imodel.VarAtom
VarAtom
p1247
(dp1248
g3
VH2A_1
p1249
sg20
I00
sg21
Nsg22
(imodel.Atom
Atom
p1250
(dp1251
g3
g1249
sg13
g1
sg14
S'H'
sg15
I00
sg16
g8
((lp1252
g1247
a(imodel.VarAtom
VarAtom
p1253
(dp1254
g37
g1249
sg38
I00
sg39
Nsg40
g1250
sg41
g42
sg65
g8
((lp1255
g1227
atRp1256
sg71
S'H'
sg72
I0
sg73
I00
sg74
(F122.66572422079076
F259.95166894202163
F0.25129977659117919
tp1257
sg76
(lp1258
sg78
g1
sg79
g8
((lp1259
(imodel.AtomGroup
AtomGroup
p1260
(dp1261
g83
g84
sg85
g8
((ltRp1262
sg87
g8
((lp1263
g1253
ag1230
atRp1264
sg41
g42
sg78
g1
sbatRp1265
sg91
g8
((lp1266
(imodel.Bond
Bond
p1267
(dp1268
g78
g1
sg95
g96
sg41
g42
sg87
g8
((lp1269
g1227
ag1253
atRp1270
sbatRp1271
sg100
I00
sbatRp1272
sg159
I00
sbsg23
g24
sg55
g8
((lp1273
g1221
atRp1274
sg14
S'H'
sg137
I0
sg15
I00
sg138
(F122.66572422079076
F259.95166894202163
F0.25129977659117919
tp1275
sg140
(lp1276
sg13
g1
sg142
g8
((lp1277
g1243
atRp1278
sg151
g8
((lp1279
(imodel.Bond
Bond
p1280
(dp1281
g13
g1
sg155
g96
sg23
g24
sg16
g8
((lp1282
g1221
ag1247
atRp1283
sbatRp1284
sg159
I00
sbatRp1285
sg41
g24
sg78
g1
sbatRp1286
sg151
g8
((lp1287
(imodel.Bond
Bond
p1288
(dp1289
g13
g1
sg155
g96
sg23
g24
sg16
g8
((lp1290
g1221
ag1236
atRp1291
sbatRp1292
sg159
I00
sbag1230
atRp1293
sg159
I00
sbsg41
g42
sg65
g8
((lp1294
g1227
atRp1295
sg71
S'H'
sg72
I0
sg73
I00
sg74
(F162.99520077181887
F247.31797130637085
F0.72428042629009193
tp1296
sg76
(lp1297
sg78
g1
sg79
g8
((lp1298
g1260
atRp1299
sg91
g8
((lp1300
(imodel.Bond
Bond
p1301
(dp1302
g78
g1
sg95
g96
sg41
g42
sg87
g8
((lp1303
g1227
ag1230
atRp1304
sbatRp1305
sg100
I00
sbag1212
a(imodel.VarAtom
VarAtom
p1306
(dp1307
g37
VC1A
p1308
sg38
I00
sg39
Nsg40
(imodel.Atom
Atom
p1309
(dp1310
g3
g1308
sg13
g1
sg14
S'C'
sg15
I00
sg16
g8
((lp1311
(imodel.VarAtom
VarAtom
p1312
(dp1313
g3
g1308
sg20
I00
sg21
Nsg22
g1309
sg23
g24
sg55
g8
((lp1314
(imodel.VarAtom
VarAtom
p1315
(dp1316
g3
VO1
p1317
sg20
I00
sg21
Nsg22
(imodel.Atom
Atom
p1318
(dp1319
g3
g1317
sg13
g1
sg14
S'O'
sg15
I00
sg16
g8
((lp1320
g1315
a(imodel.VarAtom
VarAtom
p1321
(dp1322
g37
g1317
sg38
I00
sg39
Nsg40
g1318
sg41
g42
sg65
g8
((lp1323
(imodel.VarAtom
VarAtom
p1324
(dp1325
g37
VC1
p1326
sg38
I00
sg39
Nsg40
(imodel.Atom
Atom
p1327
(dp1328
g3
g1326
sg13
g1
sg14
S'C'
sg15
I00
sg16
g8
((lp1329
(imodel.VarAtom
VarAtom
p1330
(dp1331
g3
g1326
sg20
I00
sg21
Nsg22
g1327
sg23
g24
sg55
g8
((lp1332
(imodel.VarAtom
VarAtom
p1333
(dp1334
g3
VH1_1
p1335
sg20
I00
sg21
Nsg22
(imodel.Atom
Atom
p1336
(dp1337
g3
g1335
sg13
g1
sg14
S'H'
sg15
I00
sg16
g8
((lp1338
g1333
a(imodel.VarAtom
VarAtom
p1339
(dp1340
g37
g1335
sg38
I00
sg39
Nsg40
g1336
sg41
g42
sg65
g8
((lp1341
g1324
atRp1342
sg71
S'H'
sg72
I0
sg73
I00
sg74
(F11.932420580846838
F286.76115728874049
F0.9760177726941609
tp1343
sg76
(lp1344
sg78
g1
sg79
g8
((lp1345
(imodel.AtomGroup
AtomGroup
p1346
(dp1347
g83
g84
sg85
g8
((ltRp1348
sg87
g8
((lp1349
g1339
a(imodel.VarAtom
VarAtom
p1350
(dp1351
g37
VH1_2
p1352
sg38
I00
sg39
Nsg40
(imodel.Atom
Atom
p1353
(dp1354
g3
g1352
sg13
g1
sg14
S'H'
sg15
I00
sg16
g8
((lp1355
(imodel.VarAtom
VarAtom
p1356
(dp1357
g3
g1352
sg20
I00
sg21
Nsg22
g1353
sg23
g24
sg55
g8
((lp1358
g1330
atRp1359
sg14
S'H'
sg137
I0
sg15
I00
sg138
(F71.817379249634712
F226.67585032278382
F0.54661466596802089
tp1360
sg140
(lp1361
sg13
g1
sg142
g8
((lp1362
(imodel.AtomGroup
AtomGroup
p1363
(dp1364
g83
g146
sg85
g8
((ltRp1365
sg87
g8
((lp1366
g1356
ag1333
atRp1367
sg41
g24
sg78
g1
sbatRp1368
sg151
g8
((lp1369
(imodel.Bond
Bond
p1370
(dp1371
g13
g1
sg155
g96
sg23
g24
sg16
g8
((lp1372
g1330
ag1356
atRp1373
sbatRp1374
sg159
I00
sbag1350
atRp1375
sg159
I00
sbsg41
g42
sg65
g8
((lp1376
g1324
atRp1377
sg71
S'H'
sg72
I0
sg73
I00
sg74
(F71.817379249634712
F226.67585032278382
F0.54661466596802089
tp1378
sg76
(lp1379
sg78
g1
sg79
g8
((lp1380
g1346
atRp1381
sg91
g8
((lp1382
(imodel.Bond
Bond
p1383
(dp1384
g78
g1
sg95
g96
sg41
g42
sg87
g8
((lp1385
g1324
ag1350
atRp1386
sbatRp1387
sg100
I00
sbatRp1388
sg41
g42
sg78
g1
sbatRp1389
sg91
g8
((lp1390
(imodel.Bond
Bond
p1391
(dp1392
g78
g1
sg95
g96
sg41
g42
sg87
g8
((lp1393
g1324
ag1339
atRp1394
sbatRp1395
sg100
I00
sbatRp1396
sg159
I00
sbsg23
g24
sg55
g8
((lp1397
g1330
atRp1398
sg14
S'H'
sg137
I0
sg15
I00
sg138
(F11.932420580846838
F286.76115728874049
F0.9760177726941609
tp1399
sg140
(lp1400
sg13
g1
sg142
g8
((lp1401
g1363
atRp1402
sg151
g8
((lp1403
(imodel.Bond
Bond
p1404
(dp1405
g13
g1
sg155
g96
sg23
g24
sg16
g8
((lp1406
g1330
ag1333
atRp1407
sbatRp1408
sg159
I00
sbag1315
a(imodel.VarAtom
VarAtom
p1409
(dp1410
g3
VC2
p1411
sg20
I00
sg21
Nsg22
(imodel.Atom
Atom
p1412
(dp1413
g3
g1411
sg13
g1
sg14
S'C'
sg15
I00
sg16
g8
((lp1414
g1409
a(imodel.VarAtom
VarAtom
p1415
(dp1416
g37
g1411
sg38
I00
sg39
Nsg40
g1412
sg41
g42
sg65
g8
((lp1417
(imodel.VarAtom
VarAtom
p1418
(dp1419
g37
VH2
p1420
sg38
I00
sg39
Nsg40
(imodel.Atom
Atom
p1421
(dp1422
g3
g1420
sg13
g1
sg14
S'H'
sg15
I00
sg16
g8
((lp1423
(imodel.VarAtom
VarAtom
p1424
(dp1425
g3
g1420
sg20
I00
sg21
Nsg22
g1421
sg23
g24
sg55
g8
((lp1426
g1409
atRp1427
sg14
S'H'
sg137
I0
sg15
I00
sg138
(F-22.57644389084237
F185.48888739795137
F0.72773308135645742
tp1428
sg140
(lp1429
sg13
g1
sg142
g8
((ltRp1430
sg151
g8
((lp1431
(imodel.Bond
Bond
p1432
(dp1433
g13
g1
sg155
g96
sg23
g24
sg16
g8
((lp1434
g1409
ag1424
atRp1435
sbatRp1436
sg159
I00
sbag1418
atRp1437
sg159
I00
sbsg41
g42
sg65
g8
((lp1438
g1415
atRp1439
sg71
S'H'
sg72
I0
sg73
I00
sg74
(F-22.57644389084237
F185.48888739795137
F0.72773308135645742
tp1440
sg76
(lp1441
sg78
g1
sg79
g8
((ltRp1442
sg91
g8
((lp1443
(imodel.Bond
Bond
p1444
(dp1445
g78
g1
sg95
g96
sg41
g42
sg87
g8
((lp1446
g1415
ag1418
atRp1447
sbatRp1448
sg100
I00
sbag1324
a(imodel.VarAtom
VarAtom
p1449
(dp1450
g37
VC3
p1451
sg38
I00
sg39
Nsg40
(imodel.Atom
Atom
p1452
(dp1453
g3
g1451
sg13
g1
sg14
S'C'
sg15
I00
sg16
g8
((lp1454
(imodel.VarAtom
VarAtom
p1455
(dp1456
g3
g1451
sg20
I00
sg21
Nsg22
g1452
sg23
g24
sg55
g8
((lp1457
(imodel.VarAtom
VarAtom
p1458
(dp1459
g3
VO3
p1460
sg20
I00
sg21
Nsg22
(imodel.Atom
Atom
p1461
(dp1462
g3
g1460
sg13
g1
sg14
S'O'
sg15
I00
sg16
g8
((lp1463
g1458
a(imodel.VarAtom
VarAtom
p1464
(dp1465
g37
g1460
sg38
I00
sg39
Nsg40
g1461
sg41
g42
sg65
g8
((lp1466
g35
ag1449
atRp1467
sg71
S'O'
sg72
I0
sg73
I00
sg74
(F-99.793048588619058
F280.78265328823068
F0.52434370955263343
tp1468
sg76
(lp1469
sg78
g1
sg79
g8
((ltRp1470
sg91
g8
((lp1471
(imodel.Bond
Bond
p1472
(dp1473
g78
g1
sg95
g96
sg41
g42
sg87
g8
((lp1474
g35
ag1464
atRp1475
sba(imodel.Bond
Bond
p1476
(dp1477
g78
g1
sg95
g96
sg41
g42
sg87
g8
((lp1478
g1449
ag1464
atRp1479
sbatRp1480
sg100
I00
sbatRp1481
sg159
I00
sbsg23
g24
sg55
g8
((lp1482
g29
ag1455
atRp1483
sg14
S'O'
sg137
I0
sg15
I00
sg138
(F-99.793048588619058
F280.78265328823068
F0.52434370955263343
tp1484
sg140
(lp1485
sg13
g1
sg142
g8
((ltRp1486
sg151
g8
((lp1487
(imodel.Bond
Bond
p1488
(dp1489
g13
g1
sg155
g96
sg23
g24
sg16
g8
((lp1490
g29
ag1458
atRp1491
sba(imodel.Bond
Bond
p1492
(dp1493
g13
g1
sg155
g96
sg23
g24
sg16
g8
((lp1494
g1455
ag1458
atRp1495
sbatRp1496
sg159
I00
sba(imodel.VarAtom
VarAtom
p1497
(dp1498
g3
VH3_1
p1499
sg20
I00
sg21
Nsg22
(imodel.Atom
Atom
p1500
(dp1501
g3
g1499
sg13
g1
sg14
S'H'
sg15
I00
sg16
g8
((lp1502
g1497
a(imodel.VarAtom
VarAtom
p1503
(dp1504
g37
g1499
sg38
I00
sg39
Nsg40
g1500
sg41
g42
sg65
g8
((lp1505
g1449
atRp1506
sg71
S'H'
sg72
I0
sg73
I00
sg74
(F-77.599997823389231
F210.0240810799402
F0.19806179147437908
tp1507
sg76
(lp1508
sg78
g1
sg79
g8
((lp1509
(imodel.AtomGroup
AtomGroup
p1510
(dp1511
g83
g84
sg85
g8
((ltRp1512
sg87
g8
((lp1513
g1503
a(imodel.VarAtom
VarAtom
p1514
(dp1515
g37
VH3_2
p1516
sg38
I00
sg39
Nsg40
(imodel.Atom
Atom
p1517
(dp1518
g3
g1516
sg13
g1
sg14
S'H'
sg15
I00
sg16
g8
((lp1519
(imodel.VarAtom
VarAtom
p1520
(dp1521
g3
g1516
sg20
I00
sg21
Nsg22
g1517
sg23
g24
sg55
g8
((lp1522
g1455
atRp1523
sg14
S'H'
sg137
I0
sg15
I00
sg138
(F-33.274089397189243
F282.26897187375801
F0.48971174715889065
tp1524
sg140
(lp1525
sg13
g1
sg142
g8
((lp1526
(imodel.AtomGroup
AtomGroup
p1527
(dp1528
g83
g146
sg85
g8
((ltRp1529
sg87
g8
((lp1530
g1520
ag1497
atRp1531
sg41
g24
sg78
g1
sbatRp1532
sg151
g8
((lp1533
(imodel.Bond
Bond
p1534
(dp1535
g13
g1
sg155
g96
sg23
g24
sg16
g8
((lp1536
g1455
ag1520
atRp1537
sbatRp1538
sg159
I00
sbag1514
atRp1539
sg159
I00
sbsg41
g42
sg65
g8
((lp1540
g1449
atRp1541
sg71
S'H'
sg72
I0
sg73
I00
sg74
(F-33.274089397189243
F282.26897187375801
F0.48971174715889065
tp1542
sg76
(lp1543
sg78
g1
sg79
g8
((lp1544
g1510
atRp1545
sg91
g8
((lp1546
(imodel.Bond
Bond
p1547
(dp1548
g78
g1
sg95
g96
sg41
g42
sg87
g8
((lp1549
g1449
ag1514
atRp1550
sbatRp1551
sg100
I00
sbatRp1552
sg41
g42
sg78
g1
sbatRp1553
sg91
g8
((lp1554
(imodel.Bond
Bond
p1555
(dp1556
g78
g1
sg95
g96
sg41
g42
sg87
g8
((lp1557
g1449
ag1503
atRp1558
sbatRp1559
sg100
I00
sbatRp1560
sg159
I00
sbsg23
g24
sg55
g8
((lp1561
g1455
atRp1562
sg14
S'H'
sg137
I0
sg15
I00
sg138
(F-77.599997823389231
F210.0240810799402
F0.19806179147437908
tp1563
sg140
(lp1564
sg13
g1
sg142
g8
((lp1565
g1527
atRp1566
sg151
g8
((lp1567
(imodel.Bond
Bond
p1568
(dp1569
g13
g1
sg155
g96
sg23
g24
sg16
g8
((lp1570
g1455
ag1497
atRp1571
sbatRp1572
sg159
I00
sbag1409
ag1520
atRp1573
sg14
S'C'
sg137
I0
sg15
I00
sg138
(F-55.444671618582504
F247.21093508355068
F0.5154961291470217
tp1574
sg140
(lp1575
sg13
g1
sg142
g8
((ltRp1576
sg151
g8
((lp1577
(imodel.Bond
Bond
p1578
(dp1579
g13
g1
sg155
g96
sg23
g24
sg16
g8
((lp1580
g1455
ag1409
atRp1581
sbag1492
ag1534
ag1568
atRp1582
sg159
I00
sbag1449
atRp1583
sg159
I00
sbsg41
g42
sg65
g8
((lp1584
g1514
ag1415
ag1503
ag1464
atRp1585
sg71
S'C'
sg72
I0
sg73
I00
sg74
(F-55.444671618582504
F247.21093508355068
F0.5154961291470217
tp1586
sg76
(lp1587
sg78
g1
sg79
g8
((ltRp1588
sg91
g8
((lp1589
(imodel.Bond
Bond
p1590
(dp1591
g78
g1
sg95
g96
sg41
g42
sg87
g8
((lp1592
g1449
ag1415
atRp1593
sbag1547
ag1476
ag1555
atRp1594
sg100
I00
sba(imodel.VarAtom
VarAtom
p1595
(dp1596
g37
VO2
p1597
sg38
I00
sg39
Nsg40
(imodel.Atom
Atom
p1598
(dp1599
g3
g1597
sg13
g1
sg14
S'O'
sg15
I00
sg16
g8
((lp1600
(imodel.VarAtom
VarAtom
p1601
(dp1602
g3
g1597
sg20
I00
sg21
Nsg22
g1598
sg23
g24
sg55
g8
((lp1603
g1409
a(imodel.VarAtom
VarAtom
p1604
(dp1605
g3
VC1B
p1606
sg20
I00
sg21
Nsg22
(imodel.Atom
Atom
p1607
(dp1608
g3
g1606
sg13
g1
sg14
S'C'
sg15
I00
sg16
g8
((lp1609
g1604
a(imodel.VarAtom
VarAtom
p1610
(dp1611
g37
g1606
sg38
I00
sg39
Nsg40
g1607
sg41
g42
sg65
g8
((lp1612
g1595
a(imodel.VarAtom
VarAtom
p1613
(dp1614
g37
VC2B
p1615
sg38
I00
sg39
Nsg40
(imodel.Atom
Atom
p1616
(dp1617
g3
g1615
sg13
g1
sg14
S'C'
sg15
I00
sg16
g8
((lp1618
(imodel.VarAtom
VarAtom
p1619
(dp1620
g3
g1615
sg20
I00
sg21
Nsg22
g1616
sg23
g24
sg55
g8
((lp1621
(imodel.VarAtom
VarAtom
p1622
(dp1623
g3
VH2B_1
p1624
sg20
I00
sg21
Nsg22
(imodel.Atom
Atom
p1625
(dp1626
g3
g1624
sg13
g1
sg14
S'H'
sg15
I00
sg16
g8
((lp1627
g1622
a(imodel.VarAtom
VarAtom
p1628
(dp1629
g37
g1624
sg38
I00
sg39
Nsg40
g1625
sg41
g42
sg65
g8
((lp1630
g1613
atRp1631
sg71
S'H'
sg72
I0
sg73
I00
sg74
(F85.978016480721749
F30.247819484330051
F0.12895070354208482
tp1632
sg76
(lp1633
sg78
g1
sg79
g8
((lp1634
(imodel.AtomGroup
AtomGroup
p1635
(dp1636
g83
g84
sg85
g8
((ltRp1637
sg87
g8
((lp1638
g1628
a(imodel.VarAtom
VarAtom
p1639
(dp1640
g37
VH2B_2
p1641
sg38
I00
sg39
Nsg40
(imodel.Atom
Atom
p1642
(dp1643
g3
g1641
sg13
g1
sg14
S'H'
sg15
I00
sg16
g8
((lp1644
(imodel.VarAtom
VarAtom
p1645
(dp1646
g3
g1641
sg20
I00
sg21
Nsg22
g1642
sg23
g24
sg55
g8
((lp1647
g1619
atRp1648
sg14
S'H'
sg137
I0
sg15
I00
sg138
(F26.498582998297081
F50.335962583532506
F0.42212890114007406
tp1649
sg140
(lp1650
sg13
g1
sg142
g8
((lp1651
(imodel.AtomGroup
AtomGroup
p1652
(dp1653
g83
g146
sg85
g8
((ltRp1654
sg87
g8
((lp1655
g1622
ag1645
atRp1656
sg41
g24
sg78
g1
sbatRp1657
sg151
g8
((lp1658
(imodel.Bond
Bond
p1659
(dp1660
g13
g1
sg155
g96
sg23
g24
sg16
g8
((lp1661
g1619
ag1645
atRp1662
sbatRp1663
sg159
I00
sbag1639
atRp1664
sg159
I00
sbsg41
g42
sg65
g8
((lp1665
g1613
atRp1666
sg71
S'H'
sg72
I0
sg73
I00
sg74
(F26.498582998297081
F50.335962583532506
F0.42212890114007406
tp1667
sg76
(lp1668
sg78
g1
sg79
g8
((lp1669
g1635
atRp1670
sg91
g8
((lp1671
(imodel.Bond
Bond
p1672
(dp1673
g78
g1
sg95
g96
sg41
g42
sg87
g8
((lp1674
g1613
ag1639
atRp1675
sbatRp1676
sg100
I00
sbatRp1677
sg41
g42
sg78
g1
sbatRp1678
sg91
g8
((lp1679
(imodel.Bond
Bond
p1680
(dp1681
g78
g1
sg95
g96
sg41
g42
sg87
g8
((lp1682
g1613
ag1628
atRp1683
sbatRp1684
sg100
I00
sbatRp1685
sg159
I00
sbsg23
g24
sg55
g8
((lp1686
g1619
atRp1687
sg14
S'H'
sg137
I0
sg15
I00
sg138
(F85.978016480721749
F30.247819484330051
F0.12895070354208482
tp1688
sg140
(lp1689
sg13
g1
sg142
g8
((lp1690
g1652
atRp1691
sg151
g8
((lp1692
(imodel.Bond
Bond
p1693
(dp1694
g13
g1
sg155
g96
sg23
g24
sg16
g8
((lp1695
g1619
ag1622
atRp1696
sbatRp1697
sg159
I00
sbag1604
ag1645
a(imodel.VarAtom
VarAtom
p1698
(dp1699
g3
VC3B
p1700
sg20
I00
sg21
Nsg22
(imodel.Atom
Atom
p1701
(dp1702
g3
g1700
sg13
g1
sg14
S'C'
sg15
I00
sg16
g8
((lp1703
g1698
a(imodel.VarAtom
VarAtom
p1704
(dp1705
g37
g1700
sg38
I00
sg39
Nsg40
g1701
sg41
g42
sg65
g8
((lp1706
(imodel.VarAtom
VarAtom
p1707
(dp1708
g37
VH3B_2
p1709
sg38
I00
sg39
Nsg40
(imodel.Atom
Atom
p1710
(dp1711
g3
g1709
sg13
g1
sg14
S'H'
sg15
I00
sg16
g8
((lp1712
(imodel.VarAtom
VarAtom
p1713
(dp1714
g3
g1709
sg20
I00
sg21
Nsg22
g1710
sg23
g24
sg55
g8
((lp1715
g1698
atRp1716
sg14
S'H'
sg137
I0
sg15
I00
sg138
(F135.99389207005902
F37.64856374061128
F0.50539985814107968
tp1717
sg140
(lp1718
sg13
g1
sg142
g8
((lp1719
(imodel.AtomGroup
AtomGroup
p1720
(dp1721
g83
g146
sg85
g8
((ltRp1722
sg87
g8
((lp1723
g1713
a(imodel.VarAtom
VarAtom
p1724
(dp1725
g1028
VH3B_1
p1726
sg1036
I00
sg1037
Nsg1038
(imodel.Atom
Atom
p1727
(dp1728
g1028
g1726
sg1029
g1
sg1030
S'H'
sg1031
I00
sg1032
g8
((lp1729
g1724
a(imodel.VarAtom
VarAtom
p1730
(dp1731
g37
g1726
sg38
I00
sg39
Nsg40
g1727
sg41
g42
sg65
g8
((lp1732
g1704
atRp1733
sg71
S'H'
sg72
I0
sg73
I00
sg74
(F110.66917855555107
F129.70935796763195
F0.75930991958156191
tp1734
sg76
(lp1735
sg78
g1
sg79
g8
((lp1736
(imodel.AtomGroup
AtomGroup
p1737
(dp1738
g83
g1069
sg85
g8
((ltRp1739
sg87
g8
((lp1740
g1730
ag1707
atRp1741
sg41
g42
sg78
g1
sbatRp1742
sg91
g8
((lp1743
(imodel.Bond
Bond
p1744
(dp1745
g78
g1
sg95
g1100
sg41
g42
sg87
g8
((lp1746
g1704
ag1730
atRp1747
sbatRp1748
sg100
I00
sbatRp1749
sg1104
I00
sbsg1039
g24
sg1040
g8
((lp1750
g1698
atRp1751
sg1030
S'H'
sg1043
I0
sg1031
I00
sg1044
(F110.66917855555107
F129.70935796763195
F0.75930991958156191
tp1752
sg1046
(lp1753
sg1029
g1
sg1048
g8
((lp1754
g1720
atRp1755
sg1095
g8
((lp1756
(imodel.Bond
Bond
p1757
(dp1758
g1029
g1
sg1099
g1100
sg1039
g24
sg1032
g8
((lp1759
g1698
ag1724
atRp1760
sbatRp1761
sg1104
I00
sbatRp1762
sg41
g24
sg78
g1
sbatRp1763
sg151
g8
((lp1764
(imodel.Bond
Bond
p1765
(dp1766
g13
g1
sg155
g96
sg23
g24
sg16
g8
((lp1767
g1698
ag1713
atRp1768
sbatRp1769
sg159
I00
sbag1707
atRp1770
sg159
I00
sbsg41
g42
sg65
g8
((lp1771
g1704
atRp1772
sg71
S'H'
sg72
I0
sg73
I00
sg74
(F135.99389207005902
F37.64856374061128
F0.50539985814107968
tp1773
sg76
(lp1774
sg78
g1
sg79
g8
((lp1775
g1737
atRp1776
sg91
g8
((lp1777
(imodel.Bond
Bond
p1778
(dp1779
g78
g1
sg95
g96
sg41
g42
sg87
g8
((lp1780
g1704
ag1707
atRp1781
sbatRp1782
sg100
I00
sba(imodel.VarAtom
VarAtom
p1783
(dp1784
g37
VC4B
p1785
sg38
I00
sg39
Nsg40
(imodel.Atom
Atom
p1786
(dp1787
g3
g1785
sg13
g1
sg14
S'C'
sg15
I00
sg16
g8
((lp1788
(imodel.VarAtom
VarAtom
p1789
(dp1790
g3
g1785
sg20
I00
sg21
Nsg22
g1786
sg23
g24
sg55
g8
((lp1791
g1698
a(imodel.VarAtom
VarAtom
p1792
(dp1793
g3
VC5B
p1794
sg20
I00
sg21
Nsg22
(imodel.Atom
Atom
p1795
(dp1796
g3
g1794
sg13
g1
sg14
S'C'
sg15
I00
sg16
g8
((lp1797
g1792
a(imodel.VarAtom
VarAtom
p1798
(dp1799
g37
g1794
sg38
I00
sg39
Nsg40
g1795
sg41
g42
sg65
g8
((lp1800
(imodel.VarAtom
VarAtom
p1801
(dp1802
g37
VH5B_1
p1803
sg38
I00
sg39
Nsg40
(imodel.Atom
Atom
p1804
(dp1805
g3
g1803
sg13
g1
sg14
S'H'
sg15
I00
sg16
g8
((lp1806
(imodel.VarAtom
VarAtom
p1807
(dp1808
g3
g1803
sg20
I00
sg21
Nsg22
g1804
sg23
g24
sg55
g8
((lp1809
g1792
atRp1810
sg14
S'H'
sg137
I0
sg15
I00
sg138
(F246.57357134606445
F17.294083101653456
F0.86508140740469774
tp1811
sg140
(lp1812
sg13
g1
sg142
g8
((lp1813
(imodel.AtomGroup
AtomGroup
p1814
(dp1815
g83
g146
sg85
g8
((ltRp1816
sg87
g8
((lp1817
g1807
a(imodel.VarAtom
VarAtom
p1818
(dp1819
g1028
VH5B_2
p1820
sg1036
I00
sg1037
Nsg1038
(imodel.Atom
Atom
p1821
(dp1822
g1028
g1820
sg1029
g1
sg1030
S'H'
sg1031
I00
sg1032
g8
((lp1823
g1818
a(imodel.VarAtom
VarAtom
p1824
(dp1825
g37
g1820
sg38
I00
sg39
Nsg40
g1821
sg41
g42
sg65
g8
((lp1826
g1798
atRp1827
sg71
S'H'
sg72
I0
sg73
I00
sg74
(F192.05047023276688
F43.236463119524927
F0.028526171117809196
tp1828
sg76
(lp1829
sg78
g1
sg79
g8
((lp1830
(imodel.AtomGroup
AtomGroup
p1831
(dp1832
g83
g1069
sg85
g8
((ltRp1833
sg87
g8
((lp1834
g1801
ag1824
atRp1835
sg41
g42
sg78
g1
sbatRp1836
sg91
g8
((lp1837
(imodel.Bond
Bond
p1838
(dp1839
g78
g1
sg95
g1100
sg41
g42
sg87
g8
((lp1840
g1798
ag1824
atRp1841
sbatRp1842
sg100
I00
sbatRp1843
sg1104
I00
sbsg1039
g24
sg1040
g8
((lp1844
g1792
atRp1845
sg1030
S'H'
sg1043
I0
sg1031
I00
sg1044
(F192.05047023276688
F43.236463119524927
F0.028526171117809196
tp1846
sg1046
(lp1847
sg1029
g1
sg1048
g8
((lp1848
g1814
atRp1849
sg1095
g8
((lp1850
(imodel.Bond
Bond
p1851
(dp1852
g1029
g1
sg1099
g1100
sg1039
g24
sg1032
g8
((lp1853
g1792
ag1818
atRp1854
sbatRp1855
sg1104
I00
sbatRp1856
sg41
g24
sg78
g1
sbatRp1857
sg151
g8
((lp1858
(imodel.Bond
Bond
p1859
(dp1860
g13
g1
sg155
g96
sg23
g24
sg16
g8
((lp1861
g1792
ag1807
atRp1862
sbatRp1863
sg159
I00
sbag1801
atRp1864
sg159
I00
sbsg41
g42
sg65
g8
((lp1865
g1798
atRp1866
sg71
S'H'
sg72
I0
sg73
I00
sg74
(F246.57357134606445
F17.294083101653456
F0.86508140740469774
tp1867
sg76
(lp1868
sg78
g1
sg79
g8
((lp1869
g1831
atRp1870
sg91
g8
((lp1871
(imodel.Bond
Bond
p1872
(dp1873
g78
g1
sg95
g96
sg41
g42
sg87
g8
((lp1874
g1798
ag1801
atRp1875
sbatRp1876
sg100
I00
sbag1783
ag1824
a(imodel.VarAtom
VarAtom
p1877
(dp1878
g37
VC6B
p1879
sg38
I00
sg39
Nsg40
(imodel.Atom
Atom
p1880
(dp1881
g3
g1879
sg13
g1
sg14
S'C'
sg15
I00
sg16
g8
((lp1882
(imodel.VarAtom
VarAtom
p1883
(dp1884
g3
g1879
sg20
I00
sg21
Nsg22
g1880
sg23
g24
sg55
g8
((lp1885
(imodel.VarAtom
VarAtom
p1886
(dp1887
g1028
VH6B_1
p1888
sg1036
I00
sg1037
Nsg1038
(imodel.Atom
Atom
p1889
(dp1890
g1028
g1888
sg1029
g1
sg1030
S'H'
sg1031
I00
sg1032
g8
((lp1891
g1886
a(imodel.VarAtom
VarAtom
p1892
(dp1893
g37
g1888
sg38
I00
sg39
Nsg40
g1889
sg41
g42
sg65
g8
((lp1894
g1877
atRp1895
sg71
S'H'
sg72
I0
sg73
I00
sg74
(F309.53479582571458
F129.12749163145975
F0.61167173201416569
tp1896
sg76
(lp1897
sg78
g1
sg79
g8
((lp1898
(imodel.AtomGroup
AtomGroup
p1899
(dp1900
g83
g1069
sg85
g8
((ltRp1901
sg87
g8
((lp1902
g1892
a(imodel.VarAtom
VarAtom
p1903
(dp1904
g37
VH6B_2
p1905
sg38
I00
sg39
Nsg40
(imodel.Atom
Atom
p1906
(dp1907
g3
g1905
sg13
g1
sg14
S'H'
sg15
I00
sg16
g8
((lp1908
(imodel.VarAtom
VarAtom
p1909
(dp1910
g3
g1905
sg20
I00
sg21
Nsg22
g1906
sg23
g24
sg55
g8
((lp1911
g1883
atRp1912
sg14
S'H'
sg137
I0
sg15
I00
sg138
(F257.79357927496449
F126.7749778955193
F0.5701967877513392
tp1913
sg140
(lp1914
sg13
g1
sg142
g8
((lp1915
(imodel.AtomGroup
AtomGroup
p1916
(dp1917
g83
g146
sg85
g8
((ltRp1918
sg87
g8
((lp1919
g1886
ag1909
atRp1920
sg41
g24
sg78
g1
sbatRp1921
sg151
g8
((lp1922
(imodel.Bond
Bond
p1923
(dp1924
g13
g1
sg155
g96
sg23
g24
sg16
g8
((lp1925
g1883
ag1909
atRp1926
sbatRp1927
sg159
I00
sbag1903
atRp1928
sg159
I00
sbsg41
g42
sg65
g8
((lp1929
g1877
atRp1930
sg71
S'H'
sg72
I0
sg73
I00
sg74
(F257.79357927496449
F126.7749778955193
F0.5701967877513392
tp1931
sg76
(lp1932
sg78
g1
sg79
g8
((lp1933
g1899
atRp1934
sg91
g8
((lp1935
(imodel.Bond
Bond
p1936
(dp1937
g78
g1
sg95
g96
sg41
g42
sg87
g8
((lp1938
g1877
ag1903
atRp1939
sbatRp1940
sg100
I00
sbatRp1941
sg41
g42
sg78
g1
sbatRp1942
sg91
g8
((lp1943
(imodel.Bond
Bond
p1944
(dp1945
g78
g1
sg95
g1100
sg41
g42
sg87
g8
((lp1946
g1877
ag1892
atRp1947
sbatRp1948
sg100
I00
sbatRp1949
sg1104
I00
sbsg1039
g24
sg1040
g8
((lp1950
g1883
atRp1951
sg1030
S'H'
sg1043
I0
sg1031
I00
sg1044
(F309.53479582571458
F129.12749163145975
F0.61167173201416569
tp1952
sg1046
(lp1953
sg1029
g1
sg1048
g8
((lp1954
g1916
atRp1955
sg1095
g8
((lp1956
(imodel.Bond
Bond
p1957
(dp1958
g1029
g1
sg1099
g1100
sg1039
g24
sg1032
g8
((lp1959
g1883
ag1886
atRp1960
sbatRp1961
sg1104
I00
sbag1792
a(imodel.VarAtom
VarAtom
p1962
(dp1963
g3
VC7B
p1964
sg20
I00
sg21
Nsg22
(imodel.Atom
Atom
p1965
(dp1966
g3
g1964
sg13
g1
sg14
S'C'
sg15
I00
sg16
g8
((lp1967
g1962
a(imodel.VarAtom
VarAtom
p1968
(dp1969
g37
g1964
sg38
I00
sg39
Nsg40
g1965
sg41
g42
sg65
g8
((lp1970
g1877
a(imodel.VarAtom
VarAtom
p1971
(dp1972
g37
VH7B_2
p1973
sg38
I00
sg39
Nsg40
(imodel.Atom
Atom
p1974
(dp1975
g3
g1973
sg13
g1
sg14
S'H'
sg15
I00
sg16
g8
((lp1976
(imodel.VarAtom
VarAtom
p1977
(dp1978
g3
g1973
sg20
I00
sg21
Nsg22
g1974
sg23
g24
sg55
g8
((lp1979
g1962
atRp1980
sg14
S'H'
sg137
I0
sg15
I00
sg138
(F298.3009883960749
F24.466715335573156
F0.71840921908698374
tp1981
sg140
(lp1982
sg13
g1
sg142
g8
((lp1983
(imodel.AtomGroup
AtomGroup
p1984
(dp1985
g83
g146
sg85
g8
((ltRp1986
sg87
g8
((lp1987
g1977
a(imodel.VarAtom
VarAtom
p1988
(dp1989
g3
VH7B_1
p1990
sg20
I00
sg21
Nsg22
(imodel.Atom
Atom
p1991
(dp1992
g3
g1990
sg13
g1
sg14
S'H'
sg15
I00
sg16
g8
((lp1993
g1988
a(imodel.VarAtom
VarAtom
p1994
(dp1995
g37
g1990
sg38
I00
sg39
Nsg40
g1991
sg41
g42
sg65
g8
((lp1996
g1968
atRp1997
sg71
S'H'
sg72
I0
sg73
I00
sg74
(F353.41282267311294
F2.2048936836595772
F0.99253714298393203
tp1998
sg76
(lp1999
sg78
g1
sg79
g8
((lp2000
(imodel.AtomGroup
AtomGroup
p2001
(dp2002
g83
g84
sg85
g8
((ltRp2003
sg87
g8
((lp2004
g1994
ag1971
atRp2005
sg41
g42
sg78
g1
sbatRp2006
sg91
g8
((lp2007
(imodel.Bond
Bond
p2008
(dp2009
g78
g1
sg95
g96
sg41
g42
sg87
g8
((lp2010
g1968
ag1994
atRp2011
sbatRp2012
sg100
I00
sbatRp2013
sg159
I00
sbsg23
g24
sg55
g8
((lp2014
g1962
atRp2015
sg14
S'H'
sg137
I0
sg15
I00
sg138
(F353.41282267311294
F2.2048936836595772
F0.99253714298393203
tp2016
sg140
(lp2017
sg13
g1
sg142
g8
((lp2018
g1984
atRp2019
sg151
g8
((lp2020
(imodel.Bond
Bond
p2021
(dp2022
g13
g1
sg155
g96
sg23
g24
sg16
g8
((lp2023
g1962
ag1988
atRp2024
sbatRp2025
sg159
I00
sbatRp2026
sg41
g24
sg78
g1
sbatRp2027
sg151
g8
((lp2028
(imodel.Bond
Bond
p2029
(dp2030
g13
g1
sg155
g96
sg23
g24
sg16
g8
((lp2031
g1962
ag1977
atRp2032
sbatRp2033
sg159
I00
sbag1971
atRp2034
sg159
I00
sbsg41
g42
sg65
g8
((lp2035
g1968
atRp2036
sg71
S'H'
sg72
I0
sg73
I00
sg74
(F298.3009883960749
F24.466715335573156
F0.71840921908698374
tp2037
sg76
(lp2038
sg78
g1
sg79
g8
((lp2039
g2001
atRp2040
sg91
g8
((lp2041
(imodel.Bond
Bond
p2042
(dp2043
g78
g1
sg95
g96
sg41
g42
sg87
g8
((lp2044
g1968
ag1971
atRp2045
sbatRp2046
sg100
I00
sbag1994
a(imodel.VarAtom
VarAtom
p2047
(dp2048
g37
VC8B
p2049
sg38
I00
sg39
Nsg40
(imodel.Atom
Atom
p2050
(dp2051
g3
g2049
sg13
g1
sg14
S'C'
sg15
I00
sg16
g8
((lp2052
(imodel.VarAtom
VarAtom
p2053
(dp2054
g3
g2049
sg20
I00
sg21
Nsg22
g2050
sg23
g24
sg55
g8
((lp2055
(imodel.VarAtom
VarAtom
p2056
(dp2057
g3
VC9B
p2058
sg20
I00
sg21
Nsg22
(imodel.Atom
Atom
p2059
(dp2060
g3
g2058
sg13
g1
sg14
S'C'
sg15
I00
sg16
g8
((lp2061
g2056
a(imodel.VarAtom
VarAtom
p2062
(dp2063
g37
g2058
sg38
I00
sg39
Nsg40
g2059
sg41
g42
sg65
g8
((lp2064
g2047
a(imodel.VarAtom
VarAtom
p2065
(dp2066
g37
VH9B
p2067
sg38
I00
sg39
Nsg40
(imodel.Atom
Atom
p2068
(dp2069
g3
g2067
sg13
g1
sg14
S'H'
sg15
I00
sg16
g8
((lp2070
(imodel.VarAtom
VarAtom
p2071
(dp2072
g3
g2067
sg20
I00
sg21
Nsg22
g2068
sg23
g24
sg55
g8
((lp2073
g2056
atRp2074
sg14
S'H'
sg137
I0
sg15
I00
sg138
(F412.78128936570602
F12.000905317471307
F0.6158693606439648
tp2075
sg140
(lp2076
sg13
g1
sg142
g8
((ltRp2077
sg151
g8
((lp2078
(imodel.Bond
Bond
p2079
(dp2080
g13
g1
sg155
g96
sg23
g24
sg16
g8
((lp2081
g2056
ag2071
atRp2082
sbatRp2083
sg159
I00
sbag2065
atRp2084
sg159
I00
sbsg41
g42
sg65
g8
((lp2085
g2062
atRp2086
sg71
S'H'
sg72
I0
sg73
I00
sg74
(F412.78128936570602
F12.000905317471307
F0.6158693606439648
tp2087
sg76
(lp2088
sg78
g1
sg79
g8
((ltRp2089
sg91
g8
((lp2090
(imodel.Bond
Bond
p2091
(dp2092
g78
g1
sg95
g96
sg41
g42
sg87
g8
((lp2093
g2062
ag2065
atRp2094
sbatRp2095
sg100
I00
sba(imodel.VarAtom
VarAtom
p2096
(dp2097
g37
VC10B
p2098
sg38
I00
sg39
Nsg40
(imodel.Atom
Atom
p2099
(dp2100
g3
g2098
sg13
g1
sg14
S'C'
sg15
I00
sg16
g8
((lp2101
(imodel.VarAtom
VarAtom
p2102
(dp2103
g3
g2098
sg20
I00
sg21
Nsg22
g2099
sg23
g24
sg55
g8
((lp2104
g2056
a(imodel.VarAtom
VarAtom
p2105
(dp2106
S'name'
p2107
VH10B
p2108
sS'isLabile'
p2109
I00
sS'chirality'
p2110
NsS'atom'
p2111
(imodel.Atom
Atom
p2112
(dp2113
g2107
g2108
sS'compound'
p2114
g1
sS'element'
p2115
S'H'
sS'isVariable'
p2116
I00
sS'varAtoms'
p2117
g8
((lp2118
g2105
a(imodel.VarAtom
VarAtom
p2119
(dp2120
g37
g2108
sg38
I00
sg39
Nsg40
g2112
sg41
g42
sg65
g8
((lp2121
g2096
atRp2122
sg71
S'H'
sg72
I0
sg73
I00
sg74
(F479.67859036787922
F-3.9182781161155447
F0.87714820440452446
tp2123
sg76
(lp2124
sg78
g1
sg79
g8
((ltRp2125
sg91
g8
((lp2126
(imodel.Bond
Bond
p2127
(dp2128
g78
g1
sg95
S'single'
p2129
sg41
g42
sg87
g8
((lp2130
g2096
ag2119
atRp2131
sbatRp2132
sg100
I00
sbatRp2133
sS'isDeleted'
p2134
I00
sbsS'variant'
p2135
g24
sS'neighbours'
p2136
g8
((lp2137
g2102
atRp2138
sg2115
S'H'
sS'charge'
p2139
I0
sg2116
I00
sS'coords'
p2140
(F479.67859036787922
F-3.9182781161155447
F0.87714820440452446
tp2141
sS'freeValences'
p2142
(lp2143
sg2114
g1
sS'atomGroups'
p2144
g8
((ltRp2145
sS'bonds'
p2146
g8
((lp2147
(imodel.Bond
Bond
p2148
(dp2149
g2114
g1
sS'bondType'
p2150
g2129
sg2135
g24
sg2117
g8
((lp2151
g2102
ag2105
atRp2152
sbatRp2153
sg2134
I00
sba(imodel.VarAtom
VarAtom
p2154
(dp2155
g3
VC11B
p2156
sg20
I00
sg21
Nsg22
(imodel.Atom
Atom
p2157
(dp2158
g3
g2156
sg13
g1
sg14
S'C'
sg15
I00
sg16
g8
((lp2159
g2154
a(imodel.VarAtom
VarAtom
p2160
(dp2161
g37
g2156
sg38
I00
sg39
Nsg40
g2157
sg41
g42
sg65
g8
((lp2162
(imodel.VarAtom
VarAtom
p2163
(dp2164
g37
VH11B_1
p2165
sg38
I00
sg39
Nsg40
(imodel.Atom
Atom
p2166
(dp2167
g3
g2165
sg13
g1
sg14
S'H'
sg15
I00
sg16
g8
((lp2168
(imodel.VarAtom
VarAtom
p2169
(dp2170
g3
g2165
sg20
I00
sg21
Nsg22
g2166
sg23
g24
sg55
g8
((lp2171
g2154
atRp2172
sg14
S'H'
sg137
I0
sg15
I00
sg138
(F533.81841742129291
F121.87528987958262
F0.80103335180730229
tp2173
sg140
(lp2174
sg13
g1
sg142
g8
((lp2175
(imodel.AtomGroup
AtomGroup
p2176
(dp2177
g83
g146
sg85
g8
((ltRp2178
sg87
g8
((lp2179
g2169
a(imodel.VarAtom
VarAtom
p2180
(dp2181
g2107
VH11B_2
p2182
sg2109
I00
sg2110
Nsg2111
(imodel.Atom
Atom
p2183
(dp2184
g2107
g2182
sg2114
g1
sg2115
S'H'
sg2116
I00
sg2117
g8
((lp2185
g2180
a(imodel.VarAtom
VarAtom
p2186
(dp2187
g37
g2182
sg38
I00
sg39
Nsg40
g2183
sg41
g42
sg65
g8
((lp2188
g2160
atRp2189
sg71
S'H'
sg72
I0
sg73
I00
sg74
(F478.33844970176602
F110.06025468101741
F0.56969728312350831
tp2190
sg76
(lp2191
sg78
g1
sg79
g8
((lp2192
(imodel.AtomGroup
AtomGroup
p2193
(dp2194
g83
S'prochiral'
p2195
sg85
g8
((ltRp2196
sg87
g8
((lp2197
g2163
ag2186
atRp2198
sg41
g42
sg78
g1
sbatRp2199
sg91
g8
((lp2200
(imodel.Bond
Bond
p2201
(dp2202
g78
g1
sg95
g2129
sg41
g42
sg87
g8
((lp2203
g2160
ag2186
atRp2204
sbatRp2205
sg100
I00
sbatRp2206
sg2134
I00
sbsg2135
g24
sg2136
g8
((lp2207
g2154
atRp2208
sg2115
S'H'
sg2139
I0
sg2116
I00
sg2140
(F478.33844970176602
F110.06025468101741
F0.56969728312350831
tp2209
sg2142
(lp2210
sg2114
g1
sg2144
g8
((lp2211
g2176
atRp2212
sg2146
g8
((lp2213
(imodel.Bond
Bond
p2214
(dp2215
g2114
g1
sg2150
g2129
sg2135
g24
sg2117
g8
((lp2216
g2154
ag2180
atRp2217
sbatRp2218
sg2134
I00
sbatRp2219
sg41
g24
sg78
g1
sbatRp2220
sg151
g8
((lp2221
(imodel.Bond
Bond
p2222
(dp2223
g13
g1
sg155
g96
sg23
g24
sg16
g8
((lp2224
g2154
ag2169
atRp2225
sbatRp2226
sg159
I00
sbag2163
atRp2227
sg159
I00
sbsg41
g42
sg65
g8
((lp2228
g2160
atRp2229
sg71
S'H'
sg72
I0
sg73
I00
sg74
(F533.81841742129291
F121.87528987958262
F0.80103335180730229
tp2230
sg76
(lp2231
sg78
g1
sg79
g8
((lp2232
g2193
atRp2233
sg91
g8
((lp2234
(imodel.Bond
Bond
p2235
(dp2236
g78
g1
sg95
g96
sg41
g42
sg87
g8
((lp2237
g2160
ag2163
atRp2238
sbatRp2239
sg100
I00
sba(imodel.VarAtom
VarAtom
p2240
(dp2241
g37
VC12B
p2242
sg38
I00
sg39
Nsg40
(imodel.Atom
Atom
p2243
(dp2244
g3
g2242
sg13
g1
sg14
S'C'
sg15
I00
sg16
g8
((lp2245
(imodel.VarAtom
VarAtom
p2246
(dp2247
g3
g2242
sg20
I00
sg21
Nsg22
g2243
sg23
g24
sg55
g8
((lp2248
g2154
a(imodel.VarAtom
VarAtom
p2249
(dp2250
g3
VH12B_1
p2251
sg20
I00
sg21
Nsg22
(imodel.Atom
Atom
p2252
(dp2253
g3
g2251
sg13
g1
sg14
S'H'
sg15
I00
sg16
g8
((lp2254
g2249
a(imodel.VarAtom
VarAtom
p2255
(dp2256
g37
g2251
sg38
I00
sg39
Nsg40
g2252
sg41
g42
sg65
g8
((lp2257
g2240
atRp2258
sg71
S'H'
sg72
I0
sg73
I00
sg74
(F537.25606531652079
F14.114917682340291
F0.22802076370532542
tp2259
sg76
(lp2260
sg78
g1
sg79
g8
((lp2261
(imodel.AtomGroup
AtomGroup
p2262
(dp2263
g83
g84
sg85
g8
((ltRp2264
sg87
g8
((lp2265
g2255
a(imodel.VarAtom
VarAtom
p2266
(dp2267
g37
VH12B_2
p2268
sg38
I00
sg39
Nsg40
(imodel.Atom
Atom
p2269
(dp2270
g3
g2268
sg13
g1
sg14
S'H'
sg15
I00
sg16
g8
((lp2271
(imodel.VarAtom
VarAtom
p2272
(dp2273
g3
g2268
sg20
I00
sg21
Nsg22
g2269
sg23
g24
sg55
g8
((lp2274
g2246
atRp2275
sg14
S'H'
sg137
I0
sg15
I00
sg138
(F590.41317845835874
F1.7267166771412406
F0.56286809727931242
tp2276
sg140
(lp2277
sg13
g1
sg142
g8
((lp2278
(imodel.AtomGroup
AtomGroup
p2279
(dp2280
g83
g146
sg85
g8
((ltRp2281
sg87
g8
((lp2282
g2249
ag2272
atRp2283
sg41
g24
sg78
g1
sbatRp2284
sg151
g8
((lp2285
(imodel.Bond
Bond
p2286
(dp2287
g13
g1
sg155
g96
sg23
g24
sg16
g8
((lp2288
g2246
ag2272
atRp2289
sbatRp2290
sg159
I00
sbag2266
atRp2291
sg159
I00
sbsg41
g42
sg65
g8
((lp2292
g2240
atRp2293
sg71
S'H'
sg72
I0
sg73
I00
sg74
(F590.41317845835874
F1.7267166771412406
F0.56286809727931242
tp2294
sg76
(lp2295
sg78
g1
sg79
g8
((lp2296
g2262
atRp2297
sg91
g8
((lp2298
(imodel.Bond
Bond
p2299
(dp2300
g78
g1
sg95
g96
sg41
g42
sg87
g8
((lp2301
g2240
ag2266
atRp2302
sbatRp2303
sg100
I00
sbatRp2304
sg41
g42
sg78
g1
sbatRp2305
sg91
g8
((lp2306
(imodel.Bond
Bond
p2307
(dp2308
g78
g1
sg95
g96
sg41
g42
sg87
g8
((lp2309
g2240
ag2255
atRp2310
sbatRp2311
sg100
I00
sbatRp2312
sg159
I00
sbsg23
g24
sg55
g8
((lp2313
g2246
atRp2314
sg14
S'H'
sg137
I0
sg15
I00
sg138
(F537.25606531652079
F14.114917682340291
F0.22802076370532542
tp2315
sg140
(lp2316
sg13
g1
sg142
g8
((lp2317
g2279
atRp2318
sg151
g8
((lp2319
(imodel.Bond
Bond
p2320
(dp2321
g13
g1
sg155
g96
sg23
g24
sg16
g8
((lp2322
g2246
ag2249
atRp2323
sbatRp2324
sg159
I00
sbag2272
a(imodel.VarAtom
VarAtom
p2325
(dp2326
g3
VC13B
p2327
sg20
I00
sg21
Nsg22
(imodel.Atom
Atom
p2328
(dp2329
g3
g2327
sg13
g1
sg14
S'C'
sg15
I00
sg16
g8
((lp2330
g2325
a(imodel.VarAtom
VarAtom
p2331
(dp2332
g37
g2327
sg38
I00
sg39
Nsg40
g2328
sg41
g42
sg65
g8
((lp2333
(imodel.VarAtom
VarAtom
p2334
(dp2335
g37
VH13B_1
p2336
sg38
I00
sg39
Nsg40
(imodel.Atom
Atom
p2337
(dp2338
g3
g2336
sg13
g1
sg14
S'H'
sg15
I00
sg16
g8
((lp2339
(imodel.VarAtom
VarAtom
p2340
(dp2341
g3
g2336
sg20
I00
sg21
Nsg22
g2337
sg23
g24
sg55
g8
((lp2342
g2325
atRp2343
sg14
S'H'
sg137
I0
sg15
I00
sg138
(F637.72797484872763
F122.86614775456914
F0.11497617829450824
tp2344
sg140
(lp2345
sg13
g1
sg142
g8
((lp2346
(imodel.AtomGroup
AtomGroup
p2347
(dp2348
g83
g146
sg85
g8
((ltRp2349
sg87
g8
((lp2350
g2340
a(imodel.VarAtom
VarAtom
p2351
(dp2352
g3
VH13B_2
p2353
sg20
I00
sg21
Nsg22
(imodel.Atom
Atom
p2354
(dp2355
g3
g2353
sg13
g1
sg14
S'H'
sg15
I00
sg16
g8
((lp2356
g2351
a(imodel.VarAtom
VarAtom
p2357
(dp2358
g37
g2353
sg38
I00
sg39
Nsg40
g2354
sg41
g42
sg65
g8
((lp2359
g2331
atRp2360
sg71
S'H'
sg72
I0
sg73
I00
sg74
(F585.18695409972293
F112.97756633276434
F0.073881163909251257
tp2361
sg76
(lp2362
sg78
g1
sg79
g8
((lp2363
(imodel.AtomGroup
AtomGroup
p2364
(dp2365
g83
g84
sg85
g8
((ltRp2366
sg87
g8
((lp2367
g2334
ag2357
atRp2368
sg41
g42
sg78
g1
sbatRp2369
sg91
g8
((lp2370
(imodel.Bond
Bond
p2371
(dp2372
g78
g1
sg95
g96
sg41
g42
sg87
g8
((lp2373
g2331
ag2357
atRp2374
sbatRp2375
sg100
I00
sbatRp2376
sg159
I00
sbsg23
g24
sg55
g8
((lp2377
g2325
atRp2378
sg14
S'H'
sg137
I0
sg15
I00
sg138
(F585.18695409972293
F112.97756633276434
F0.073881163909251257
tp2379
sg140
(lp2380
sg13
g1
sg142
g8
((lp2381
g2347
atRp2382
sg151
g8
((lp2383
(imodel.Bond
Bond
p2384
(dp2385
g13
g1
sg155
g96
sg23
g24
sg16
g8
((lp2386
g2325
ag2351
atRp2387
sbatRp2388
sg159
I00
sbatRp2389
sg41
g24
sg78
g1
sbatRp2390
sg151
g8
((lp2391
(imodel.Bond
Bond
p2392
(dp2393
g13
g1
sg155
g96
sg23
g24
sg16
g8
((lp2394
g2325
ag2340
atRp2395
sbatRp2396
sg159
I00
sbag2334
atRp2397
sg159
I00
sbsg41
g42
sg65
g8
((lp2398
g2331
atRp2399
sg71
S'H'
sg72
I0
sg73
I00
sg74
(F637.72797484872763
F122.86614775456914
F0.11497617829450824
tp2400
sg76
(lp2401
sg78
g1
sg79
g8
((lp2402
g2364
atRp2403
sg91
g8
((lp2404
(imodel.Bond
Bond
p2405
(dp2406
g78
g1
sg95
g96
sg41
g42
sg87
g8
((lp2407
g2331
ag2334
atRp2408
sbatRp2409
sg100
I00
sba(imodel.VarAtom
VarAtom
p2410
(dp2411
g37
VC14B
p2412
sg38
I00
sg39
Nsg40
(imodel.Atom
Atom
p2413
(dp2414
g3
g2412
sg13
g1
sg14
S'C'
sg15
I00
sg16
g8
((lp2415
(imodel.VarAtom
VarAtom
p2416
(dp2417
g3
g2412
sg20
I00
sg21
Nsg22
g2413
sg23
g24
sg55
g8
((lp2418
g2325
a(imodel.VarAtom
VarAtom
p2419
(dp2420
g3
VC15B
p2421
sg20
I00
sg21
Nsg22
(imodel.Atom
Atom
p2422
(dp2423
g3
g2421
sg13
g1
sg14
S'C'
sg15
I00
sg16
g8
((lp2424
g2419
a(imodel.VarAtom
VarAtom
p2425
(dp2426
g37
g2421
sg38
I00
sg39
Nsg40
g2422
sg41
g42
sg65
g8
((lp2427
(imodel.VarAtom
VarAtom
p2428
(dp2429
g37
VH15B_1
p2430
sg38
I00
sg39
Nsg40
(imodel.Atom
Atom
p2431
(dp2432
g3
g2430
sg13
g1
sg14
S'H'
sg15
I00
sg16
g8
((lp2433
(imodel.VarAtom
VarAtom
p2434
(dp2435
g3
g2430
sg20
I00
sg21
Nsg22
g2431
sg23
g24
sg55
g8
((lp2436
g2419
atRp2437
sg14
S'H'
sg137
I0
sg15
I00
sg138
(F741.90898905486461
F119.71848941890036
F0.5844623969433258
tp2438
sg140
(lp2439
sg13
g1
sg142
g8
((lp2440
(imodel.AtomGroup
AtomGroup
p2441
(dp2442
g83
g146
sg85
g8
((ltRp2443
sg87
g8
((lp2444
g2434
a(imodel.VarAtom
VarAtom
p2445
(dp2446
g3
VH15B_2
p2447
sg20
I00
sg21
Nsg22
(imodel.Atom
Atom
p2448
(dp2449
g3
g2447
sg13
g1
sg14
S'H'
sg15
I00
sg16
g8
((lp2450
g2445
a(imodel.VarAtom
VarAtom
p2451
(dp2452
g37
g2447
sg38
I00
sg39
Nsg40
g2448
sg41
g42
sg65
g8
((lp2453
g2425
atRp2454
sg71
S'H'
sg72
I0
sg73
I00
sg74
(F689.5951807002557
F111.8734008380451
F0.93919844930868135
tp2455
sg76
(lp2456
sg78
g1
sg79
g8
((lp2457
(imodel.AtomGroup
AtomGroup
p2458
(dp2459
g83
g84
sg85
g8
((ltRp2460
sg87
g8
((lp2461
g2428
ag2451
atRp2462
sg41
g42
sg78
g1
sbatRp2463
sg91
g8
((lp2464
(imodel.Bond
Bond
p2465
(dp2466
g78
g1
sg95
g96
sg41
g42
sg87
g8
((lp2467
g2425
ag2451
atRp2468
sbatRp2469
sg100
I00
sbatRp2470
sg159
I00
sbsg23
g24
sg55
g8
((lp2471
g2419
atRp2472
sg14
S'H'
sg137
I0
sg15
I00
sg138
(F689.5951807002557
F111.8734008380451
F0.93919844930868135
tp2473
sg140
(lp2474
sg13
g1
sg142
g8
((lp2475
g2441
atRp2476
sg151
g8
((lp2477
(imodel.Bond
Bond
p2478
(dp2479
g13
g1
sg155
g96
sg23
g24
sg16
g8
((lp2480
g2419
ag2445
atRp2481
sbatRp2482
sg159
I00
sbatRp2483
sg41
g24
sg78
g1
sbatRp2484
sg151
g8
((lp2485
(imodel.Bond
Bond
p2486
(dp2487
g13
g1
sg155
g96
sg23
g24
sg16
g8
((lp2488
g2419
ag2434
atRp2489
sbatRp2490
sg159
I00
sbag2428
atRp2491
sg159
I00
sbsg41
g42
sg65
g8
((lp2492
g2425
atRp2493
sg71
S'H'
sg72
I0
sg73
I00
sg74
(F741.90898905486461
F119.71848941890036
F0.5844623969433258
tp2494
sg76
(lp2495
sg78
g1
sg79
g8
((lp2496
g2458
atRp2497
sg91
g8
((lp2498
(imodel.Bond
Bond
p2499
(dp2500
g78
g1
sg95
g96
sg41
g42
sg87
g8
((lp2501
g2425
ag2428
atRp2502
sbatRp2503
sg100
I00
sba(imodel.VarAtom
VarAtom
p2504
(dp2505
g37
VC16B
p2506
sg38
I00
sg39
Nsg40
(imodel.Atom
Atom
p2507
(dp2508
g3
g2506
sg13
g1
sg14
S'C'
sg15
I00
sg16
g8
((lp2509
(imodel.VarAtom
VarAtom
p2510
(dp2511
g3
g2506
sg20
I00
sg21
Nsg22
g2507
sg23
g24
sg55
g8
((lp2512
(imodel.VarAtom
VarAtom
p2513
(dp2514
g3
VH16B_1
p2515
sg20
I00
sg21
Nsg22
(imodel.Atom
Atom
p2516
(dp2517
g3
g2515
sg13
g1
sg14
S'H'
sg15
I00
sg16
g8
((lp2518
g2513
a(imodel.VarAtom
VarAtom
p2519
(dp2520
g37
g2515
sg38
I00
sg39
Nsg40
g2516
sg41
g42
sg65
g8
((lp2521
g2504
atRp2522
sg71
S'H'
sg72
I0
sg73
I00
sg74
(F793.62983346445071
F-7.2020148596554918
F0.05816085493516765
tp2523
sg76
(lp2524
sg78
g1
sg79
g8
((lp2525
(imodel.AtomGroup
AtomGroup
p2526
(dp2527
g83
g84
sg85
g8
((ltRp2528
sg87
g8
((lp2529
g2519
a(imodel.VarAtom
VarAtom
p2530
(dp2531
g37
VH16B_2
p2532
sg38
I00
sg39
Nsg40
(imodel.Atom
Atom
p2533
(dp2534
g3
g2532
sg13
g1
sg14
S'H'
sg15
I00
sg16
g8
((lp2535
(imodel.VarAtom
VarAtom
p2536
(dp2537
g3
g2532
sg20
I00
sg21
Nsg22
g2533
sg23
g24
sg55
g8
((lp2538
g2510
atRp2539
sg14
S'H'
sg137
I0
sg15
I00
sg138
(F739.80190213211699
F14.481575510714265
F0.74803051277778643
tp2540
sg140
(lp2541
sg13
g1
sg142
g8
((lp2542
(imodel.AtomGroup
AtomGroup
p2543
(dp2544
g83
g146
sg85
g8
((ltRp2545
sg87
g8
((lp2546
g2513
ag2536
atRp2547
sg41
g24
sg78
g1
sbatRp2548
sg151
g8
((lp2549
(imodel.Bond
Bond
p2550
(dp2551
g13
g1
sg155
g96
sg23
g24
sg16
g8
((lp2552
g2510
ag2536
atRp2553
sbatRp2554
sg159
I00
sbag2530
atRp2555
sg159
I00
sbsg41
g42
sg65
g8
((lp2556
g2504
atRp2557
sg71
S'H'
sg72
I0
sg73
I00
sg74
(F739.80190213211699
F14.481575510714265
F0.74803051277778643
tp2558
sg76
(lp2559
sg78
g1
sg79
g8
((lp2560
g2526
atRp2561
sg91
g8
((lp2562
(imodel.Bond
Bond
p2563
(dp2564
g78
g1
sg95
g96
sg41
g42
sg87
g8
((lp2565
g2504
ag2530
atRp2566
sbatRp2567
sg100
I00
sbatRp2568
sg41
g42
sg78
g1
sbatRp2569
sg91
g8
((lp2570
(imodel.Bond
Bond
p2571
(dp2572
g78
g1
sg95
g96
sg41
g42
sg87
g8
((lp2573
g2504
ag2519
atRp2574
sbatRp2575
sg100
I00
sbatRp2576
sg159
I00
sbsg23
g24
sg55
g8
((lp2577
g2510
atRp2578
sg14
S'H'
sg137
I0
sg15
I00
sg138
(F793.62983346445071
F-7.2020148596554918
F0.05816085493516765
tp2579
sg140
(lp2580
sg13
g1
sg142
g8
((lp2581
g2543
atRp2582
sg151
g8
((lp2583
(imodel.Bond
Bond
p2584
(dp2585
g13
g1
sg155
g96
sg23
g24
sg16
g8
((lp2586
g2510
ag2513
atRp2587
sbatRp2588
sg159
I00
sbag2419
a(imodel.VarAtom
VarAtom
p2589
(dp2590
g3
VC17B
p2591
sg20
I00
sg21
Nsg22
(imodel.Atom
Atom
p2592
(dp2593
g3
g2591
sg13
g1
sg14
S'C'
sg15
I00
sg16
g8
((lp2594
g2589
a(imodel.VarAtom
VarAtom
p2595
(dp2596
g37
g2591
sg38
I00
sg39
Nsg40
g2592
sg41
g42
sg65
g8
((lp2597
(imodel.VarAtom
VarAtom
p2598
(dp2599
g37
VH17B_1
p2600
sg38
I00
sg39
Nsg40
(imodel.Atom
Atom
p2601
(dp2602
g3
g2600
sg13
g1
sg14
S'H'
sg15
I00
sg16
g8
((lp2603
(imodel.VarAtom
VarAtom
p2604
(dp2605
g3
g2600
sg20
I00
sg21
Nsg22
g2601
sg23
g24
sg55
g8
((lp2606
g2589
atRp2607
sg14
S'H'
sg137
I0
sg15
I00
sg138
(F793.663455976705
F106.98048356596298
F0.74538611367337737
tp2608
sg140
(lp2609
sg13
g1
sg142
g8
((lp2610
(imodel.AtomGroup
AtomGroup
p2611
(dp2612
g83
g146
sg85
g8
((ltRp2613
sg87
g8
((lp2614
g2604
a(imodel.VarAtom
VarAtom
p2615
(dp2616
g3
VH17B_2
p2617
sg20
I00
sg21
Nsg22
(imodel.Atom
Atom
p2618
(dp2619
g3
g2617
sg13
g1
sg14
S'H'
sg15
I00
sg16
g8
((lp2620
g2615
a(imodel.VarAtom
VarAtom
p2621
(dp2622
g37
g2617
sg38
I00
sg39
Nsg40
g2618
sg41
g42
sg65
g8
((lp2623
g2595
atRp2624
sg71
S'H'
sg72
I0
sg73
I00
sg74
(F847.42792403105568
F115.06315726532023
F0.18278451783391658
tp2625
sg76
(lp2626
sg78
g1
sg79
g8
((lp2627
(imodel.AtomGroup
AtomGroup
p2628
(dp2629
g83
g84
sg85
g8
((ltRp2630
sg87
g8
((lp2631
g2598
ag2621
atRp2632
sg41
g42
sg78
g1
sbatRp2633
sg91
g8
((lp2634
(imodel.Bond
Bond
p2635
(dp2636
g78
g1
sg95
g96
sg41
g42
sg87
g8
((lp2637
g2595
ag2621
atRp2638
sbatRp2639
sg100
I00
sbatRp2640
sg159
I00
sbsg23
g24
sg55
g8
((lp2641
g2589
atRp2642
sg14
S'H'
sg137
I0
sg15
I00
sg138
(F847.42792403105568
F115.06315726532023
F0.18278451783391658
tp2643
sg140
(lp2644
sg13
g1
sg142
g8
((lp2645
g2611
atRp2646
sg151
g8
((lp2647
(imodel.Bond
Bond
p2648
(dp2649
g13
g1
sg155
g96
sg23
g24
sg16
g8
((lp2650
g2589
ag2615
atRp2651
sbatRp2652
sg159
I00
sbatRp2653
sg41
g24
sg78
g1
sbatRp2654
sg151
g8
((lp2655
(imodel.Bond
Bond
p2656
(dp2657
g13
g1
sg155
g96
sg23
g24
sg16
g8
((lp2658
g2589
ag2604
atRp2659
sbatRp2660
sg159
I00
sbag2598
atRp2661
sg159
I00
sbsg41
g42
sg65
g8
((lp2662
g2595
atRp2663
sg71
S'H'
sg72
I0
sg73
I00
sg74
(F793.663455976705
F106.98048356596298
F0.74538611367337737
tp2664
sg76
(lp2665
sg78
g1
sg79
g8
((lp2666
g2628
atRp2667
sg91
g8
((lp2668
(imodel.Bond
Bond
p2669
(dp2670
g78
g1
sg95
g96
sg41
g42
sg87
g8
((lp2671
g2595
ag2598
atRp2672
sbatRp2673
sg100
I00
sbag2621
ag2504
a(imodel.VarAtom
VarAtom
p2674
(dp2675
g37
VC18B
p2676
sg38
I00
sg39
Nsg40
(imodel.Atom
Atom
p2677
(dp2678
g3
g2676
sg13
g1
sg14
S'C'
sg15
I00
sg16
g8
((lp2679
(imodel.VarAtom
VarAtom
p2680
(dp2681
g3
g2676
sg20
I00
sg21
Nsg22
g2677
sg23
g24
sg55
g8
((lp2682
(imodel.VarAtom
VarAtom
p2683
(dp2684
g3
VH18B_1
p2685
sg20
I00
sg21
Nsg22
(imodel.Atom
Atom
p2686
(dp2687
g3
g2685
sg13
g1
sg14
S'H'
sg15
I00
sg16
g8
((lp2688
g2683
a(imodel.VarAtom
VarAtom
p2689
(dp2690
g37
g2685
sg38
I00
sg39
Nsg40
g2686
sg41
g42
sg65
g8
((lp2691
g2674
atRp2692
sg71
S'H'
sg72
I0
sg73
I00
sg74
(F906.05298164154237
F10.492749679131009
F0.070027444988481902
tp2693
sg76
(lp2694
sg78
g1
sg79
g8
((lp2695
(imodel.AtomGroup
AtomGroup
p2696
(dp2697
g83
g500
sg85
g8
((ltRp2698
sg87
g8
((lp2699
g2689
a(imodel.VarAtom
VarAtom
p2700
(dp2701
g37
VH18B_2
p2702
sg38
I00
sg39
Nsg40
(imodel.Atom
Atom
p2703
(dp2704
g3
g2702
sg13
g1
sg14
S'H'
sg15
I00
sg16
g8
((lp2705
(imodel.VarAtom
VarAtom
p2706
(dp2707
g3
g2702
sg20
I00
sg21
Nsg22
g2703
sg23
g24
sg55
g8
((lp2708
g2680
atRp2709
sg14
S'H'
sg137
I0
sg15
I00
sg138
(F844.1846765701132
F2.6320630531878919
F0.47608394218146288
tp2710
sg140
(lp2711
sg13
g1
sg142
g8
((lp2712
(imodel.AtomGroup
AtomGroup
p2713
(dp2714
g83
g482
sg85
g8
((ltRp2715
sg87
g8
((lp2716
(imodel.VarAtom
VarAtom
p2717
(dp2718
g3
VH18B_3
p2719
sg20
I00
sg21
Nsg22
(imodel.Atom
Atom
p2720
(dp2721
g3
g2719
sg13
g1
sg14
S'H'
sg15
I00
sg16
g8
((lp2722
g2717
a(imodel.VarAtom
VarAtom
p2723
(dp2724
g37
g2719
sg38
I00
sg39
Nsg40
g2720
sg41
g42
sg65
g8
((lp2725
g2674
atRp2726
sg71
S'H'
sg72
I0
sg73
I00
sg74
(F893.71591678266373
F75.573488312118229
F0.080508702726987957
tp2727
sg76
(lp2728
sg78
g1
sg79
g8
((lp2729
g2696
atRp2730
sg91
g8
((lp2731
(imodel.Bond
Bond
p2732
(dp2733
g78
g1
sg95
g96
sg41
g42
sg87
g8
((lp2734
g2674
ag2723
atRp2735
sbatRp2736
sg100
I00
sbatRp2737
sg159
I00
sbsg23
g24
sg55
g8
((lp2738
g2680
atRp2739
sg14
S'H'
sg137
I0
sg15
I00
sg138
(F893.71591678266373
F75.573488312118229
F0.080508702726987957
tp2740
sg140
(lp2741
sg13
g1
sg142
g8
((lp2742
g2713
atRp2743
sg151
g8
((lp2744
(imodel.Bond
Bond
p2745
(dp2746
g13
g1
sg155
g96
sg23
g24
sg16
g8
((lp2747
g2680
ag2717
atRp2748
sbatRp2749
sg159
I00
sbag2683
ag2706
atRp2750
sg41
g24
sg78
g1
sbatRp2751
sg151
g8
((lp2752
(imodel.Bond
Bond
p2753
(dp2754
g13
g1
sg155
g96
sg23
g24
sg16
g8
((lp2755
g2680
ag2706
atRp2756
sbatRp2757
sg159
I00
sbag2700
atRp2758
sg159
I00
sbsg41
g42
sg65
g8
((lp2759
g2674
atRp2760
sg71
S'H'
sg72
I0
sg73
I00
sg74
(F844.1846765701132
F2.6320630531878919
F0.47608394218146288
tp2761
sg76
(lp2762
sg78
g1
sg79
g8
((lp2763
g2696
atRp2764
sg91
g8
((lp2765
(imodel.Bond
Bond
p2766
(dp2767
g78
g1
sg95
g96
sg41
g42
sg87
g8
((lp2768
g2674
ag2700
atRp2769
sbatRp2770
sg100
I00
sbag2723
atRp2771
sg41
g42
sg78
g1
sbatRp2772
sg91
g8
((lp2773
(imodel.Bond
Bond
p2774
(dp2775
g78
g1
sg95
g96
sg41
g42
sg87
g8
((lp2776
g2674
ag2689
atRp2777
sbatRp2778
sg100
I00
sbatRp2779
sg159
I00
sbsg23
g24
sg55
g8
((lp2780
g2680
atRp2781
sg14
S'H'
sg137
I0
sg15
I00
sg138
(F906.05298164154237
F10.492749679131009
F0.070027444988481902
tp2782
sg140
(lp2783
sg13
g1
sg142
g8
((lp2784
g2713
atRp2785
sg151
g8
((lp2786
(imodel.Bond
Bond
p2787
(dp2788
g13
g1
sg155
g96
sg23
g24
sg16
g8
((lp2789
g2680
ag2683
atRp2790
sbatRp2791
sg159
I00
sbag2706
ag2589
ag2717
atRp2792
sg14
S'C'
sg137
I0
sg15
I00
sg138
(F864.07865142224523
F36.345567885757191
F0.92084982902680357
tp2793
sg140
(lp2794
sg13
g1
sg142
g8
((ltRp2795
sg151
g8
((lp2796
(imodel.Bond
Bond
p2797
(dp2798
g13
g1
sg155
g96
sg23
g24
sg16
g8
((lp2799
g2680
ag2589
atRp2800
sbag2745
ag2787
ag2753
atRp2801
sg159
I00
sbag2674
atRp2802
sg159
I00
sbsg41
g42
sg65
g8
((lp2803
g2723
ag2595
ag2689
ag2700
atRp2804
sg71
S'C'
sg72
I0
sg73
I00
sg74
(F864.07865142224523
F36.345567885757191
F0.92084982902680357
tp2805
sg76
(lp2806
sg78
g1
sg79
g8
((ltRp2807
sg91
g8
((lp2808
g2732
a(imodel.Bond
Bond
p2809
(dp2810
g78
g1
sg95
g96
sg41
g42
sg87
g8
((lp2811
g2674
ag2595
atRp2812
sbag2774
ag2766
atRp2813
sg100
I00
sbatRp2814
sg71
S'C'
sg72
I0
sg73
I00
sg74
(F818.70273902339454
F73.546986088728147
F0.11897411016818338
tp2815
sg76
(lp2816
sg78
g1
sg79
g8
((ltRp2817
sg91
g8
((lp2818
g2809
a(imodel.Bond
Bond
p2819
(dp2820
g78
g1
sg95
g96
sg41
g42
sg87
g8
((lp2821
g2595
ag2504
atRp2822
sbag2635
ag2669
atRp2823
sg100
I00
sbatRp2824
sg159
I00
sbsg23
g24
sg55
g8
((lp2825
g2604
ag2510
ag2615
ag2680
atRp2826
sg14
S'C'
sg137
I0
sg15
I00
sg138
(F818.70273902339454
F73.546986088728147
F0.11897411016818338
tp2827
sg140
(lp2828
sg13
g1
sg142
g8
((ltRp2829
sg151
g8
((lp2830
(imodel.Bond
Bond
p2831
(dp2832
g13
g1
sg155
g96
sg23
g24
sg16
g8
((lp2833
g2589
ag2510
atRp2834
sbag2797
ag2656
ag2648
atRp2835
sg159
I00
sbag2536
atRp2836
sg14
S'C'
sg137
I0
sg15
I00
sg138
(F766.78967449620768
F41.564259245975137
F0.82107450086696354
tp2837
sg140
(lp2838
sg13
g1
sg142
g8
((ltRp2839
sg151
g8
((lp2840
(imodel.Bond
Bond
p2841
(dp2842
g13
g1
sg155
g96
sg23
g24
sg16
g8
((lp2843
g2510
ag2419
atRp2844
sbag2831
ag2550
ag2584
atRp2845
sg159
I00
sbag2504
atRp2846
sg159
I00
sbsg41
g42
sg65
g8
((lp2847
g2519
ag2425
ag2530
ag2595
atRp2848
sg71
S'C'
sg72
I0
sg73
I00
sg74
(F766.78967449620768
F41.564259245975137
F0.82107450086696354
tp2849
sg76
(lp2850
sg78
g1
sg79
g8
((ltRp2851
sg91
g8
((lp2852
(imodel.Bond
Bond
p2853
(dp2854
g78
g1
sg95
g96
sg41
g42
sg87
g8
((lp2855
g2504
ag2425
atRp2856
sbag2571
ag2819
ag2563
atRp2857
sg100
I00
sbag2410
ag2451
atRp2858
sg71
S'C'
sg72
I0
sg73
I00
sg74
(F717.46347718502398
F80.491256243320592
F0.056904173569152894
tp2859
sg76
(lp2860
sg78
g1
sg79
g8
((ltRp2861
sg91
g8
((lp2862
g2853
ag2499
a(imodel.Bond
Bond
p2863
(dp2864
g78
g1
sg95
g96
sg41
g42
sg87
g8
((lp2865
g2425
ag2410
atRp2866
sbag2465
atRp2867
sg100
I00
sbatRp2868
sg159
I00
sbsg23
g24
sg55
g8
((lp2869
g2416
ag2510
ag2445
ag2434
atRp2870
sg14
S'C'
sg137
I0
sg15
I00
sg138
(F717.46347718502398
F80.491256243320592
F0.056904173569152894
tp2871
sg140
(lp2872
sg13
g1
sg142
g8
((ltRp2873
sg151
g8
((lp2874
(imodel.Bond
Bond
p2875
(dp2876
g13
g1
sg155
g96
sg23
g24
sg16
g8
((lp2877
g2419
ag2416
atRp2878
sbag2841
ag2478
ag2486
atRp2879
sg159
I00
sba(imodel.VarAtom
VarAtom
p2880
(dp2881
g3
VH14B_2
p2882
sg20
I00
sg21
Nsg22
(imodel.Atom
Atom
p2883
(dp2884
g3
g2882
sg13
g1
sg14
S'H'
sg15
I00
sg16
g8
((lp2885
g2880
a(imodel.VarAtom
VarAtom
p2886
(dp2887
g37
g2882
sg38
I00
sg39
Nsg40
g2883
sg41
g42
sg65
g8
((lp2888
g2410
atRp2889
sg71
S'H'
sg72
I0
sg73
I00
sg74
(F639.07531868222554
F17.661746524109816
F0.043929708346977514
tp2890
sg76
(lp2891
sg78
g1
sg79
g8
((lp2892
(imodel.AtomGroup
AtomGroup
p2893
(dp2894
g83
g84
sg85
g8
((ltRp2895
sg87
g8
((lp2896
(imodel.VarAtom
VarAtom
p2897
(dp2898
g37
VH14B_1
p2899
sg38
I00
sg39
Nsg40
(imodel.Atom
Atom
p2900
(dp2901
g3
g2899
sg13
g1
sg14
S'H'
sg15
I00
sg16
g8
((lp2902
(imodel.VarAtom
VarAtom
p2903
(dp2904
g3
g2899
sg20
I00
sg21
Nsg22
g2900
sg23
g24
sg55
g8
((lp2905
g2416
atRp2906
sg14
S'H'
sg137
I0
sg15
I00
sg138
(F691.35460519766525
F0.72277939128326807
F0.89101146249908125
tp2907
sg140
(lp2908
sg13
g1
sg142
g8
((lp2909
(imodel.AtomGroup
AtomGroup
p2910
(dp2911
g83
g146
sg85
g8
((ltRp2912
sg87
g8
((lp2913
g2880
ag2903
atRp2914
sg41
g24
sg78
g1
sbatRp2915
sg151
g8
((lp2916
(imodel.Bond
Bond
p2917
(dp2918
g13
g1
sg155
g96
sg23
g24
sg16
g8
((lp2919
g2416
ag2903
atRp2920
sbatRp2921
sg159
I00
sbag2897
atRp2922
sg159
I00
sbsg41
g42
sg65
g8
((lp2923
g2410
atRp2924
sg71
S'H'
sg72
I0
sg73
I00
sg74
(F691.35460519766525
F0.72277939128326807
F0.89101146249908125
tp2925
sg76
(lp2926
sg78
g1
sg79
g8
((lp2927
g2893
atRp2928
sg91
g8
((lp2929
(imodel.Bond
Bond
p2930
(dp2931
g78
g1
sg95
g96
sg41
g42
sg87
g8
((lp2932
g2410
ag2897
atRp2933
sbatRp2934
sg100
I00
sbag2886
atRp2935
sg41
g42
sg78
g1
sbatRp2936
sg91
g8
((lp2937
(imodel.Bond
Bond
p2938
(dp2939
g78
g1
sg95
g96
sg41
g42
sg87
g8
((lp2940
g2410
ag2886
atRp2941
sbatRp2942
sg100
I00
sbatRp2943
sg159
I00
sbsg23
g24
sg55
g8
((lp2944
g2416
atRp2945
sg14
S'H'
sg137
I0
sg15
I00
sg138
(F639.07531868222554
F17.661746524109816
F0.043929708346977514
tp2946
sg140
(lp2947
sg13
g1
sg142
g8
((lp2948
g2910
atRp2949
sg151
g8
((lp2950
(imodel.Bond
Bond
p2951
(dp2952
g13
g1
sg155
g96
sg23
g24
sg16
g8
((lp2953
g2416
ag2880
atRp2954
sbatRp2955
sg159
I00
sbag2903
atRp2956
sg14
S'C'
sg137
I0
sg15
I00
sg138
(F665.25686132263877
F45.61263474753585
F0.38072282710627658
tp2957
sg140
(lp2958
sg13
g1
sg142
g8
((ltRp2959
sg151
g8
((lp2960
(imodel.Bond
Bond
p2961
(dp2962
g13
g1
sg155
g96
sg23
g24
sg16
g8
((lp2963
g2416
ag2325
atRp2964
sbag2875
ag2917
ag2951
atRp2965
sg159
I00
sbag2410
atRp2966
sg159
I00
sbsg41
g42
sg65
g8
((lp2967
g2886
ag2897
ag2425
ag2331
atRp2968
sg71
S'C'
sg72
I0
sg73
I00
sg74
(F665.25686132263877
F45.61263474753585
F0.38072282710627658
tp2969
sg76
(lp2970
sg78
g1
sg79
g8
((ltRp2971
sg91
g8
((lp2972
g2938
ag2863
ag2930
a(imodel.Bond
Bond
p2973
(dp2974
g78
g1
sg95
g96
sg41
g42
sg87
g8
((lp2975
g2410
ag2331
atRp2976
sbatRp2977
sg100
I00
sbag2357
ag2240
atRp2978
sg71
S'C'
sg72
I0
sg73
I00
sg74
(F614.45988505957939
F82.378284000043678
F0.65504545220784427
tp2979
sg76
(lp2980
sg78
g1
sg79
g8
((ltRp2981
sg91
g8
((lp2982
g2405
a(imodel.Bond
Bond
p2983
(dp2984
g78
g1
sg95
g96
sg41
g42
sg87
g8
((lp2985
g2331
ag2240
atRp2986
sbag2371
ag2973
atRp2987
sg100
I00
sbatRp2988
sg159
I00
sbsg23
g24
sg55
g8
((lp2989
g2340
ag2416
ag2246
ag2351
atRp2990
sg14
S'C'
sg137
I0
sg15
I00
sg138
(F614.45988505957939
F82.378284000043678
F0.65504545220784427
tp2991
sg140
(lp2992
sg13
g1
sg142
g8
((ltRp2993
sg151
g8
((lp2994
(imodel.Bond
Bond
p2995
(dp2996
g13
g1
sg155
g96
sg23
g24
sg16
g8
((lp2997
g2325
ag2246
atRp2998
sbag2961
ag2392
ag2384
atRp2999
sg159
I00
sbatRp3000
sg14
S'C'
sg137
I0
sg15
I00
sg138
(F564.56249168348506
F45.53207852255855
F0.31361199702174181
tp3001
sg140
(lp3002
sg13
g1
sg142
g8
((ltRp3003
sg151
g8
((lp3004
(imodel.Bond
Bond
p3005
(dp3006
g13
g1
sg155
g96
sg23
g24
sg16
g8
((lp3007
g2246
ag2154
atRp3008
sbag2995
ag2286
ag2320
atRp3009
sg159
I00
sbag2240
atRp3010
sg159
I00
sbsg41
g42
sg65
g8
((lp3011
g2255
ag2266
ag2331
ag2160
atRp3012
sg71
S'C'
sg72
I0
sg73
I00
sg74
(F564.56249168348506
F45.53207852255855
F0.31361199702174181
tp3013
sg76
(lp3014
sg78
g1
sg79
g8
((ltRp3015
sg91
g8
((lp3016
g2299
a(imodel.Bond
Bond
p3017
(dp3018
g78
g1
sg95
g96
sg41
g42
sg87
g8
((lp3019
g2240
ag2160
atRp3020
sbag2307
ag2983
atRp3021
sg100
I00
sbag2096
ag2186
atRp3022
sg71
S'C'
sg72
I0
sg73
I00
sg74
(F511.97378873440914
F78.177981970243181
F0.95847388105698583
tp3023
sg76
(lp3024
sg78
g1
sg79
g8
((ltRp3025
sg91
g8
((lp3026
(imodel.Bond
Bond
p3027
(dp3028
g78
g1
sg95
g2129
sg41
g42
sg87
g8
((lp3029
g2160
ag2096
atRp3030
sbag3017
ag2235
ag2201
atRp3031
sg100
I00
sbatRp3032
sg159
I00
sbsg23
g24
sg55
g8
((lp3033
g2102
ag2169
ag2246
ag2180
atRp3034
sg14
S'C'
sg137
I0
sg15
I00
sg138
(F511.97378873440914
F78.177981970243181
F0.95847388105698583
tp3035
sg140
(lp3036
sg13
g1
sg142
g8
((ltRp3037
sg151
g8
((lp3038
(imodel.Bond
Bond
p3039
(dp3040
g13
g1
sg155
g2129
sg23
g24
sg16
g8
((lp3041
g2154
ag2102
atRp3042
sbag3005
ag2222
ag2214
atRp3043
sg159
I00
sbatRp3044
sg14
S'C'
sg137
I0
sg15
I00
sg138
(F470.00115261129906
F42.599182968331775
F0.33666806403307092
tp3045
sg140
(lp3046
sg13
g1
sg142
g8
((ltRp3047
sg151
g8
((lp3048
(imodel.Bond
Bond
p3049
(dp3050
g13
g1
sg155
S'double'
p3051
sg23
g24
sg16
g8
((lp3052
g2056
ag2102
atRp3053
sbag3039
ag2148
atRp3054
sg159
I00
sbag2096
atRp3055
sg159
I00
sbsg41
g42
sg65
g8
((lp3056
g2160
ag2062
ag2119
atRp3057
sg71
S'C'
sg72
I0
sg73
I00
sg74
(F470.00115261129906
F42.599182968331775
F0.33666806403307092
tp3058
sg76
(lp3059
sg78
g1
sg79
g8
((ltRp3060
sg91
g8
((lp3061
g3027
ag2127
a(imodel.Bond
Bond
p3062
(dp3063
g78
g1
sg95
g3051
sg41
g42
sg87
g8
((lp3064
g2062
ag2096
atRp3065
sbatRp3066
sg100
I00
sbatRp3067
sg71
S'C'
sg72
I0
sg73
I00
sg74
(F422.18426865792128
F42.186564893179337
F0.83825081697555315
tp3068
sg76
(lp3069
sg78
g1
sg79
g8
((ltRp3070
sg91
g8
((lp3071
(imodel.Bond
Bond
p3072
(dp3073
g78
g1
sg95
g96
sg41
g42
sg87
g8
((lp3074
g2062
ag2047
atRp3075
sbag3062
ag2091
atRp3076
sg100
I00
sbatRp3077
sg159
I00
sbsg23
g24
sg55
g8
((lp3078
g2053
ag2071
ag2102
atRp3079
sg14
S'C'
sg137
I0
sg15
I00
sg138
(F422.18426865792128
F42.186564893179337
F0.83825081697555315
tp3080
sg140
(lp3081
sg13
g1
sg142
g8
((ltRp3082
sg151
g8
((lp3083
(imodel.Bond
Bond
p3084
(dp3085
g13
g1
sg155
g96
sg23
g24
sg16
g8
((lp3086
g2056
ag2053
atRp3087
sbag3049
ag2079
atRp3088
sg159
I00
sbag1962
a(imodel.VarAtom
VarAtom
p3089
(dp3090
g3
VH8B_2
p3091
sg20
I00
sg21
Nsg22
(imodel.Atom
Atom
p3092
(dp3093
g3
g3091
sg13
g1
sg14
S'H'
sg15
I00
sg16
g8
((lp3094
g3089
a(imodel.VarAtom
VarAtom
p3095
(dp3096
g37
g3091
sg38
I00
sg39
Nsg40
g3092
sg41
g42
sg65
g8
((lp3097
g2047
atRp3098
sg71
S'H'
sg72
I0
sg73
I00
sg74
(F358.00487870475729
F113.90468036964367
F0.65098078944343052
tp3099
sg76
(lp3100
sg78
g1
sg79
g8
((lp3101
(imodel.AtomGroup
AtomGroup
p3102
(dp3103
g83
g84
sg85
g8
((ltRp3104
sg87
g8
((lp3105
(imodel.VarAtom
VarAtom
p3106
(dp3107
g37
VH8B_1
p3108
sg38
I00
sg39
Nsg40
(imodel.Atom
Atom
p3109
(dp3110
g3
g3108
sg13
g1
sg14
S'H'
sg15
I00
sg16
g8
((lp3111
(imodel.VarAtom
VarAtom
p3112
(dp3113
g3
g3108
sg20
I00
sg21
Nsg22
g3109
sg23
g24
sg55
g8
((lp3114
g2053
atRp3115
sg14
S'H'
sg137
I0
sg15
I00
sg138
(F412.62554970114206
F120.08271916425178
F0.11000711727646428
tp3116
sg140
(lp3117
sg13
g1
sg142
g8
((lp3118
(imodel.AtomGroup
AtomGroup
p3119
(dp3120
g83
g146
sg85
g8
((ltRp3121
sg87
g8
((lp3122
g3089
ag3112
atRp3123
sg41
g24
sg78
g1
sbatRp3124
sg151
g8
((lp3125
(imodel.Bond
Bond
p3126
(dp3127
g13
g1
sg155
g96
sg23
g24
sg16
g8
((lp3128
g2053
ag3112
atRp3129
sbatRp3130
sg159
I00
sbag3106
atRp3131
sg159
I00
sbsg41
g42
sg65
g8
((lp3132
g2047
atRp3133
sg71
S'H'
sg72
I0
sg73
I00
sg74
(F412.62554970114206
F120.08271916425178
F0.11000711727646428
tp3134
sg76
(lp3135
sg78
g1
sg79
g8
((lp3136
g3102
atRp3137
sg91
g8
((lp3138
(imodel.Bond
Bond
p3139
(dp3140
g78
g1
sg95
g96
sg41
g42
sg87
g8
((lp3141
g2047
ag3106
atRp3142
sbatRp3143
sg100
I00
sbag3095
atRp3144
sg41
g42
sg78
g1
sbatRp3145
sg91
g8
((lp3146
(imodel.Bond
Bond
p3147
(dp3148
g78
g1
sg95
g96
sg41
g42
sg87
g8
((lp3149
g2047
ag3095
atRp3150
sbatRp3151
sg100
I00
sbatRp3152
sg159
I00
sbsg23
g24
sg55
g8
((lp3153
g2053
atRp3154
sg14
S'H'
sg137
I0
sg15
I00
sg138
(F358.00487870475729
F113.90468036964367
F0.65098078944343052
tp3155
sg140
(lp3156
sg13
g1
sg142
g8
((lp3157
g3119
atRp3158
sg151
g8
((lp3159
(imodel.Bond
Bond
p3160
(dp3161
g13
g1
sg155
g96
sg23
g24
sg16
g8
((lp3162
g2053
ag3089
atRp3163
sbatRp3164
sg159
I00
sbag3112
atRp3165
sg14
S'C'
sg137
I0
sg15
I00
sg138
(F382.26792968907324
F79.245508769652758
F0.73032737641552548
tp3166
sg140
(lp3167
sg13
g1
sg142
g8
((ltRp3168
sg151
g8
((lp3169
(imodel.Bond
Bond
p3170
(dp3171
g13
g1
sg155
g96
sg23
g24
sg16
g8
((lp3172
g2053
ag1962
atRp3173
sbag3084
ag3126
ag3160
atRp3174
sg159
I00
sbag2047
atRp3175
sg159
I00
sbsg41
g42
sg65
g8
((lp3176
g3095
ag2062
ag3106
ag1968
atRp3177
sg71
S'C'
sg72
I0
sg73
I00
sg74
(F382.26792968907324
F79.245508769652758
F0.73032737641552548
tp3178
sg76
(lp3179
sg78
g1
sg79
g8
((ltRp3180
sg91
g8
((lp3181
g3147
ag3139
ag3072
a(imodel.Bond
Bond
p3182
(dp3183
g78
g1
sg95
g96
sg41
g42
sg87
g8
((lp3184
g2047
ag1968
atRp3185
sbatRp3186
sg100
I00
sbatRp3187
sg71
S'C'
sg72
I0
sg73
I00
sg74
(F326.61108470832994
F49.947372846176904
F0.55179010413882523
tp3188
sg76
(lp3189
sg78
g1
sg79
g8
((ltRp3190
sg91
g8
((lp3191
(imodel.Bond
Bond
p3192
(dp3193
g78
g1
sg95
g96
sg41
g42
sg87
g8
((lp3194
g1968
ag1877
atRp3195
sbag3182
ag2042
ag2008
atRp3196
sg100
I00
sbatRp3197
sg159
I00
sbsg23
g24
sg55
g8
((lp3198
g1883
ag1988
ag1977
ag2053
atRp3199
sg14
S'C'
sg137
I0
sg15
I00
sg138
(F326.61108470832994
F49.947372846176904
F0.55179010413882523
tp3200
sg140
(lp3201
sg13
g1
sg142
g8
((ltRp3202
sg151
g8
((lp3203
(imodel.Bond
Bond
p3204
(dp3205
g13
g1
sg155
g96
sg23
g24
sg16
g8
((lp3206
g1962
ag1883
atRp3207
sbag3170
ag2029
ag2021
atRp3208
sg159
I00
sbag1909
atRp3209
sg14
S'C'
sg137
I0
sg15
I00
sg138
(F282.10984827463363
F92.122839352843371
F0.35786902490190209
tp3210
sg140
(lp3211
sg13
g1
sg142
g8
((ltRp3212
sg151
g8
((lp3213
(imodel.Bond
Bond
p3214
(dp3215
g13
g1
sg155
g1100
sg23
g24
sg16
g8
((lp3216
g1883
ag1792
atRp3217
sbag3204
ag1957
ag1923
atRp3218
sg159
I00
sbag1877
atRp3219
sg159
I00
sbsg41
g42
sg65
g8
((lp3220
g1968
ag1892
ag1903
ag1798
atRp3221
sg71
S'C'
sg72
I0
sg73
I00
sg74
(F282.10984827463363
F92.122839352843371
F0.35786902490190209
tp3222
sg76
(lp3223
sg78
g1
sg79
g8
((ltRp3224
sg91
g8
((lp3225
g3192
a(imodel.Bond
Bond
p3226
(dp3227
g78
g1
sg95
g1100
sg41
g42
sg87
g8
((lp3228
g1877
ag1798
atRp3229
sbag1944
ag1936
atRp3230
sg100
I00
sbatRp3231
sg71
S'C'
sg72
I0
sg73
I00
sg74
(F224.57798823051112
F65.721007939277783
F0.90410893634843015
tp3232
sg76
(lp3233
sg78
g1
sg79
g8
((ltRp3234
sg91
g8
((lp3235
(imodel.Bond
Bond
p3236
(dp3237
g78
g1
sg95
g96
sg41
g42
sg87
g8
((lp3238
g1798
ag1783
atRp3239
sbag1872
ag1838
ag3226
atRp3240
sg100
I00
sbatRp3241
sg159
I00
sbsg23
g24
sg55
g8
((lp3242
g1807
ag1789
ag1818
ag1883
atRp3243
sg14
S'C'
sg137
I0
sg15
I00
sg138
(F224.57798823051112
F65.721007939277783
F0.90410893634843015
tp3244
sg140
(lp3245
sg13
g1
sg142
g8
((ltRp3246
sg151
g8
((lp3247
(imodel.Bond
Bond
p3248
(dp3249
g13
g1
sg155
g96
sg23
g24
sg16
g8
((lp3250
g1792
ag1789
atRp3251
sbag3214
ag1851
ag1859
atRp3252
sg159
I00
sba(imodel.VarAtom
VarAtom
p3253
(dp3254
g3
VH4B_2
p3255
sg20
I00
sg21
Nsg22
(imodel.Atom
Atom
p3256
(dp3257
g3
g3255
sg13
g1
sg14
S'H'
sg15
I00
sg16
g8
((lp3258
g3253
a(imodel.VarAtom
VarAtom
p3259
(dp3260
g37
g3255
sg38
I00
sg39
Nsg40
g3256
sg41
g42
sg65
g8
((lp3261
g1783
atRp3262
sg71
S'H'
sg72
I0
sg73
I00
sg74
(F157.44724469275363
F151.9460915901002
F0.4231653812591516
tp3263
sg76
(lp3264
sg78
g1
sg79
g8
((lp3265
(imodel.AtomGroup
AtomGroup
p3266
(dp3267
g83
g1069
sg85
g8
((ltRp3268
sg87
g8
((lp3269
(imodel.VarAtom
VarAtom
p3270
(dp3271
g37
VH4B_1
p3272
sg38
I00
sg39
Nsg40
(imodel.Atom
Atom
p3273
(dp3274
g1028
g3272
sg1029
g1
sg1030
S'H'
sg1031
I00
sg1032
g8
((lp3275
(imodel.VarAtom
VarAtom
p3276
(dp3277
g1028
g3272
sg1036
I00
sg1037
Nsg1038
g3273
sg1039
g24
sg1040
g8
((lp3278
g1789
atRp3279
sg1030
S'H'
sg1043
I0
sg1031
I00
sg1044
(F212.34511648960324
F145.26730964536773
F0.086598779593358377
tp3280
sg1046
(lp3281
sg1029
g1
sg1048
g8
((lp3282
(imodel.AtomGroup
AtomGroup
p3283
(dp3284
g83
g146
sg85
g8
((ltRp3285
sg87
g8
((lp3286
g3276
ag3253
atRp3287
sg41
g24
sg78
g1
sbatRp3288
sg1095
g8
((lp3289
(imodel.Bond
Bond
p3290
(dp3291
g1029
g1
sg1099
g1100
sg1039
g24
sg1032
g8
((lp3292
g1789
ag3276
atRp3293
sbatRp3294
sg1104
I00
sbag3270
atRp3295
sg1104
I00
sbsg41
g42
sg65
g8
((lp3296
g1783
atRp3297
sg71
S'H'
sg72
I0
sg73
I00
sg74
(F212.34511648960324
F145.26730964536773
F0.086598779593358377
tp3298
sg76
(lp3299
sg78
g1
sg79
g8
((lp3300
g3266
atRp3301
sg91
g8
((lp3302
(imodel.Bond
Bond
p3303
(dp3304
g78
g1
sg95
g1100
sg41
g42
sg87
g8
((lp3305
g1783
ag3270
atRp3306
sbatRp3307
sg100
I00
sbag3259
atRp3308
sg41
g42
sg78
g1
sbatRp3309
sg91
g8
((lp3310
(imodel.Bond
Bond
p3311
(dp3312
g78
g1
sg95
g96
sg41
g42
sg87
g8
((lp3313
g1783
ag3259
atRp3314
sbatRp3315
sg100
I00
sbatRp3316
sg159
I00
sbsg23
g24
sg55
g8
((lp3317
g1789
atRp3318
sg14
S'H'
sg137
I0
sg15
I00
sg138
(F157.44724469275363
F151.9460915901002
F0.4231653812591516
tp3319
sg140
(lp3320
sg13
g1
sg142
g8
((lp3321
g3283
atRp3322
sg151
g8
((lp3323
(imodel.Bond
Bond
p3324
(dp3325
g13
g1
sg155
g96
sg23
g24
sg16
g8
((lp3326
g1789
ag3253
atRp3327
sbatRp3328
sg159
I00
sbag3276
atRp3329
sg14
S'C'
sg137
I0
sg15
I00
sg138
(F183.20333070200167
F111.25758162260493
F0.80623907757976443
tp3330
sg140
(lp3331
sg13
g1
sg142
g8
((ltRp3332
sg151
g8
((lp3333
(imodel.Bond
Bond
p3334
(dp3335
g13
g1
sg155
g1100
sg23
g24
sg16
g8
((lp3336
g1789
ag1698
atRp3337
sbag3248
ag3290
ag3324
atRp3338
sg159
I00
sbag1783
atRp3339
sg159
I00
sbsg41
g42
sg65
g8
((lp3340
g3270
ag3259
ag1704
ag1798
atRp3341
sg71
S'C'
sg72
I0
sg73
I00
sg74
(F183.20333070200167
F111.25758162260493
F0.80623907757976443
tp3342
sg76
(lp3343
sg78
g1
sg79
g8
((ltRp3344
sg91
g8
((lp3345
g3236
ag3303
a(imodel.Bond
Bond
p3346
(dp3347
g78
g1
sg95
g1100
sg41
g42
sg87
g8
((lp3348
g1783
ag1704
atRp3349
sbag3311
atRp3350
sg100
I00
sbag1730
ag1613
atRp3351
sg71
S'C'
sg72
I0
sg73
I00
sg74
(F125.76138203056556
F89.338353872896604
F0.9945469599092116
tp3352
sg76
(lp3353
sg78
g1
sg79
g8
((ltRp3354
sg91
g8
((lp3355
g1778
ag1744
a(imodel.Bond
Bond
p3356
(dp3357
g78
g1
sg95
g96
sg41
g42
sg87
g8
((lp3358
g1704
ag1613
atRp3359
sbag3346
atRp3360
sg100
I00
sbatRp3361
sg159
I00
sbsg23
g24
sg55
g8
((lp3362
g1619
ag1789
ag1713
ag1724
atRp3363
sg14
S'C'
sg137
I0
sg15
I00
sg138
(F125.76138203056556
F89.338353872896604
F0.9945469599092116
tp3364
sg140
(lp3365
sg13
g1
sg142
g8
((ltRp3366
sg151
g8
((lp3367
(imodel.Bond
Bond
p3368
(dp3369
g13
g1
sg155
g96
sg23
g24
sg16
g8
((lp3370
g1698
ag1619
atRp3371
sbag3334
ag1765
ag1757
atRp3372
sg159
I00
sbatRp3373
sg14
S'C'
sg137
I0
sg15
I00
sg138
(F65.769012286524628
F73.695837693783901
F0.54848457698124597
tp3374
sg140
(lp3375
sg13
g1
sg142
g8
((ltRp3376
sg151
g8
((lp3377
(imodel.Bond
Bond
p3378
(dp3379
g13
g1
sg155
g96
sg23
g24
sg16
g8
((lp3380
g1619
ag1604
atRp3381
sbag3368
ag1659
ag1693
atRp3382
sg159
I00
sbag1613
atRp3383
sg159
I00
sbsg41
g42
sg65
g8
((lp3384
g1628
ag1704
ag1610
ag1639
atRp3385
sg71
S'C'
sg72
I0
sg73
I00
sg74
(F65.769012286524628
F73.695837693783901
F0.54848457698124597
tp3386
sg76
(lp3387
sg78
g1
sg79
g8
((ltRp3388
sg91
g8
((lp3389
g1672
ag3356
a(imodel.Bond
Bond
p3390
(dp3391
g78
g1
sg95
g96
sg41
g42
sg87
g8
((lp3392
g1613
ag1610
atRp3393
sbag1680
atRp3394
sg100
I00
sba(imodel.VarAtom
VarAtom
p3395
(dp3396
g37
VO1B
p3397
sg38
I00
sg39
Nsg40
(imodel.Atom
Atom
p3398
(dp3399
g3
g3397
sg13
g1
sg14
S'O'
sg15
I00
sg16
g8
((lp3400
(imodel.VarAtom
VarAtom
p3401
(dp3402
g3
g3397
sg20
I00
sg21
Nsg22
g3398
sg23
g24
sg55
g8
((lp3403
g1604
atRp3404
sg14
S'O'
sg137
I0
sg15
I00
sg138
(F-15.606497573957142
F102.17203798764544
F0.7367842145193193
tp3405
sg140
(lp3406
sg13
g1
sg142
g8
((ltRp3407
sg151
g8
((lp3408
(imodel.Bond
Bond
p3409
(dp3410
g13
g1
sg155
g3051
sg23
g24
sg16
g8
((lp3411
g1604
ag3401
atRp3412
sbatRp3413
sg159
I00
sbag3395
atRp3414
sg159
I00
sbsg41
g42
sg65
g8
((lp3415
g1610
atRp3416
sg71
S'O'
sg72
I0
sg73
I00
sg74
(F-15.606497573957142
F102.17203798764544
F0.7367842145193193
tp3417
sg76
(lp3418
sg78
g1
sg79
g8
((ltRp3419
sg91
g8
((lp3420
(imodel.Bond
Bond
p3421
(dp3422
g78
g1
sg95
g3051
sg41
g42
sg87
g8
((lp3423
g1610
ag3395
atRp3424
sbatRp3425
sg100
I00
sbatRp3426
sg71
S'C'
sg72
I0
sg73
I00
sg74
(F36.617573165525641
F118.34531395280113
F0.10756485378924741
tp3427
sg76
(lp3428
sg78
g1
sg79
g8
((ltRp3429
sg91
g8
((lp3430
(imodel.Bond
Bond
p3431
(dp3432
g78
g1
sg95
g96
sg41
g42
sg87
g8
((lp3433
g1610
ag1595
atRp3434
sbag3421
ag3390
atRp3435
sg100
I00
sbatRp3436
sg159
I00
sbsg23
g24
sg55
g8
((lp3437
g1601
ag3401
ag1619
atRp3438
sg14
S'C'
sg137
I0
sg15
I00
sg138
(F36.617573165525641
F118.34531395280113
F0.10756485378924741
tp3439
sg140
(lp3440
sg13
g1
sg142
g8
((ltRp3441
sg151
g8
((lp3442
(imodel.Bond
Bond
p3443
(dp3444
g13
g1
sg155
g96
sg23
g24
sg16
g8
((lp3445
g1604
ag1601
atRp3446
sbag3378
ag3409
atRp3447
sg159
I00
sbatRp3448
sg14
S'O'
sg137
I0
sg15
I00
sg138
(F41.40879268800802
F164.78505192550557
F0.80778526490517022
tp3449
sg140
(lp3450
sg13
g1
sg142
g8
((ltRp3451
sg151
g8
((lp3452
(imodel.Bond
Bond
p3453
(dp3454
g13
g1
sg155
g96
sg23
g24
sg16
g8
((lp3455
g1409
ag1601
atRp3456
sbag3443
atRp3457
sg159
I00
sbag1595
atRp3458
sg159
I00
sbsg41
g42
sg65
g8
((lp3459
g1610
ag1415
atRp3460
sg71
S'O'
sg72
I0
sg73
I00
sg74
(F41.40879268800802
F164.78505192550557
F0.80778526490517022
tp3461
sg76
(lp3462
sg78
g1
sg79
g8
((ltRp3463
sg91
g8
((lp3464
g3431
a(imodel.Bond
Bond
p3465
(dp3466
g78
g1
sg95
g96
sg41
g42
sg87
g8
((lp3467
g1415
ag1595
atRp3468
sbatRp3469
sg100
I00
sbatRp3470
sg71
S'C'
sg72
I0
sg73
I00
sg74
(F-0.67061309278778936
F213.01407287223893
F0.4042855409635876
tp3471
sg76
(lp3472
sg78
g1
sg79
g8
((ltRp3473
sg91
g8
((lp3474
(imodel.Bond
Bond
p3475
(dp3476
g78
g1
sg95
g96
sg41
g42
sg87
g8
((lp3477
g1415
ag1324
atRp3478
sbag1590
ag3465
ag1444
atRp3479
sg100
I00
sbatRp3480
sg159
I00
sbsg23
g24
sg55
g8
((lp3481
g1601
ag1330
ag1424
ag1455
atRp3482
sg14
S'C'
sg137
I0
sg15
I00
sg138
(F-0.67061309278778936
F213.01407287223893
F0.4042855409635876
tp3483
sg140
(lp3484
sg13
g1
sg142
g8
((ltRp3485
sg151
g8
((lp3486
(imodel.Bond
Bond
p3487
(dp3488
g13
g1
sg155
g96
sg23
g24
sg16
g8
((lp3489
g1409
ag1330
atRp3490
sbag1578
ag1432
ag3453
atRp3491
sg159
I00
sbag1356
atRp3492
sg14
S'C'
sg137
I0
sg15
I00
sg138
(F39.920117494777116
F256.50054148330662
F0.42121753216180113
tp3493
sg140
(lp3494
sg13
g1
sg142
g8
((ltRp3495
sg151
g8
((lp3496
(imodel.Bond
Bond
p3497
(dp3498
g13
g1
sg155
g96
sg23
g24
sg16
g8
((lp3499
g1330
ag1315
atRp3500
sbag3487
ag1370
ag1404
atRp3501
sg159
I00
sbag1324
atRp3502
sg159
I00
sbsg41
g42
sg65
g8
((lp3503
g1350
ag1321
ag1339
ag1415
atRp3504
sg71
S'C'
sg72
I0
sg73
I00
sg74
(F39.920117494777116
F256.50054148330662
F0.42121753216180113
tp3505
sg76
(lp3506
sg78
g1
sg79
g8
((ltRp3507
sg91
g8
((lp3508
g1383
ag3475
a(imodel.Bond
Bond
p3509
(dp3510
g78
g1
sg95
g96
sg41
g42
sg87
g8
((lp3511
g1324
ag1321
atRp3512
sbag1391
atRp3513
sg100
I00
sbag1306
atRp3514
sg71
S'O'
sg72
I0
sg73
I00
sg74
(F76.554117466164712
F301.56267231309209
F0.3419459277204534
tp3515
sg76
(lp3516
sg78
g1
sg79
g8
((ltRp3517
sg91
g8
((lp3518
g3509
a(imodel.Bond
Bond
p3519
(dp3520
g78
g1
sg95
g96
sg41
g42
sg87
g8
((lp3521
g1306
ag1321
atRp3522
sbatRp3523
sg100
I00
sbatRp3524
sg159
I00
sbsg23
g24
sg55
g8
((lp3525
g1330
ag1312
atRp3526
sg14
S'O'
sg137
I0
sg15
I00
sg138
(F76.554117466164712
F301.56267231309209
F0.3419459277204534
tp3527
sg140
(lp3528
sg13
g1
sg142
g8
((ltRp3529
sg151
g8
((lp3530
g3497
a(imodel.Bond
Bond
p3531
(dp3532
g13
g1
sg155
g96
sg23
g24
sg16
g8
((lp3533
g1312
ag1315
atRp3534
sbatRp3535
sg159
I00
sbag1221
a(imodel.VarAtom
VarAtom
p3536
(dp3537
g3
VO1A
p3538
sg20
I00
sg21
Nsg22
(imodel.Atom
Atom
p3539
(dp3540
g3
g3538
sg13
g1
sg14
S'O'
sg15
I00
sg16
g8
((lp3541
g3536
a(imodel.VarAtom
VarAtom
p3542
(dp3543
g37
g3538
sg38
I00
sg39
Nsg40
g3539
sg41
g42
sg65
g8
((lp3544
g1306
atRp3545
sg71
S'O'
sg72
I0
sg73
I00
sg74
(F119.70078113122221
F373.68571350629622
F0.33533241106114875
tp3546
sg76
(lp3547
sg78
g1
sg79
g8
((ltRp3548
sg91
g8
((lp3549
(imodel.Bond
Bond
p3550
(dp3551
g78
g1
sg95
g3051
sg41
g42
sg87
g8
((lp3552
g1306
ag3542
atRp3553
sbatRp3554
sg100
I00
sbatRp3555
sg159
I00
sbsg23
g24
sg55
g8
((lp3556
g1312
atRp3557
sg14
S'O'
sg137
I0
sg15
I00
sg138
(F119.70078113122221
F373.68571350629622
F0.33533241106114875
tp3558
sg140
(lp3559
sg13
g1
sg142
g8
((ltRp3560
sg151
g8
((lp3561
(imodel.Bond
Bond
p3562
(dp3563
g13
g1
sg155
g3051
sg23
g24
sg16
g8
((lp3564
g1312
ag3536
atRp3565
sbatRp3566
sg159
I00
sbatRp3567
sg14
S'C'
sg137
I0
sg15
I00
sg138
(F116.14150675606322
F327.26849338136901
F0.38836732442275224
tp3568
sg140
(lp3569
sg13
g1
sg142
g8
((ltRp3570
sg151
g8
((lp3571
g3531
a(imodel.Bond
Bond
p3572
(dp3573
g13
g1
sg155
g96
sg23
g24
sg16
g8
((lp3574
g1221
ag1312
atRp3575
sbag3562
atRp3576
sg159
I00
sbag1306
atRp3577
sg159
I00
sbsg41
g42
sg65
g8
((lp3578
g3542
ag1321
ag1227
atRp3579
sg71
S'C'
sg72
I0
sg73
I00
sg74
(F116.14150675606322
F327.26849338136901
F0.38836732442275224
tp3580
sg76
(lp3581
sg78
g1
sg79
g8
((ltRp3582
sg91
g8
((lp3583
g3550
ag3519
a(imodel.Bond
Bond
p3584
(dp3585
g78
g1
sg95
g96
sg41
g42
sg87
g8
((lp3586
g1227
ag1306
atRp3587
sbatRp3588
sg100
I00
sbag1253
atRp3589
sg71
S'C'
sg72
I0
sg73
I00
sg74
(F158.25821295823556
F287.04789345622135
F0.48640975952814181
tp3590
sg76
(lp3591
sg78
g1
sg79
g8
((ltRp3592
sg91
g8
((lp3593
g1301
ag1267
ag3584
a(imodel.Bond
Bond
p3594
(dp3595
g78
g1
sg95
g96
sg41
g42
sg87
g8
((lp3596
g1212
ag1227
atRp3597
sbatRp3598
sg100
I00
sbatRp3599
sg159
I00
sbsg23
g24
sg55
g8
((lp3600
g1218
ag1247
ag1312
ag1236
atRp3601
sg14
S'C'
sg137
I0
sg15
I00
sg138
(F158.25821295823556
F287.04789345622135
F0.48640975952814181
tp3602
sg140
(lp3603
sg13
g1
sg142
g8
((ltRp3604
sg151
g8
((lp3605
g3572
a(imodel.Bond
Bond
p3606
(dp3607
g13
g1
sg155
g96
sg23
g24
sg16
g8
((lp3608
g1218
ag1221
atRp3609
sbag1280
ag1288
atRp3610
sg159
I00
sba(imodel.VarAtom
VarAtom
p3611
(dp3612
g3
VH3A_1
p3613
sg20
I00
sg21
Nsg22
(imodel.Atom
Atom
p3614
(dp3615
g3
g3613
sg13
g1
sg14
S'H'
sg15
I00
sg16
g8
((lp3616
g3611
a(imodel.VarAtom
VarAtom
p3617
(dp3618
g37
g3613
sg38
I00
sg39
Nsg40
g3614
sg41
g42
sg65
g8
((lp3619
g1212
atRp3620
sg71
S'H'
sg72
I0
sg73
I00
sg74
(F227.07716861952213
F365.865902310813
F0.86903203871347223
tp3621
sg76
(lp3622
sg78
g1
sg79
g8
((lp3623
(imodel.AtomGroup
AtomGroup
p3624
(dp3625
g83
g84
sg85
g8
((ltRp3626
sg87
g8
((lp3627
g3617
a(imodel.VarAtom
VarAtom
p3628
(dp3629
g37
VH3A_2
p3630
sg38
I00
sg39
Nsg40
(imodel.Atom
Atom
p3631
(dp3632
g3
g3630
sg13
g1
sg14
S'H'
sg15
I00
sg16
g8
((lp3633
(imodel.VarAtom
VarAtom
p3634
(dp3635
g3
g3630
sg20
I00
sg21
Nsg22
g3631
sg23
g24
sg55
g8
((lp3636
g1218
atRp3637
sg14
S'H'
sg137
I0
sg15
I00
sg138
(F175.89810203091625
F352.18578487027696
F0.062678563293040002
tp3638
sg140
(lp3639
sg13
g1
sg142
g8
((lp3640
(imodel.AtomGroup
AtomGroup
p3641
(dp3642
g83
g146
sg85
g8
((ltRp3643
sg87
g8
((lp3644
g3634
ag3611
atRp3645
sg41
g24
sg78
g1
sbatRp3646
sg151
g8
((lp3647
(imodel.Bond
Bond
p3648
(dp3649
g13
g1
sg155
g96
sg23
g24
sg16
g8
((lp3650
g1218
ag3634
atRp3651
sbatRp3652
sg159
I00
sbag3628
atRp3653
sg159
I00
sbsg41
g42
sg65
g8
((lp3654
g1212
atRp3655
sg71
S'H'
sg72
I0
sg73
I00
sg74
(F175.89810203091625
F352.18578487027696
F0.062678563293040002
tp3656
sg76
(lp3657
sg78
g1
sg79
g8
((lp3658
g3624
atRp3659
sg91
g8
((lp3660
(imodel.Bond
Bond
p3661
(dp3662
g78
g1
sg95
g96
sg41
g42
sg87
g8
((lp3663
g1212
ag3628
atRp3664
sbatRp3665
sg100
I00
sbatRp3666
sg41
g42
sg78
g1
sbatRp3667
sg91
g8
((lp3668
(imodel.Bond
Bond
p3669
(dp3670
g78
g1
sg95
g96
sg41
g42
sg87
g8
((lp3671
g1212
ag3617
atRp3672
sbatRp3673
sg100
I00
sbatRp3674
sg159
I00
sbsg23
g24
sg55
g8
((lp3675
g1218
atRp3676
sg14
S'H'
sg137
I0
sg15
I00
sg138
(F227.07716861952213
F365.865902310813
F0.86903203871347223
tp3677
sg140
(lp3678
sg13
g1
sg142
g8
((lp3679
g3641
atRp3680
sg151
g8
((lp3681
(imodel.Bond
Bond
p3682
(dp3683
g13
g1
sg155
g96
sg23
g24
sg16
g8
((lp3684
g1218
ag3611
atRp3685
sbatRp3686
sg159
I00
sbag1127
ag3634
atRp3687
sg14
S'C'
sg137
I0
sg15
I00
sg138
(F207.78658396562835
F320.102502305386
F0.7307153075162659
tp3688
sg140
(lp3689
sg13
g1
sg142
g8
((ltRp3690
sg151
g8
((lp3691
g3606
a(imodel.Bond
Bond
p3692
(dp3693
g13
g1
sg155
g96
sg23
g24
sg16
g8
((lp3694
g1127
ag1218
atRp3695
sbag3682
ag3648
atRp3696
sg159
I00
sbag1212
atRp3697
sg159
I00
sbsg41
g42
sg65
g8
((lp3698
g1133
ag1227
ag3628
ag3617
atRp3699
sg71
S'C'
sg72
I0
sg73
I00
sg74
(F207.78658396562835
F320.102502305386
F0.7307153075162659
tp3700
sg76
(lp3701
sg78
g1
sg79
g8
((ltRp3702
sg91
g8
((lp3703
g3669
ag3661
ag3594
a(imodel.Bond
Bond
p3704
(dp3705
g78
g1
sg95
g96
sg41
g42
sg87
g8
((lp3706
g1133
ag1212
atRp3707
sbatRp3708
sg100
I00
sbag1118
atRp3709
sg71
S'C'
sg72
I0
sg73
I00
sg74
(F255.57028930502275
F281.76084711853105
F0.29488077748632291
tp3710
sg76
(lp3711
sg78
g1
sg79
g8
((ltRp3712
sg91
g8
((lp3713
g1207
a(imodel.Bond
Bond
p3714
(dp3715
g78
g1
sg95
g96
sg41
g42
sg87
g8
((lp3716
g1118
ag1133
atRp3717
sbag1173
ag3704
atRp3718
sg100
I00
sbatRp3719
sg159
I00
sbsg23
g24
sg55
g8
((lp3720
g1218
ag1142
ag1153
ag1124
atRp3721
sg14
S'C'
sg137
I0
sg15
I00
sg138
(F255.57028930502275
F281.76084711853105
F0.29488077748632291
tp3722
sg140
(lp3723
sg13
g1
sg142
g8
((ltRp3724
sg151
g8
((lp3725
g3692
a(imodel.Bond
Bond
p3726
(dp3727
g13
g1
sg155
g96
sg23
g24
sg16
g8
((lp3728
g1124
ag1127
atRp3729
sbag1194
ag1186
atRp3730
sg159
I00
sba(imodel.VarAtom
VarAtom
p3731
(dp3732
g3
VH5A_1
p3733
sg20
I00
sg21
Nsg22
(imodel.Atom
Atom
p3734
(dp3735
g3
g3733
sg13
g1
sg14
S'H'
sg15
I00
sg16
g8
((lp3736
g3731
a(imodel.VarAtom
VarAtom
p3737
(dp3738
g37
g3733
sg38
I00
sg39
Nsg40
g3734
sg41
g42
sg65
g8
((lp3739
g1118
atRp3740
sg71
S'H'
sg72
I0
sg73
I00
sg74
(F278.09823535642226
F347.83891064485186
F0.18586117619577436
tp3741
sg76
(lp3742
sg78
g1
sg79
g8
((lp3743
(imodel.AtomGroup
AtomGroup
p3744
(dp3745
g83
g84
sg85
g8
((ltRp3746
sg87
g8
((lp3747
g3737
a(imodel.VarAtom
VarAtom
p3748
(dp3749
g37
VH5A_2
p3750
sg38
I00
sg39
Nsg40
(imodel.Atom
Atom
p3751
(dp3752
g3
g3750
sg13
g1
sg14
S'H'
sg15
I00
sg16
g8
((lp3753
(imodel.VarAtom
VarAtom
p3754
(dp3755
g3
g3750
sg20
I00
sg21
Nsg22
g3751
sg23
g24
sg55
g8
((lp3756
g1124
atRp3757
sg14
S'H'
sg137
I0
sg15
I00
sg138
(F327.42600287949404
F355.7678745082269
F0.8687408579068282
tp3758
sg140
(lp3759
sg13
g1
sg142
g8
((lp3760
(imodel.AtomGroup
AtomGroup
p3761
(dp3762
g83
g146
sg85
g8
((ltRp3763
sg87
g8
((lp3764
g3731
ag3754
atRp3765
sg41
g24
sg78
g1
sbatRp3766
sg151
g8
((lp3767
(imodel.Bond
Bond
p3768
(dp3769
g13
g1
sg155
g96
sg23
g24
sg16
g8
((lp3770
g1124
ag3754
atRp3771
sbatRp3772
sg159
I00
sbag3748
atRp3773
sg159
I00
sbsg41
g42
sg65
g8
((lp3774
g1118
atRp3775
sg71
S'H'
sg72
I0
sg73
I00
sg74
(F327.42600287949404
F355.7678745082269
F0.8687408579068282
tp3776
sg76
(lp3777
sg78
g1
sg79
g8
((lp3778
g3744
atRp3779
sg91
g8
((lp3780
(imodel.Bond
Bond
p3781
(dp3782
g78
g1
sg95
g96
sg41
g42
sg87
g8
((lp3783
g1118
ag3748
atRp3784
sbatRp3785
sg100
I00
sbatRp3786
sg41
g42
sg78
g1
sbatRp3787
sg91
g8
((lp3788
(imodel.Bond
Bond
p3789
(dp3790
g78
g1
sg95
g96
sg41
g42
sg87
g8
((lp3791
g1118
ag3737
atRp3792
sbatRp3793
sg100
I00
sbatRp3794
sg159
I00
sbsg23
g24
sg55
g8
((lp3795
g1124
atRp3796
sg14
S'H'
sg137
I0
sg15
I00
sg138
(F278.09823535642226
F347.83891064485186
F0.18586117619577436
tp3797
sg140
(lp3798
sg13
g1
sg142
g8
((lp3799
g3761
atRp3800
sg151
g8
((lp3801
(imodel.Bond
Bond
p3802
(dp3803
g13
g1
sg155
g96
sg23
g24
sg16
g8
((lp3804
g1124
ag3731
atRp3805
sbatRp3806
sg159
I00
sbag1014
ag3754
atRp3807
sg14
S'C'
sg137
I0
sg15
I00
sg138
(F306.38382569879906
F316.48406010070846
F0.065715599870049712
tp3808
sg140
(lp3809
sg13
g1
sg142
g8
((ltRp3810
sg151
g8
((lp3811
g3726
a(imodel.Bond
Bond
p3812
(dp3813
g13
g1
sg155
g96
sg23
g24
sg16
g8
((lp3814
g1014
ag1124
atRp3815
sbag3802
ag3768
atRp3816
sg159
I00
sbag1118
atRp3817
sg159
I00
sbsg41
g42
sg65
g8
((lp3818
g3737
ag1133
ag3748
ag1020
atRp3819
sg71
S'C'
sg72
I0
sg73
I00
sg74
(F306.38382569879906
F316.48406010070846
F0.065715599870049712
tp3820
sg76
(lp3821
sg78
g1
sg79
g8
((ltRp3822
sg91
g8
((lp3823
g3714
ag3789
a(imodel.Bond
Bond
p3824
(dp3825
g78
g1
sg95
g96
sg41
g42
sg87
g8
((lp3826
g1020
ag1118
atRp3827
sbag3781
atRp3828
sg100
I00
sbatRp3829
sg71
S'C'
sg72
I0
sg73
I00
sg74
(F355.81022701372456
F279.12579623797836
F0.69248744114945859
tp3830
sg76
(lp3831
sg78
g1
sg79
g8
((ltRp3832
sg91
g8
((lp3833
g1113
ag1075
ag3824
a(imodel.Bond
Bond
p3834
(dp3835
g78
g1
sg95
g1100
sg41
g42
sg87
g8
((lp3836
g1005
ag1020
atRp3837
sbatRp3838
sg100
I00
sbatRp3839
sg159
I00
sbsg23
g24
sg55
g8
((lp3840
g1124
ag1011
ag1034
ag1054
atRp3841
sg14
S'C'
sg137
I0
sg15
I00
sg138
(F355.81022701372456
F279.12579623797836
F0.69248744114945859
tp3842
sg140
(lp3843
sg13
g1
sg142
g8
((ltRp3844
sg151
g8
((lp3845
g3812
a(imodel.Bond
Bond
p3846
(dp3847
g13
g1
sg155
g1100
sg23
g24
sg16
g8
((lp3848
g1011
ag1014
atRp3849
sbag1088
ag1097
atRp3850
sg159
I00
sbag920
a(imodel.VarAtom
VarAtom
p3851
(dp3852
g1028
VH7A_2
p3853
sg1036
I00
sg1037
Nsg1038
(imodel.Atom
Atom
p3854
(dp3855
g1028
g3853
sg1029
g1
sg1030
S'H'
sg1031
I00
sg1032
g8
((lp3856
g3851
a(imodel.VarAtom
VarAtom
p3857
(dp3858
g37
g3853
sg38
I00
sg39
Nsg40
g3854
sg41
g42
sg65
g8
((lp3859
g1005
atRp3860
sg71
S'H'
sg72
I0
sg73
I00
sg74
(F430.21831063137415
F359.96610465349784
F0.29868638721257601
tp3861
sg76
(lp3862
sg78
g1
sg79
g8
((lp3863
(imodel.AtomGroup
AtomGroup
p3864
(dp3865
g83
g1069
sg85
g8
((ltRp3866
sg87
g8
((lp3867
(imodel.VarAtom
VarAtom
p3868
(dp3869
g37
VH7A_1
p3870
sg38
I00
sg39
Nsg40
(imodel.Atom
Atom
p3871
(dp3872
g3
g3870
sg13
g1
sg14
S'H'
sg15
I00
sg16
g8
((lp3873
(imodel.VarAtom
VarAtom
p3874
(dp3875
g3
g3870
sg20
I00
sg21
Nsg22
g3871
sg23
g24
sg55
g8
((lp3876
g1011
atRp3877
sg14
S'H'
sg137
I0
sg15
I00
sg138
(F378.08836452204457
F346.44270322979173
F0.77931469650153296
tp3878
sg140
(lp3879
sg13
g1
sg142
g8
((lp3880
(imodel.AtomGroup
AtomGroup
p3881
(dp3882
g83
g146
sg85
g8
((ltRp3883
sg87
g8
((lp3884
g3874
ag3851
atRp3885
sg41
g24
sg78
g1
sbatRp3886
sg151
g8
((lp3887
(imodel.Bond
Bond
p3888
(dp3889
g13
g1
sg155
g96
sg23
g24
sg16
g8
((lp3890
g1011
ag3874
atRp3891
sbatRp3892
sg159
I00
sbag3868
atRp3893
sg159
I00
sbsg41
g42
sg65
g8
((lp3894
g1005
atRp3895
sg71
S'H'
sg72
I0
sg73
I00
sg74
(F378.08836452204457
F346.44270322979173
F0.77931469650153296
tp3896
sg76
(lp3897
sg78
g1
sg79
g8
((lp3898
g3864
atRp3899
sg91
g8
((lp3900
(imodel.Bond
Bond
p3901
(dp3902
g78
g1
sg95
g96
sg41
g42
sg87
g8
((lp3903
g1005
ag3868
atRp3904
sbatRp3905
sg100
I00
sbag3857
atRp3906
sg41
g42
sg78
g1
sbatRp3907
sg91
g8
((lp3908
(imodel.Bond
Bond
p3909
(dp3910
g78
g1
sg95
g1100
sg41
g42
sg87
g8
((lp3911
g1005
ag3857
atRp3912
sbatRp3913
sg100
I00
sbatRp3914
sg1104
I00
sbsg1039
g24
sg1040
g8
((lp3915
g1011
atRp3916
sg1030
S'H'
sg1043
I0
sg1031
I00
sg1044
(F430.21831063137415
F359.96610465349784
F0.29868638721257601
tp3917
sg1046
(lp3918
sg1029
g1
sg1048
g8
((lp3919
g3881
atRp3920
sg1095
g8
((lp3921
(imodel.Bond
Bond
p3922
(dp3923
g1029
g1
sg1099
g1100
sg1039
g24
sg1032
g8
((lp3924
g1011
ag3851
atRp3925
sbatRp3926
sg1104
I00
sbag3874
atRp3927
sg14
S'C'
sg137
I0
sg15
I00
sg138
(F404.69836703152185
F315.43242021811972
F0.90233145745756171
tp3928
sg140
(lp3929
sg13
g1
sg142
g8
((ltRp3930
sg151
g8
((lp3931
g3846
a(imodel.Bond
Bond
p3932
(dp3933
g13
g1
sg155
g96
sg23
g24
sg16
g8
((lp3934
g920
ag1011
atRp3935
sbag3888
ag3922
atRp3936
sg159
I00
sbag1005
atRp3937
sg159
I00
sbsg41
g42
sg65
g8
((lp3938
g3868
ag926
ag1020
ag3857
atRp3939
sg71
S'C'
sg72
I0
sg73
I00
sg74
(F404.69836703152185
F315.43242021811972
F0.90233145745756171
tp3940
sg76
(lp3941
sg78
g1
sg79
g8
((ltRp3942
sg91
g8
((lp3943
(imodel.Bond
Bond
p3944
(dp3945
g78
g1
sg95
g96
sg41
g42
sg87
g8
((lp3946
g926
ag1005
atRp3947
sbag3901
ag3909
ag3834
atRp3948
sg100
I00
sbatRp3949
sg71
S'C'
sg72
I0
sg73
I00
sg74
(F455.43129802273813
F281.63211446194117
F0.78547833669763811
tp3950
sg76
(lp3951
sg78
g1
sg79
g8
((ltRp3952
sg91
g8
((lp3953
g966
ag3944
a(imodel.Bond
Bond
p3954
(dp3955
g78
g1
sg95
g96
sg41
g42
sg87
g8
((lp3956
g911
ag926
atRp3957
sbag1000
atRp3958
sg100
I00
sbatRp3959
sg159
I00
sbsg23
g24
sg55
g8
((lp3960
g935
ag946
ag1011
ag917
atRp3961
sg14
S'C'
sg137
I0
sg15
I00
sg138
(F455.43129802273813
F281.63211446194117
F0.78547833669763811
tp3962
sg140
(lp3963
sg13
g1
sg142
g8
((ltRp3964
sg151
g8
((lp3965
g3932
a(imodel.Bond
Bond
p3966
(dp3967
g13
g1
sg155
g96
sg23
g24
sg16
g8
((lp3968
g917
ag920
atRp3969
sbag979
ag987
atRp3970
sg159
I00
sbag871
a(imodel.VarAtom
VarAtom
p3971
(dp3972
g3
VH9A
p3973
sg20
I00
sg21
Nsg22
(imodel.Atom
Atom
p3974
(dp3975
g3
g3973
sg13
g1
sg14
S'H'
sg15
I00
sg16
g8
((lp3976
g3971
a(imodel.VarAtom
VarAtom
p3977
(dp3978
g37
g3973
sg38
I00
sg39
Nsg40
g3974
sg41
g42
sg65
g8
((lp3979
g911
atRp3980
sg71
S'H'
sg72
I0
sg73
I00
sg74
(F487.2859985729375
F349.28732793349297
F0.11855416298586208
tp3981
sg76
(lp3982
sg78
g1
sg79
g8
((ltRp3983
sg91
g8
((lp3984
(imodel.Bond
Bond
p3985
(dp3986
g78
g1
sg95
g96
sg41
g42
sg87
g8
((lp3987
g911
ag3977
atRp3988
sbatRp3989
sg100
I00
sbatRp3990
sg159
I00
sbsg23
g24
sg55
g8
((lp3991
g917
atRp3992
sg14
S'H'
sg137
I0
sg15
I00
sg138
(F487.2859985729375
F349.28732793349297
F0.11855416298586208
tp3993
sg140
(lp3994
sg13
g1
sg142
g8
((ltRp3995
sg151
g8
((lp3996
(imodel.Bond
Bond
p3997
(dp3998
g13
g1
sg155
g96
sg23
g24
sg16
g8
((lp3999
g917
ag3971
atRp4000
sbatRp4001
sg159
I00
sbatRp4002
sg14
S'C'
sg137
I0
sg15
I00
sg138
(F496.80601424416136
F315.53905954278537
F0.25631334071475154
tp4003
sg140
(lp4004
sg13
g1
sg142
g8
((ltRp4005
sg151
g8
((lp4006
g3966
a(imodel.Bond
Bond
p4007
(dp4008
g13
g1
sg155
g3051
sg23
g24
sg16
g8
((lp4009
g917
ag871
atRp4010
sbag3997
atRp4011
sg159
I00
sbag911
atRp4012
sg159
I00
sbsg41
g42
sg65
g8
((lp4013
g3977
ag926
ag877
atRp4014
sg71
S'C'
sg72
I0
sg73
I00
sg74
(F496.80601424416136
F315.53905954278537
F0.25631334071475154
tp4015
sg76
(lp4016
sg78
g1
sg79
g8
((ltRp4017
sg91
g8
((lp4018
g3985
ag3954
a(imodel.Bond
Bond
p4019
(dp4020
g78
g1
sg95
g3051
sg41
g42
sg87
g8
((lp4021
g911
ag877
atRp4022
sbatRp4023
sg100
I00
sbatRp4024
sg71
S'C'
sg72
I0
sg73
I00
sg74
(F543.65714534655183
F312.9986868787521
F0.53487124882112935
tp4025
sg76
(lp4026
sg78
g1
sg79
g8
((ltRp4027
sg91
g8
((lp4028
g906
ag4019
a(imodel.Bond
Bond
p4029
(dp4030
g78
g1
sg95
g96
sg41
g42
sg87
g8
((lp4031
g786
ag877
atRp4032
sbatRp4033
sg100
I00
sbatRp4034
sg159
I00
sbsg23
g24
sg55
g8
((lp4035
g917
ag886
ag792
atRp4036
sg14
S'C'
sg137
I0
sg15
I00
sg138
(F543.65714534655183
F312.9986868787521
F0.53487124882112935
tp4037
sg140
(lp4038
sg13
g1
sg142
g8
((ltRp4039
sg151
g8
((lp4040
g4007
a(imodel.Bond
Bond
p4041
(dp4042
g13
g1
sg155
g96
sg23
g24
sg16
g8
((lp4043
g792
ag871
atRp4044
sbag894
atRp4045
sg159
I00
sbag57
ag818
atRp4046
sg14
S'C'
sg137
I0
sg15
I00
sg138
(F579.99972854320299
F273.20006636886603
F0.8335675529842983
tp4047
sg140
(lp4048
sg13
g1
sg142
g8
((ltRp4049
sg151
g8
((lp4050
g4041
a(imodel.Bond
Bond
p4051
(dp4052
g13
g1
sg155
g96
sg23
g24
sg16
g8
((lp4053
g57
ag792
atRp4054
sbag832
ag866
atRp4055
sg159
I00
sbag786
atRp4056
sg159
I00
sbsg41
g42
sg65
g8
((lp4057
g877
ag63
ag812
ag801
atRp4058
sg71
S'C'
sg72
I0
sg73
I00
sg74
(F579.99972854320299
F273.20006636886603
F0.8335675529842983
tp4059
sg76
(lp4060
sg78
g1
sg79
g8
((ltRp4061
sg91
g8
((lp4062
g853
ag845
a(imodel.Bond
Bond
p4063
(dp4064
g78
g1
sg95
g96
sg41
g42
sg87
g8
((lp4065
g63
ag786
atRp4066
sbag4029
atRp4067
sg100
I00
sbag47
atRp4068
sg71
S'C'
sg72
I0
sg73
I00
sg74
(F635.27486892881188
F299.62681760006865
F0.83373831262170706
tp4069
sg76
(lp4070
sg78
g1
sg79
g8
((ltRp4071
sg91
g8
((lp4072
g93
ag781
ag4063
a(imodel.Bond
Bond
p4073
(dp4074
g78
g1
sg95
g96
sg41
g42
sg87
g8
((lp4075
g63
ag47
atRp4076
sbatRp4077
sg100
I00
sbatRp4078
sg159
I00
sbsg23
g24
sg55
g8
((lp4079
g53
ag792
ag107
ag18
atRp4080
sg14
S'C'
sg137
I0
sg15
I00
sg138
(F635.27486892881188
F299.62681760006865
F0.83373831262170706
tp4081
sg140
(lp4082
sg13
g1
sg142
g8
((ltRp4083
sg151
g8
((lp4084
g4051
ag769
a(imodel.Bond
Bond
p4085
(dp4086
g13
g1
sg155
g96
sg23
g24
sg16
g8
((lp4087
g57
ag53
atRp4088
sba(imodel.Bond
Bond
p4089
(dp4090
g13
g1
sg155
g96
sg23
g24
sg16
g8
((lp4091
g57
ag18
atRp4092
sbatRp4093
sg159
I00
sbatRp4094
sg14
S'H'
sg137
I0
sg15
I00
sg138
(F609.11232967667274
F336.09752599837486
F0.88667834215856034
tp4095
sg140
(lp4096
sg13
g1
sg142
g8
((lp4097
(imodel.AtomGroup
AtomGroup
p4098
(dp4099
g83
g146
sg85
g8
((ltRp4100
sg87
g8
((lp4101
g18
ag53
atRp4102
sg41
g24
sg78
g1
sbatRp4103
sg151
g8
((lp4104
g4085
atRp4105
sg159
I00
sbag47
atRp4106
sg159
I00
sbsg41
g42
sg65
g8
((lp4107
g63
atRp4108
sg71
S'H'
sg72
I0
sg73
I00
sg74
(F609.11232967667274
F336.09752599837486
F0.88667834215856034
tp4109
sg76
(lp4110
sg78
g1
sg79
g8
((lp4111
g81
atRp4112
sg91
g8
((lp4113
g4073
atRp4114
sg100
I00
sbag399
ag203
ag491
ag2266
ag2886
ag801
ag2186
ag2163
ag1023
ag812
a(imodel.VarAtom
VarAtom
p4115
(dp4116
g37
VH4_1
p4117
sg38
I00
sg39
Nsg40
(imodel.Atom
Atom
p4118
(dp4119
g3
g4117
sg13
g1
sg14
S'H'
sg15
I00
sg16
g8
((lp4120
(imodel.VarAtom
VarAtom
p4121
(dp4122
g3
g4117
sg20
I00
sg21
Nsg22
g4118
sg23
g24
sg55
g8
((lp4123
(imodel.VarAtom
VarAtom
p4124
(dp4125
g3
VC4
p4126
sg20
I00
sg21
Nsg22
(imodel.Atom
Atom
p4127
(dp4128
g3
g4126
sg13
g1
sg14
S'C'
sg15
I00
sg16
g8
((lp4129
g4124
a(imodel.VarAtom
VarAtom
p4130
(dp4131
g37
g4126
sg38
I00
sg39
Nsg40
g4127
sg41
g42
sg65
g8
((lp4132
g4115
a(imodel.VarAtom
VarAtom
p4133
(dp4134
g37
VH4_2
p4135
sg38
I00
sg39
Nsg40
(imodel.Atom
Atom
p4136
(dp4137
g3
g4135
sg13
g1
sg14
S'H'
sg15
I00
sg16
g8
((lp4138
(imodel.VarAtom
VarAtom
p4139
(dp4140
g3
g4135
sg20
I00
sg21
Nsg22
g4136
sg23
g24
sg55
g8
((lp4141
g4124
atRp4142
sg14
S'H'
sg137
I0
sg15
I00
sg138
(F-282.6196105276378
F254.88855164924763
F0.74980193953450924
tp4143
sg140
(lp4144
sg13
g1
sg142
g8
((lp4145
(imodel.AtomGroup
AtomGroup
p4146
(dp4147
g83
g146
sg85
g8
((ltRp4148
sg87
g8
((lp4149
g4121
ag4139
atRp4150
sg41
g24
sg78
g1
sbatRp4151
sg151
g8
((lp4152
(imodel.Bond
Bond
p4153
(dp4154
g13
g1
sg155
g96
sg23
g24
sg16
g8
((lp4155
g4124
ag4139
atRp4156
sbatRp4157
sg159
I00
sbag4133
atRp4158
sg159
I00
sbsg41
g42
sg65
g8
((lp4159
g4130
atRp4160
sg71
S'H'
sg72
I0
sg73
I00
sg74
(F-282.6196105276378
F254.88855164924763
F0.74980193953450924
tp4161
sg76
(lp4162
sg78
g1
sg79
g8
((lp4163
(imodel.AtomGroup
AtomGroup
p4164
(dp4165
g83
g84
sg85
g8
((ltRp4166
sg87
g8
((lp4167
g4115
ag4133
atRp4168
sg41
g42
sg78
g1
sbatRp4169
sg91
g8
((lp4170
(imodel.Bond
Bond
p4171
(dp4172
g78
g1
sg95
g96
sg41
g42
sg87
g8
((lp4173
g4130
ag4133
atRp4174
sbatRp4175
sg100
I00
sba(imodel.VarAtom
VarAtom
p4176
(dp4177
g37
VOP2
p4178
sg38
I00
sg39
Nsg40
(imodel.Atom
Atom
p4179
(dp4180
g3
g4178
sg13
g1
sg14
S'O'
sg15
I00
sg16
g8
((lp4181
(imodel.VarAtom
VarAtom
p4182
(dp4183
g3
g4178
sg20
I00
sg21
Nsg22
g4179
sg23
g24
sg55
g8
((lp4184
g29
ag4124
atRp4185
sg14
S'O'
sg137
I0
sg15
I00
sg138
(F-214.26434398747728
F277.54423031987307
F0.10421598323593628
tp4186
sg140
(lp4187
sg13
g1
sg142
g8
((ltRp4188
sg151
g8
((lp4189
(imodel.Bond
Bond
p4190
(dp4191
g13
g1
sg155
g96
sg23
g24
sg16
g8
((lp4192
g29
ag4182
atRp4193
sba(imodel.Bond
Bond
p4194
(dp4195
g13
g1
sg155
g96
sg23
g24
sg16
g8
((lp4196
g4182
ag4124
atRp4197
sbatRp4198
sg159
I00
sbag4176
atRp4199
sg159
I00
sbsg41
g42
sg65
g8
((lp4200
g4130
ag35
atRp4201
sg71
S'O'
sg72
I0
sg73
I00
sg74
(F-214.26434398747728
F277.54423031987307
F0.10421598323593628
tp4202
sg76
(lp4203
sg78
g1
sg79
g8
((ltRp4204
sg91
g8
((lp4205
(imodel.Bond
Bond
p4206
(dp4207
g78
g1
sg95
g96
sg41
g42
sg87
g8
((lp4208
g4176
ag4130
atRp4209
sba(imodel.Bond
Bond
p4210
(dp4211
g78
g1
sg95
g96
sg41
g42
sg87
g8
((lp4212
g35
ag4176
atRp4213
sbatRp4214
sg100
I00
sba(imodel.VarAtom
VarAtom
p4215
(dp4216
g37
VC5
p4217
sg38
I00
sg39
Nsg40
(imodel.Atom
Atom
p4218
(dp4219
g3
g4217
sg13
g1
sg14
S'C'
sg15
I00
sg16
g8
((lp4220
(imodel.VarAtom
VarAtom
p4221
(dp4222
g3
g4217
sg20
I00
sg21
Nsg22
g4218
sg23
g24
sg55
g8
((lp4223
g4124
a(imodel.VarAtom
VarAtom
p4224
(dp4225
g3
S'N1'
p4226
sg20
I00
sg21
Nsg22
(imodel.Atom
Atom
p4227
(dp4228
g3
g4226
sg13
g1
sg14
S'N'
sg15
I00
sg16
g8
((lp4229
g4224
a(imodel.VarAtom
VarAtom
p4230
(dp4231
g37
g4226
sg38
I00
sg39
Nsg40
g4227
sg41
g42
sg65
g8
((lp4232
(imodel.VarAtom
VarAtom
p4233
(dp4234
g37
VHN_1
p4235
sg38
I00
sg39
Nsg40
(imodel.Atom
Atom
p4236
(dp4237
g37
g4235
sg78
g1
sg71
S'H'
sg73
I00
sg87
g8
((lp4238
(imodel.VarAtom
VarAtom
p4239
(dp4240
g37
g4235
sg38
I01
sg39
Nsg40
g4236
sg41
g24
sg65
g8
((lp4241
g4224
atRp4242
sg71
S'H'
sg72
I0
sg73
I00
sg74
(F-333.19609649537921
F88.168315779913556
F1.2908475521744469
tp4243
sg76
(lp4244
sg78
g1
sg79
g8
((lp4245
(imodel.AtomGroup
AtomGroup
p4246
(dp4247
S'groupType'
p4248
S'equivalent'
p4249
sS'subGroups'
p4250
g8
((ltRp4251
sS'varAtoms'
p4252
g8
((lp4253
(imodel.VarAtom
VarAtom
p4254
(dp4255
g37
VHN_2
p4256
sg38
I01
sg39
Nsg40
(imodel.Atom
Atom
p4257
(dp4258
g37
g4256
sg78
g1
sg71
S'H'
sg73
I00
sg87
g8
((lp4259
g4254
a(imodel.VarAtom
VarAtom
p4260
(dp4261
g37
g4256
sg38
I00
sg39
Nsg40
g4257
sg41
g42
sg65
g8
((lp4262
g4230
atRp4263
sg71
S'H'
sg72
I0
sg73
I00
sg74
(F-268.08576243306487
F105.3220717177377
F1.1489096620430836
tp4264
sg76
(lp4265
sg78
g1
sg79
g8
((ltRp4266
sg91
g8
((lp4267
(imodel.Bond
Bond
p4268
(dp4269
g78
g1
sg95
S'single'
p4270
sg41
g42
sg87
g8
((lp4271
g4230
ag4260
atRp4272
sbatRp4273
sg100
I00
sbatRp4274
sg100
I00
sbsg41
g24
sg65
g8
((lp4275
g4224
atRp4276
sg71
S'H'
sg72
I0
sg73
I00
sg74
(F-268.08576243306487
F105.3220717177377
F1.1489096620430836
tp4277
sg76
(lp4278
sg78
g1
sg79
g8
((lp4279
g4246
atRp4280
sg91
g8
((lp4281
(imodel.Bond
Bond
p4282
(dp4283
g78
g1
sg95
g4270
sg41
g24
sg87
g8
((lp4284
g4224
ag4254
atRp4285
sbatRp4286
sg100
I00
sba(imodel.VarAtom
VarAtom
p4287
(dp4288
g37
VHN_3
p4289
sg38
I01
sg39
Nsg40
(imodel.Atom
Atom
p4290
(dp4291
g37
g4289
sg78
g1
sg71
S'H'
sg73
I01
sg87
g8
((lp4292
g4287
atRp4293
sg100
I00
sbsg41
g24
sg65
g8
((lp4294
g4224
atRp4295
sg71
S'H'
sg72
I0
sg73
I01
sg74
(F-348.70568992671537
F153.7280467116442
F1.1560442094255183
tp4296
sg76
(lp4297
sg78
g1
sg79
g8
((lp4298
g4246
atRp4299
sg91
g8
((lp4300
(imodel.Bond
Bond
p4301
(dp4302
g78
g1
sg95
g4270
sg41
g24
sg87
g8
((lp4303
g4224
ag4287
atRp4304
sbatRp4305
sg100
I00
sbag4239
atRp4306
sS'variant'
p4307
g24
sS'compound'
p4308
g1
sbatRp4309
sg91
g8
((lp4310
(imodel.Bond
Bond
p4311
(dp4312
g78
g1
sg95
g4270
sg41
g24
sg87
g8
((lp4313
g4224
ag4239
atRp4314
sbatRp4315
sg100
I00
sbag4233
atRp4316
sg100
I00
sbsg41
g42
sg65
g8
((lp4317
g4230
atRp4318
sg71
S'H'
sg72
I0
sg73
I00
sg74
(F-333.19609649537921
F88.168315779913556
F1.2908475521744469
tp4319
sg76
(lp4320
sg78
g1
sg79
g8
((ltRp4321
sg91
g8
((lp4322
(imodel.Bond
Bond
p4323
(dp4324
g78
g1
sg95
g4270
sg41
g42
sg87
g8
((lp4325
g4230
ag4233
atRp4326
sbatRp4327
sg100
I00
sbag4260
ag4215
atRp4328
sg71
S'N'
sg72
I0
sg73
I00
sg74
(F-309.33497289021494
F128.28025375749996
F0.42227524545815731
tp4329
sg76
(lp4330
sg78
g1
sg79
g8
((ltRp4331
sg91
g8
((lp4332
g4323
a(imodel.Bond
Bond
p4333
(dp4334
g78
g1
sg95
g96
sg41
g42
sg87
g8
((lp4335
g4215
ag4230
atRp4336
sbag4268
atRp4337
sg100
I00
sbatRp4338
sg159
I00
sbsg23
g24
sg55
g8
((lp4339
g4239
ag4221
ag4287
ag4254
atRp4340
sg14
S'N'
sg137
I1
sg15
I00
sg138
(F-309.33497289021494
F128.28025375749996
F0.42227524545815731
tp4341
sg140
(lp4342
sg13
g1
sg142
g8
((ltRp4343
sg151
g8
((lp4344
(imodel.Bond
Bond
p4345
(dp4346
g13
g1
sg155
g96
sg23
g24
sg16
g8
((lp4347
g4221
ag4224
atRp4348
sbag4282
ag4311
ag4301
atRp4349
sg159
I00
sba(imodel.VarAtom
VarAtom
p4350
(dp4351
g3
VH5_2
p4352
sg20
I00
sg21
Nsg22
(imodel.Atom
Atom
p4353
(dp4354
g3
g4352
sg13
g1
sg14
S'H'
sg15
I00
sg16
g8
((lp4355
g4350
a(imodel.VarAtom
VarAtom
p4356
(dp4357
g37
g4352
sg38
I00
sg39
Nsg40
g4353
sg41
g42
sg65
g8
((lp4358
g4215
atRp4359
sg71
S'H'
sg72
I0
sg73
I00
sg74
(F-241.46739803382201
F156.72782529921352
F0.28208989187464983
tp4360
sg76
(lp4361
sg78
g1
sg79
g8
((lp4362
(imodel.AtomGroup
AtomGroup
p4363
(dp4364
g83
g84
sg85
g8
((ltRp4365
sg87
g8
((lp4366
(imodel.VarAtom
VarAtom
p4367
(dp4368
g37
VH5_1
p4369
sg38
I00
sg39
Nsg40
(imodel.Atom
Atom
p4370
(dp4371
g3
g4369
sg13
g1
sg14
S'H'
sg15
I00
sg16
g8
((lp4372
(imodel.VarAtom
VarAtom
p4373
(dp4374
g3
g4369
sg20
I00
sg21
Nsg22
g4370
sg23
g24
sg55
g8
((lp4375
g4221
atRp4376
sg14
S'H'
sg137
I0
sg15
I00
sg138
(F-314.51642923666458
F202.29062888217658
F0.49356519573394686
tp4377
sg140
(lp4378
sg13
g1
sg142
g8
((lp4379
(imodel.AtomGroup
AtomGroup
p4380
(dp4381
g83
g146
sg85
g8
((ltRp4382
sg87
g8
((lp4383
g4373
ag4350
atRp4384
sg41
g24
sg78
g1
sbatRp4385
sg151
g8
((lp4386
(imodel.Bond
Bond
p4387
(dp4388
g13
g1
sg155
g96
sg23
g24
sg16
g8
((lp4389
g4221
ag4373
atRp4390
sbatRp4391
sg159
I00
sbag4367
atRp4392
sg159
I00
sbsg41
g42
sg65
g8
((lp4393
g4215
atRp4394
sg71
S'H'
sg72
I0
sg73
I00
sg74
(F-314.51642923666458
F202.29062888217658
F0.49356519573394686
tp4395
sg76
(lp4396
sg78
g1
sg79
g8
((lp4397
g4363
atRp4398
sg91
g8
((lp4399
(imodel.Bond
Bond
p4400
(dp4401
g78
g1
sg95
g96
sg41
g42
sg87
g8
((lp4402
g4215
ag4367
atRp4403
sbatRp4404
sg100
I00
sbag4356
atRp4405
sg41
g42
sg78
g1
sbatRp4406
sg91
g8
((lp4407
(imodel.Bond
Bond
p4408
(dp4409
g78
g1
sg95
g96
sg41
g42
sg87
g8
((lp4410
g4215
ag4356
atRp4411
sbatRp4412
sg100
I00
sbatRp4413
sg159
I00
sbsg23
g24
sg55
g8
((lp4414
g4221
atRp4415
sg14
S'H'
sg137
I0
sg15
I00
sg138
(F-241.46739803382201
F156.72782529921352
F0.28208989187464983
tp4416
sg140
(lp4417
sg13
g1
sg142
g8
((lp4418
g4380
atRp4419
sg151
g8
((lp4420
(imodel.Bond
Bond
p4421
(dp4422
g13
g1
sg155
g96
sg23
g24
sg16
g8
((lp4423
g4221
ag4350
atRp4424
sbatRp4425
sg159
I00
sbag4373
atRp4426
sg14
S'C'
sg137
I0
sg15
I00
sg138
(F-279.55150643698408
F178.39828850469596
F0.27588453158687631
tp4427
sg140
(lp4428
sg13
g1
sg142
g8
((ltRp4429
sg151
g8
((lp4430
(imodel.Bond
Bond
p4431
(dp4432
g13
g1
sg155
g96
sg23
g24
sg16
g8
((lp4433
g4124
ag4221
atRp4434
sbag4345
ag4387
ag4421
atRp4435
sg159
I00
sbag4215
atRp4436
sg159
I00
sbsg41
g42
sg65
g8
((lp4437
g4230
ag4367
ag4356
ag4130
atRp4438
sg71
S'C'
sg72
I0
sg73
I00
sg74
(F-279.55150643698408
F178.39828850469596
F0.27588453158687631
tp4439
sg76
(lp4440
sg78
g1
sg79
g8
((ltRp4441
sg91
g8
((lp4442
g4400
ag4333
a(imodel.Bond
Bond
p4443
(dp4444
g78
g1
sg95
g96
sg41
g42
sg87
g8
((lp4445
g4130
ag4215
atRp4446
sbag4408
atRp4447
sg100
I00
sbatRp4448
sg71
S'C'
sg72
I0
sg73
I00
sg74
(F-245.94540664344112
F231.10358005838643
F0.82045373340904204
tp4449
sg76
(lp4450
sg78
g1
sg79
g8
((ltRp4451
sg91
g8
((lp4452
(imodel.Bond
Bond
p4453
(dp4454
g78
g1
sg95
g96
sg41
g42
sg87
g8
((lp4455
g4130
ag4115
atRp4456
sbag4171
ag4443
ag4206
atRp4457
sg100
I00
sbatRp4458
sg159
I00
sbsg23
g24
sg55
g8
((lp4459
g4221
ag4121
ag4182
ag4139
atRp4460
sg14
S'C'
sg137
I0
sg15
I00
sg138
(F-245.94540664344112
F231.10358005838643
F0.82045373340904204
tp4461
sg140
(lp4462
sg13
g1
sg142
g8
((ltRp4463
sg151
g8
((lp4464
g4194
ag4431
ag4153
a(imodel.Bond
Bond
p4465
(dp4466
g13
g1
sg155
g96
sg23
g24
sg16
g8
((lp4467
g4124
ag4121
atRp4468
sbatRp4469
sg159
I00
sbatRp4470
sg14
S'H'
sg137
I0
sg15
I00
sg138
(F-211.73760209259939
F205.74900605550795
F0.50021002462753694
tp4471
sg140
(lp4472
sg13
g1
sg142
g8
((lp4473
g4146
atRp4474
sg151
g8
((lp4475
g4465
atRp4476
sg159
I00
sbag4115
atRp4477
sg159
I00
sbsg41
g42
sg65
g8
((lp4478
g4130
atRp4479
sg71
S'H'
sg72
I0
sg73
I00
sg74
(F-211.73760209259939
F205.74900605550795
F0.50021002462753694
tp4480
sg76
(lp4481
sg78
g1
sg79
g8
((lp4482
g4164
atRp4483
sg91
g8
((lp4484
g4453
atRp4485
sg100
I00
sbag1824
ag1514
ag297
ag2689
ag1707
ag2598
ag1339
ag3748
ag650
ag4133
ag1801
ag661
ag2530
ag4356
ag388
ag1628
ag3270
ag1971
ag116
ag2621
ag1639
ag3857
ag1253
ag503
ag2065
ag3106
ag1418
ag1994
ag2255
ag1892
ag2700
ag3868
ag3977
ag2897
ag2119
ag3628
ag1159
ag467
ag67
ag1350
ag1503
ag3095
ag4260
ag952
ag2357
ag2723
ag4233
ag2334
ag4367
ag320
ag3259
ag929
ag3617
ag1230
ag880
ag1730
ag2428
ag1060
ag3737
ag226
ag127
ag1136
ag2451
ag2519
ag1903
atRp4486
sS'C'
g8
((lp4487
g1415
ag2674
ag1005
ag2595
ag2096
ag1118
ag2047
ag877
ag373
ag294
ag1783
ag1610
ag1704
ag786
ag911
ag2331
ag464
ag926
ag1449
ag2504
ag101
ag2240
ag1877
ag1020
ag1212
ag63
ag1798
ag2062
ag4130
ag279
ag1133
ag2410
ag1306
ag4215
ag1324
ag1968
ag2425
ag1613
ag1227
ag200
ag2160
atRp4488
sS'P'
g8
((lp4489
g35
atRp4490
sS'O'
g8
((lp4491
g1464
ag1321
a(imodel.VarAtom
VarAtom
p4492
(dp4493
g37
VOP3
p4494
sg38
I00
sg39
Nsg40
(imodel.Atom
Atom
p4495
(dp4496
g3
g4494
sg13
g1
sg14
S'O'
sg15
I00
sg16
g8
((lp4497
(imodel.VarAtom
VarAtom
p4498
(dp4499
g3
g4494
sg20
I00
sg21
Nsg22
g4495
sg23
g24
sg55
g8
((lp4500
g29
atRp4501
sg14
S'O'
sg137
I0
sg15
I00
sg138
(F-157.87687533982893
F339.87660879457076
F0.9266680852740109
tp4502
sg140
(lp4503
sg13
g1
sg142
g8
((ltRp4504
sg151
g8
((lp4505
(imodel.Bond
Bond
p4506
(dp4507
g13
g1
sg155
g3051
sg23
g24
sg16
g8
((lp4508
g29
ag4498
atRp4509
sbatRp4510
sg159
I00
sbag4492
atRp4511
sg159
I00
sbsg41
g42
sg65
g8
((lp4512
g35
atRp4513
sg71
S'O'
sg72
I0
sg73
I00
sg74
(F-157.87687533982893
F339.87660879457076
F0.9266680852740109
tp4514
sg76
(lp4515
sg78
g1
sg79
g8
((ltRp4516
sg91
g8
((lp4517
(imodel.Bond
Bond
p4518
(dp4519
g78
g1
sg95
g3051
sg41
g42
sg87
g8
((lp4520
g35
ag4492
atRp4521
sbatRp4522
sg100
I00
sbag1595
a(imodel.VarAtom
VarAtom
p4523
(dp4524
g37
VOP1
p4525
sg38
I00
sg39
Nsg40
(imodel.Atom
Atom
p4526
(dp4527
g3
g4525
sg13
g1
sg14
S'O'
sg15
I00
sg16
g8
((lp4528
(imodel.VarAtom
VarAtom
p4529
(dp4530
g3
g4525
sg20
I00
sg21
Nsg22
g4526
sg23
g24
sg55
g8
((lp4531
g29
atRp4532
sg14
S'O'
sg137
I-1
sg15
I00
sg138
(F-151.83454070083957
F217.40547899477053
F0.080402857069732714
tp4533
sg140
(lp4534
sg13
g1
sg142
g8
((ltRp4535
sg151
g8
((lp4536
(imodel.Bond
Bond
p4537
(dp4538
g13
g1
sg155
g96
sg23
g24
sg16
g8
((lp4539
g29
ag4529
atRp4540
sbatRp4541
sg159
I00
sbag4523
atRp4542
sg159
I00
sbsg41
g42
sg65
g8
((lp4543
g35
atRp4544
sg71
S'O'
sg72
I-1
sg73
I00
sg74
(F-151.83454070083957
F217.40547899477053
F0.080402857069732714
tp4545
sg76
(lp4546
sg78
g1
sg79
g8
((ltRp4547
sg91
g8
((lp4548
(imodel.Bond
Bond
p4549
(dp4550
g78
g1
sg95
g96
sg41
g42
sg87
g8
((lp4551
g35
ag4523
atRp4552
sbatRp4553
sg100
I00
sbag3542
ag4176
ag3395
atRp4554
sS'N'
g8
((lp4555
g4230
atRp4556
ssg91
g8
((lp4557
g4323
ag3311
ag3346
ag334
ag3147
ag2938
ag4206
ag1838
ag2042
ag1555
ag747
ag274
ag368
ag2299
ag2091
ag4400
ag573
ag3236
ag440
ag2863
ag2307
ag1383
ag1590
ag3390
ag1672
ag906
ag1944
ag3062
ag2371
ag3954
ag3475
ag627
ag3901
ag4408
ag702
ag3594
ag3027
ag2669
ag3789
ag3669
ag4549
ag2774
ag4171
ag1391
ag1778
ag168
ag2930
ag737
ag240
ag3356
ag3303
ag4518
ag539
ag3421
ag1267
ag4453
ag2983
ag853
ag531
ag4029
ag1444
ag845
ag2008
ag2405
ag432
ag1301
ag3182
ag1207
ag1113
ag4268
ag3714
ag1472
ag2563
ag2127
ag2201
ag3072
ag2809
ag1000
ag93
ag2973
ag3139
ag2499
ag3017
ag1680
ag2853
ag3985
ag4073
ag2235
ag4019
ag4443
ag3824
ag3509
ag3431
ag3550
ag4063
ag2465
ag1075
ag3944
ag966
ag4210
ag617
ag2766
ag3465
ag3192
ag176
ag781
ag3584
ag694
ag1173
ag1476
ag3909
ag3704
ag3661
ag4333
ag3781
ag3519
ag1744
ag3834
ag1547
ag3226
ag2732
ag1872
ag2819
ag2571
ag1936
ag583
ag2635
atRp4558
sg78
g1
sS'descriptor'
p4559
(V-HN_3
S'none'
p4560
S'default'
p4561
tp4562
sS'atomDict'
p4563
(dp4564
g10
g67
sg647
g650
sg282
g279
sg376
g373
sg3539
g3542
sg1353
g1350
sg2516
g2519
sg1625
g1628
sg4370
g4367
sg2592
g2595
sg1889
g1892
sg461
g464
sg2354
g2357
sg130
g127
sg197
g200
sg1517
g1514
sg2328
g2331
sg4179
g4176
sg1327
g1324
sg923
g926
sg1121
g1118
sg2050
g2047
sg488
g491
sg1804
g1801
sg2618
g2621
sg2601
g2598
sg50
g47
sg2337
g2334
sg932
g929
sg3614
g3617
sg1008
g1005
sg1616
g1613
sg3273
g3270
sg1642
g1639
sg4257
g4260
sg1017
g1020
sg1710
g1707
sg2677
g2674
sg1156
g1159
sg2431
g2428
sg2068
g2065
sg1224
g1227
sg2183
g2186
sg300
g297
sg3092
g3095
sg1057
g1060
sg2720
g2723
sg1452
g1449
sg1701
g1704
sg1412
g1415
sg3974
g3977
sg385
g388
sg2413
g2410
sg1965
g1968
sg1906
g1903
sg4236
g4233
sg4495
g4492
sg664
g661
sg815
g812
sg798
g801
sg2533
g2530
sg1607
g1610
sg2883
g2886
sg1215
g1212
sg317
g320
sg3109
g3106
sg2422
g2425
sg1880
g1877
sg1500
g1503
sg3631
g3628
sg60
g63
sg206
g203
sg4218
g4215
sg1309
g1306
sg470
g467
sg914
g911
sg2112
g2119
sg1233
g1230
sg2900
g2897
sg2703
g2700
sg1461
g1464
sg4227
g4230
sg291
g294
sg1318
g1321
sg1821
g1824
sg3734
g3737
sg4136
g4133
sg2099
g2096
sg223
g226
sg2448
g2451
sg2157
g2160
sg3398
g3395
sg4353
g4356
sg949
g952
sg1139
g1136
sg4127
g4130
sg1598
g1595
sg1727
g1730
sg32
g35
sg1250
g1253
sg1786
g1783
sg4526
g4523
sg3871
g3868
sg789
g786
sg883
g880
sg1336
g1339
sg1974
g1971
sg1991
g1994
sg2686
g2689
sg1795
g1798
sg1130
g1133
sg2243
g2240
sg874
g877
sg104
g101
sg3256
g3259
sg3854
g3857
sg2166
g2163
sg2507
g2504
sg3751
g3748
sg506
g503
sg402
g399
sg1026
g1023
sg4118
g4115
sg2252
g2255
sg113
g116
sg2269
g2266
sg2059
g2062
sg1421
g1418
ssg87
g8
((lp4565
g47
ag1613
ag2519
ag2160
ag2119
ag3095
ag2047
ag2689
ag294
ag2723
ag801
ag503
ag1449
ag1639
ag2065
ag812
ag3977
ag388
ag2674
ag1118
ag1903
ag3857
ag2410
ag297
ag1324
ag1503
ag127
ag4260
ag2096
ag3106
ag1628
ag1133
ag1514
ag880
ag1023
ag1060
ag1350
ag786
ag2357
ag1798
ag116
ag1212
ag101
ag2334
ag2700
ag1877
ag1020
ag4356
ag1730
ag2255
ag1159
ag3748
ag2428
ag4492
ag2897
ag1321
ag3868
ag1306
ag1339
ag3395
ag399
ag4133
ag373
ag4215
ag200
ag226
ag1783
ag1610
ag1801
ag1253
ag63
ag3270
ag1971
ag2186
ag661
ag67
ag1994
ag2240
ag926
ag4523
ag1595
ag2595
ag2062
ag4115
ag2163
ag3542
ag1968
ag4230
ag2331
ag3737
ag203
ag1230
ag1418
ag1415
ag2266
ag2886
ag1005
ag650
ag952
ag279
ag3628
ag877
ag491
ag1707
ag929
ag1704
ag464
ag2621
ag2504
ag911
ag1892
ag2598
ag1464
ag4176
ag2451
ag1824
ag35
ag4233
ag4367
ag320
ag3259
ag3617
ag1136
ag2530
ag2425
ag467
ag1227
ag4130
atRp4566
sg79
g8
((lp4567
g1260
ag3744
ag1635
ag3864
ag123
ag2364
ag3266
ag81
ag808
ag3102
ag1067
ag959
ag2893
ag327
ag1510
ag1831
ag1737
ag4164
ag3624
ag2458
ag233
ag2526
ag1346
ag498
ag4363
ag1899
ag2193
ag2696
ag657
ag2628
ag395
ag2001
ag2262
ag1166
atRp4568
sS'polyLink'
p4569
S'none'
p4570
sbsg65
g8
((lp4571
g4492
ag1464
ag4176
ag4523
atRp4572
sg71
S'P'
sg72
I0
sg73
I00
sg74
(F-154.89283321011573
F277.70063708537111
F0.046159851814846942
tp4573
sg76
(lp4574
sg78
g1
sg79
g8
((ltRp4575
sg91
g8
((lp4576
g4518
ag1472
ag4210
ag4549
atRp4577
sg100
I00
sbatRp4578
sg159
I00
sbsg23
g24
sg55
g8
((lp4579
g4529
ag1458
ag4182
ag4498
atRp4580
sg14
S'P'
sg137
I0
sg15
I00
sg138
(F-154.89283321011573
F277.70063708537111
F0.046159851814846942
tp4581
sg140
(lp4582
sg13
g1
sg142
g8
((ltRp4583
sg151
g8
((lp4584
g4537
ag4190
ag4506
ag1488
atRp4585
sg159
I00
sbatRp4586
sS'C'
g8
((lp4587
g1409
ag2589
ag107
ag1883
ag1221
ag2325
ag2416
ag1455
ag920
ag379
ag2419
ag1789
ag2510
ag1330
ag1218
ag2056
ag792
ag917
ag1604
ag2246
ag2680
ag194
ag4124
ag1014
ag1312
ag57
ag288
ag871
ag1124
ag1698
ag2102
ag1792
ag1011
ag1619
ag4221
ag1127
ag2053
ag458
ag285
ag2154
ag1962
atRp4588
sS'N'
g8
((lp4589
g4224
atRp4590
sS'O'
g8
((lp4591
g4529
ag1601
ag3536
ag3401
ag4498
ag4182
ag1458
ag1315
atRp4592
sS'H'
g8
((lp4593
g1054
ag2105
ag2249
ag2903
ag935
ag4373
ag1977
ag473
ag314
ag405
ag1142
ag886
ag795
ag3112
ag2169
ag3971
ag110
ag1818
ag3731
ag4350
ag2880
ag53
ag2071
ag3634
ag1645
ag2706
ag946
ag1909
ag1333
ag2513
ag1247
ag485
ag2340
ag4121
ag1988
ag3611
ag4254
ag2434
ag303
ag2180
ag1034
ag3253
ag1724
ag220
ag2272
ag3089
ag3874
ag667
ag209
ag4239
ag4287
ag2351
ag382
ag133
ag1424
ag18
ag1153
ag3276
ag2445
ag509
ag1497
ag1622
ag1520
ag4139
ag2683
ag2536
ag818
ag2717
ag3754
ag1713
ag1886
ag3851
ag1236
ag2604
ag2615
ag1356
ag1807
ag644
atRp4594
ssg151
g8
((lp4595
g3692
ag1492
ag2656
ag3932
ag2478
ag2961
ag2917
ag3648
ag347
ag3888
ag866
ag2486
ag832
ag4089
ag2951
ag253
ag4421
ag715
ag1288
ag3214
ag2320
ag3324
ag2787
ag560
ag4051
ag1765
ag2584
ag2753
ag2745
ag769
ag3005
ag681
ag4345
ag1194
ag1659
ag552
ag3248
ag1280
ag3572
ag3802
ag3922
ag1370
ag4085
ag3409
ag4387
ag153
ag3378
ag4282
ag1488
ag189
ag3768
ag2831
ag2995
ag605
ag2079
ag4311
ag595
ag3443
ag2384
ag1693
ag2392
ag4041
ag3497
ag4431
ag1568
ag453
ag3204
ag2550
ag3846
ag4190
ag3562
ag1859
ag355
ag3170
ag4506
ag4465
ag3126
ag2222
ag4537
ag759
ag1757
ag261
ag2797
ag725
ag4194
ag3334
ag1851
ag3531
ag3487
ag1186
ag3682
ag1578
ag4301
ag1923
ag419
ag2286
ag2029
ag2148
ag3812
ag1432
ag4153
ag3290
ag3997
ag1097
ag3368
ag1957
ag1404
ag894
ag518
ag3049
ag3606
ag1534
ag4007
ag3160
ag3966
ag1088
ag979
ag2875
ag3039
ag987
ag639
ag3084
ag2841
ag2021
ag2214
ag3726
ag2648
ag3453
atRp4596
sg13
g1
sS'descriptor'
p4597
(V+HN_3
g4560
g4561
tp4598
sS'atomDict'
p4599
(dp4600
g10
g18
sg647
g644
sg3614
g3611
sg3539
g3536
sg883
g886
sg2516
g2513
sg1625
g1622
sg282
g285
sg1309
g1312
sg2354
g2351
sg130
g133
sg1607
g1604
sg197
g194
sg1517
g1520
sg2328
g2325
sg4179
g4182
sg798
g795
sg4495
g4498
sg923
g920
sg2050
g2053
sg488
g485
sg1804
g1807
sg2618
g2615
sg2269
g2272
sg2448
g2445
sg104
g107
sg1026
g1034
sg385
g382
sg3273
g3276
sg1642
g1645
sg4257
g4254
sg317
g314
sg1017
g1014
sg1710
g1713
sg1616
g1619
sg1156
g1153
sg1121
g1124
sg2068
g2071
sg376
g379
sg1452
g1455
sg4127
g4124
sg300
g303
sg2592
g2589
sg1057
g1054
sg2720
g2717
sg1336
g1333
sg1701
g1698
sg1412
g1409
sg1224
g1221
sg1991
g1988
sg3974
g3971
sg1008
g1011
sg1965
g1962
sg1215
g1218
sg4218
g4221
sg2413
g2416
sg664
g667
sg815
g818
sg1353
g1356
sg4370
g4373
sg2883
g2880
sg2677
g2680
sg1906
g1909
sg2703
g2706
sg3109
g3112
sg2422
g2419
sg1880
g1883
sg1500
g1497
sg3631
g3634
sg60
g57
sg206
g209
sg461
g458
sg1889
g1886
sg470
g473
sg914
g917
sg2112
g2105
sg4290
g4287
sg1233
g1236
sg1821
g1818
sg1461
g1458
sg3751
g3754
sg1327
g1330
sg4236
g4239
sg1318
g1315
sg2900
g2903
sg3734
g3731
sg4136
g4139
sg1250
g1247
sg2099
g2102
sg223
g220
sg2337
g2340
sg1795
g1792
sg949
g946
sg4353
g4350
sg1139
g1142
sg3398
g3401
sg1598
g1601
sg1727
g1724
sg32
g29
sg2431
g2434
sg1786
g1789
sg2157
g2154
sg4526
g4529
sg3871
g3874
sg789
g792
sg2533
g2536
sg1974
g1977
sg2183
g2180
sg3092
g3089
sg2686
g2683
sg291
g288
sg1130
g1127
sg2243
g2246
sg874
g871
sg932
g935
sg3256
g3253
sg3854
g3851
sg2166
g2169
sg2507
g2510
sg4227
g4224
sg506
g509
sg402
g405
sg2601
g2604
sg4118
g4121
sg2252
g2249
sg113
g110
sg50
g53
sg2059
g2056
sg1421
g1424
ssg16
g8
((lp4601
g1724
ag3276
ag3754
ag314
ag2325
ag1236
ag946
ag4529
ag382
ag1315
ag1333
ag1014
ag4121
ag917
ag57
ag818
ag18
ag209
ag1247
ag2683
ag1698
ag2717
ag2180
ag886
ag1455
ag3401
ag644
ag458
ag2615
ag2169
ag792
ag1409
ag1977
ag1356
ag1962
ag1142
ag1988
ag4182
ag920
ag285
ag2513
ag2053
ag485
ag2880
ag795
ag4373
ag2105
ag4498
ag2246
ag3253
ag107
ag2604
ag1619
ag1424
ag1124
ag3536
ag1818
ag1789
ag4287
ag1807
ag2154
ag1497
ag1054
ag2589
ag379
ag4254
ag194
ag3611
ag1221
ag1034
ag3971
ag110
ag3731
ag2445
ag4139
ag2434
ag1645
ag3851
ag4239
ag2536
ag3089
ag303
ag3874
ag2416
ag1218
ag2272
ag1909
ag2056
ag667
ag1883
ag1792
ag1153
ag871
ag1622
ag2680
ag1127
ag1011
ag1713
ag3634
ag29
ag473
ag405
ag3112
ag53
ag4350
ag2419
ag4224
ag1520
ag2706
ag2510
ag2071
ag1330
ag2249
ag2903
ag1604
ag935
ag2340
ag288
ag133
ag1312
ag509
ag220
ag1886
ag4221
ag2351
ag2102
ag1601
ag4124
ag1458
atRp4602
sg142
g8
((lp4603
g1149
ag3881
ag2176
ag2279
ag216
ag1243
ag942
ag1652
ag1814
ag674
ag1050
ag144
ag2611
ag1984
ag4098
ag1527
ag412
ag825
ag4380
ag3119
ag1720
ag2441
ag3761
ag3641
ag3283
ag4146
ag2543
ag310
ag1916
ag480
ag2910
ag2713
ag1363
ag4246
ag2347
atRp4604
sS'polyLink'
p4605
g4570
sbsg55
g8
((lp4606
g57
atRp4607
sg14
S'H'
sg137
I0
sg15
I00
sg138
(F660.73436396934767
F336.06864025270227
F0.52697684157087454
tp4608
sg140
(lp4609
sg13
g1
sg142
g8
((lp4610
g4098
atRp4611
sg151
g8
((lp4612
g4089
atRp4613
sg159
I00
sbag67
atRp4614
sg159
I00
sbag647
ag3614
ag3539
ag883
ag2516
ag1625
ag282
ag1309
ag2354
ag130
ag1607
ag197
ag1517
ag2328
ag4179
ag798
ag4495
ag923
ag2050
ag488
ag1804
ag2618
ag2269
ag2448
ag104
ag1026
ag385
ag3273
ag1642
ag4257
ag317
ag1017
ag1710
ag1616
ag1156
ag1121
ag2068
ag376
ag1452
ag4127
ag300
ag2592
ag1057
ag2720
ag1336
ag1701
ag1412
ag1224
ag1991
ag3974
ag1008
ag1965
ag1215
ag4218
ag2413
ag664
ag815
ag1353
ag4370
ag2883
ag2677
ag1906
ag2703
ag3109
ag2422
ag1880
ag1500
ag3631
ag60
ag206
ag461
ag1889
ag470
ag914
ag2112
ag4290
ag1233
ag1821
ag1461
ag3751
ag1327
ag4236
ag1318
ag2900
ag3734
ag4136
ag1250
ag2099
ag223
ag2337
ag1795
ag949
ag4353
ag1139
ag3398
ag1598
ag1727
ag32
ag2431
ag1786
ag2157
ag4526
ag3871
ag789
ag2533
ag1974
ag2183
ag3092
ag2686
ag291
ag1130
ag2243
ag874
ag932
ag3256
ag3854
ag2166
ag2507
ag4227
ag506
ag402
ag2601
ag4118
ag2252
ag113
ag50
ag2059
ag1421
atRp4615
sS'ccpMolType'
p4616
S'other'
p4617
sS'details'
p4618
V
sg4599
(dp4619
g49
g50
sg12
g10
sg3255
g3256
sg3272
g3273
sg1460
g1461
sg1597
g1598
sg1317
g1318
sg290
g291
sg2532
g2533
sg2515
g2516
sg1615
g1616
sg1223
g1224
sg1129
g1130
sg2899
g2900
sg2882
g2883
sg1726
g1727
sg3853
g3854
sg2685
g2686
sg2702
g2703
sg2719
g2720
sg2421
g2422
sg281
g282
sg2182
g2183
sg2165
g2166
sg487
g488
sg469
g470
sg505
g506
sg2108
g2112
sg1214
g1215
sg646
g647
sg663
g664
sg1700
g1701
sg1624
g1625
sg1641
g1642
sg1138
g1139
sg4525
g4526
sg4178
g4179
sg1155
g1156
sg2268
g2269
sg2251
g2252
sg873
g874
sg2098
g2099
sg3091
g3092
sg3108
g3109
sg4289
g4290
sg3973
g3974
sg1905
g1906
sg2506
g2507
sg2353
g2354
sg1709
g1710
sg1785
g1786
sg31
g32
sg1803
g1804
sg1820
g1821
sg375
g376
sg1335
g1336
sg1352
g1353
sg2591
g2592
sg1964
g1965
sg401
g402
sg384
g385
sg1420
g1421
sg460
g461
sg1120
g1121
sg931
g932
sg948
g949
sg2242
g2243
sg59
g60
sg3397
g3398
sg3538
g3539
sg222
g223
sg205
g206
sg3613
g3614
sg3630
g3631
sg4494
g4495
sg1516
g1517
sg1499
g1500
sg1451
g1452
sg1411
g1412
sg1326
g1327
sg1879
g1880
sg4369
g4370
sg4352
g4353
sg1016
g1017
sg196
g197
sg129
g130
sg112
g113
sg2156
g2157
sg788
g789
sg3750
g3751
sg3733
g3734
sg4226
g4227
sg882
g883
sg922
g923
sg4256
g4257
sg2049
g2050
sg2600
g2601
sg2617
g2618
sg4217
g4218
sg1007
g1008
sg4126
g4127
sg2447
g2448
sg2430
g2431
sg4235
g4236
sg1056
g1057
sg1025
g1026
sg1232
g1233
sg2412
g2413
sg3870
g3871
sg4117
g4118
sg4135
g4136
sg299
g300
sg316
g317
sg1794
g1795
sg2336
g2337
sg2676
g2677
sg1888
g1889
sg2067
g2068
sg1249
g1250
sg2058
g2059
sg913
g914
sg103
g104
sg2327
g2328
sg1973
g1974
sg1990
g1991
sg1606
g1607
sg1308
g1309
sg797
g798
sg814
g815
ssS'keywords'
p4620
g8
((ltRp4621
sg142
g8
((lp4622
g3881
ag1149
ag1635
ag2441
ag2526
ag1510
ag144
ag2458
ag2193
ag216
ag3283
ag4146
ag1720
ag4164
ag1260
ag1363
ag657
ag2364
ag1737
ag2611
ag81
ag2628
ag395
ag808
ag1166
ag412
ag1527
ag4380
ag233
ag3641
ag959
ag1067
ag310
ag2910
ag3744
ag1050
ag1899
ag1814
ag825
ag3761
ag3624
ag1831
ag2696
ag2262
ag4246
ag123
ag480
ag3864
ag2279
ag2543
ag4363
ag2893
ag1346
ag2176
ag1916
ag942
ag3102
ag2713
ag327
ag674
ag1984
ag1243
ag1652
ag2001
ag498
ag3119
ag3266
ag2347
ag4098
atRp4623
sS'variants'
p4624
g8
((lp4625
g24
ag42
atRp4626
sS'defaultVars'
p4627
g8
((lp4628
g24
atRp4629
sb.