(imodel.Compound
Compound
p1
(dp2
S'name'
p3
VDioleoylphosphatidylinosoine
p4
sS'isModified'
p5
I00
sS'ccpCode'
p6
V
sS'atoms'
p7
c__builtin__
set
p8
((lp9
(imodel.Atom
Atom
p10
(dp11
g3
S'O3'
p12
sS'compound'
p13
g1
sS'element'
p14
S'O'
sS'isVariable'
p15
I00
sS'varAtoms'
p16
g8
((lp17
(imodel.VarAtom
VarAtom
p18
(dp19
g3
g12
sS'isLabile'
p20
I00
sS'chirality'
p21
NsS'atom'
p22
g10
sS'variant'
p23
(imodel.Variant
Variant
p24
(dp25
S'elementDict'
p26
(dp27
S'H'
g8
((lp28
(imodel.VarAtom
VarAtom
p29
(dp30
g3
S'H8_2'
p31
sg20
I00
sg21
Nsg22
(imodel.Atom
Atom
p32
(dp33
g3
g31
sg13
g1
sg14
S'H'
sg15
I00
sg16
g8
((lp34
g29
atRp35
sS'isDeleted'
p36
I00
sbsg23
g24
sS'neighbours'
p37
g8
((lp38
(imodel.VarAtom
VarAtom
p39
(dp40
g3
S'C8'
p41
sg20
I00
sg21
Nsg22
(imodel.Atom
Atom
p42
(dp43
g3
g41
sg13
g1
sg14
S'C'
sg15
I00
sg16
g8
((lp44
g39
atRp45
sg36
I00
sbsg23
g24
sg37
g8
((lp46
(imodel.VarAtom
VarAtom
p47
(dp48
g3
S'C7'
p49
sg20
I00
sg21
Nsg22
(imodel.Atom
Atom
p50
(dp51
g3
g49
sg13
g1
sg14
S'C'
sg15
I00
sg16
g8
((lp52
g47
atRp53
sg36
I00
sbsg23
g24
sg37
g8
((lp54
(imodel.VarAtom
VarAtom
p55
(dp56
g3
S'C6'
p57
sg20
I00
sg21
Nsg22
(imodel.Atom
Atom
p58
(dp59
g3
g57
sg13
g1
sg14
S'C'
sg15
I00
sg16
g8
((lp60
g55
atRp61
sg36
I00
sbsg23
g24
sg37
g8
((lp62
(imodel.VarAtom
VarAtom
p63
(dp64
g3
S'C5'
p65
sg20
I00
sg21
Nsg22
(imodel.Atom
Atom
p66
(dp67
g3
g65
sg13
g1
sg14
S'C'
sg15
I00
sg16
g8
((lp68
g63
atRp69
sg36
I00
sbsg23
g24
sg37
g8
((lp70
(imodel.VarAtom
VarAtom
p71
(dp72
g3
S'C4'
p73
sg20
I00
sg21
Nsg22
(imodel.Atom
Atom
p74
(dp75
g3
g73
sg13
g1
sg14
S'C'
sg15
I00
sg16
g8
((lp76
g71
atRp77
sg36
I00
sbsg23
g24
sg37
g8
((lp78
(imodel.VarAtom
VarAtom
p79
(dp80
g3
S'O1'
p81
sg20
I00
sg21
Nsg22
(imodel.Atom
Atom
p82
(dp83
g3
g81
sg13
g1
sg14
S'O'
sg15
I00
sg16
g8
((lp84
g79
atRp85
sg36
I00
sbsg23
g24
sg37
g8
((lp86
(imodel.VarAtom
VarAtom
p87
(dp88
g3
S'C2'
p89
sg20
I00
sg21
Nsg22
(imodel.Atom
Atom
p90
(dp91
g3
g89
sg13
g1
sg14
S'C'
sg15
I00
sg16
g8
((lp92
g87
atRp93
sg36
I00
sbsg23
g24
sg37
g8
((lp94
(imodel.VarAtom
VarAtom
p95
(dp96
g3
S'C1'
p97
sg20
I00
sg21
Nsg22
(imodel.Atom
Atom
p98
(dp99
g3
g97
sg13
g1
sg14
S'C'
sg15
I00
sg16
g8
((lp100
g95
atRp101
sg36
I00
sbsg23
g24
sg37
g8
((lp102
g18
a(imodel.VarAtom
VarAtom
p103
(dp104
g3
S'H1_1'
p105
sg20
I00
sg21
Nsg22
(imodel.Atom
Atom
p106
(dp107
g3
g105
sg13
g1
sg14
S'H'
sg15
I00
sg16
g8
((lp108
g103
atRp109
sg36
I00
sbsg23
g24
sg37
g8
((lp110
g95
atRp111
sg14
S'H'
sS'charge'
p112
I0
sg15
I00
sS'coords'
p113
(F42.149028427147755
F308.16673163357507
F1.0251558170339221
tp114
sS'freeValences'
p115
(lp116
sg13
g1
sS'atomGroups'
p117
g8
((lp118
(imodel.AtomGroup
AtomGroup
p119
(dp120
S'groupType'
p121
S'prochiral'
p122
sS'subGroups'
p123
g8
((ltRp124
sg16
g8
((lp125
g103
a(imodel.VarAtom
VarAtom
p126
(dp127
g3
S'H1_2'
p128
sg20
I00
sg21
Nsg22
(imodel.Atom
Atom
p129
(dp130
g3
g128
sg13
g1
sg14
S'H'
sg15
I00
sg16
g8
((lp131
g126
atRp132
sg36
I00
sbsg23
g24
sg37
g8
((lp133
g95
atRp134
sg14
S'H'
sg112
I0
sg15
I00
sg113
(F79.923408038796055
F282.03278579003836
F0.67810334439468822
tp135
sg115
(lp136
sg13
g1
sg117
g8
((lp137
g119
atRp138
sS'bonds'
p139
g8
((lp140
(imodel.Bond
Bond
p141
(dp142
g13
g1
sS'bondType'
p143
S'single'
p144
sg23
g24
sg16
g8
((lp145
g95
ag126
atRp146
sbatRp147
sg36
I00
sbatRp148
sg23
g24
sg13
g1
sbatRp149
sg139
g8
((lp150
(imodel.Bond
Bond
p151
(dp152
g13
g1
sg143
g144
sg23
g24
sg16
g8
((lp153
g95
ag103
atRp154
sbatRp155
sg36
I00
sbag126
ag87
atRp156
sg14
S'C'
sg112
I0
sg15
I00
sg113
(F74.17616574092159
F330.35929393340274
F0.082725994875075259
tp157
sg115
(lp158
sg13
g1
sg117
g8
((ltRp159
sg139
g8
((lp160
(imodel.Bond
Bond
p161
(dp162
g13
g1
sg143
g144
sg23
g24
sg16
g8
((lp163
g95
ag18
atRp164
sba(imodel.Bond
Bond
p165
(dp166
g13
g1
sg143
g144
sg23
g24
sg16
g8
((lp167
g87
ag95
atRp168
sbag151
ag141
atRp169
sg36
I00
sba(imodel.VarAtom
VarAtom
p170
(dp171
g3
S'C3'
p172
sg20
I00
sg21
Nsg22
(imodel.Atom
Atom
p173
(dp174
g3
g172
sg13
g1
sg14
S'C'
sg15
I00
sg16
g8
((lp175
g170
atRp176
sg36
I00
sbsg23
g24
sg37
g8
((lp177
g87
a(imodel.VarAtom
VarAtom
p178
(dp179
g3
S'H3_1'
p180
sg20
I00
sg21
Nsg22
(imodel.Atom
Atom
p181
(dp182
g3
g180
sg13
g1
sg14
S'H'
sg15
I00
sg16
g8
((lp183
g178
atRp184
sg36
I00
sbsg23
g24
sg37
g8
((lp185
g170
atRp186
sg14
S'H'
sg112
I0
sg15
I00
sg113
(F0.47330764781122525
F407.96364911015883
F0.11691646374489939
tp187
sg115
(lp188
sg13
g1
sg117
g8
((lp189
(imodel.AtomGroup
AtomGroup
p190
(dp191
g121
g122
sg123
g8
((ltRp192
sg16
g8
((lp193
g178
a(imodel.VarAtom
VarAtom
p194
(dp195
g3
S'H3_2'
p196
sg20
I00
sg21
Nsg22
(imodel.Atom
Atom
p197
(dp198
g3
g196
sg13
g1
sg14
S'H'
sg15
I00
sg16
g8
((lp199
g194
atRp200
sg36
I00
sbsg23
g24
sg37
g8
((lp201
g170
atRp202
sg14
S'H'
sg112
I0
sg15
I00
sg113
(F-10.879448784534361
F323.4120932569233
F0.78214731467985099
tp203
sg115
(lp204
sg13
g1
sg117
g8
((lp205
g190
atRp206
sg139
g8
((lp207
(imodel.Bond
Bond
p208
(dp209
g13
g1
sg143
g144
sg23
g24
sg16
g8
((lp210
g170
ag194
atRp211
sbatRp212
sg36
I00
sbatRp213
sg23
g24
sg13
g1
sbatRp214
sg139
g8
((lp215
(imodel.Bond
Bond
p216
(dp217
g13
g1
sg143
g144
sg23
g24
sg16
g8
((lp218
g170
ag178
atRp219
sbatRp220
sg36
I00
sba(imodel.VarAtom
VarAtom
p221
(dp222
g3
S'O11'
p223
sg20
I00
sg21
Nsg22
(imodel.Atom
Atom
p224
(dp225
g3
g223
sg13
g1
sg14
S'O'
sg15
I00
sg16
g8
((lp226
g221
atRp227
sg36
I00
sbsg23
g24
sg37
g8
((lp228
g170
a(imodel.VarAtom
VarAtom
p229
(dp230
g3
S'P1'
p231
sg20
I00
sg21
Nsg22
(imodel.Atom
Atom
p232
(dp233
g3
g231
sg13
g1
sg14
S'P'
sg15
I00
sg16
g8
((lp234
g229
atRp235
sg36
I00
sbsg23
g24
sg37
g8
((lp236
(imodel.VarAtom
VarAtom
p237
(dp238
g3
S'O12'
p239
sg20
I00
sg21
Nsg22
(imodel.Atom
Atom
p240
(dp241
g3
g239
sg13
g1
sg14
S'O'
sg15
I00
sg16
g8
((lp242
g237
atRp243
sg36
I00
sbsg23
g24
sg37
g8
((lp244
g229
atRp245
sg14
S'O'
sg112
I-1
sg15
I00
sg113
(F-50.250226881514322
F468.73172347123358
F0.86716110814498282
tp246
sg115
(lp247
sg13
g1
sg117
g8
((ltRp248
sg139
g8
((lp249
(imodel.Bond
Bond
p250
(dp251
g13
g1
sg143
g144
sg23
g24
sg16
g8
((lp252
g229
ag237
atRp253
sbatRp254
sg36
I00
sba(imodel.VarAtom
VarAtom
p255
(dp256
g3
S'O10'
p257
sg20
I00
sg21
Nsg22
(imodel.Atom
Atom
p258
(dp259
g3
g257
sg13
g1
sg14
S'O'
sg15
I00
sg16
g8
((lp260
g255
atRp261
sg36
I00
sbsg23
g24
sg37
g8
((lp262
g229
atRp263
sg14
S'O'
sg112
I0
sg15
I00
sg113
(F-86.033981901429684
F375.35320381301472
F0.28106882114632648
tp264
sg115
(lp265
sg13
g1
sg117
g8
((ltRp266
sg139
g8
((lp267
(imodel.Bond
Bond
p268
(dp269
g13
g1
sg143
S'double'
p270
sg23
g24
sg16
g8
((lp271
g229
ag255
atRp272
sbatRp273
sg36
I00
sbag221
a(imodel.VarAtom
VarAtom
p274
(dp275
g3
S'O13'
p276
sg20
I00
sg21
Nsg22
(imodel.Atom
Atom
p277
(dp278
g3
g276
sg13
g1
sg14
S'O'
sg15
I00
sg16
g8
((lp279
g274
atRp280
sg36
I00
sbsg23
g24
sg37
g8
((lp281
(imodel.VarAtom
VarAtom
p282
(dp283
g3
S'C41'
p284
sg20
I00
sg21
Nsg22
(imodel.Atom
Atom
p285
(dp286
g3
g284
sg13
g1
sg14
S'C'
sg15
I00
sg16
g8
((lp287
g282
atRp288
sg36
I00
sbsg23
g24
sg37
g8
((lp289
(imodel.VarAtom
VarAtom
p290
(dp291
g3
S'C40'
p292
sg20
I00
sg21
Nsg22
(imodel.Atom
Atom
p293
(dp294
g3
g292
sg13
g1
sg14
S'C'
sg15
I00
sg16
g8
((lp295
g290
atRp296
sg36
I00
sbsg23
g24
sg37
g8
((lp297
g282
a(imodel.VarAtom
VarAtom
p298
(dp299
g3
S'C45'
p300
sg20
I00
sg21
Nsg22
(imodel.Atom
Atom
p301
(dp302
g3
g300
sg13
g1
sg14
S'C'
sg15
I00
sg16
g8
((lp303
g298
atRp304
sg36
I00
sbsg23
g24
sg37
g8
((lp305
(imodel.VarAtom
VarAtom
p306
(dp307
g3
S'H45'
p308
sg20
I00
sg21
Nsg22
(imodel.Atom
Atom
p309
(dp310
g3
g308
sg13
g1
sg14
S'H'
sg15
I00
sg16
g8
((lp311
g306
atRp312
sg36
I00
sbsg23
g24
sg37
g8
((lp313
g298
atRp314
sg14
S'H'
sg112
I0
sg15
I00
sg113
(F-252.88827426395642
F376.23351394697528
F1.6233414401901332
tp315
sg115
(lp316
sg13
g1
sg117
g8
((ltRp317
sg139
g8
((lp318
(imodel.Bond
Bond
p319
(dp320
g13
g1
sg143
g144
sg23
g24
sg16
g8
((lp321
g298
ag306
atRp322
sbatRp323
sg36
I00
sbag290
a(imodel.VarAtom
VarAtom
p324
(dp325
g3
S'O9'
p326
sg20
I00
sg21
Nsg22
(imodel.Atom
Atom
p327
(dp328
g3
g326
sg13
g1
sg14
S'O'
sg15
I00
sg16
g8
((lp329
g324
atRp330
sg36
I00
sbsg23
g24
sg37
g8
((lp331
g298
a(imodel.VarAtom
VarAtom
p332
(dp333
g3
S'HO9'
p334
sg20
I01
sg21
Nsg22
(imodel.Atom
Atom
p335
(dp336
g3
g334
sg13
g1
sg14
S'H'
sg15
I00
sg16
g8
((lp337
g332
atRp338
sg36
I00
sbsg23
g24
sg37
g8
((lp339
g324
atRp340
sg14
S'H'
sg112
I0
sg15
I00
sg113
(F-263.1948733223029
F242.16871302429789
F0.38548130574511175
tp341
sg115
(lp342
sg13
g1
sg117
g8
((ltRp343
sg139
g8
((lp344
(imodel.Bond
Bond
p345
(dp346
g13
g1
sg143
g144
sg23
g24
sg16
g8
((lp347
g324
ag332
atRp348
sbatRp349
sg36
I00
sbatRp350
sg14
S'O'
sg112
I0
sg15
I00
sg113
(F-255.0696961446248
F286.36754005463399
F0.35214180035699305
tp351
sg115
(lp352
sg13
g1
sg117
g8
((ltRp353
sg139
g8
((lp354
(imodel.Bond
Bond
p355
(dp356
g13
g1
sg143
g144
sg23
g24
sg16
g8
((lp357
g298
ag324
atRp358
sbag345
atRp359
sg36
I00
sba(imodel.VarAtom
VarAtom
p360
(dp361
g3
S'C44'
p362
sg20
I00
sg21
Nsg22
(imodel.Atom
Atom
p363
(dp364
g3
g362
sg13
g1
sg14
S'C'
sg15
I00
sg16
g8
((lp365
g360
atRp366
sg36
I00
sbsg23
g24
sg37
g8
((lp367
(imodel.VarAtom
VarAtom
p368
(dp369
g3
S'C43'
p370
sg20
I00
sg21
Nsg22
(imodel.Atom
Atom
p371
(dp372
g3
g370
sg13
g1
sg14
S'C'
sg15
I00
sg16
g8
((lp373
g368
atRp374
sg36
I00
sbsg23
g24
sg37
g8
((lp375
(imodel.VarAtom
VarAtom
p376
(dp377
g3
S'O7'
p378
sg20
I00
sg21
Nsg22
(imodel.Atom
Atom
p379
(dp380
g3
g378
sg13
g1
sg14
S'O'
sg15
I00
sg16
g8
((lp381
g376
atRp382
sg36
I00
sbsg23
g24
sg37
g8
((lp383
g368
a(imodel.VarAtom
VarAtom
p384
(dp385
g3
S'HO7'
p386
sg20
I01
sg21
Nsg22
(imodel.Atom
Atom
p387
(dp388
g3
g386
sg13
g1
sg14
S'H'
sg15
I00
sg16
g8
((lp389
g384
atRp390
sg36
I00
sbsg23
g24
sg37
g8
((lp391
g376
atRp392
sg14
S'H'
sg112
I0
sg15
I00
sg113
(F-360.51589528546481
F470.91698091557862
F1.2347678189909792
tp393
sg115
(lp394
sg13
g1
sg117
g8
((ltRp395
sg139
g8
((lp396
(imodel.Bond
Bond
p397
(dp398
g13
g1
sg143
g144
sg23
g24
sg16
g8
((lp399
g376
ag384
atRp400
sbatRp401
sg36
I00
sbatRp402
sg14
S'O'
sg112
I0
sg15
I00
sg113
(F-321.39435762347273
F449.08521137077838
F0.24855901272223468
tp403
sg115
(lp404
sg13
g1
sg117
g8
((ltRp405
sg139
g8
((lp406
(imodel.Bond
Bond
p407
(dp408
g13
g1
sg143
g144
sg23
g24
sg16
g8
((lp409
g368
ag376
atRp410
sbag397
atRp411
sg36
I00
sbag360
a(imodel.VarAtom
VarAtom
p412
(dp413
g3
S'H43'
p414
sg20
I00
sg21
Nsg22
(imodel.Atom
Atom
p415
(dp416
g3
g414
sg13
g1
sg14
S'H'
sg15
I00
sg16
g8
((lp417
g412
atRp418
sg36
I00
sbsg23
g24
sg37
g8
((lp419
g368
atRp420
sg14
S'H'
sg112
I0
sg15
I00
sg113
(F-268.02693414440262
F468.57060742263332
F0.32028088324451109
tp421
sg115
(lp422
sg13
g1
sg117
g8
((ltRp423
sg139
g8
((lp424
(imodel.Bond
Bond
p425
(dp426
g13
g1
sg143
g144
sg23
g24
sg16
g8
((lp427
g368
ag412
atRp428
sbatRp429
sg36
I00
sba(imodel.VarAtom
VarAtom
p430
(dp431
g3
S'C42'
p432
sg20
I00
sg21
Nsg22
(imodel.Atom
Atom
p433
(dp434
g3
g432
sg13
g1
sg14
S'C'
sg15
I00
sg16
g8
((lp435
g430
atRp436
sg36
I00
sbsg23
g24
sg37
g8
((lp437
g282
a(imodel.VarAtom
VarAtom
p438
(dp439
g3
S'H42'
p440
sg20
I00
sg21
Nsg22
(imodel.Atom
Atom
p441
(dp442
g3
g440
sg13
g1
sg14
S'H'
sg15
I00
sg16
g8
((lp443
g438
atRp444
sg36
I00
sbsg23
g24
sg37
g8
((lp445
g430
atRp446
sg14
S'H'
sg112
I0
sg15
I00
sg113
(F-207.06740844064836
F466.63111441938423
F1.1717155033854001
tp447
sg115
(lp448
sg13
g1
sg117
g8
((ltRp449
sg139
g8
((lp450
(imodel.Bond
Bond
p451
(dp452
g13
g1
sg143
g144
sg23
g24
sg16
g8
((lp453
g430
ag438
atRp454
sbatRp455
sg36
I00
sbag368
a(imodel.VarAtom
VarAtom
p456
(dp457
g3
S'O6'
p458
sg20
I00
sg21
Nsg22
(imodel.Atom
Atom
p459
(dp460
g3
g458
sg13
g1
sg14
S'O'
sg15
I00
sg16
g8
((lp461
g456
atRp462
sg36
I00
sbsg23
g24
sg37
g8
((lp463
g430
a(imodel.VarAtom
VarAtom
p464
(dp465
g3
S'HO6'
p466
sg20
I01
sg21
Nsg22
(imodel.Atom
Atom
p467
(dp468
g3
g466
sg13
g1
sg14
S'H'
sg15
I00
sg16
g8
((lp469
g464
atRp470
sg36
I00
sbsg23
g24
sg37
g8
((lp471
g456
atRp472
sg14
S'H'
sg112
I0
sg15
I00
sg113
(F-206.08710095157335
F324.25843577270189
F1.6639616821012559
tp473
sg115
(lp474
sg13
g1
sg117
g8
((ltRp475
sg139
g8
((lp476
(imodel.Bond
Bond
p477
(dp478
g13
g1
sg143
g144
sg23
g24
sg16
g8
((lp479
g456
ag464
atRp480
sbatRp481
sg36
I00
sbatRp482
sg14
S'O'
sg112
I0
sg15
I00
sg113
(F-205.68420247713289
F373.76491725195729
F0.29155943353429414
tp483
sg115
(lp484
sg13
g1
sg117
g8
((ltRp485
sg139
g8
((lp486
(imodel.Bond
Bond
p487
(dp488
g13
g1
sg143
g144
sg23
g24
sg16
g8
((lp489
g430
ag456
atRp490
sbag477
atRp491
sg36
I00
sbatRp492
sg14
S'C'
sg112
I0
sg15
I00
sg113
(F-214.10434481754487
F420.26502133147153
F0.49346230738348107
tp493
sg115
(lp494
sg13
g1
sg117
g8
((ltRp495
sg139
g8
((lp496
(imodel.Bond
Bond
p497
(dp498
g13
g1
sg143
g144
sg23
g24
sg16
g8
((lp499
g282
ag430
atRp500
sba(imodel.Bond
Bond
p501
(dp502
g13
g1
sg143
g144
sg23
g24
sg16
g8
((lp503
g368
ag430
atRp504
sbag451
ag487
atRp505
sg36
I00
sbatRp506
sg14
S'C'
sg112
I0
sg15
I00
sg113
(F-274.38833716751435
F422.31261779682359
F0.31705057277304127
tp507
sg115
(lp508
sg13
g1
sg117
g8
((ltRp509
sg139
g8
((lp510
(imodel.Bond
Bond
p511
(dp512
g13
g1
sg143
g144
sg23
g24
sg16
g8
((lp513
g368
ag360
atRp514
sbag501
ag425
ag407
atRp515
sg36
I00
sbag298
a(imodel.VarAtom
VarAtom
p516
(dp517
g3
S'H44'
p518
sg20
I00
sg21
Nsg22
(imodel.Atom
Atom
p519
(dp520
g3
g518
sg13
g1
sg14
S'H'
sg15
I00
sg16
g8
((lp521
g516
atRp522
sg36
I00
sbsg23
g24
sg37
g8
((lp523
g360
atRp524
sg14
S'H'
sg112
I0
sg15
I00
sg113
(F-317.38311811446931
F320.93148953628253
F0.92810755273073176
tp525
sg115
(lp526
sg13
g1
sg117
g8
((ltRp527
sg139
g8
((lp528
(imodel.Bond
Bond
p529
(dp530
g13
g1
sg143
g144
sg23
g24
sg16
g8
((lp531
g360
ag516
atRp532
sbatRp533
sg36
I00
sba(imodel.VarAtom
VarAtom
p534
(dp535
g3
S'O8'
p536
sg20
I00
sg21
Nsg22
(imodel.Atom
Atom
p537
(dp538
g3
g536
sg13
g1
sg14
S'O'
sg15
I00
sg16
g8
((lp539
g534
atRp540
sg36
I00
sbsg23
g24
sg37
g8
((lp541
g360
a(imodel.VarAtom
VarAtom
p542
(dp543
g3
S'HO8'
p544
sg20
I01
sg21
Nsg22
(imodel.Atom
Atom
p545
(dp546
g3
g544
sg13
g1
sg14
S'H'
sg15
I00
sg16
g8
((lp547
g542
atRp548
sg36
I00
sbsg23
g24
sg37
g8
((lp549
g534
atRp550
sg14
S'H'
sg112
I0
sg15
I00
sg113
(F-387.25995853471409
F373.92670469662039
F0.46805442944223641
tp551
sg115
(lp552
sg13
g1
sg117
g8
((ltRp553
sg139
g8
((lp554
(imodel.Bond
Bond
p555
(dp556
g13
g1
sg143
g144
sg23
g24
sg16
g8
((lp557
g534
ag542
atRp558
sbatRp559
sg36
I00
sbatRp560
sg14
S'O'
sg112
I0
sg15
I00
sg113
(F-342.22069498045619
F372.60477154301566
F0.060573594187829038
tp561
sg115
(lp562
sg13
g1
sg117
g8
((ltRp563
sg139
g8
((lp564
(imodel.Bond
Bond
p565
(dp566
g13
g1
sg143
g144
sg23
g24
sg16
g8
((lp567
g360
ag534
atRp568
sbag555
atRp569
sg36
I00
sbatRp570
sg14
S'C'
sg112
I0
sg15
I00
sg113
(F-295.22515500033091
F362.3123422859997
F0.076108681729179617
tp571
sg115
(lp572
sg13
g1
sg117
g8
((ltRp573
sg139
g8
((lp574
g511
a(imodel.Bond
Bond
p575
(dp576
g13
g1
sg143
g144
sg23
g24
sg16
g8
((lp577
g360
ag298
atRp578
sbag529
ag565
atRp579
sg36
I00
sbatRp580
sg14
S'C'
sg112
I0
sg15
I00
sg113
(F-245.35614606847889
F334.65242975212186
F0.35826881398367905
tp581
sg115
(lp582
sg13
g1
sg117
g8
((ltRp583
sg139
g8
((lp584
g575
a(imodel.Bond
Bond
p585
(dp586
g13
g1
sg143
g144
sg23
g24
sg16
g8
((lp587
g298
ag290
atRp588
sbag355
ag319
atRp589
sg36
I00
sba(imodel.VarAtom
VarAtom
p590
(dp591
g3
S'H40'
p592
sg20
I00
sg21
Nsg22
(imodel.Atom
Atom
p593
(dp594
g3
g592
sg13
g1
sg14
S'H'
sg15
I00
sg16
g8
((lp595
g590
atRp596
sg36
I00
sbsg23
g24
sg37
g8
((lp597
g290
atRp598
sg14
S'H'
sg112
I0
sg15
I00
sg113
(F-164.2240509958944
F291.46511369084129
F1.1722431623178633
tp599
sg115
(lp600
sg13
g1
sg117
g8
((ltRp601
sg139
g8
((lp602
(imodel.Bond
Bond
p603
(dp604
g13
g1
sg143
g144
sg23
g24
sg16
g8
((lp605
g290
ag590
atRp606
sbatRp607
sg36
I00
sba(imodel.VarAtom
VarAtom
p608
(dp609
g3
S'O5'
p610
sg20
I00
sg21
Nsg22
(imodel.Atom
Atom
p611
(dp612
g3
g610
sg13
g1
sg14
S'O'
sg15
I00
sg16
g8
((lp613
g608
atRp614
sg36
I00
sbsg23
g24
sg37
g8
((lp615
g290
a(imodel.VarAtom
VarAtom
p616
(dp617
g3
S'HO5'
p618
sg20
I01
sg21
Nsg22
(imodel.Atom
Atom
p619
(dp620
g3
g618
sg13
g1
sg14
S'H'
sg15
I00
sg16
g8
((lp621
g616
atRp622
sg36
I00
sbsg23
g24
sg37
g8
((lp623
g608
atRp624
sg14
S'H'
sg112
I0
sg15
I00
sg113
(F-91.237096448120781
F289.24709666292836
F1.1695150364975309
tp625
sg115
(lp626
sg13
g1
sg117
g8
((ltRp627
sg139
g8
((lp628
(imodel.Bond
Bond
p629
(dp630
g13
g1
sg143
g144
sg23
g24
sg16
g8
((lp631
g608
ag616
atRp632
sbatRp633
sg36
I00
sbatRp634
sg14
S'O'
sg112
I0
sg15
I00
sg113
(F-122.882441034294
F322.32898434223034
F0.97325933534984743
tp635
sg115
(lp636
sg13
g1
sg117
g8
((ltRp637
sg139
g8
((lp638
(imodel.Bond
Bond
p639
(dp640
g13
g1
sg143
g144
sg23
g24
sg16
g8
((lp641
g290
ag608
atRp642
sbag629
atRp643
sg36
I00
sbatRp644
sg14
S'C'
sg112
I0
sg15
I00
sg113
(F-169.72640455369014
F341.07415567692806
F0.64163924035511399
tp645
sg115
(lp646
sg13
g1
sg117
g8
((ltRp647
sg139
g8
((lp648
(imodel.Bond
Bond
p649
(dp650
g13
g1
sg143
g144
sg23
g24
sg16
g8
((lp651
g290
ag282
atRp652
sbag585
ag639
ag603
atRp653
sg36
I00
sba(imodel.VarAtom
VarAtom
p654
(dp655
g3
S'H41'
p656
sg20
I00
sg21
Nsg22
(imodel.Atom
Atom
p657
(dp658
g3
g656
sg13
g1
sg14
S'H'
sg15
I00
sg16
g8
((lp659
g654
atRp660
sg36
I00
sbsg23
g24
sg37
g8
((lp661
g282
atRp662
sg14
S'H'
sg112
I0
sg15
I00
sg113
(F-155.28791746243309
F444.43497707868642
F0.88631730745262016
tp663
sg115
(lp664
sg13
g1
sg117
g8
((ltRp665
sg139
g8
((lp666
(imodel.Bond
Bond
p667
(dp668
g13
g1
sg143
g144
sg23
g24
sg16
g8
((lp669
g282
ag654
atRp670
sbatRp671
sg36
I00
sbag430
ag274
atRp672
sg14
S'C'
sg112
I0
sg15
I00
sg113
(F-161.60343681380806
F397.30703464157619
F0.34399063159351639
tp673
sg115
(lp674
sg13
g1
sg117
g8
((ltRp675
sg139
g8
((lp676
g649
a(imodel.Bond
Bond
p677
(dp678
g13
g1
sg143
g144
sg23
g24
sg16
g8
((lp679
g282
ag274
atRp680
sbag497
ag667
atRp681
sg36
I00
sbag229
atRp682
sg14
S'O'
sg112
I0
sg15
I00
sg113
(F-114.10489745232184
F420.69927258292313
F0.43718124994158558
tp683
sg115
(lp684
sg13
g1
sg117
g8
((ltRp685
sg139
g8
((lp686
g677
a(imodel.Bond
Bond
p687
(dp688
g13
g1
sg143
g144
sg23
g24
sg16
g8
((lp689
g229
ag274
atRp690
sbatRp691
sg36
I00
sbatRp692
sg14
S'P'
sg112
I0
sg15
I00
sg113
(F-63.904429036147803
F417.86690780414733
F0.16754150349006658
tp693
sg115
(lp694
sg13
g1
sg117
g8
((ltRp695
sg139
g8
((lp696
g268
a(imodel.Bond
Bond
p697
(dp698
g13
g1
sg143
g144
sg23
g24
sg16
g8
((lp699
g229
ag221
atRp700
sbag250
ag687
atRp701
sg36
I00
sbatRp702
sg14
S'O'
sg112
I0
sg15
I00
sg113
(F-36.731509121299382
F373.10399806861176
F0.89810839918551733
tp703
sg115
(lp704
sg13
g1
sg117
g8
((ltRp705
sg139
g8
((lp706
(imodel.Bond
Bond
p707
(dp708
g13
g1
sg143
g144
sg23
g24
sg16
g8
((lp709
g221
ag170
atRp710
sbag697
atRp711
sg36
I00
sbag194
atRp712
sg14
S'C'
sg112
I0
sg15
I00
sg113
(F12.78481981925529
F364.83342058154255
F0.73968750846275599
tp713
sg115
(lp714
sg13
g1
sg117
g8
((ltRp715
sg139
g8
((lp716
(imodel.Bond
Bond
p717
(dp718
g13
g1
sg143
g144
sg23
g24
sg16
g8
((lp719
g170
ag87
atRp720
sbag707
ag216
ag208
atRp721
sg36
I00
sbag79
a(imodel.VarAtom
VarAtom
p722
(dp723
g3
S'H1'
p724
sg20
I00
sg21
Nsg22
(imodel.Atom
Atom
p725
(dp726
g3
g724
sg13
g1
sg14
S'H'
sg15
I00
sg16
g8
((lp727
g722
atRp728
sg36
I00
sbsg23
g24
sg37
g8
((lp729
g87
atRp730
sg14
S'H'
sg112
I0
sg15
I00
sg113
(F43.951402022409809
F425.83972414630864
F0.25152117234413085
tp731
sg115
(lp732
sg13
g1
sg117
g8
((ltRp733
sg139
g8
((lp734
(imodel.Bond
Bond
p735
(dp736
g13
g1
sg143
g144
sg23
g24
sg16
g8
((lp737
g87
ag722
atRp738
sbatRp739
sg36
I00
sbatRp740
sg14
S'C'
sg112
I0
sg15
I00
sg113
(F63.804818482940675
F385.55056697370736
F0.71949442493193883
tp741
sg115
(lp742
sg13
g1
sg117
g8
((ltRp743
sg139
g8
((lp744
g165
ag717
ag735
a(imodel.Bond
Bond
p745
(dp746
g13
g1
sg143
g144
sg23
g24
sg16
g8
((lp747
g87
ag79
atRp748
sbatRp749
sg36
I00
sbag71
atRp750
sg14
S'O'
sg112
I0
sg15
I00
sg113
(F88.889959857121681
F433.89906651269507
F0.17054725795732006
tp751
sg115
(lp752
sg13
g1
sg117
g8
((ltRp753
sg139
g8
((lp754
g745
a(imodel.Bond
Bond
p755
(dp756
g13
g1
sg143
g144
sg23
g24
sg16
g8
((lp757
g71
ag79
atRp758
sbatRp759
sg36
I00
sba(imodel.VarAtom
VarAtom
p760
(dp761
g3
S'O2'
p762
sg20
I00
sg21
Nsg22
(imodel.Atom
Atom
p763
(dp764
g3
g762
sg13
g1
sg14
S'O'
sg15
I00
sg16
g8
((lp765
g760
atRp766
sg36
I00
sbsg23
g24
sg37
g8
((lp767
g71
atRp768
sg14
S'O'
sg112
I0
sg15
I00
sg113
(F47.073463424289969
F518.65196766819508
F0.25131445286925602
tp769
sg115
(lp770
sg13
g1
sg117
g8
((ltRp771
sg139
g8
((lp772
(imodel.Bond
Bond
p773
(dp774
g13
g1
sg143
g270
sg23
g24
sg16
g8
((lp775
g71
ag760
atRp776
sbatRp777
sg36
I00
sbag63
atRp778
sg14
S'C'
sg112
I0
sg15
I00
sg113
(F80.65194220802465
F491.06767683747478
F0.24763577243811907
tp779
sg115
(lp780
sg13
g1
sg117
g8
((ltRp781
sg139
g8
((lp782
g755
a(imodel.Bond
Bond
p783
(dp784
g13
g1
sg143
g144
sg23
g24
sg16
g8
((lp785
g63
ag71
atRp786
sbag773
atRp787
sg36
I00
sba(imodel.VarAtom
VarAtom
p788
(dp789
g3
S'H5_1'
p790
sg20
I00
sg21
Nsg22
(imodel.Atom
Atom
p791
(dp792
g3
g790
sg13
g1
sg14
S'H'
sg15
I00
sg16
g8
((lp793
g788
atRp794
sg36
I00
sbsg23
g24
sg37
g8
((lp795
g63
atRp796
sg14
S'H'
sg112
I0
sg15
I00
sg113
(F126.6748383754821
F468.66790646628317
F0.67808133065141529
tp797
sg115
(lp798
sg13
g1
sg117
g8
((lp799
(imodel.AtomGroup
AtomGroup
p800
(dp801
g121
g122
sg123
g8
((ltRp802
sg16
g8
((lp803
g788
a(imodel.VarAtom
VarAtom
p804
(dp805
g3
S'H5_2'
p806
sg20
I00
sg21
Nsg22
(imodel.Atom
Atom
p807
(dp808
g3
g806
sg13
g1
sg14
S'H'
sg15
I00
sg16
g8
((lp809
g804
atRp810
sg36
I00
sbsg23
g24
sg37
g8
((lp811
g63
atRp812
sg14
S'H'
sg112
I0
sg15
I00
sg113
(F116.69068664488935
F554.22739857390866
F0.1956309239131413
tp813
sg115
(lp814
sg13
g1
sg117
g8
((lp815
g800
atRp816
sg139
g8
((lp817
(imodel.Bond
Bond
p818
(dp819
g13
g1
sg143
g144
sg23
g24
sg16
g8
((lp820
g63
ag804
atRp821
sbatRp822
sg36
I00
sbatRp823
sg23
g24
sg13
g1
sbatRp824
sg139
g8
((lp825
(imodel.Bond
Bond
p826
(dp827
g13
g1
sg143
g144
sg23
g24
sg16
g8
((lp828
g63
ag788
atRp829
sbatRp830
sg36
I00
sbag804
ag55
atRp831
sg14
S'C'
sg112
I0
sg15
I00
sg113
(F124.62634266524242
F506.59404340530784
F0.55695688954795031
tp832
sg115
(lp833
sg13
g1
sg117
g8
((ltRp834
sg139
g8
((lp835
g783
a(imodel.Bond
Bond
p836
(dp837
g13
g1
sg143
g144
sg23
g24
sg16
g8
((lp838
g55
ag63
atRp839
sbag826
ag818
atRp840
sg36
I00
sbag47
a(imodel.VarAtom
VarAtom
p841
(dp842
g3
S'H6_1'
p843
sg20
I00
sg21
Nsg22
(imodel.Atom
Atom
p844
(dp845
g3
g843
sg13
g1
sg14
S'H'
sg15
I00
sg16
g8
((lp846
g841
atRp847
sg36
I00
sbsg23
g24
sg37
g8
((lp848
g55
atRp849
sg14
S'H'
sg112
I0
sg15
I00
sg113
(F175.6740379954586
F530.68903951811217
F1.065457670110133
tp850
sg115
(lp851
sg13
g1
sg117
g8
((lp852
(imodel.AtomGroup
AtomGroup
p853
(dp854
g121
g122
sg123
g8
((ltRp855
sg16
g8
((lp856
g841
a(imodel.VarAtom
VarAtom
p857
(dp858
g3
S'H6_2'
p859
sg20
I00
sg21
Nsg22
(imodel.Atom
Atom
p860
(dp861
g3
g859
sg13
g1
sg14
S'H'
sg15
I00
sg16
g8
((lp862
g857
atRp863
sg36
I00
sbsg23
g24
sg37
g8
((lp864
g55
atRp865
sg14
S'H'
sg112
I0
sg15
I00
sg113
(F172.82783045726353
F451.79954397632116
F0.56017547120639299
tp866
sg115
(lp867
sg13
g1
sg117
g8
((lp868
g853
atRp869
sg139
g8
((lp870
(imodel.Bond
Bond
p871
(dp872
g13
g1
sg143
g144
sg23
g24
sg16
g8
((lp873
g55
ag857
atRp874
sbatRp875
sg36
I00
sbatRp876
sg23
g24
sg13
g1
sbatRp877
sg139
g8
((lp878
(imodel.Bond
Bond
p879
(dp880
g13
g1
sg143
g144
sg23
g24
sg16
g8
((lp881
g55
ag841
atRp882
sbatRp883
sg36
I00
sbag857
atRp884
sg14
S'C'
sg112
I0
sg15
I00
sg113
(F176.23123653510174
F492.17329919245492
F0.19017787901859473
tp885
sg115
(lp886
sg13
g1
sg117
g8
((ltRp887
sg139
g8
((lp888
g836
a(imodel.Bond
Bond
p889
(dp890
g13
g1
sg143
g144
sg23
g24
sg16
g8
((lp891
g47
ag55
atRp892
sbag871
ag879
atRp893
sg36
I00
sbag39
a(imodel.VarAtom
VarAtom
p894
(dp895
g3
S'H7_2'
p896
sg20
I00
sg21
Nsg22
(imodel.Atom
Atom
p897
(dp898
g3
g896
sg13
g1
sg14
S'H'
sg15
I00
sg16
g8
((lp899
g894
atRp900
sg36
I00
sbsg23
g24
sg37
g8
((lp901
g47
atRp902
sg14
S'H'
sg112
I0
sg15
I00
sg113
(F261.98266594348706
F464.45132576394172
F0.80330933346467104
tp903
sg115
(lp904
sg13
g1
sg117
g8
((lp905
(imodel.AtomGroup
AtomGroup
p906
(dp907
g121
g122
sg123
g8
((ltRp908
sg16
g8
((lp909
(imodel.VarAtom
VarAtom
p910
(dp911
g3
S'H7_1'
p912
sg20
I00
sg21
Nsg22
(imodel.Atom
Atom
p913
(dp914
g3
g912
sg13
g1
sg14
S'H'
sg15
I00
sg16
g8
((lp915
g910
atRp916
sg36
I00
sbsg23
g24
sg37
g8
((lp917
g47
atRp918
sg14
S'H'
sg112
I0
sg15
I00
sg113
(F223.25395283329453
F442.73359086030871
F0.86171829289602797
tp919
sg115
(lp920
sg13
g1
sg117
g8
((lp921
g906
atRp922
sg139
g8
((lp923
(imodel.Bond
Bond
p924
(dp925
g13
g1
sg143
g144
sg23
g24
sg16
g8
((lp926
g47
ag910
atRp927
sbatRp928
sg36
I00
sbag894
atRp929
sg23
g24
sg13
g1
sbatRp930
sg139
g8
((lp931
(imodel.Bond
Bond
p932
(dp933
g13
g1
sg143
g144
sg23
g24
sg16
g8
((lp934
g47
ag894
atRp935
sbatRp936
sg36
I00
sbag910
atRp937
sg14
S'C'
sg112
I0
sg15
I00
sg113
(F227.29499591165617
F484.38643391637794
F0.77721117158125685
tp938
sg115
(lp939
sg13
g1
sg117
g8
((ltRp940
sg139
g8
((lp941
g889
a(imodel.Bond
Bond
p942
(dp943
g13
g1
sg143
g144
sg23
g24
sg16
g8
((lp944
g39
ag47
atRp945
sbag924
ag932
atRp946
sg36
I00
sba(imodel.VarAtom
VarAtom
p947
(dp948
g3
S'H8_1'
p949
sg20
I00
sg21
Nsg22
(imodel.Atom
Atom
p950
(dp951
g3
g949
sg13
g1
sg14
S'H'
sg15
I00
sg16
g8
((lp952
g947
atRp953
sg36
I00
sbsg23
g24
sg37
g8
((lp954
g39
atRp955
sg14
S'H'
sg112
I0
sg15
I00
sg113
(F259.64043122289007
F580.55814438747234
F1.5249592907361866
tp956
sg115
(lp957
sg13
g1
sg117
g8
((lp958
(imodel.AtomGroup
AtomGroup
p959
(dp960
g121
g122
sg123
g8
((ltRp961
sg16
g8
((lp962
g947
ag29
atRp963
sg23
g24
sg13
g1
sbatRp964
sg139
g8
((lp965
(imodel.Bond
Bond
p966
(dp967
g13
g1
sg143
g144
sg23
g24
sg16
g8
((lp968
g39
ag947
atRp969
sbatRp970
sg36
I00
sbag29
a(imodel.VarAtom
VarAtom
p971
(dp972
g3
S'C9'
p973
sg20
I00
sg21
Nsg22
(imodel.Atom
Atom
p974
(dp975
g3
g973
sg13
g1
sg14
S'C'
sg15
I00
sg16
g8
((lp976
g971
atRp977
sg36
I00
sbsg23
g24
sg37
g8
((lp978
g39
a(imodel.VarAtom
VarAtom
p979
(dp980
g3
S'H9_1'
p981
sg20
I00
sg21
Nsg22
(imodel.Atom
Atom
p982
(dp983
g3
g981
sg13
g1
sg14
S'H'
sg15
I00
sg16
g8
((lp984
g979
atRp985
sg36
I00
sbsg23
g24
sg37
g8
((lp986
g971
atRp987
sg14
S'H'
sg112
I0
sg15
I00
sg113
(F300.66815565814494
F552.33051189010325
F1.1301113964487468
tp988
sg115
(lp989
sg13
g1
sg117
g8
((lp990
(imodel.AtomGroup
AtomGroup
p991
(dp992
g121
g122
sg123
g8
((ltRp993
sg16
g8
((lp994
g979
a(imodel.VarAtom
VarAtom
p995
(dp996
g3
S'H9_2'
p997
sg20
I00
sg21
Nsg22
(imodel.Atom
Atom
p998
(dp999
g3
g997
sg13
g1
sg14
S'H'
sg15
I00
sg16
g8
((lp1000
g995
atRp1001
sg36
I00
sbsg23
g24
sg37
g8
((lp1002
g971
atRp1003
sg14
S'H'
sg112
I0
sg15
I00
sg113
(F316.73386359545327
F465.86555325478037
F1.6003049541953831
tp1004
sg115
(lp1005
sg13
g1
sg117
g8
((lp1006
g991
atRp1007
sg139
g8
((lp1008
(imodel.Bond
Bond
p1009
(dp1010
g13
g1
sg143
g144
sg23
g24
sg16
g8
((lp1011
g971
ag995
atRp1012
sbatRp1013
sg36
I00
sbatRp1014
sg23
g24
sg13
g1
sbatRp1015
sg139
g8
((lp1016
(imodel.Bond
Bond
p1017
(dp1018
g13
g1
sg143
g144
sg23
g24
sg16
g8
((lp1019
g971
ag979
atRp1020
sbatRp1021
sg36
I00
sbag995
a(imodel.VarAtom
VarAtom
p1022
(dp1023
g3
S'C10'
p1024
sg20
I00
sg21
Nsg22
(imodel.Atom
Atom
p1025
(dp1026
g3
g1024
sg13
g1
sg14
S'C'
sg15
I00
sg16
g8
((lp1027
g1022
atRp1028
sg36
I00
sbsg23
g24
sg37
g8
((lp1029
g971
a(imodel.VarAtom
VarAtom
p1030
(dp1031
g3
S'H10_1'
p1032
sg20
I00
sg21
Nsg22
(imodel.Atom
Atom
p1033
(dp1034
g3
g1032
sg13
g1
sg14
S'H'
sg15
I00
sg16
g8
((lp1035
g1030
atRp1036
sg36
I00
sbsg23
g24
sg37
g8
((lp1037
g1022
atRp1038
sg14
S'H'
sg112
I0
sg15
I00
sg113
(F374.40882550755668
F562.89326624844512
F1.063252715761436
tp1039
sg115
(lp1040
sg13
g1
sg117
g8
((lp1041
(imodel.AtomGroup
AtomGroup
p1042
(dp1043
g121
g122
sg123
g8
((ltRp1044
sg16
g8
((lp1045
g1030
a(imodel.VarAtom
VarAtom
p1046
(dp1047
g3
S'H10_2'
p1048
sg20
I00
sg21
Nsg22
(imodel.Atom
Atom
p1049
(dp1050
g3
g1048
sg13
g1
sg14
S'H'
sg15
I00
sg16
g8
((lp1051
g1046
atRp1052
sg36
I00
sbsg23
g24
sg37
g8
((lp1053
g1022
atRp1054
sg14
S'H'
sg112
I0
sg15
I00
sg113
(F337.5412270925184
F586.22967705791848
F1.2097974458461618
tp1055
sg115
(lp1056
sg13
g1
sg117
g8
((lp1057
g1042
atRp1058
sg139
g8
((lp1059
(imodel.Bond
Bond
p1060
(dp1061
g13
g1
sg143
g144
sg23
g24
sg16
g8
((lp1062
g1022
ag1046
atRp1063
sbatRp1064
sg36
I00
sbatRp1065
sg23
g24
sg13
g1
sbatRp1066
sg139
g8
((lp1067
(imodel.Bond
Bond
p1068
(dp1069
g13
g1
sg143
g144
sg23
g24
sg16
g8
((lp1070
g1022
ag1030
atRp1071
sbatRp1072
sg36
I00
sbag1046
a(imodel.VarAtom
VarAtom
p1073
(dp1074
g3
S'C11'
p1075
sg20
I00
sg21
Nsg22
(imodel.Atom
Atom
p1076
(dp1077
g3
g1075
sg13
g1
sg14
S'C'
sg15
I00
sg16
g8
((lp1078
g1073
atRp1079
sg36
I00
sbsg23
g24
sg37
g8
((lp1080
g1022
a(imodel.VarAtom
VarAtom
p1081
(dp1082
g3
S'H11_1'
p1083
sg20
I00
sg21
Nsg22
(imodel.Atom
Atom
p1084
(dp1085
g3
g1083
sg13
g1
sg14
S'H'
sg15
I00
sg16
g8
((lp1086
g1081
atRp1087
sg36
I00
sbsg23
g24
sg37
g8
((lp1088
g1073
atRp1089
sg14
S'H'
sg112
I0
sg15
I00
sg113
(F373.57274773115506
F465.08616163475
F0.9345393113756395
tp1090
sg115
(lp1091
sg13
g1
sg117
g8
((lp1092
(imodel.AtomGroup
AtomGroup
p1093
(dp1094
g121
g122
sg123
g8
((ltRp1095
sg16
g8
((lp1096
g1081
a(imodel.VarAtom
VarAtom
p1097
(dp1098
g3
S'H11_2'
p1099
sg20
I00
sg21
Nsg22
(imodel.Atom
Atom
p1100
(dp1101
g3
g1099
sg13
g1
sg14
S'H'
sg15
I00
sg16
g8
((lp1102
g1097
atRp1103
sg36
I00
sbsg23
g24
sg37
g8
((lp1104
g1073
atRp1105
sg14
S'H'
sg112
I0
sg15
I00
sg113
(F422.77449673374588
F468.00856094327651
F1.9129196616872062
tp1106
sg115
(lp1107
sg13
g1
sg117
g8
((lp1108
g1093
atRp1109
sg139
g8
((lp1110
(imodel.Bond
Bond
p1111
(dp1112
g13
g1
sg143
g144
sg23
g24
sg16
g8
((lp1113
g1073
ag1097
atRp1114
sbatRp1115
sg36
I00
sbatRp1116
sg23
g24
sg13
g1
sbatRp1117
sg139
g8
((lp1118
(imodel.Bond
Bond
p1119
(dp1120
g13
g1
sg143
g144
sg23
g24
sg16
g8
((lp1121
g1073
ag1081
atRp1122
sbatRp1123
sg36
I00
sba(imodel.VarAtom
VarAtom
p1124
(dp1125
g3
S'C12'
p1126
sg20
I00
sg21
Nsg22
(imodel.Atom
Atom
p1127
(dp1128
g3
g1126
sg13
g1
sg14
S'C'
sg15
I00
sg16
g8
((lp1129
g1124
atRp1130
sg36
I00
sbsg23
g24
sg37
g8
((lp1131
g1073
a(imodel.VarAtom
VarAtom
p1132
(dp1133
g3
S'C13'
p1134
sg20
I00
sg21
Nsg22
(imodel.Atom
Atom
p1135
(dp1136
g3
g1134
sg13
g1
sg14
S'C'
sg15
I00
sg16
g8
((lp1137
g1132
atRp1138
sg36
I00
sbsg23
g24
sg37
g8
((lp1139
g1124
a(imodel.VarAtom
VarAtom
p1140
(dp1141
g3
S'C14'
p1142
sg20
I00
sg21
Nsg22
(imodel.Atom
Atom
p1143
(dp1144
g3
g1142
sg13
g1
sg14
S'C'
sg15
I00
sg16
g8
((lp1145
g1140
atRp1146
sg36
I00
sbsg23
g24
sg37
g8
((lp1147
g1132
a(imodel.VarAtom
VarAtom
p1148
(dp1149
g3
S'H14_1'
p1150
sg20
I00
sg21
Nsg22
(imodel.Atom
Atom
p1151
(dp1152
g3
g1150
sg13
g1
sg14
S'H'
sg15
I00
sg16
g8
((lp1153
g1148
atRp1154
sg36
I00
sbsg23
g24
sg37
g8
((lp1155
g1140
atRp1156
sg14
S'H'
sg112
I0
sg15
I00
sg113
(F514.73916054064784
F542.23415827525059
F0.42716731039265865
tp1157
sg115
(lp1158
sg13
g1
sg117
g8
((lp1159
(imodel.AtomGroup
AtomGroup
p1160
(dp1161
g121
g122
sg123
g8
((ltRp1162
sg16
g8
((lp1163
g1148
a(imodel.VarAtom
VarAtom
p1164
(dp1165
g3
S'H14_2'
p1166
sg20
I00
sg21
Nsg22
(imodel.Atom
Atom
p1167
(dp1168
g3
g1166
sg13
g1
sg14
S'H'
sg15
I00
sg16
g8
((lp1169
g1164
atRp1170
sg36
I00
sbsg23
g24
sg37
g8
((lp1171
g1140
atRp1172
sg14
S'H'
sg112
I0
sg15
I00
sg113
(F488.10311928107944
F460.36992108389768
F1.1414833660838488
tp1173
sg115
(lp1174
sg13
g1
sg117
g8
((lp1175
g1160
atRp1176
sg139
g8
((lp1177
(imodel.Bond
Bond
p1178
(dp1179
g13
g1
sg143
g144
sg23
g24
sg16
g8
((lp1180
g1140
ag1164
atRp1181
sbatRp1182
sg36
I00
sbatRp1183
sg23
g24
sg13
g1
sbatRp1184
sg139
g8
((lp1185
(imodel.Bond
Bond
p1186
(dp1187
g13
g1
sg143
g144
sg23
g24
sg16
g8
((lp1188
g1140
ag1148
atRp1189
sbatRp1190
sg36
I00
sbag1164
a(imodel.VarAtom
VarAtom
p1191
(dp1192
g3
S'C15'
p1193
sg20
I00
sg21
Nsg22
(imodel.Atom
Atom
p1194
(dp1195
g3
g1193
sg13
g1
sg14
S'C'
sg15
I00
sg16
g8
((lp1196
g1191
atRp1197
sg36
I00
sbsg23
g24
sg37
g8
((lp1198
g1140
a(imodel.VarAtom
VarAtom
p1199
(dp1200
g3
S'H15_1'
p1201
sg20
I00
sg21
Nsg22
(imodel.Atom
Atom
p1202
(dp1203
g3
g1201
sg13
g1
sg14
S'H'
sg15
I00
sg16
g8
((lp1204
g1199
atRp1205
sg36
I00
sbsg23
g24
sg37
g8
((lp1206
g1191
atRp1207
sg14
S'H'
sg112
I0
sg15
I00
sg113
(F554.9811828221018
F568.35551185545762
F0.91124261734536882
tp1208
sg115
(lp1209
sg13
g1
sg117
g8
((lp1210
(imodel.AtomGroup
AtomGroup
p1211
(dp1212
g121
g122
sg123
g8
((ltRp1213
sg16
g8
((lp1214
g1199
a(imodel.VarAtom
VarAtom
p1215
(dp1216
g3
S'H15_2'
p1217
sg20
I00
sg21
Nsg22
(imodel.Atom
Atom
p1218
(dp1219
g3
g1217
sg13
g1
sg14
S'H'
sg15
I00
sg16
g8
((lp1220
g1215
atRp1221
sg36
I00
sbsg23
g24
sg37
g8
((lp1222
g1191
atRp1223
sg14
S'H'
sg112
I0
sg15
I00
sg113
(F595.01298264592765
F550.11177283641302
F0.68287643391683939
tp1224
sg115
(lp1225
sg13
g1
sg117
g8
((lp1226
g1211
atRp1227
sg139
g8
((lp1228
(imodel.Bond
Bond
p1229
(dp1230
g13
g1
sg143
g144
sg23
g24
sg16
g8
((lp1231
g1191
ag1215
atRp1232
sbatRp1233
sg36
I00
sbatRp1234
sg23
g24
sg13
g1
sbatRp1235
sg139
g8
((lp1236
(imodel.Bond
Bond
p1237
(dp1238
g13
g1
sg143
g144
sg23
g24
sg16
g8
((lp1239
g1191
ag1199
atRp1240
sbatRp1241
sg36
I00
sba(imodel.VarAtom
VarAtom
p1242
(dp1243
g3
S'C16'
p1244
sg20
I00
sg21
Nsg22
(imodel.Atom
Atom
p1245
(dp1246
g3
g1244
sg13
g1
sg14
S'C'
sg15
I00
sg16
g8
((lp1247
g1242
atRp1248
sg36
I00
sbsg23
g24
sg37
g8
((lp1249
g1191
a(imodel.VarAtom
VarAtom
p1250
(dp1251
g3
S'C17'
p1252
sg20
I00
sg21
Nsg22
(imodel.Atom
Atom
p1253
(dp1254
g3
g1252
sg13
g1
sg14
S'C'
sg15
I00
sg16
g8
((lp1255
g1250
atRp1256
sg36
I00
sbsg23
g24
sg37
g8
((lp1257
g1242
a(imodel.VarAtom
VarAtom
p1258
(dp1259
g3
S'H17_1'
p1260
sg20
I00
sg21
Nsg22
(imodel.Atom
Atom
p1261
(dp1262
g3
g1260
sg13
g1
sg14
S'H'
sg15
I00
sg16
g8
((lp1263
g1258
atRp1264
sg36
I00
sbsg23
g24
sg37
g8
((lp1265
g1250
atRp1266
sg14
S'H'
sg112
I0
sg15
I00
sg113
(F619.71692669945742
F501.86471180276135
F1.1103653062084935
tp1267
sg115
(lp1268
sg13
g1
sg117
g8
((lp1269
(imodel.AtomGroup
AtomGroup
p1270
(dp1271
g121
g122
sg123
g8
((ltRp1272
sg16
g8
((lp1273
g1258
a(imodel.VarAtom
VarAtom
p1274
(dp1275
g3
S'H17_2'
p1276
sg20
I00
sg21
Nsg22
(imodel.Atom
Atom
p1277
(dp1278
g3
g1276
sg13
g1
sg14
S'H'
sg15
I00
sg16
g8
((lp1279
g1274
atRp1280
sg36
I00
sbsg23
g24
sg37
g8
((lp1281
g1250
atRp1282
sg14
S'H'
sg112
I0
sg15
I00
sg113
(F649.51943894659917
F426.463980691335
F1.8100642130763474
tp1283
sg115
(lp1284
sg13
g1
sg117
g8
((lp1285
g1270
atRp1286
sg139
g8
((lp1287
(imodel.Bond
Bond
p1288
(dp1289
g13
g1
sg143
g144
sg23
g24
sg16
g8
((lp1290
g1250
ag1274
atRp1291
sbatRp1292
sg36
I00
sbatRp1293
sg23
g24
sg13
g1
sbatRp1294
sg139
g8
((lp1295
(imodel.Bond
Bond
p1296
(dp1297
g13
g1
sg143
g144
sg23
g24
sg16
g8
((lp1298
g1250
ag1258
atRp1299
sbatRp1300
sg36
I00
sba(imodel.VarAtom
VarAtom
p1301
(dp1302
g3
S'C18'
p1303
sg20
I00
sg21
Nsg22
(imodel.Atom
Atom
p1304
(dp1305
g3
g1303
sg13
g1
sg14
S'C'
sg15
I00
sg16
g8
((lp1306
g1301
atRp1307
sg36
I00
sbsg23
g24
sg37
g8
((lp1308
g1250
a(imodel.VarAtom
VarAtom
p1309
(dp1310
g3
S'H18_1'
p1311
sg20
I00
sg21
Nsg22
(imodel.Atom
Atom
p1312
(dp1313
g3
g1311
sg13
g1
sg14
S'H'
sg15
I00
sg16
g8
((lp1314
g1309
atRp1315
sg36
I00
sbsg23
g24
sg37
g8
((lp1316
g1301
atRp1317
sg14
S'H'
sg112
I0
sg15
I00
sg113
(F660.26068645764542
F532.05281523966619
F1.3785168996625106
tp1318
sg115
(lp1319
sg13
g1
sg117
g8
((lp1320
(imodel.AtomGroup
AtomGroup
p1321
(dp1322
g121
g122
sg123
g8
((ltRp1323
sg16
g8
((lp1324
g1309
a(imodel.VarAtom
VarAtom
p1325
(dp1326
g3
S'H18_2'
p1327
sg20
I00
sg21
Nsg22
(imodel.Atom
Atom
p1328
(dp1329
g3
g1327
sg13
g1
sg14
S'H'
sg15
I00
sg16
g8
((lp1330
g1325
atRp1331
sg36
I00
sbsg23
g24
sg37
g8
((lp1332
g1301
atRp1333
sg14
S'H'
sg112
I0
sg15
I00
sg113
(F702.74213654379514
F451.61254167929928
F1.0814621979706187
tp1334
sg115
(lp1335
sg13
g1
sg117
g8
((lp1336
g1321
atRp1337
sg139
g8
((lp1338
(imodel.Bond
Bond
p1339
(dp1340
g13
g1
sg143
g144
sg23
g24
sg16
g8
((lp1341
g1301
ag1325
atRp1342
sbatRp1343
sg36
I00
sbatRp1344
sg23
g24
sg13
g1
sbatRp1345
sg139
g8
((lp1346
(imodel.Bond
Bond
p1347
(dp1348
g13
g1
sg143
g144
sg23
g24
sg16
g8
((lp1349
g1301
ag1309
atRp1350
sbatRp1351
sg36
I00
sba(imodel.VarAtom
VarAtom
p1352
(dp1353
g3
S'C19'
p1354
sg20
I00
sg21
Nsg22
(imodel.Atom
Atom
p1355
(dp1356
g3
g1354
sg13
g1
sg14
S'C'
sg15
I00
sg16
g8
((lp1357
g1352
atRp1358
sg36
I00
sbsg23
g24
sg37
g8
((lp1359
g1301
a(imodel.VarAtom
VarAtom
p1360
(dp1361
g3
S'H19_1'
p1362
sg20
I00
sg21
Nsg22
(imodel.Atom
Atom
p1363
(dp1364
g3
g1362
sg13
g1
sg14
S'H'
sg15
I00
sg16
g8
((lp1365
g1360
atRp1366
sg36
I00
sbsg23
g24
sg37
g8
((lp1367
g1352
atRp1368
sg14
S'H'
sg112
I0
sg15
I00
sg113
(F739.96604797936675
F580.70701734354952
F1.2987698124273876
tp1369
sg115
(lp1370
sg13
g1
sg117
g8
((lp1371
(imodel.AtomGroup
AtomGroup
p1372
(dp1373
g121
g122
sg123
g8
((ltRp1374
sg16
g8
((lp1375
g1360
a(imodel.VarAtom
VarAtom
p1376
(dp1377
g3
S'H19_2'
p1378
sg20
I00
sg21
Nsg22
(imodel.Atom
Atom
p1379
(dp1380
g3
g1378
sg13
g1
sg14
S'H'
sg15
I00
sg16
g8
((lp1381
g1376
atRp1382
sg36
I00
sbsg23
g24
sg37
g8
((lp1383
g1352
atRp1384
sg14
S'H'
sg112
I0
sg15
I00
sg113
(F691.79828709893991
F573.61491921211154
F1.8201090415372132
tp1385
sg115
(lp1386
sg13
g1
sg117
g8
((lp1387
g1372
atRp1388
sg139
g8
((lp1389
(imodel.Bond
Bond
p1390
(dp1391
g13
g1
sg143
g144
sg23
g24
sg16
g8
((lp1392
g1352
ag1376
atRp1393
sbatRp1394
sg36
I00
sbatRp1395
sg23
g24
sg13
g1
sbatRp1396
sg139
g8
((lp1397
(imodel.Bond
Bond
p1398
(dp1399
g13
g1
sg143
g144
sg23
g24
sg16
g8
((lp1400
g1352
ag1360
atRp1401
sbatRp1402
sg36
I00
sba(imodel.VarAtom
VarAtom
p1403
(dp1404
g3
S'C20'
p1405
sg20
I00
sg21
Nsg22
(imodel.Atom
Atom
p1406
(dp1407
g3
g1405
sg13
g1
sg14
S'C'
sg15
I00
sg16
g8
((lp1408
g1403
atRp1409
sg36
I00
sbsg23
g24
sg37
g8
((lp1410
g1352
a(imodel.VarAtom
VarAtom
p1411
(dp1412
g3
S'C21'
p1413
sg20
I00
sg21
Nsg22
(imodel.Atom
Atom
p1414
(dp1415
g3
g1413
sg13
g1
sg14
S'C'
sg15
I00
sg16
g8
((lp1416
g1411
atRp1417
sg36
I00
sbsg23
g24
sg37
g8
((lp1418
g1403
a(imodel.VarAtom
VarAtom
p1419
(dp1420
g3
S'H21_1'
p1421
sg20
I00
sg21
Nsg22
(imodel.Atom
Atom
p1422
(dp1423
g3
g1421
sg13
g1
sg14
S'H'
sg15
I00
sg16
g8
((lp1424
g1419
atRp1425
sg36
I00
sbsg23
g24
sg37
g8
((lp1426
g1411
atRp1427
sg14
S'H'
sg112
I0
sg15
I00
sg113
(F838.31374625468311
F537.99672846110536
F0.86040235553350353
tp1428
sg115
(lp1429
sg13
g1
sg117
g8
((lp1430
(imodel.AtomGroup
AtomGroup
p1431
(dp1432
g121
S'equivalent'
p1433
sg123
g8
((ltRp1434
sg16
g8
((lp1435
g1419
a(imodel.VarAtom
VarAtom
p1436
(dp1437
g3
S'H21_2'
p1438
sg20
I00
sg21
Nsg22
(imodel.Atom
Atom
p1439
(dp1440
g3
g1438
sg13
g1
sg14
S'H'
sg15
I00
sg16
g8
((lp1441
g1436
atRp1442
sg36
I00
sbsg23
g24
sg37
g8
((lp1443
g1411
atRp1444
sg14
S'H'
sg112
I0
sg15
I00
sg113
(F823.72431324031004
F457.55735652339501
F1.2926313464224131
tp1445
sg115
(lp1446
sg13
g1
sg117
g8
((lp1447
g1431
atRp1448
sg139
g8
((lp1449
(imodel.Bond
Bond
p1450
(dp1451
g13
g1
sg143
g144
sg23
g24
sg16
g8
((lp1452
g1411
ag1436
atRp1453
sbatRp1454
sg36
I00
sba(imodel.VarAtom
VarAtom
p1455
(dp1456
g3
S'H21_3'
p1457
sg20
I00
sg21
Nsg22
(imodel.Atom
Atom
p1458
(dp1459
g3
g1457
sg13
g1
sg14
S'H'
sg15
I00
sg16
g8
((lp1460
g1455
atRp1461
sg36
I00
sbsg23
g24
sg37
g8
((lp1462
g1411
atRp1463
sg14
S'H'
sg112
I0
sg15
I00
sg113
(F865.3768335723563
F491.49852470987798
F1.1085116523572993
tp1464
sg115
(lp1465
sg13
g1
sg117
g8
((lp1466
g1431
atRp1467
sg139
g8
((lp1468
(imodel.Bond
Bond
p1469
(dp1470
g13
g1
sg143
g144
sg23
g24
sg16
g8
((lp1471
g1411
ag1455
atRp1472
sbatRp1473
sg36
I00
sbatRp1474
sg23
g24
sg13
g1
sbatRp1475
sg139
g8
((lp1476
(imodel.Bond
Bond
p1477
(dp1478
g13
g1
sg143
g144
sg23
g24
sg16
g8
((lp1479
g1411
ag1419
atRp1480
sbatRp1481
sg36
I00
sbag1455
ag1436
atRp1482
sg14
S'C'
sg112
I0
sg15
I00
sg113
(F823.63513059271804
F498.93241687408306
F0.43385092803532355
tp1483
sg115
(lp1484
sg13
g1
sg117
g8
((ltRp1485
sg139
g8
((lp1486
(imodel.Bond
Bond
p1487
(dp1488
g13
g1
sg143
g144
sg23
g24
sg16
g8
((lp1489
g1411
ag1403
atRp1490
sbag1477
ag1450
ag1469
atRp1491
sg36
I00
sba(imodel.VarAtom
VarAtom
p1492
(dp1493
g3
S'H20_2'
p1494
sg20
I00
sg21
Nsg22
(imodel.Atom
Atom
p1495
(dp1496
g3
g1494
sg13
g1
sg14
S'H'
sg15
I00
sg16
g8
((lp1497
g1492
atRp1498
sg36
I00
sbsg23
g24
sg37
g8
((lp1499
g1403
atRp1500
sg14
S'H'
sg112
I0
sg15
I00
sg113
(F761.41614983905174
F470.76776382389772
F1.638212991883037
tp1501
sg115
(lp1502
sg13
g1
sg117
g8
((lp1503
(imodel.AtomGroup
AtomGroup
p1504
(dp1505
g121
g122
sg123
g8
((ltRp1506
sg16
g8
((lp1507
(imodel.VarAtom
VarAtom
p1508
(dp1509
g3
S'H20_1'
p1510
sg20
I00
sg21
Nsg22
(imodel.Atom
Atom
p1511
(dp1512
g3
g1510
sg13
g1
sg14
S'H'
sg15
I00
sg16
g8
((lp1513
g1508
atRp1514
sg36
I00
sbsg23
g24
sg37
g8
((lp1515
g1403
atRp1516
sg14
S'H'
sg112
I0
sg15
I00
sg113
(F781.83233485277583
F546.45573820194113
F0.53536114099659837
tp1517
sg115
(lp1518
sg13
g1
sg117
g8
((lp1519
g1504
atRp1520
sg139
g8
((lp1521
(imodel.Bond
Bond
p1522
(dp1523
g13
g1
sg143
g144
sg23
g24
sg16
g8
((lp1524
g1403
ag1508
atRp1525
sbatRp1526
sg36
I00
sbag1492
atRp1527
sg23
g24
sg13
g1
sbatRp1528
sg139
g8
((lp1529
(imodel.Bond
Bond
p1530
(dp1531
g13
g1
sg143
g144
sg23
g24
sg16
g8
((lp1532
g1403
ag1492
atRp1533
sbatRp1534
sg36
I00
sbag1508
atRp1535
sg14
S'C'
sg112
I0
sg15
I00
sg113
(F769.41406179796809
F509.93185204328529
F0.77664597115683698
tp1536
sg115
(lp1537
sg13
g1
sg117
g8
((ltRp1538
sg139
g8
((lp1539
(imodel.Bond
Bond
p1540
(dp1541
g13
g1
sg143
g144
sg23
g24
sg16
g8
((lp1542
g1403
ag1352
atRp1543
sbag1487
ag1522
ag1530
atRp1544
sg36
I00
sbag1376
atRp1545
sg14
S'C'
sg112
I0
sg15
I00
sg113
(F722.02379912683557
F535.39901542953032
F0.26356149261938622
tp1546
sg115
(lp1547
sg13
g1
sg117
g8
((ltRp1548
sg139
g8
((lp1549
(imodel.Bond
Bond
p1550
(dp1551
g13
g1
sg143
g144
sg23
g24
sg16
g8
((lp1552
g1352
ag1301
atRp1553
sbag1540
ag1390
ag1398
atRp1554
sg36
I00
sbag1325
atRp1555
sg14
S'C'
sg112
I0
sg15
I00
sg113
(F680.36631127499322
F492.42701935680043
F0.62905407090157961
tp1556
sg115
(lp1557
sg13
g1
sg117
g8
((ltRp1558
sg139
g8
((lp1559
(imodel.Bond
Bond
p1560
(dp1561
g13
g1
sg143
g144
sg23
g24
sg16
g8
((lp1562
g1301
ag1250
atRp1563
sbag1550
ag1339
ag1347
atRp1564
sg36
I00
sbag1274
atRp1565
sg14
S'C'
sg112
I0
sg15
I00
sg113
(F633.40199853259628
F468.31815979265281
F0.16611997474140339
tp1566
sg115
(lp1567
sg13
g1
sg117
g8
((ltRp1568
sg139
g8
((lp1569
(imodel.Bond
Bond
p1570
(dp1571
g13
g1
sg143
g144
sg23
g24
sg16
g8
((lp1572
g1250
ag1242
atRp1573
sbag1560
ag1288
ag1296
atRp1574
sg36
I00
sba(imodel.VarAtom
VarAtom
p1575
(dp1576
g3
S'H16_1'
p1577
sg20
I00
sg21
Nsg22
(imodel.Atom
Atom
p1578
(dp1579
g3
g1577
sg13
g1
sg14
S'H'
sg15
I00
sg16
g8
((lp1580
g1575
atRp1581
sg36
I00
sbsg23
g24
sg37
g8
((lp1582
g1242
atRp1583
sg14
S'H'
sg112
I0
sg15
I00
sg113
(F586.72459873010871
F425.73491693479741
F0.66091012674610849
tp1584
sg115
(lp1585
sg13
g1
sg117
g8
((lp1586
(imodel.AtomGroup
AtomGroup
p1587
(dp1588
g121
g122
sg123
g8
((ltRp1589
sg16
g8
((lp1590
g1575
a(imodel.VarAtom
VarAtom
p1591
(dp1592
g3
S'H16_2'
p1593
sg20
I00
sg21
Nsg22
(imodel.Atom
Atom
p1594
(dp1595
g3
g1593
sg13
g1
sg14
S'H'
sg15
I00
sg16
g8
((lp1596
g1591
atRp1597
sg36
I00
sbsg23
g24
sg37
g8
((lp1598
g1242
atRp1599
sg14
S'H'
sg112
I0
sg15
I00
sg113
(F544.57661013836378
F442.96947133829718
F1.5421332836209851
tp1600
sg115
(lp1601
sg13
g1
sg117
g8
((lp1602
g1587
atRp1603
sg139
g8
((lp1604
(imodel.Bond
Bond
p1605
(dp1606
g13
g1
sg143
g144
sg23
g24
sg16
g8
((lp1607
g1242
ag1591
atRp1608
sbatRp1609
sg36
I00
sbatRp1610
sg23
g24
sg13
g1
sbatRp1611
sg139
g8
((lp1612
(imodel.Bond
Bond
p1613
(dp1614
g13
g1
sg143
g144
sg23
g24
sg16
g8
((lp1615
g1242
ag1575
atRp1616
sbatRp1617
sg36
I00
sbag1591
atRp1618
sg14
S'C'
sg112
I0
sg15
I00
sg113
(F579.40605010293416
F465.56468223732043
F0.63576818429178594
tp1619
sg115
(lp1620
sg13
g1
sg117
g8
((ltRp1621
sg139
g8
((lp1622
(imodel.Bond
Bond
p1623
(dp1624
g13
g1
sg143
g144
sg23
g24
sg16
g8
((lp1625
g1242
ag1191
atRp1626
sbag1570
ag1613
ag1605
atRp1627
sg36
I00
sbag1215
atRp1628
sg14
S'C'
sg112
I0
sg15
I00
sg113
(F559.99512979650251
F516.98974288979662
F0.82391087157039899
tp1629
sg115
(lp1630
sg13
g1
sg117
g8
((ltRp1631
sg139
g8
((lp1632
(imodel.Bond
Bond
p1633
(dp1634
g13
g1
sg143
g144
sg23
g24
sg16
g8
((lp1635
g1191
ag1140
atRp1636
sbag1623
ag1237
ag1229
atRp1637
sg36
I00
sbatRp1638
sg14
S'C'
sg112
I0
sg15
I00
sg113
(F510.06990341500841
F501.15096367753182
F0.31437935124344796
tp1639
sg115
(lp1640
sg13
g1
sg117
g8
((ltRp1641
sg139
g8
((lp1642
(imodel.Bond
Bond
p1643
(dp1644
g13
g1
sg143
g144
sg23
g24
sg16
g8
((lp1645
g1140
ag1132
atRp1646
sbag1633
ag1186
ag1178
atRp1647
sg36
I00
sba(imodel.VarAtom
VarAtom
p1648
(dp1649
g3
S'H13'
p1650
sg20
I00
sg21
Nsg22
(imodel.Atom
Atom
p1651
(dp1652
g3
g1650
sg13
g1
sg14
S'H'
sg15
I00
sg16
g8
((lp1653
g1648
atRp1654
sg36
I00
sbsg23
g24
sg37
g8
((lp1655
g1132
atRp1656
sg14
S'H'
sg112
I0
sg15
I00
sg113
(F474.33398695042422
F576.24639257795047
F0.82113026261265143
tp1657
sg115
(lp1658
sg13
g1
sg117
g8
((ltRp1659
sg139
g8
((lp1660
(imodel.Bond
Bond
p1661
(dp1662
g13
g1
sg143
g144
sg23
g24
sg16
g8
((lp1663
g1132
ag1648
atRp1664
sbatRp1665
sg36
I00
sbatRp1666
sg14
S'C'
sg112
I0
sg15
I00
sg113
(F464.88710310247211
F535.0738668871486
F0.34842068792252523
tp1667
sg115
(lp1668
sg13
g1
sg117
g8
((ltRp1669
sg139
g8
((lp1670
(imodel.Bond
Bond
p1671
(dp1672
g13
g1
sg143
g270
sg23
g24
sg16
g8
((lp1673
g1124
ag1132
atRp1674
sbag1643
ag1661
atRp1675
sg36
I00
sba(imodel.VarAtom
VarAtom
p1676
(dp1677
g3
S'H12'
p1678
sg20
I00
sg21
Nsg22
(imodel.Atom
Atom
p1679
(dp1680
g3
g1678
sg13
g1
sg14
S'H'
sg15
I00
sg16
g8
((lp1681
g1676
atRp1682
sg36
I00
sbsg23
g24
sg37
g8
((lp1683
g1124
atRp1684
sg14
S'H'
sg112
I0
sg15
I00
sg113
(F422.93231513016207
F571.76580397416717
F1.2883920049762627
tp1685
sg115
(lp1686
sg13
g1
sg117
g8
((ltRp1687
sg139
g8
((lp1688
(imodel.Bond
Bond
p1689
(dp1690
g13
g1
sg143
g144
sg23
g24
sg16
g8
((lp1691
g1124
ag1676
atRp1692
sbatRp1693
sg36
I00
sbatRp1694
sg14
S'C'
sg112
I0
sg15
I00
sg113
(F426.7232205515034
F533.94854690557008
F0.1761385731948566
tp1695
sg115
(lp1696
sg13
g1
sg117
g8
((ltRp1697
sg139
g8
((lp1698
(imodel.Bond
Bond
p1699
(dp1700
g13
g1
sg143
g144
sg23
g24
sg16
g8
((lp1701
g1124
ag1073
atRp1702
sbag1671
ag1689
atRp1703
sg36
I00
sbag1097
atRp1704
sg14
S'C'
sg112
I0
sg15
I00
sg113
(F389.98795837805926
F501.08688649112958
F0.36858114085338012
tp1705
sg115
(lp1706
sg13
g1
sg117
g8
((ltRp1707
sg139
g8
((lp1708
(imodel.Bond
Bond
p1709
(dp1710
g13
g1
sg143
g144
sg23
g24
sg16
g8
((lp1711
g1073
ag1022
atRp1712
sbag1699
ag1119
ag1111
atRp1713
sg36
I00
sbatRp1714
sg14
S'C'
sg112
I0
sg15
I00
sg113
(F349.95703141381961
F534.84841751684053
F0.84678530631618598
tp1715
sg115
(lp1716
sg13
g1
sg117
g8
((ltRp1717
sg139
g8
((lp1718
(imodel.Bond
Bond
p1719
(dp1720
g13
g1
sg143
g144
sg23
g24
sg16
g8
((lp1721
g1022
ag971
atRp1722
sbag1709
ag1060
ag1068
atRp1723
sg36
I00
sbatRp1724
sg14
S'C'
sg112
I0
sg15
I00
sg113
(F305.40871025735493
F510.99889580429141
F0.028664228546469217
tp1725
sg115
(lp1726
sg13
g1
sg117
g8
((ltRp1727
sg139
g8
((lp1728
(imodel.Bond
Bond
p1729
(dp1730
g13
g1
sg143
g144
sg23
g24
sg16
g8
((lp1731
g971
ag39
atRp1732
sbag1719
ag1017
ag1009
atRp1733
sg36
I00
sbatRp1734
sg14
S'C'
sg112
I0
sg15
I00
sg113
(F250.00033994020697
F531.91633576366689
F0.59137767903732741
tp1735
sg115
(lp1736
sg13
g1
sg117
g8
((ltRp1737
sg139
g8
((lp1738
g942
ag1729
a(imodel.Bond
Bond
p1739
(dp1740
g13
g1
sg143
g144
sg23
g24
sg16
g8
((lp1741
g39
ag29
atRp1742
sbag966
atRp1743
sg36
I00
sbatRp1744
sg14
S'H'
sg112
I0
sg15
I00
sg113
(F216.09707316577089
F565.11335681210437
F0.92999166651148657
tp1745
sg115
(lp1746
sg13
g1
sg117
g8
((lp1747
g959
atRp1748
sg139
g8
((lp1749
g1739
atRp1750
sg36
I00
sba(imodel.VarAtom
VarAtom
p1751
(dp1752
g3
S'H39_3'
p1753
sg20
I00
sg21
Nsg22
(imodel.Atom
Atom
p1754
(dp1755
g3
g1753
sg13
g1
sg14
S'H'
sg15
I00
sg16
g8
((lp1756
g1751
atRp1757
sg36
I00
sbsg23
g24
sg37
g8
((lp1758
(imodel.VarAtom
VarAtom
p1759
(dp1760
g3
S'C39'
p1761
sg20
I00
sg21
Nsg22
(imodel.Atom
Atom
p1762
(dp1763
g3
g1761
sg13
g1
sg14
S'C'
sg15
I00
sg16
g8
((lp1764
g1759
atRp1765
sg36
I00
sbsg23
g24
sg37
g8
((lp1766
(imodel.VarAtom
VarAtom
p1767
(dp1768
g3
S'C38'
p1769
sg20
I00
sg21
Nsg22
(imodel.Atom
Atom
p1770
(dp1771
g3
g1769
sg13
g1
sg14
S'C'
sg15
I00
sg16
g8
((lp1772
g1767
atRp1773
sg36
I00
sbsg23
g24
sg37
g8
((lp1774
(imodel.VarAtom
VarAtom
p1775
(dp1776
g3
S'C37'
p1777
sg20
I00
sg21
Nsg22
(imodel.Atom
Atom
p1778
(dp1779
g3
g1777
sg13
g1
sg14
S'C'
sg15
I00
sg16
g8
((lp1780
g1775
atRp1781
sg36
I00
sbsg23
g24
sg37
g8
((lp1782
(imodel.VarAtom
VarAtom
p1783
(dp1784
g3
S'C36'
p1785
sg20
I00
sg21
Nsg22
(imodel.Atom
Atom
p1786
(dp1787
g3
g1785
sg13
g1
sg14
S'C'
sg15
I00
sg16
g8
((lp1788
g1783
atRp1789
sg36
I00
sbsg23
g24
sg37
g8
((lp1790
(imodel.VarAtom
VarAtom
p1791
(dp1792
g3
S'C35'
p1793
sg20
I00
sg21
Nsg22
(imodel.Atom
Atom
p1794
(dp1795
g3
g1793
sg13
g1
sg14
S'C'
sg15
I00
sg16
g8
((lp1796
g1791
atRp1797
sg36
I00
sbsg23
g24
sg37
g8
((lp1798
(imodel.VarAtom
VarAtom
p1799
(dp1800
g3
S'C34'
p1801
sg20
I00
sg21
Nsg22
(imodel.Atom
Atom
p1802
(dp1803
g3
g1801
sg13
g1
sg14
S'C'
sg15
I00
sg16
g8
((lp1804
g1799
atRp1805
sg36
I00
sbsg23
g24
sg37
g8
((lp1806
(imodel.VarAtom
VarAtom
p1807
(dp1808
g3
S'C33'
p1809
sg20
I00
sg21
Nsg22
(imodel.Atom
Atom
p1810
(dp1811
g3
g1809
sg13
g1
sg14
S'C'
sg15
I00
sg16
g8
((lp1812
g1807
atRp1813
sg36
I00
sbsg23
g24
sg37
g8
((lp1814
(imodel.VarAtom
VarAtom
p1815
(dp1816
g3
S'C32'
p1817
sg20
I00
sg21
Nsg22
(imodel.Atom
Atom
p1818
(dp1819
g3
g1817
sg13
g1
sg14
S'C'
sg15
I00
sg16
g8
((lp1820
g1815
atRp1821
sg36
I00
sbsg23
g24
sg37
g8
((lp1822
(imodel.VarAtom
VarAtom
p1823
(dp1824
g3
S'C31'
p1825
sg20
I00
sg21
Nsg22
(imodel.Atom
Atom
p1826
(dp1827
g3
g1825
sg13
g1
sg14
S'C'
sg15
I00
sg16
g8
((lp1828
g1823
atRp1829
sg36
I00
sbsg23
g24
sg37
g8
((lp1830
(imodel.VarAtom
VarAtom
p1831
(dp1832
g3
S'C30'
p1833
sg20
I00
sg21
Nsg22
(imodel.Atom
Atom
p1834
(dp1835
g3
g1833
sg13
g1
sg14
S'C'
sg15
I00
sg16
g8
((lp1836
g1831
atRp1837
sg36
I00
sbsg23
g24
sg37
g8
((lp1838
(imodel.VarAtom
VarAtom
p1839
(dp1840
g3
S'C29'
p1841
sg20
I00
sg21
Nsg22
(imodel.Atom
Atom
p1842
(dp1843
g3
g1841
sg13
g1
sg14
S'C'
sg15
I00
sg16
g8
((lp1844
g1839
atRp1845
sg36
I00
sbsg23
g24
sg37
g8
((lp1846
(imodel.VarAtom
VarAtom
p1847
(dp1848
g3
S'C28'
p1849
sg20
I00
sg21
Nsg22
(imodel.Atom
Atom
p1850
(dp1851
g3
g1849
sg13
g1
sg14
S'C'
sg15
I00
sg16
g8
((lp1852
g1847
atRp1853
sg36
I00
sbsg23
g24
sg37
g8
((lp1854
(imodel.VarAtom
VarAtom
p1855
(dp1856
g3
S'C27'
p1857
sg20
I00
sg21
Nsg22
(imodel.Atom
Atom
p1858
(dp1859
g3
g1857
sg13
g1
sg14
S'C'
sg15
I00
sg16
g8
((lp1860
g1855
atRp1861
sg36
I00
sbsg23
g24
sg37
g8
((lp1862
(imodel.VarAtom
VarAtom
p1863
(dp1864
g3
S'C26'
p1865
sg20
I00
sg21
Nsg22
(imodel.Atom
Atom
p1866
(dp1867
g3
g1865
sg13
g1
sg14
S'C'
sg15
I00
sg16
g8
((lp1868
g1863
atRp1869
sg36
I00
sbsg23
g24
sg37
g8
((lp1870
(imodel.VarAtom
VarAtom
p1871
(dp1872
g3
S'C25'
p1873
sg20
I00
sg21
Nsg22
(imodel.Atom
Atom
p1874
(dp1875
g3
g1873
sg13
g1
sg14
S'C'
sg15
I00
sg16
g8
((lp1876
g1871
atRp1877
sg36
I00
sbsg23
g24
sg37
g8
((lp1878
(imodel.VarAtom
VarAtom
p1879
(dp1880
g3
S'C24'
p1881
sg20
I00
sg21
Nsg22
(imodel.Atom
Atom
p1882
(dp1883
g3
g1881
sg13
g1
sg14
S'C'
sg15
I00
sg16
g8
((lp1884
g1879
atRp1885
sg36
I00
sbsg23
g24
sg37
g8
((lp1886
(imodel.VarAtom
VarAtom
p1887
(dp1888
g3
S'C23'
p1889
sg20
I00
sg21
Nsg22
(imodel.Atom
Atom
p1890
(dp1891
g3
g1889
sg13
g1
sg14
S'C'
sg15
I00
sg16
g8
((lp1892
g1887
atRp1893
sg36
I00
sbsg23
g24
sg37
g8
((lp1894
(imodel.VarAtom
VarAtom
p1895
(dp1896
g3
S'C22'
p1897
sg20
I00
sg21
Nsg22
(imodel.Atom
Atom
p1898
(dp1899
g3
g1897
sg13
g1
sg14
S'C'
sg15
I00
sg16
g8
((lp1900
g1895
atRp1901
sg36
I00
sbsg23
g24
sg37
g8
((lp1902
g18
ag1887
a(imodel.VarAtom
VarAtom
p1903
(dp1904
g3
S'O4'
p1905
sg20
I00
sg21
Nsg22
(imodel.Atom
Atom
p1906
(dp1907
g3
g1905
sg13
g1
sg14
S'O'
sg15
I00
sg16
g8
((lp1908
g1903
atRp1909
sg36
I00
sbsg23
g24
sg37
g8
((lp1910
g1895
atRp1911
sg14
S'O'
sg112
I0
sg15
I00
sg113
(F134.70389737509859
F270.0260491574731
F0.22599152900704234
tp1912
sg115
(lp1913
sg13
g1
sg117
g8
((ltRp1914
sg139
g8
((lp1915
(imodel.Bond
Bond
p1916
(dp1917
g13
g1
sg143
g270
sg23
g24
sg16
g8
((lp1918
g1895
ag1903
atRp1919
sbatRp1920
sg36
I00
sbatRp1921
sg14
S'C'
sg112
I0
sg15
I00
sg113
(F150.09066041413129
F310.89164617494328
F0.14352833008413846
tp1922
sg115
(lp1923
sg13
g1
sg117
g8
((ltRp1924
sg139
g8
((lp1925
(imodel.Bond
Bond
p1926
(dp1927
g13
g1
sg143
g144
sg23
g24
sg16
g8
((lp1928
g1895
ag18
atRp1929
sba(imodel.Bond
Bond
p1930
(dp1931
g13
g1
sg143
g144
sg23
g24
sg16
g8
((lp1932
g1887
ag1895
atRp1933
sbag1916
atRp1934
sg36
I00
sbag1879
a(imodel.VarAtom
VarAtom
p1935
(dp1936
g3
S'H23_1'
p1937
sg20
I00
sg21
Nsg22
(imodel.Atom
Atom
p1938
(dp1939
g3
g1937
sg13
g1
sg14
S'H'
sg15
I00
sg16
g8
((lp1940
g1935
atRp1941
sg36
I00
sbsg23
g24
sg37
g8
((lp1942
g1887
atRp1943
sg14
S'H'
sg112
I0
sg15
I00
sg113
(F221.49714632614757
F361.86783131047542
F1.8068193973877424
tp1944
sg115
(lp1945
sg13
g1
sg117
g8
((lp1946
(imodel.AtomGroup
AtomGroup
p1947
(dp1948
g121
g122
sg123
g8
((ltRp1949
sg16
g8
((lp1950
g1935
a(imodel.VarAtom
VarAtom
p1951
(dp1952
g3
S'H23_2'
p1953
sg20
I00
sg21
Nsg22
(imodel.Atom
Atom
p1954
(dp1955
g3
g1953
sg13
g1
sg14
S'H'
sg15
I00
sg16
g8
((lp1956
g1951
atRp1957
sg36
I00
sbsg23
g24
sg37
g8
((lp1958
g1887
atRp1959
sg14
S'H'
sg112
I0
sg15
I00
sg113
(F172.61984159271017
F365.3565901266976
F1.0610539312669678
tp1960
sg115
(lp1961
sg13
g1
sg117
g8
((lp1962
g1947
atRp1963
sg139
g8
((lp1964
(imodel.Bond
Bond
p1965
(dp1966
g13
g1
sg143
g144
sg23
g24
sg16
g8
((lp1967
g1887
ag1951
atRp1968
sbatRp1969
sg36
I00
sbatRp1970
sg23
g24
sg13
g1
sbatRp1971
sg139
g8
((lp1972
(imodel.Bond
Bond
p1973
(dp1974
g13
g1
sg143
g144
sg23
g24
sg16
g8
((lp1975
g1887
ag1935
atRp1976
sbatRp1977
sg36
I00
sbag1951
atRp1978
sg14
S'C'
sg112
I0
sg15
I00
sg113
(F195.25051419645911
F330.71842679582238
F0.46301355768930486
tp1979
sg115
(lp1980
sg13
g1
sg117
g8
((ltRp1981
sg139
g8
((lp1982
g1930
a(imodel.Bond
Bond
p1983
(dp1984
g13
g1
sg143
g144
sg23
g24
sg16
g8
((lp1985
g1879
ag1887
atRp1986
sbag1965
ag1973
atRp1987
sg36
I00
sba(imodel.VarAtom
VarAtom
p1988
(dp1989
g3
S'H24_1'
p1990
sg20
I00
sg21
Nsg22
(imodel.Atom
Atom
p1991
(dp1992
g3
g1990
sg13
g1
sg14
S'H'
sg15
I00
sg16
g8
((lp1993
g1988
atRp1994
sg36
I00
sbsg23
g24
sg37
g8
((lp1995
g1879
atRp1996
sg14
S'H'
sg112
I0
sg15
I00
sg113
(F188.4591570060137
F266.61892735139588
F1.110284807442617
tp1997
sg115
(lp1998
sg13
g1
sg117
g8
((lp1999
(imodel.AtomGroup
AtomGroup
p2000
(dp2001
g121
g122
sg123
g8
((ltRp2002
sg16
g8
((lp2003
g1988
a(imodel.VarAtom
VarAtom
p2004
(dp2005
g3
S'H24_2'
p2006
sg20
I00
sg21
Nsg22
(imodel.Atom
Atom
p2007
(dp2008
g3
g2006
sg13
g1
sg14
S'H'
sg15
I00
sg16
g8
((lp2009
g2004
atRp2010
sg36
I00
sbsg23
g24
sg37
g8
((lp2011
g1879
atRp2012
sg14
S'H'
sg112
I0
sg15
I00
sg113
(F220.35634855494146
F232.87278911353206
F0.51991356545935885
tp2013
sg115
(lp2014
sg13
g1
sg117
g8
((lp2015
g2000
atRp2016
sg139
g8
((lp2017
(imodel.Bond
Bond
p2018
(dp2019
g13
g1
sg143
g144
sg23
g24
sg16
g8
((lp2020
g1879
ag2004
atRp2021
sbatRp2022
sg36
I00
sbatRp2023
sg23
g24
sg13
g1
sbatRp2024
sg139
g8
((lp2025
(imodel.Bond
Bond
p2026
(dp2027
g13
g1
sg143
g144
sg23
g24
sg16
g8
((lp2028
g1879
ag1988
atRp2029
sbatRp2030
sg36
I00
sbag2004
ag1871
atRp2031
sg14
S'C'
sg112
I0
sg15
I00
sg113
(F222.6578900679703
F283.21895032755373
F0.42364193118097848
tp2032
sg115
(lp2033
sg13
g1
sg117
g8
((ltRp2034
sg139
g8
((lp2035
g1983
a(imodel.Bond
Bond
p2036
(dp2037
g13
g1
sg143
g144
sg23
g24
sg16
g8
((lp2038
g1871
ag1879
atRp2039
sbag2026
ag2018
atRp2040
sg36
I00
sbag1863
a(imodel.VarAtom
VarAtom
p2041
(dp2042
g3
S'H25_2'
p2043
sg20
I00
sg21
Nsg22
(imodel.Atom
Atom
p2044
(dp2045
g3
g2043
sg13
g1
sg14
S'H'
sg15
I00
sg16
g8
((lp2046
g2041
atRp2047
sg36
I00
sbsg23
g24
sg37
g8
((lp2048
g1871
atRp2049
sg14
S'H'
sg112
I0
sg15
I00
sg113
(F271.88368416618681
F243.33413725473707
F0.85158582331032351
tp2050
sg115
(lp2051
sg13
g1
sg117
g8
((lp2052
(imodel.AtomGroup
AtomGroup
p2053
(dp2054
g121
g122
sg123
g8
((ltRp2055
sg16
g8
((lp2056
(imodel.VarAtom
VarAtom
p2057
(dp2058
g3
S'H25_1'
p2059
sg20
I00
sg21
Nsg22
(imodel.Atom
Atom
p2060
(dp2061
g3
g2059
sg13
g1
sg14
S'H'
sg15
I00
sg16
g8
((lp2062
g2057
atRp2063
sg36
I00
sbsg23
g24
sg37
g8
((lp2064
g1871
atRp2065
sg14
S'H'
sg112
I0
sg15
I00
sg113
(F269.52316962545655
F319.95130907070251
F1.2053559571807262
tp2066
sg115
(lp2067
sg13
g1
sg117
g8
((lp2068
g2053
atRp2069
sg139
g8
((lp2070
(imodel.Bond
Bond
p2071
(dp2072
g13
g1
sg143
g144
sg23
g24
sg16
g8
((lp2073
g1871
ag2057
atRp2074
sbatRp2075
sg36
I00
sbag2041
atRp2076
sg23
g24
sg13
g1
sbatRp2077
sg139
g8
((lp2078
(imodel.Bond
Bond
p2079
(dp2080
g13
g1
sg143
g144
sg23
g24
sg16
g8
((lp2081
g1871
ag2041
atRp2082
sbatRp2083
sg36
I00
sbag2057
atRp2084
sg14
S'C'
sg112
I0
sg15
I00
sg113
(F274.14104728329528
F282.20851896193926
F0.88869878582906769
tp2085
sg115
(lp2086
sg13
g1
sg117
g8
((ltRp2087
sg139
g8
((lp2088
g2036
a(imodel.Bond
Bond
p2089
(dp2090
g13
g1
sg143
g144
sg23
g24
sg16
g8
((lp2091
g1863
ag1871
atRp2092
sbag2071
ag2079
atRp2093
sg36
I00
sbag1855
a(imodel.VarAtom
VarAtom
p2094
(dp2095
g3
S'H26_2'
p2096
sg20
I00
sg21
Nsg22
(imodel.Atom
Atom
p2097
(dp2098
g3
g2096
sg13
g1
sg14
S'H'
sg15
I00
sg16
g8
((lp2099
g2094
atRp2100
sg36
I00
sbsg23
g24
sg37
g8
((lp2101
g1863
atRp2102
sg14
S'H'
sg112
I0
sg15
I00
sg113
(F323.27503854898231
F236.15886111799503
F0.075201658050812026
tp2103
sg115
(lp2104
sg13
g1
sg117
g8
((lp2105
(imodel.AtomGroup
AtomGroup
p2106
(dp2107
g121
g122
sg123
g8
((ltRp2108
sg16
g8
((lp2109
(imodel.VarAtom
VarAtom
p2110
(dp2111
g3
S'H26_1'
p2112
sg20
I00
sg21
Nsg22
(imodel.Atom
Atom
p2113
(dp2114
g3
g2112
sg13
g1
sg14
S'H'
sg15
I00
sg16
g8
((lp2115
g2110
atRp2116
sg36
I00
sbsg23
g24
sg37
g8
((lp2117
g1863
atRp2118
sg14
S'H'
sg112
I0
sg15
I00
sg113
(F361.91174891966631
F260.06390614100286
F0.55441897274905638
tp2119
sg115
(lp2120
sg13
g1
sg117
g8
((lp2121
g2106
atRp2122
sg139
g8
((lp2123
(imodel.Bond
Bond
p2124
(dp2125
g13
g1
sg143
g144
sg23
g24
sg16
g8
((lp2126
g1863
ag2110
atRp2127
sbatRp2128
sg36
I00
sbag2094
atRp2129
sg23
g24
sg13
g1
sbatRp2130
sg139
g8
((lp2131
(imodel.Bond
Bond
p2132
(dp2133
g13
g1
sg143
g144
sg23
g24
sg16
g8
((lp2134
g1863
ag2094
atRp2135
sbatRp2136
sg36
I00
sbag2110
atRp2137
sg14
S'C'
sg112
I0
sg15
I00
sg113
(F325.79746190912766
F278.92926936195119
F0.51531544949739772
tp2138
sg115
(lp2139
sg13
g1
sg117
g8
((ltRp2140
sg139
g8
((lp2141
g2089
a(imodel.Bond
Bond
p2142
(dp2143
g13
g1
sg143
g144
sg23
g24
sg16
g8
((lp2144
g1855
ag1863
atRp2145
sbag2132
ag2124
atRp2146
sg36
I00
sba(imodel.VarAtom
VarAtom
p2147
(dp2148
g3
S'H27_1'
p2149
sg20
I00
sg21
Nsg22
(imodel.Atom
Atom
p2150
(dp2151
g3
g2149
sg13
g1
sg14
S'H'
sg15
I00
sg16
g8
((lp2152
g2147
atRp2153
sg36
I00
sbsg23
g24
sg37
g8
((lp2154
g1855
atRp2155
sg14
S'H'
sg112
I0
sg15
I00
sg113
(F303.45263872291616
F362.33665869278184
F0.89648369474056633
tp2156
sg115
(lp2157
sg13
g1
sg117
g8
((lp2158
(imodel.AtomGroup
AtomGroup
p2159
(dp2160
g121
g122
sg123
g8
((ltRp2161
sg16
g8
((lp2162
g2147
a(imodel.VarAtom
VarAtom
p2163
(dp2164
g3
S'H27_2'
p2165
sg20
I00
sg21
Nsg22
(imodel.Atom
Atom
p2166
(dp2167
g3
g2165
sg13
g1
sg14
S'H'
sg15
I00
sg16
g8
((lp2168
g2163
atRp2169
sg36
I00
sbsg23
g24
sg37
g8
((lp2170
g1855
atRp2171
sg14
S'H'
sg112
I0
sg15
I00
sg113
(F343.35184864658851
F384.66811512202298
F0.9371742803737263
tp2172
sg115
(lp2173
sg13
g1
sg117
g8
((lp2174
g2159
atRp2175
sg139
g8
((lp2176
(imodel.Bond
Bond
p2177
(dp2178
g13
g1
sg143
g144
sg23
g24
sg16
g8
((lp2179
g1855
ag2163
atRp2180
sbatRp2181
sg36
I00
sbatRp2182
sg23
g24
sg13
g1
sbatRp2183
sg139
g8
((lp2184
(imodel.Bond
Bond
p2185
(dp2186
g13
g1
sg143
g144
sg23
g24
sg16
g8
((lp2187
g1855
ag2147
atRp2188
sbatRp2189
sg36
I00
sbag1847
ag2163
atRp2190
sg14
S'C'
sg112
I0
sg15
I00
sg113
(F343.97985102409825
F338.09329203481536
F0.43060970655758579
tp2191
sg115
(lp2192
sg13
g1
sg117
g8
((ltRp2193
sg139
g8
((lp2194
g2142
a(imodel.Bond
Bond
p2195
(dp2196
g13
g1
sg143
g144
sg23
g24
sg16
g8
((lp2197
g1847
ag1855
atRp2198
sbag2185
ag2177
atRp2199
sg36
I00
sba(imodel.VarAtom
VarAtom
p2200
(dp2201
g3
S'H28_1'
p2202
sg20
I00
sg21
Nsg22
(imodel.Atom
Atom
p2203
(dp2204
g3
g2202
sg13
g1
sg14
S'H'
sg15
I00
sg16
g8
((lp2205
g2200
atRp2206
sg36
I00
sbsg23
g24
sg37
g8
((lp2207
g1847
atRp2208
sg14
S'H'
sg112
I0
sg15
I00
sg113
(F395.87731026484681
F394.26351265735241
F1.2739938846316083
tp2209
sg115
(lp2210
sg13
g1
sg117
g8
((lp2211
(imodel.AtomGroup
AtomGroup
p2212
(dp2213
g121
g122
sg123
g8
((ltRp2214
sg16
g8
((lp2215
g2200
a(imodel.VarAtom
VarAtom
p2216
(dp2217
g3
S'H28_2'
p2218
sg20
I00
sg21
Nsg22
(imodel.Atom
Atom
p2219
(dp2220
g3
g2218
sg13
g1
sg14
S'H'
sg15
I00
sg16
g8
((lp2221
g2216
atRp2222
sg36
I00
sbsg23
g24
sg37
g8
((lp2223
g1847
atRp2224
sg14
S'H'
sg112
I0
sg15
I00
sg113
(F393.34648487241742
F305.84283985185488
F0.27577591370086196
tp2225
sg115
(lp2226
sg13
g1
sg117
g8
((lp2227
g2212
atRp2228
sg139
g8
((lp2229
(imodel.Bond
Bond
p2230
(dp2231
g13
g1
sg143
g144
sg23
g24
sg16
g8
((lp2232
g1847
ag2216
atRp2233
sbatRp2234
sg36
I00
sbatRp2235
sg23
g24
sg13
g1
sbatRp2236
sg139
g8
((lp2237
(imodel.Bond
Bond
p2238
(dp2239
g13
g1
sg143
g144
sg23
g24
sg16
g8
((lp2240
g1847
ag2200
atRp2241
sbatRp2242
sg36
I00
sbag1839
ag2216
atRp2243
sg14
S'C'
sg112
I0
sg15
I00
sg113
(F394.77064627156238
F348.59892021446404
F0.39278590674150859
tp2244
sg115
(lp2245
sg13
g1
sg117
g8
((ltRp2246
sg139
g8
((lp2247
g2195
a(imodel.Bond
Bond
p2248
(dp2249
g13
g1
sg143
g144
sg23
g24
sg16
g8
((lp2250
g1839
ag1847
atRp2251
sbag2230
ag2238
atRp2252
sg36
I00
sbag1831
a(imodel.VarAtom
VarAtom
p2253
(dp2254
g3
S'H29_1'
p2255
sg20
I00
sg21
Nsg22
(imodel.Atom
Atom
p2256
(dp2257
g3
g2255
sg13
g1
sg14
S'H'
sg15
I00
sg16
g8
((lp2258
g2253
atRp2259
sg36
I00
sbsg23
g24
sg37
g8
((lp2260
g1839
atRp2261
sg14
S'H'
sg112
I0
sg15
I00
sg113
(F484.69655391199171
F356.93341400451254
F0.84148890594545356
tp2262
sg115
(lp2263
sg13
g1
sg117
g8
((lp2264
(imodel.AtomGroup
AtomGroup
p2265
(dp2266
g121
g122
sg123
g8
((ltRp2267
sg16
g8
((lp2268
g2253
a(imodel.VarAtom
VarAtom
p2269
(dp2270
g3
S'H29_2'
p2271
sg20
I00
sg21
Nsg22
(imodel.Atom
Atom
p2272
(dp2273
g3
g2271
sg13
g1
sg14
S'H'
sg15
I00
sg16
g8
((lp2274
g2269
atRp2275
sg36
I00
sbsg23
g24
sg37
g8
((lp2276
g1839
atRp2277
sg14
S'H'
sg112
I0
sg15
I00
sg113
(F448.68123476077011
F383.14400904327618
F1.109434954759259
tp2278
sg115
(lp2279
sg13
g1
sg117
g8
((lp2280
g2265
atRp2281
sg139
g8
((lp2282
(imodel.Bond
Bond
p2283
(dp2284
g13
g1
sg143
g144
sg23
g24
sg16
g8
((lp2285
g1839
ag2269
atRp2286
sbatRp2287
sg36
I00
sbatRp2288
sg23
g24
sg13
g1
sbatRp2289
sg139
g8
((lp2290
(imodel.Bond
Bond
p2291
(dp2292
g13
g1
sg143
g144
sg23
g24
sg16
g8
((lp2293
g1839
ag2253
atRp2294
sbatRp2295
sg36
I00
sbag2269
atRp2296
sg14
S'C'
sg112
I0
sg15
I00
sg113
(F446.59212488288989
F341.96973982108085
F0.1110871499997298
tp2297
sg115
(lp2298
sg13
g1
sg117
g8
((ltRp2299
sg139
g8
((lp2300
g2248
a(imodel.Bond
Bond
p2301
(dp2302
g13
g1
sg143
g144
sg23
g24
sg16
g8
((lp2303
g1831
ag1839
atRp2304
sbag2283
ag2291
atRp2305
sg36
I00
sbag1823
a(imodel.VarAtom
VarAtom
p2306
(dp2307
g3
S'H30'
p2308
sg20
I00
sg21
Nsg22
(imodel.Atom
Atom
p2309
(dp2310
g3
g2308
sg13
g1
sg14
S'H'
sg15
I00
sg16
g8
((lp2311
g2306
atRp2312
sg36
I00
sbsg23
g24
sg37
g8
((lp2313
g1831
atRp2314
sg14
S'H'
sg112
I0
sg15
I00
sg113
(F435.31537208619739
F265.30655730131332
F0.57696311768672692
tp2315
sg115
(lp2316
sg13
g1
sg117
g8
((ltRp2317
sg139
g8
((lp2318
(imodel.Bond
Bond
p2319
(dp2320
g13
g1
sg143
g144
sg23
g24
sg16
g8
((lp2321
g1831
ag2306
atRp2322
sbatRp2323
sg36
I00
sbatRp2324
sg14
S'C'
sg112
I0
sg15
I00
sg113
(F457.60159843555846
F295.79860202278371
F0.13433435299026653
tp2325
sg115
(lp2326
sg13
g1
sg117
g8
((ltRp2327
sg139
g8
((lp2328
g2301
a(imodel.Bond
Bond
p2329
(dp2330
g13
g1
sg143
g270
sg23
g24
sg16
g8
((lp2331
g1831
ag1823
atRp2332
sbag2319
atRp2333
sg36
I00
sbag1815
a(imodel.VarAtom
VarAtom
p2334
(dp2335
g3
S'H31'
p2336
sg20
I00
sg21
Nsg22
(imodel.Atom
Atom
p2337
(dp2338
g3
g2336
sg13
g1
sg14
S'H'
sg15
I00
sg16
g8
((lp2339
g2334
atRp2340
sg36
I00
sbsg23
g24
sg37
g8
((lp2341
g1823
atRp2342
sg14
S'H'
sg112
I0
sg15
I00
sg113
(F484.1910158869041
F228.80610334042018
F0.97830065546197198
tp2343
sg115
(lp2344
sg13
g1
sg117
g8
((ltRp2345
sg139
g8
((lp2346
(imodel.Bond
Bond
p2347
(dp2348
g13
g1
sg143
g144
sg23
g24
sg16
g8
((lp2349
g1823
ag2334
atRp2350
sbatRp2351
sg36
I00
sbatRp2352
sg14
S'C'
sg112
I0
sg15
I00
sg113
(F489.29003765488608
F270.0476781136183
F0.3358365858703154
tp2353
sg115
(lp2354
sg13
g1
sg117
g8
((ltRp2355
sg139
g8
((lp2356
g2329
a(imodel.Bond
Bond
p2357
(dp2358
g13
g1
sg143
g144
sg23
g24
sg16
g8
((lp2359
g1815
ag1823
atRp2360
sbag2347
atRp2361
sg36
I00
sbag1807
a(imodel.VarAtom
VarAtom
p2362
(dp2363
g3
S'H32_1'
p2364
sg20
I00
sg21
Nsg22
(imodel.Atom
Atom
p2365
(dp2366
g3
g2364
sg13
g1
sg14
S'H'
sg15
I00
sg16
g8
((lp2367
g2362
atRp2368
sg36
I00
sbsg23
g24
sg37
g8
((lp2369
g1815
atRp2370
sg14
S'H'
sg112
I0
sg15
I00
sg113
(F543.05199260022562
F243.46283578740793
F0.87621213976851808
tp2371
sg115
(lp2372
sg13
g1
sg117
g8
((lp2373
(imodel.AtomGroup
AtomGroup
p2374
(dp2375
g121
g122
sg123
g8
((ltRp2376
sg16
g8
((lp2377
g2362
a(imodel.VarAtom
VarAtom
p2378
(dp2379
g3
S'H32_2'
p2380
sg20
I00
sg21
Nsg22
(imodel.Atom
Atom
p2381
(dp2382
g3
g2380
sg13
g1
sg14
S'H'
sg15
I00
sg16
g8
((lp2383
g2378
atRp2384
sg36
I00
sbsg23
g24
sg37
g8
((lp2385
g1815
atRp2386
sg14
S'H'
sg112
I0
sg15
I00
sg113
(F528.72729945508991
F320.61909152330446
F0.98498011534724295
tp2387
sg115
(lp2388
sg13
g1
sg117
g8
((lp2389
g2374
atRp2390
sg139
g8
((lp2391
(imodel.Bond
Bond
p2392
(dp2393
g13
g1
sg143
g144
sg23
g24
sg16
g8
((lp2394
g1815
ag2378
atRp2395
sbatRp2396
sg36
I00
sbatRp2397
sg23
g24
sg13
g1
sbatRp2398
sg139
g8
((lp2399
(imodel.Bond
Bond
p2400
(dp2401
g13
g1
sg143
g144
sg23
g24
sg16
g8
((lp2402
g1815
ag2362
atRp2403
sbatRp2404
sg36
I00
sbag2378
atRp2405
sg14
S'C'
sg112
I0
sg15
I00
sg113
(F537.06400649445004
F282.74783856453882
F0.734832999150133
tp2406
sg115
(lp2407
sg13
g1
sg117
g8
((ltRp2408
sg139
g8
((lp2409
g2357
a(imodel.Bond
Bond
p2410
(dp2411
g13
g1
sg143
g144
sg23
g24
sg16
g8
((lp2412
g1807
ag1815
atRp2413
sbag2400
ag2392
atRp2414
sg36
I00
sba(imodel.VarAtom
VarAtom
p2415
(dp2416
g3
S'H33_1'
p2417
sg20
I00
sg21
Nsg22
(imodel.Atom
Atom
p2418
(dp2419
g3
g2417
sg13
g1
sg14
S'H'
sg15
I00
sg16
g8
((lp2420
g2415
atRp2421
sg36
I00
sbsg23
g24
sg37
g8
((lp2422
g1807
atRp2423
sg14
S'H'
sg112
I0
sg15
I00
sg113
(F594.82350387320901
F253.67580836511922
F0.72437975225443818
tp2424
sg115
(lp2425
sg13
g1
sg117
g8
((lp2426
(imodel.AtomGroup
AtomGroup
p2427
(dp2428
g121
g122
sg123
g8
((ltRp2429
sg16
g8
((lp2430
g2415
a(imodel.VarAtom
VarAtom
p2431
(dp2432
g3
S'H33_2'
p2433
sg20
I00
sg21
Nsg22
(imodel.Atom
Atom
p2434
(dp2435
g3
g2433
sg13
g1
sg14
S'H'
sg15
I00
sg16
g8
((lp2436
g2431
atRp2437
sg36
I00
sbsg23
g24
sg37
g8
((lp2438
g1807
atRp2439
sg14
S'H'
sg112
I0
sg15
I00
sg113
(F575.21058668328942
F343.18117065752085
F1.3583100505716288
tp2440
sg115
(lp2441
sg13
g1
sg117
g8
((lp2442
g2427
atRp2443
sg139
g8
((lp2444
(imodel.Bond
Bond
p2445
(dp2446
g13
g1
sg143
g144
sg23
g24
sg16
g8
((lp2447
g1807
ag2431
atRp2448
sbatRp2449
sg36
I00
sbatRp2450
sg23
g24
sg13
g1
sbatRp2451
sg139
g8
((lp2452
(imodel.Bond
Bond
p2453
(dp2454
g13
g1
sg143
g144
sg23
g24
sg16
g8
((lp2455
g1807
ag2415
atRp2456
sbatRp2457
sg36
I00
sbag1799
ag2431
atRp2458
sg14
S'C'
sg112
I0
sg15
I00
sg113
(F591.46433608830159
F300.23656551348051
F0.14366544931447356
tp2459
sg115
(lp2460
sg13
g1
sg117
g8
((ltRp2461
sg139
g8
((lp2462
g2410
a(imodel.Bond
Bond
p2463
(dp2464
g13
g1
sg143
g144
sg23
g24
sg16
g8
((lp2465
g1799
ag1807
atRp2466
sbag2453
ag2445
atRp2467
sg36
I00
sba(imodel.VarAtom
VarAtom
p2468
(dp2469
g3
S'H34_1'
p2470
sg20
I00
sg21
Nsg22
(imodel.Atom
Atom
p2471
(dp2472
g3
g2470
sg13
g1
sg14
S'H'
sg15
I00
sg16
g8
((lp2473
g2468
atRp2474
sg36
I00
sbsg23
g24
sg37
g8
((lp2475
g1799
atRp2476
sg14
S'H'
sg112
I0
sg15
I00
sg113
(F623.61234520895164
F362.35066570003119
F1.6328323440919696
tp2477
sg115
(lp2478
sg13
g1
sg117
g8
((lp2479
(imodel.AtomGroup
AtomGroup
p2480
(dp2481
g121
g122
sg123
g8
((ltRp2482
sg16
g8
((lp2483
g2468
a(imodel.VarAtom
VarAtom
p2484
(dp2485
g3
S'H34_2'
p2486
sg20
I00
sg21
Nsg22
(imodel.Atom
Atom
p2487
(dp2488
g3
g2486
sg13
g1
sg14
S'H'
sg15
I00
sg16
g8
((lp2489
g2484
atRp2490
sg36
I00
sbsg23
g24
sg37
g8
((lp2491
g1799
atRp2492
sg14
S'H'
sg112
I0
sg15
I00
sg113
(F671.31427117664794
F353.894543410945
F1.1569677640528826
tp2493
sg115
(lp2494
sg13
g1
sg117
g8
((lp2495
g2480
atRp2496
sg139
g8
((lp2497
(imodel.Bond
Bond
p2498
(dp2499
g13
g1
sg143
g144
sg23
g24
sg16
g8
((lp2500
g1799
ag2484
atRp2501
sbatRp2502
sg36
I00
sbatRp2503
sg23
g24
sg13
g1
sbatRp2504
sg139
g8
((lp2505
(imodel.Bond
Bond
p2506
(dp2507
g13
g1
sg143
g144
sg23
g24
sg16
g8
((lp2508
g1799
ag2468
atRp2509
sbatRp2510
sg36
I00
sbag1791
ag2484
atRp2511
sg14
S'C'
sg112
I0
sg15
I00
sg113
(F639.79033603727385
F319.38741047789114
F0.90567186421259094
tp2512
sg115
(lp2513
sg13
g1
sg117
g8
((ltRp2514
sg139
g8
((lp2515
g2463
a(imodel.Bond
Bond
p2516
(dp2517
g13
g1
sg143
g144
sg23
g24
sg16
g8
((lp2518
g1791
ag1799
atRp2519
sbag2506
ag2498
atRp2520
sg36
I00
sbag1783
a(imodel.VarAtom
VarAtom
p2521
(dp2522
g3
S'H35_1'
p2523
sg20
I00
sg21
Nsg22
(imodel.Atom
Atom
p2524
(dp2525
g3
g2523
sg13
g1
sg14
S'H'
sg15
I00
sg16
g8
((lp2526
g2521
atRp2527
sg36
I00
sbsg23
g24
sg37
g8
((lp2528
g1791
atRp2529
sg14
S'H'
sg112
I0
sg15
I00
sg113
(F647.27004155250518
F258.99212589851845
F0.61732593070776309
tp2530
sg115
(lp2531
sg13
g1
sg117
g8
((lp2532
(imodel.AtomGroup
AtomGroup
p2533
(dp2534
g121
g122
sg123
g8
((ltRp2535
sg16
g8
((lp2536
g2521
a(imodel.VarAtom
VarAtom
p2537
(dp2538
g3
S'H35_2'
p2539
sg20
I00
sg21
Nsg22
(imodel.Atom
Atom
p2540
(dp2541
g3
g2539
sg13
g1
sg14
S'H'
sg15
I00
sg16
g8
((lp2542
g2537
atRp2543
sg36
I00
sbsg23
g24
sg37
g8
((lp2544
g1791
atRp2545
sg14
S'H'
sg112
I0
sg15
I00
sg113
(F689.65341835196045
F241.72950164515194
F0.81339065938843147
tp2546
sg115
(lp2547
sg13
g1
sg117
g8
((lp2548
g2533
atRp2549
sg139
g8
((lp2550
(imodel.Bond
Bond
p2551
(dp2552
g13
g1
sg143
g144
sg23
g24
sg16
g8
((lp2553
g1791
ag2537
atRp2554
sbatRp2555
sg36
I00
sbatRp2556
sg23
g24
sg13
g1
sbatRp2557
sg139
g8
((lp2558
(imodel.Bond
Bond
p2559
(dp2560
g13
g1
sg143
g144
sg23
g24
sg16
g8
((lp2561
g1791
ag2521
atRp2562
sbatRp2563
sg36
I00
sbag2537
atRp2564
sg14
S'C'
sg112
I0
sg15
I00
sg113
(F678.37407537566116
F283.55132879314453
F0.48936300889846751
tp2565
sg115
(lp2566
sg13
g1
sg117
g8
((ltRp2567
sg139
g8
((lp2568
g2516
a(imodel.Bond
Bond
p2569
(dp2570
g13
g1
sg143
g144
sg23
g24
sg16
g8
((lp2571
g1783
ag1791
atRp2572
sbag2551
ag2559
atRp2573
sg36
I00
sbag1775
a(imodel.VarAtom
VarAtom
p2574
(dp2575
g3
S'H36_2'
p2576
sg20
I00
sg21
Nsg22
(imodel.Atom
Atom
p2577
(dp2578
g3
g2576
sg13
g1
sg14
S'H'
sg15
I00
sg16
g8
((lp2579
g2574
atRp2580
sg36
I00
sbsg23
g24
sg37
g8
((lp2581
g1783
atRp2582
sg14
S'H'
sg112
I0
sg15
I00
sg113
(F733.25974740050492
F272.24467352751776
F1.3716780555296042
tp2583
sg115
(lp2584
sg13
g1
sg117
g8
((lp2585
(imodel.AtomGroup
AtomGroup
p2586
(dp2587
g121
g122
sg123
g8
((ltRp2588
sg16
g8
((lp2589
(imodel.VarAtom
VarAtom
p2590
(dp2591
g3
S'H36_1'
p2592
sg20
I00
sg21
Nsg22
(imodel.Atom
Atom
p2593
(dp2594
g3
g2592
sg13
g1
sg14
S'H'
sg15
I00
sg16
g8
((lp2595
g2590
atRp2596
sg36
I00
sbsg23
g24
sg37
g8
((lp2597
g1783
atRp2598
sg14
S'H'
sg112
I0
sg15
I00
sg113
(F727.5519581062299
F347.94088597283059
F1.0571002004335996
tp2599
sg115
(lp2600
sg13
g1
sg117
g8
((lp2601
g2586
atRp2602
sg139
g8
((lp2603
(imodel.Bond
Bond
p2604
(dp2605
g13
g1
sg143
g144
sg23
g24
sg16
g8
((lp2606
g1783
ag2590
atRp2607
sbatRp2608
sg36
I00
sbag2574
atRp2609
sg23
g24
sg13
g1
sbatRp2610
sg139
g8
((lp2611
(imodel.Bond
Bond
p2612
(dp2613
g13
g1
sg143
g144
sg23
g24
sg16
g8
((lp2614
g1783
ag2574
atRp2615
sbatRp2616
sg36
I00
sbag2590
atRp2617
sg14
S'C'
sg112
I0
sg15
I00
sg113
(F727.1756484061242
F307.85230896232133
F0.14984131804438783
tp2618
sg115
(lp2619
sg13
g1
sg117
g8
((ltRp2620
sg139
g8
((lp2621
g2569
a(imodel.Bond
Bond
p2622
(dp2623
g13
g1
sg143
g144
sg23
g24
sg16
g8
((lp2624
g1775
ag1783
atRp2625
sbag2612
ag2604
atRp2626
sg36
I00
sba(imodel.VarAtom
VarAtom
p2627
(dp2628
g3
S'H37_1'
p2629
sg20
I00
sg21
Nsg22
(imodel.Atom
Atom
p2630
(dp2631
g3
g2629
sg13
g1
sg14
S'H'
sg15
I00
sg16
g8
((lp2632
g2627
atRp2633
sg36
I00
sbsg23
g24
sg37
g8
((lp2634
g1775
atRp2635
sg14
S'H'
sg112
I0
sg15
I00
sg113
(F822.34504152388445
F267.25324176063123
F0.95158405838722315
tp2636
sg115
(lp2637
sg13
g1
sg117
g8
((lp2638
(imodel.AtomGroup
AtomGroup
p2639
(dp2640
g121
g122
sg123
g8
((ltRp2641
sg16
g8
((lp2642
g2627
a(imodel.VarAtom
VarAtom
p2643
(dp2644
g3
S'H37_2'
p2645
sg20
I00
sg21
Nsg22
(imodel.Atom
Atom
p2646
(dp2647
g3
g2645
sg13
g1
sg14
S'H'
sg15
I00
sg16
g8
((lp2648
g2643
atRp2649
sg36
I00
sbsg23
g24
sg37
g8
((lp2650
g1775
atRp2651
sg14
S'H'
sg112
I0
sg15
I00
sg113
(F779.12501418566171
F246.97189554857914
F0.49225637575788972
tp2652
sg115
(lp2653
sg13
g1
sg117
g8
((lp2654
g2639
atRp2655
sg139
g8
((lp2656
(imodel.Bond
Bond
p2657
(dp2658
g13
g1
sg143
g144
sg23
g24
sg16
g8
((lp2659
g1775
ag2643
atRp2660
sbatRp2661
sg36
I00
sbatRp2662
sg23
g24
sg13
g1
sbatRp2663
sg139
g8
((lp2664
(imodel.Bond
Bond
p2665
(dp2666
g13
g1
sg143
g144
sg23
g24
sg16
g8
((lp2667
g1775
ag2627
atRp2668
sbatRp2669
sg36
I00
sbag1767
ag2643
atRp2670
sg14
S'C'
sg112
I0
sg15
I00
sg113
(F786.41985423185224
F295.73573227641327
F0.69943383150171934
tp2671
sg115
(lp2672
sg13
g1
sg117
g8
((ltRp2673
sg139
g8
((lp2674
g2622
a(imodel.Bond
Bond
p2675
(dp2676
g13
g1
sg143
g144
sg23
g24
sg16
g8
((lp2677
g1767
ag1775
atRp2678
sbag2657
ag2665
atRp2679
sg36
I00
sbag1759
a(imodel.VarAtom
VarAtom
p2680
(dp2681
g3
S'H38_1'
p2682
sg20
I00
sg21
Nsg22
(imodel.Atom
Atom
p2683
(dp2684
g3
g2682
sg13
g1
sg14
S'H'
sg15
I00
sg16
g8
((lp2685
g2680
atRp2686
sg36
I00
sbsg23
g24
sg37
g8
((lp2687
g1767
atRp2688
sg14
S'H'
sg112
I0
sg15
I00
sg113
(F832.28931719530942
F376.90605354071511
F0.48864550975424315
tp2689
sg115
(lp2690
sg13
g1
sg117
g8
((lp2691
(imodel.AtomGroup
AtomGroup
p2692
(dp2693
g121
g122
sg123
g8
((ltRp2694
sg16
g8
((lp2695
g2680
a(imodel.VarAtom
VarAtom
p2696
(dp2697
g3
S'H38_2'
p2698
sg20
I00
sg21
Nsg22
(imodel.Atom
Atom
p2699
(dp2700
g3
g2698
sg13
g1
sg14
S'H'
sg15
I00
sg16
g8
((lp2701
g2696
atRp2702
sg36
I00
sbsg23
g24
sg37
g8
((lp2703
g1767
atRp2704
sg14
S'H'
sg112
I0
sg15
I00
sg113
(F787.65747102930766
F361.0443780177751
F0.55394502811336244
tp2705
sg115
(lp2706
sg13
g1
sg117
g8
((lp2707
g2692
atRp2708
sg139
g8
((lp2709
(imodel.Bond
Bond
p2710
(dp2711
g13
g1
sg143
g144
sg23
g24
sg16
g8
((lp2712
g1767
ag2696
atRp2713
sbatRp2714
sg36
I00
sbatRp2715
sg23
g24
sg13
g1
sbatRp2716
sg139
g8
((lp2717
(imodel.Bond
Bond
p2718
(dp2719
g13
g1
sg143
g144
sg23
g24
sg16
g8
((lp2720
g1767
ag2680
atRp2721
sbatRp2722
sg36
I00
sbag2696
atRp2723
sg14
S'C'
sg112
I0
sg15
I00
sg113
(F821.03806879527224
F337.76352767398873
F0.54451988125523831
tp2724
sg115
(lp2725
sg13
g1
sg117
g8
((ltRp2726
sg139
g8
((lp2727
g2675
a(imodel.Bond
Bond
p2728
(dp2729
g13
g1
sg143
g144
sg23
g24
sg16
g8
((lp2730
g1759
ag1767
atRp2731
sbag2710
ag2718
atRp2732
sg36
I00
sba(imodel.VarAtom
VarAtom
p2733
(dp2734
g3
S'H39_1'
p2735
sg20
I00
sg21
Nsg22
(imodel.Atom
Atom
p2736
(dp2737
g3
g2735
sg13
g1
sg14
S'H'
sg15
I00
sg16
g8
((lp2738
g2733
atRp2739
sg36
I00
sbsg23
g24
sg37
g8
((lp2740
g1759
atRp2741
sg14
S'H'
sg112
I0
sg15
I00
sg113
(F917.1890839222998
F320.9557841110917
F0.66748399420229965
tp2742
sg115
(lp2743
sg13
g1
sg117
g8
((lp2744
(imodel.AtomGroup
AtomGroup
p2745
(dp2746
g121
g1433
sg123
g8
((ltRp2747
sg16
g8
((lp2748
g2733
a(imodel.VarAtom
VarAtom
p2749
(dp2750
g3
S'H39_2'
p2751
sg20
I00
sg21
Nsg22
(imodel.Atom
Atom
p2752
(dp2753
g3
g2751
sg13
g1
sg14
S'H'
sg15
I00
sg16
g8
((lp2754
g2749
atRp2755
sg36
I00
sbsg23
g24
sg37
g8
((lp2756
g1759
atRp2757
sg14
S'H'
sg112
I0
sg15
I00
sg113
(F891.3064156362376
F367.74640748046426
F1.2674491213791175
tp2758
sg115
(lp2759
sg13
g1
sg117
g8
((lp2760
g2745
atRp2761
sg139
g8
((lp2762
(imodel.Bond
Bond
p2763
(dp2764
g13
g1
sg143
g144
sg23
g24
sg16
g8
((lp2765
g1759
ag2749
atRp2766
sbatRp2767
sg36
I00
sbag1751
atRp2768
sg23
g24
sg13
g1
sbatRp2769
sg139
g8
((lp2770
(imodel.Bond
Bond
p2771
(dp2772
g13
g1
sg143
g144
sg23
g24
sg16
g8
((lp2773
g1759
ag2733
atRp2774
sbatRp2775
sg36
I00
sbag1751
ag2749
atRp2776
sg14
S'C'
sg112
I0
sg15
I00
sg113
(F875.84601091191303
F328.98185443110748
F0.91360562405395462
tp2777
sg115
(lp2778
sg13
g1
sg117
g8
((ltRp2779
sg139
g8
((lp2780
g2728
ag2763
a(imodel.Bond
Bond
p2781
(dp2782
g13
g1
sg143
g144
sg23
g24
sg16
g8
((lp2783
g1759
ag1751
atRp2784
sbag2771
atRp2785
sg36
I00
sbatRp2786
sg14
S'H'
sg112
I0
sg15
I00
sg113
(F877.80064575038386
F287.86276799463997
F1.0696061729835002
tp2787
sg115
(lp2788
sg13
g1
sg117
g8
((lp2789
g2745
atRp2790
sg139
g8
((lp2791
g2781
atRp2792
sg36
I00
sbag384
ag1097
ag2431
ag1046
ag1199
ag590
ag1148
ag2680
ag2537
ag2200
ag438
ag1935
ag894
ag2415
ag979
ag1274
ag1591
ag2110
ag1575
ag788
ag2094
ag2057
ag2590
ag857
ag616
ag2468
ag2041
ag804
ag722
ag1325
ag178
ag2269
ag2749
ag306
ag2362
ag1164
ag103
ag1648
ag1419
ag1081
ag516
ag412
ag1258
ag1376
ag2484
ag126
ag2574
ag910
ag2004
ag2253
ag542
ag2733
ag332
ag995
ag464
ag2163
ag1676
ag1215
ag1508
ag2147
ag1492
ag1360
ag2334
ag1030
ag1436
ag2306
ag2696
ag2643
ag947
ag2627
ag1951
ag2521
ag654
ag194
ag1988
ag1455
ag1309
ag2378
ag841
ag2216
atRp2793
sS'C'
g8
((lp2794
g39
ag1871
ag1124
ag1242
ag1807
ag1823
ag1352
ag1879
ag1839
ag360
ag1140
ag170
ag1022
ag1759
ag1191
ag1831
ag282
ag1863
ag55
ag1815
ag1791
ag430
ag1132
ag1783
ag290
ag1847
ag1301
ag95
ag47
ag1250
ag1895
ag87
ag1799
ag1887
ag1775
ag1411
ag1767
ag1403
ag63
ag971
ag1073
ag71
ag368
ag298
ag1855
atRp2795
sS'N'
g8
((ltRp2796
sS'O'
g8
((lp2797
g376
ag237
ag255
ag79
ag456
ag760
ag18
ag534
ag1903
ag608
ag221
ag324
ag274
atRp2798
sS'P'
g8
((lp2799
g229
atRp2800
ssg139
g8
((lp2801
g1550
ag2453
ag165
ag477
ag1288
ag161
ag2516
ag2283
ag1709
ag2301
ag1605
ag2089
ag2238
ag141
ag1983
ag2604
ag2551
ag2498
ag585
ag2392
ag2665
ag2622
ag1237
ag717
ag1390
ag1068
ag1926
ag1633
ag889
ag1973
ag1570
ag2036
ag942
ag1111
ag1689
ag2357
ag250
ag2657
ag2506
ag629
ag1522
ag649
ag555
ag773
ag1119
ag216
ag2026
ag836
ag2071
ag2400
ag1060
ag2319
ag2718
ag575
ag1017
ag1469
ag2177
ag932
ag2347
ag1178
ag2463
ag2612
ag2132
ag1347
ag2185
ag1530
ag826
ag966
ag407
ag1398
ag501
ag2079
ag697
ag1487
ag1916
ag1930
ag2018
ag151
ag603
ag2445
ag1477
ag687
ag511
ag2124
ag397
ag451
ag2230
ag1613
ag2291
ag425
ag2728
ag1661
ag1671
ag345
ag1560
ag2771
ag1296
ag818
ag677
ag2559
ag2763
ag1186
ag1540
ag2248
ag2569
ag667
ag783
ag1623
ag2195
ag2781
ag735
ag2675
ag1699
ag355
ag1719
ag871
ag1739
ag924
ag268
ag879
ag1643
ag1965
ag2710
ag1339
ag1450
ag755
ag745
ag1229
ag487
ag319
ag497
ag1729
ag2142
ag2410
ag639
ag529
ag2329
ag707
ag565
ag208
ag1009
atRp2802
sg13
g1
sS'descriptor'
p2803
(S'neutral'
p2804
S'none'
p2805
S'default'
p2806
tp2807
sS'atomDict'
p2808
(dp2809
g10
g18
sg2150
g2147
sg2060
g2057
sg1151
g1148
sg1202
g1199
sg725
g722
sg611
g608
sg2471
g2468
sg1858
g1855
sg657
g654
sg593
g590
sg197
g194
sg1770
g1767
sg1754
g1751
sg1355
g1352
sg1194
g1191
sg1874
g1871
sg1084
g1081
sg1277
g1274
sg1439
g1436
sg2007
g2004
sg1406
g1403
sg1810
g1807
sg1167
g1164
sg1794
g1791
sg2418
g2415
sg50
g47
sg1253
g1250
sg181
g178
sg2699
g2696
sg1578
g1575
sg1033
g1030
sg545
g542
sg1818
g1815
sg415
g412
sg129
g126
sg1778
g1775
sg1802
g1799
sg379
g376
sg1826
g1823
sg173
g170
sg74
g71
sg974
g971
sg1786
g1783
sg1651
g1648
sg2577
g2574
sg897
g894
sg844
g841
sg2540
g2537
sg1511
g1508
sg1938
g1935
sg1882
g1879
sg1842
g1839
sg619
g616
sg2365
g2362
sg860
g857
sg1850
g1847
sg1304
g1301
sg309
g306
sg1100
g1097
sg763
g760
sg1127
g1124
sg224
g221
sg363
g360
sg285
g282
sg1954
g1951
sg1218
g1215
sg1261
g1258
sg106
g103
sg240
g237
sg42
g39
sg1135
g1132
sg537
g534
sg2166
g2163
sg2736
g2733
sg32
g29
sg2593
g2590
sg2097
g2094
sg1076
g1073
sg2752
g2749
sg1991
g1988
sg293
g290
sg90
g87
sg2381
g2378
sg1312
g1309
sg2309
g2306
sg327
g324
sg1594
g1591
sg433
g430
sg1025
g1022
sg807
g804
sg66
g63
sg467
g464
sg98
g95
sg1866
g1863
sg2646
g2643
sg2683
g2680
sg1379
g1376
sg1328
g1325
sg82
g79
sg1422
g1419
sg2487
g2484
sg277
g274
sg2256
g2253
sg1495
g1492
sg335
g332
sg982
g979
sg791
g788
sg2630
g2627
sg1049
g1046
sg950
g947
sg441
g438
sg258
g255
sg1762
g1759
sg58
g55
sg2219
g2216
sg1890
g1887
sg1143
g1140
sg1906
g1903
sg519
g516
sg2337
g2334
sg459
g456
sg1679
g1676
sg913
g910
sg2524
g2521
sg387
g384
sg1245
g1242
sg371
g368
sg301
g298
sg1414
g1411
sg232
g229
sg2044
g2041
sg1834
g1831
sg2203
g2200
sg1363
g1360
sg2113
g2110
sg2272
g2269
sg1898
g1895
sg998
g995
sg2434
g2431
sg1458
g1455
ssg16
g8
((lp2810
g39
ag229
ag1492
ag2269
ag1309
ag1839
ag2590
ag722
ag534
ag1191
ag1073
ag282
ag841
ag55
ag788
ag1591
ag1419
ag979
ag1376
ag608
ag2306
ag590
ag1215
ag2094
ag2200
ag324
ag221
ag2163
ag1935
ag2110
ag910
ag1676
ag2643
ag804
ag516
ag1847
ag1575
ag1455
ag2574
ag894
ag654
ag1831
ag2521
ag71
ag2253
ag1855
ag2041
ag616
ag298
ag1046
ag2147
ag1751
ag376
ag1783
ag1648
ag2680
ag1132
ag2362
ag237
ag2696
ag1895
ag1791
ag1301
ag1360
ag2627
ag1274
ag194
ag2216
ag1871
ag29
ag1807
ag2431
ag2057
ag63
ag438
ag947
ag360
ag456
ag274
ag2749
ag1242
ag1823
ag1081
ag87
ag542
ag1775
ag95
ag2004
ag306
ag2537
ag1250
ag1903
ag1508
ag1887
ag1352
ag79
ag1767
ag1403
ag1258
ag2334
ag368
ag2415
ag1124
ag1815
ag1799
ag1199
ag18
ag1148
ag412
ag255
ag1097
ag1879
ag1140
ag2378
ag47
ag2468
ag1325
ag178
ag430
ag1863
ag103
ag332
ag1022
ag384
ag290
ag995
ag170
ag1164
ag1951
ag857
ag2484
ag2733
ag1411
ag971
ag1030
ag1436
ag464
ag1759
ag760
ag126
ag1988
atRp2811
sg117
g8
((lp2812
g2212
ag2586
ag1270
ag1093
ag1504
ag1042
ag1947
ag2265
ag1372
ag906
ag2374
ag853
ag959
ag1160
ag991
ag1211
ag2106
ag800
ag2692
ag2427
ag1587
ag2533
ag2745
ag2000
ag2053
ag119
ag2159
ag1321
ag2480
ag190
ag1431
ag2639
atRp2813
sS'polyLink'
p2814
S'none'
p2815
sbsg37
g8
((lp2816
g95
ag1895
atRp2817
sg14
S'O'
sg112
I0
sg15
I00
sg113
(F118.16877320746207
F338.28167609731679
F0.080831959940971476
tp2818
sg115
(lp2819
sg13
g1
sg117
g8
((ltRp2820
sg139
g8
((lp2821
g161
ag1926
atRp2822
sg36
I00
sbatRp2823
sg36
I00
sbag2150
ag2060
ag1151
ag1202
ag725
ag611
ag2471
ag1858
ag657
ag593
ag197
ag1770
ag1754
ag1355
ag1194
ag1874
ag1084
ag1277
ag1439
ag2007
ag1406
ag1810
ag1167
ag1794
ag2418
ag50
ag1253
ag181
ag2699
ag1578
ag1033
ag545
ag1818
ag415
ag129
ag1778
ag1802
ag379
ag1826
ag173
ag74
ag974
ag1786
ag1651
ag2577
ag897
ag844
ag2540
ag1511
ag1938
ag1882
ag1842
ag619
ag2365
ag860
ag1850
ag1304
ag309
ag1100
ag763
ag1127
ag224
ag363
ag285
ag1954
ag1218
ag1261
ag106
ag240
ag42
ag1135
ag537
ag2166
ag2736
ag32
ag2593
ag2097
ag1076
ag2752
ag1991
ag293
ag90
ag2381
ag1312
ag2309
ag327
ag1594
ag433
ag1025
ag807
ag66
ag467
ag98
ag1866
ag2646
ag2683
ag1379
ag1328
ag82
ag1422
ag2487
ag277
ag2256
ag1495
ag335
ag982
ag791
ag2630
ag1049
ag950
ag441
ag258
ag1762
ag58
ag2219
ag1890
ag1143
ag1906
ag519
ag2337
ag459
ag1679
ag913
ag2524
ag387
ag1245
ag371
ag301
ag1414
ag232
ag2044
ag1834
ag2203
ag1363
ag2113
ag2272
ag1898
ag998
ag2434
ag1458
atRp2824
sS'ccpMolType'
p2825
S'other'
p2826
sS'details'
p2827
V
sg2808
(dp2828
g2645
g2646
sg2629
g2630
sg2735
g2736
sg2751
g2752
sg1753
g1754
sg1761
g1762
sg1769
g1770
sg326
g327
sg536
g537
sg378
g379
sg1801
g1802
sg1777
g1778
sg1905
g1906
sg12
g10
sg762
g763
sg81
g82
sg1817
g1818
sg2380
g2381
sg2364
g2365
sg1494
g1495
sg2271
g2272
sg2255
g2256
sg1510
g1511
sg2336
g2337
sg2470
g2471
sg2486
g2487
sg2149
g2150
sg2165
g2166
sg1378
g1379
sg1362
g1363
sg1897
g1898
sg1889
g1890
sg1405
g1406
sg1413
g1414
sg1865
g1866
sg1857
g1858
sg1881
g1882
sg1873
g1874
sg1849
g1850
sg1841
g1842
sg1217
g1218
sg1201
g1202
sg2539
g2540
sg362
g363
sg949
g950
sg31
g32
sg2043
g2044
sg2059
g2060
sg1793
g1794
sg231
g232
sg458
g459
sg2576
g2577
sg2592
g2593
sg1937
g1938
sg610
g611
sg1953
g1954
sg1457
g1458
sg1438
g1439
sg1421
g1422
sg1785
g1786
sg2682
g2683
sg1825
g1826
sg2698
g2699
sg1833
g1834
sg1809
g1810
sg896
g897
sg300
g301
sg912
g913
sg292
g293
sg284
g285
sg432
g433
sg370
g371
sg1678
g1679
sg1650
g1651
sg105
g106
sg128
g129
sg724
g725
sg981
g982
sg997
g998
sg196
g197
sg180
g181
sg973
g974
sg41
g42
sg172
g173
sg89
g90
sg97
g98
sg49
g50
sg57
g58
sg65
g66
sg73
g74
sg859
g860
sg843
g844
sg276
g277
sg239
g240
sg223
g224
sg257
g258
sg790
g791
sg1303
g1304
sg806
g807
sg2218
g2219
sg1354
g1355
sg2202
g2203
sg1134
g1135
sg1126
g1127
sg1075
g1076
sg1024
g1025
sg1252
g1253
sg1244
g1245
sg1193
g1194
sg1260
g1261
sg2112
g2113
sg2096
g2097
sg1276
g1277
sg2433
g2434
sg2417
g2418
sg466
g467
sg386
g387
sg2308
g2309
sg618
g619
sg2006
g2007
sg1327
g1328
sg1311
g1312
sg1990
g1991
sg1099
g1100
sg1142
g1143
sg2523
g2524
sg544
g545
sg334
g335
sg592
g593
sg1048
g1049
sg1032
g1033
sg1577
g1578
sg1593
g1594
sg1166
g1167
sg1150
g1151
sg308
g309
sg518
g519
sg414
g415
sg440
g441
sg656
g657
sg1083
g1084
ssS'keywords'
p2829
g8
((ltRp2830
sg117
g8
((lp2831
g2212
ag2586
ag1270
ag1093
ag1504
ag1042
ag1947
ag2265
ag1372
ag906
ag2374
ag853
ag959
ag1160
ag991
ag1211
ag2106
ag800
ag2692
ag2427
ag1587
ag2533
ag2745
ag2000
ag2053
ag119
ag2159
ag1321
ag2480
ag190
ag1431
ag2639
atRp2832
sS'variants'
p2833
g8
((lp2834
g24
atRp2835
sS'defaultVars'
p2836
g8
((lp2837
g24
atRp2838
sb.