(imodel.Compound
Compound
p1
(dp2
S'name'
p3
VDioleoylphosphatidylserine
p4
sS'isModified'
p5
I00
sS'ccpCode'
p6
Vdops
p7
sS'atoms'
p8
c__builtin__
set
p9
((lp10
(imodel.Atom
Atom
p11
(dp12
g3
VC12B
p13
sS'compound'
p14
g1
sS'element'
p15
S'C'
sS'isVariable'
p16
I00
sS'varAtoms'
p17
g9
((lp18
(imodel.VarAtom
VarAtom
p19
(dp20
g3
g13
sS'isLabile'
p21
I00
sS'chirality'
p22
NsS'atom'
p23
g11
sS'variant'
p24
(imodel.Variant
Variant
p25
(dp26
S'elementDict'
p27
(dp28
S'P'
g9
((lp29
(imodel.VarAtom
VarAtom
p30
(dp31
g3
S'P1'
p32
sg21
I00
sg22
Nsg23
(imodel.Atom
Atom
p33
(dp34
g3
g32
sg14
g1
sg15
S'P'
sg16
I00
sg17
g9
((lp35
g30
a(imodel.VarAtom
VarAtom
p36
(dp37
S'name'
p38
g32
sS'isLabile'
p39
I00
sS'chirality'
p40
NsS'atom'
p41
g33
sS'variant'
p42
(imodel.Variant
Variant
p43
(dp44
S'elementDict'
p45
(dp46
S'H'
g9
((lp47
(imodel.VarAtom
VarAtom
p48
(dp49
g38
VH16B_1
p50
sg39
I00
sg40
Nsg41
(imodel.Atom
Atom
p51
(dp52
g3
g50
sg14
g1
sg15
S'H'
sg16
I00
sg17
g9
((lp53
(imodel.VarAtom
VarAtom
p54
(dp55
g3
g50
sg21
I00
sg22
Nsg23
g51
sg24
g25
sS'neighbours'
p56
g9
((lp57
(imodel.VarAtom
VarAtom
p58
(dp59
g3
VC16B
p60
sg21
I00
sg22
Nsg23
(imodel.Atom
Atom
p61
(dp62
g3
g60
sg14
g1
sg15
S'C'
sg16
I00
sg17
g9
((lp63
g58
a(imodel.VarAtom
VarAtom
p64
(dp65
g38
g60
sg39
I00
sg40
Nsg41
g61
sg42
g43
sS'neighbours'
p66
g9
((lp67
g48
a(imodel.VarAtom
VarAtom
p68
(dp69
g38
VH16B_2
p70
sg39
I00
sg40
Nsg41
(imodel.Atom
Atom
p71
(dp72
g3
g70
sg14
g1
sg15
S'H'
sg16
I00
sg17
g9
((lp73
(imodel.VarAtom
VarAtom
p74
(dp75
g3
g70
sg21
I00
sg22
Nsg23
g71
sg24
g25
sg56
g9
((lp76
g58
atRp77
sg15
S'H'
sS'charge'
p78
I0
sg16
I00
sS'coords'
p79
(F636.31451638436772
F-93.111784443024348
F0.81212544768382144
tp80
sS'freeValences'
p81
(lp82
sg14
g1
sS'atomGroups'
p83
g9
((ltRp84
sS'bonds'
p85
g9
((lp86
(imodel.Bond
Bond
p87
(dp88
g14
g1
sS'bondType'
p89
S'single'
p90
sg24
g25
sg17
g9
((lp91
g58
ag74
atRp92
sbatRp93
sS'isDeleted'
p94
I00
sbag68
atRp95
sg94
I00
sbsg42
g43
sg66
g9
((lp96
g64
atRp97
sS'element'
p98
S'H'
sS'charge'
p99
I0
sS'isVariable'
p100
I00
sS'coords'
p101
(F636.31451638436772
F-93.111784443024348
F0.81212544768382144
tp102
sS'freeValences'
p103
(lp104
sS'compound'
p105
g1
sS'atomGroups'
p106
g9
((ltRp107
sS'bonds'
p108
g9
((lp109
(imodel.Bond
Bond
p110
(dp111
g105
g1
sS'bondType'
p112
g90
sg42
g43
sS'varAtoms'
p113
g9
((lp114
g64
ag68
atRp115
sbatRp116
sS'isDeleted'
p117
I00
sba(imodel.VarAtom
VarAtom
p118
(dp119
g38
VC17B
p120
sg39
I00
sg40
Nsg41
(imodel.Atom
Atom
p121
(dp122
g3
g120
sg14
g1
sg15
S'C'
sg16
I00
sg17
g9
((lp123
(imodel.VarAtom
VarAtom
p124
(dp125
g3
g120
sg21
I00
sg22
Nsg23
g121
sg24
g25
sg56
g9
((lp126
(imodel.VarAtom
VarAtom
p127
(dp128
g3
VH17B_1
p129
sg21
I00
sg22
Nsg23
(imodel.Atom
Atom
p130
(dp131
g3
g129
sg14
g1
sg15
S'H'
sg16
I00
sg17
g9
((lp132
g127
a(imodel.VarAtom
VarAtom
p133
(dp134
g38
g129
sg39
I00
sg40
Nsg41
g130
sg42
g43
sg66
g9
((lp135
g118
atRp136
sg98
S'H'
sg99
I0
sg100
I00
sg101
(F679.3162819772889
F8.0788674056583485
F0.9572755285227782
tp137
sg103
(lp138
sg105
g1
sg106
g9
((ltRp139
sg108
g9
((lp140
(imodel.Bond
Bond
p141
(dp142
g105
g1
sg112
g90
sg42
g43
sg113
g9
((lp143
g118
ag133
atRp144
sbatRp145
sg117
I00
sbatRp146
sg94
I00
sbsg24
g25
sg56
g9
((lp147
g124
atRp148
sg15
S'H'
sg78
I0
sg16
I00
sg79
(F679.3162819772889
F8.0788674056583485
F0.9572755285227782
tp149
sg81
(lp150
sg14
g1
sg83
g9
((ltRp151
sg85
g9
((lp152
(imodel.Bond
Bond
p153
(dp154
g14
g1
sg89
g90
sg24
g25
sg17
g9
((lp155
g124
ag127
atRp156
sbatRp157
sg94
I00
sbag58
a(imodel.VarAtom
VarAtom
p158
(dp159
g3
VC18B
p160
sg21
I00
sg22
Nsg23
(imodel.Atom
Atom
p161
(dp162
g3
g160
sg14
g1
sg15
S'C'
sg16
I00
sg17
g9
((lp163
g158
a(imodel.VarAtom
VarAtom
p164
(dp165
g38
g160
sg39
I00
sg40
Nsg41
g161
sg42
g43
sg66
g9
((lp166
(imodel.VarAtom
VarAtom
p167
(dp168
g38
VH18B_3
p169
sg39
I00
sg40
Nsg41
(imodel.Atom
Atom
p170
(dp171
g3
g169
sg14
g1
sg15
S'H'
sg16
I00
sg17
g9
((lp172
(imodel.VarAtom
VarAtom
p173
(dp174
g3
g169
sg21
I00
sg22
Nsg23
g170
sg24
g25
sg56
g9
((lp175
g158
atRp176
sg15
S'H'
sg78
I0
sg16
I00
sg79
(F778.18793762700977
F-26.775519275397389
F0.3266983713093915
tp177
sg81
(lp178
sg14
g1
sg83
g9
((ltRp179
sg85
g9
((lp180
(imodel.Bond
Bond
p181
(dp182
g14
g1
sg89
g90
sg24
g25
sg17
g9
((lp183
g158
ag173
atRp184
sbatRp185
sg94
I00
sbag167
atRp186
sg94
I00
sbsg42
g43
sg66
g9
((lp187
g164
atRp188
sg98
S'H'
sg99
I0
sg100
I00
sg101
(F778.18793762700977
F-26.775519275397389
F0.3266983713093915
tp189
sg103
(lp190
sg105
g1
sg106
g9
((ltRp191
sg108
g9
((lp192
(imodel.Bond
Bond
p193
(dp194
g105
g1
sg112
g90
sg42
g43
sg113
g9
((lp195
g164
ag167
atRp196
sbatRp197
sg117
I00
sbag118
a(imodel.VarAtom
VarAtom
p198
(dp199
g38
VH18B_1
p200
sg39
I00
sg40
Nsg41
(imodel.Atom
Atom
p201
(dp202
g3
g200
sg14
g1
sg15
S'H'
sg16
I00
sg17
g9
((lp203
(imodel.VarAtom
VarAtom
p204
(dp205
g3
g200
sg21
I00
sg22
Nsg23
g201
sg24
g25
sg56
g9
((lp206
g158
atRp207
sg15
S'H'
sg78
I0
sg16
I00
sg79
(F788.23902553323785
F-92.247832793429481
F0.4245866882460263
tp208
sg81
(lp209
sg14
g1
sg83
g9
((ltRp210
sg85
g9
((lp211
(imodel.Bond
Bond
p212
(dp213
g14
g1
sg89
g90
sg24
g25
sg17
g9
((lp214
g158
ag204
atRp215
sbatRp216
sg94
I00
sbag198
atRp217
sg94
I00
sbsg42
g43
sg66
g9
((lp218
g164
atRp219
sg98
S'H'
sg99
I0
sg100
I00
sg101
(F788.23902553323785
F-92.247832793429481
F0.4245866882460263
tp220
sg103
(lp221
sg105
g1
sg106
g9
((ltRp222
sg108
g9
((lp223
(imodel.Bond
Bond
p224
(dp225
g105
g1
sg112
g90
sg42
g43
sg113
g9
((lp226
g164
ag198
atRp227
sbatRp228
sg117
I00
sba(imodel.VarAtom
VarAtom
p229
(dp230
g38
VH18B_2
p231
sg39
I00
sg40
Nsg41
(imodel.Atom
Atom
p232
(dp233
g3
g231
sg14
g1
sg15
S'H'
sg16
I00
sg17
g9
((lp234
(imodel.VarAtom
VarAtom
p235
(dp236
g3
g231
sg21
I00
sg22
Nsg23
g232
sg24
g25
sg56
g9
((lp237
g158
atRp238
sg15
S'H'
sg78
I0
sg16
I00
sg79
(F723.02986959652731
F-99.701637023113761
F0.38283074971915976
tp239
sg81
(lp240
sg14
g1
sg83
g9
((ltRp241
sg85
g9
((lp242
(imodel.Bond
Bond
p243
(dp244
g14
g1
sg89
g90
sg24
g25
sg17
g9
((lp245
g158
ag235
atRp246
sbatRp247
sg94
I00
sbag229
atRp248
sg94
I00
sbsg42
g43
sg66
g9
((lp249
g164
atRp250
sg98
S'H'
sg99
I0
sg100
I00
sg101
(F723.02986959652731
F-99.701637023113761
F0.38283074971915976
tp251
sg103
(lp252
sg105
g1
sg106
g9
((ltRp253
sg108
g9
((lp254
(imodel.Bond
Bond
p255
(dp256
g105
g1
sg112
g90
sg42
g43
sg113
g9
((lp257
g164
ag229
atRp258
sbatRp259
sg117
I00
sbatRp260
sg98
S'C'
sg99
I0
sg100
I00
sg101
(F747.41257258623443
F-65.047025406607688
F0.042446353310639728
tp261
sg103
(lp262
sg105
g1
sg106
g9
((ltRp263
sg108
g9
((lp264
(imodel.Bond
Bond
p265
(dp266
g105
g1
sg112
g90
sg42
g43
sg113
g9
((lp267
g164
ag118
atRp268
sbag255
ag224
ag193
atRp269
sg117
I00
sbatRp270
sg94
I00
sbsg24
g25
sg56
g9
((lp271
g204
ag235
ag173
ag124
atRp272
sg15
S'C'
sg78
I0
sg16
I00
sg79
(F747.41257258623443
F-65.047025406607688
F0.042446353310639728
tp273
sg81
(lp274
sg14
g1
sg83
g9
((ltRp275
sg85
g9
((lp276
(imodel.Bond
Bond
p277
(dp278
g14
g1
sg89
g90
sg24
g25
sg17
g9
((lp279
g158
ag124
atRp280
sbag181
ag212
ag243
atRp281
sg94
I00
sba(imodel.VarAtom
VarAtom
p282
(dp283
g3
VH17B_2
p284
sg21
I00
sg22
Nsg23
(imodel.Atom
Atom
p285
(dp286
g3
g284
sg14
g1
sg15
S'H'
sg16
I00
sg17
g9
((lp287
g282
a(imodel.VarAtom
VarAtom
p288
(dp289
g38
g284
sg39
I00
sg40
Nsg41
g285
sg42
g43
sg66
g9
((lp290
g118
atRp291
sg98
S'H'
sg99
I0
sg100
I00
sg101
(F738.99651747611176
F4.2786415666089246
F0.73732704695228546
tp292
sg103
(lp293
sg105
g1
sg106
g9
((ltRp294
sg108
g9
((lp295
(imodel.Bond
Bond
p296
(dp297
g105
g1
sg112
g90
sg42
g43
sg113
g9
((lp298
g118
ag288
atRp299
sbatRp300
sg117
I00
sbatRp301
sg94
I00
sbsg24
g25
sg56
g9
((lp302
g124
atRp303
sg15
S'H'
sg78
I0
sg16
I00
sg79
(F738.99651747611176
F4.2786415666089246
F0.73732704695228546
tp304
sg81
(lp305
sg14
g1
sg83
g9
((ltRp306
sg85
g9
((lp307
(imodel.Bond
Bond
p308
(dp309
g14
g1
sg89
g90
sg24
g25
sg17
g9
((lp310
g124
ag282
atRp311
sbatRp312
sg94
I00
sbatRp313
sg15
S'C'
sg78
I0
sg16
I00
sg79
(F703.30546164772647
F-25.701375911294111
F0.17174453134624779
tp314
sg81
(lp315
sg14
g1
sg83
g9
((ltRp316
sg85
g9
((lp317
(imodel.Bond
Bond
p318
(dp319
g14
g1
sg89
g90
sg24
g25
sg17
g9
((lp320
g124
ag58
atRp321
sbag277
ag153
ag308
atRp322
sg94
I00
sbag118
atRp323
sg94
I00
sbsg42
g43
sg66
g9
((lp324
g288
ag164
ag133
ag64
atRp325
sg98
S'C'
sg99
I0
sg100
I00
sg101
(F703.30546164772647
F-25.701375911294111
F0.17174453134624779
tp326
sg103
(lp327
sg105
g1
sg106
g9
((ltRp328
sg108
g9
((lp329
g265
ag141
a(imodel.Bond
Bond
p330
(dp331
g105
g1
sg112
g90
sg42
g43
sg113
g9
((lp332
g118
ag64
atRp333
sbag296
atRp334
sg117
I00
sba(imodel.VarAtom
VarAtom
p335
(dp336
g38
VC15B
p337
sg39
I00
sg40
Nsg41
(imodel.Atom
Atom
p338
(dp339
g3
g337
sg14
g1
sg15
S'C'
sg16
I00
sg17
g9
((lp340
(imodel.VarAtom
VarAtom
p341
(dp342
g3
g337
sg21
I00
sg22
Nsg23
g338
sg24
g25
sg56
g9
((lp343
(imodel.VarAtom
VarAtom
p344
(dp345
g3
VC14B
p346
sg21
I00
sg22
Nsg23
(imodel.Atom
Atom
p347
(dp348
g3
g346
sg14
g1
sg15
S'C'
sg16
I00
sg17
g9
((lp349
g344
a(imodel.VarAtom
VarAtom
p350
(dp351
g38
g346
sg39
I00
sg40
Nsg41
g347
sg42
g43
sg66
g9
((lp352
(imodel.VarAtom
VarAtom
p353
(dp354
g38
VH14B_2
p355
sg39
I00
sg40
Nsg41
(imodel.Atom
Atom
p356
(dp357
g3
g355
sg14
g1
sg15
S'H'
sg16
I00
sg17
g9
((lp358
(imodel.VarAtom
VarAtom
p359
(dp360
g3
g355
sg21
I00
sg22
Nsg23
g356
sg24
g25
sg56
g9
((lp361
g344
atRp362
sg15
S'H'
sg78
I0
sg16
I00
sg79
(F525.04684672576514
F-84.825554273925405
F0.42094672457428695
tp363
sg81
(lp364
sg14
g1
sg83
g9
((ltRp365
sg85
g9
((lp366
(imodel.Bond
Bond
p367
(dp368
g14
g1
sg89
g90
sg24
g25
sg17
g9
((lp369
g344
ag359
atRp370
sbatRp371
sg94
I00
sbag353
atRp372
sg94
I00
sbsg42
g43
sg66
g9
((lp373
g350
atRp374
sg98
S'H'
sg99
I0
sg100
I00
sg101
(F525.04684672576514
F-84.825554273925405
F0.42094672457428695
tp375
sg103
(lp376
sg105
g1
sg106
g9
((ltRp377
sg108
g9
((lp378
(imodel.Bond
Bond
p379
(dp380
g105
g1
sg112
g90
sg42
g43
sg113
g9
((lp381
g350
ag353
atRp382
sbatRp383
sg117
I00
sbag335
a(imodel.VarAtom
VarAtom
p384
(dp385
g38
VH14B_1
p386
sg39
I00
sg40
Nsg41
(imodel.Atom
Atom
p387
(dp388
g3
g386
sg14
g1
sg15
S'H'
sg16
I00
sg17
g9
((lp389
(imodel.VarAtom
VarAtom
p390
(dp391
g3
g386
sg21
I00
sg22
Nsg23
g387
sg24
g25
sg56
g9
((lp392
g344
atRp393
sg15
S'H'
sg78
I0
sg16
I00
sg79
(F576.19506629590012
F-81.017662853020823
F0.73556448060180024
tp394
sg81
(lp395
sg14
g1
sg83
g9
((ltRp396
sg85
g9
((lp397
(imodel.Bond
Bond
p398
(dp399
g14
g1
sg89
g90
sg24
g25
sg17
g9
((lp400
g344
ag390
atRp401
sbatRp402
sg94
I00
sbag384
atRp403
sg94
I00
sbsg42
g43
sg66
g9
((lp404
g350
atRp405
sg98
S'H'
sg99
I0
sg100
I00
sg101
(F576.19506629590012
F-81.017662853020823
F0.73556448060180024
tp406
sg103
(lp407
sg105
g1
sg106
g9
((ltRp408
sg108
g9
((lp409
(imodel.Bond
Bond
p410
(dp411
g105
g1
sg112
g90
sg42
g43
sg113
g9
((lp412
g350
ag384
atRp413
sbatRp414
sg117
I00
sba(imodel.VarAtom
VarAtom
p415
(dp416
g38
VC13B
p417
sg39
I00
sg40
Nsg41
(imodel.Atom
Atom
p418
(dp419
g3
g417
sg14
g1
sg15
S'C'
sg16
I00
sg17
g9
((lp420
(imodel.VarAtom
VarAtom
p421
(dp422
g3
g417
sg21
I00
sg22
Nsg23
g418
sg24
g25
sg56
g9
((lp423
(imodel.VarAtom
VarAtom
p424
(dp425
g3
VH13B_1
p426
sg21
I00
sg22
Nsg23
(imodel.Atom
Atom
p427
(dp428
g3
g426
sg14
g1
sg15
S'H'
sg16
I00
sg17
g9
((lp429
g424
a(imodel.VarAtom
VarAtom
p430
(dp431
g38
g426
sg39
I00
sg40
Nsg41
g427
sg42
g43
sg66
g9
((lp432
g415
atRp433
sg98
S'H'
sg99
I0
sg100
I00
sg101
(F525.47990725396221
F27.531880840090651
F0.22018144615161539
tp434
sg103
(lp435
sg105
g1
sg106
g9
((ltRp436
sg108
g9
((lp437
(imodel.Bond
Bond
p438
(dp439
g105
g1
sg112
g90
sg42
g43
sg113
g9
((lp440
g415
ag430
atRp441
sbatRp442
sg117
I00
sbatRp443
sg94
I00
sbsg24
g25
sg56
g9
((lp444
g421
atRp445
sg15
S'H'
sg78
I0
sg16
I00
sg79
(F525.47990725396221
F27.531880840090651
F0.22018144615161539
tp446
sg81
(lp447
sg14
g1
sg83
g9
((ltRp448
sg85
g9
((lp449
(imodel.Bond
Bond
p450
(dp451
g14
g1
sg89
g90
sg24
g25
sg17
g9
((lp452
g421
ag424
atRp453
sbatRp454
sg94
I00
sbag344
ag19
a(imodel.VarAtom
VarAtom
p455
(dp456
g3
VH13B_2
p457
sg21
I00
sg22
Nsg23
(imodel.Atom
Atom
p458
(dp459
g3
g457
sg14
g1
sg15
S'H'
sg16
I00
sg17
g9
((lp460
g455
a(imodel.VarAtom
VarAtom
p461
(dp462
g38
g457
sg39
I00
sg40
Nsg41
g458
sg42
g43
sg66
g9
((lp463
g415
atRp464
sg98
S'H'
sg99
I0
sg100
I00
sg101
(F470.95054847126755
F20.837175024833353
F0.1031341745622788
tp465
sg103
(lp466
sg105
g1
sg106
g9
((ltRp467
sg108
g9
((lp468
(imodel.Bond
Bond
p469
(dp470
g105
g1
sg112
g90
sg42
g43
sg113
g9
((lp471
g415
ag461
atRp472
sbatRp473
sg117
I00
sbatRp474
sg94
I00
sbsg24
g25
sg56
g9
((lp475
g421
atRp476
sg15
S'H'
sg78
I0
sg16
I00
sg79
(F470.95054847126755
F20.837175024833353
F0.1031341745622788
tp477
sg81
(lp478
sg14
g1
sg83
g9
((ltRp479
sg85
g9
((lp480
(imodel.Bond
Bond
p481
(dp482
g14
g1
sg89
g90
sg24
g25
sg17
g9
((lp483
g421
ag455
atRp484
sbatRp485
sg94
I00
sbatRp486
sg15
S'C'
sg78
I0
sg16
I00
sg79
(F499.09729401324711
F-10.660462761482176
F0.45987134661090334
tp487
sg81
(lp488
sg14
g1
sg83
g9
((ltRp489
sg85
g9
((lp490
(imodel.Bond
Bond
p491
(dp492
g14
g1
sg89
g90
sg24
g25
sg17
g9
((lp493
g421
ag19
atRp494
sba(imodel.Bond
Bond
p495
(dp496
g14
g1
sg89
g90
sg24
g25
sg17
g9
((lp497
g344
ag421
atRp498
sbag481
ag450
atRp499
sg94
I00
sbag415
atRp500
sg94
I00
sbsg42
g43
sg66
g9
((lp501
(imodel.VarAtom
VarAtom
p502
(dp503
g38
g13
sg39
I00
sg40
Nsg41
g11
sg42
g43
sg66
g9
((lp504
(imodel.VarAtom
VarAtom
p505
(dp506
g38
VC11B
p507
sg39
I00
sg40
Nsg41
(imodel.Atom
Atom
p508
(dp509
g3
g507
sg14
g1
sg15
S'C'
sg16
I00
sg17
g9
((lp510
(imodel.VarAtom
VarAtom
p511
(dp512
g3
g507
sg21
I00
sg22
Nsg23
g508
sg24
g25
sg56
g9
((lp513
(imodel.VarAtom
VarAtom
p514
(dp515
g3
VC10B
p516
sg21
I00
sg22
Nsg23
(imodel.Atom
Atom
p517
(dp518
g3
g516
sg14
g1
sg15
S'C'
sg16
I00
sg17
g9
((lp519
g514
a(imodel.VarAtom
VarAtom
p520
(dp521
g38
g516
sg39
I00
sg40
Nsg41
g517
sg42
g43
sg66
g9
((lp522
(imodel.VarAtom
VarAtom
p523
(dp524
g38
VH10B
p525
sg39
I00
sg40
Nsg41
(imodel.Atom
Atom
p526
(dp527
S'name'
p528
g525
sS'compound'
p529
g1
sS'element'
p530
S'H'
sS'isVariable'
p531
I00
sS'varAtoms'
p532
g9
((lp533
(imodel.VarAtom
VarAtom
p534
(dp535
g528
g525
sS'isLabile'
p536
I00
sS'chirality'
p537
NsS'atom'
p538
g526
sS'variant'
p539
g25
sS'neighbours'
p540
g9
((lp541
g514
atRp542
sg530
S'H'
sS'charge'
p543
I0
sg531
I00
sS'coords'
p544
(F365.08216537456991
F-80.131398080117393
F0.35008277141389865
tp545
sS'freeValences'
p546
(lp547
sg529
g1
sS'atomGroups'
p548
g9
((ltRp549
sS'bonds'
p550
g9
((lp551
(imodel.Bond
Bond
p552
(dp553
g529
g1
sS'bondType'
p554
S'single'
p555
sg539
g25
sg532
g9
((lp556
g514
ag534
atRp557
sbatRp558
sS'isDeleted'
p559
I00
sbag523
atRp560
sg559
I00
sbsg42
g43
sg66
g9
((lp561
g520
atRp562
sg98
S'H'
sg99
I0
sg100
I00
sg101
(F365.08216537456991
F-80.131398080117393
F0.35008277141389865
tp563
sg103
(lp564
sg105
g1
sg106
g9
((ltRp565
sg108
g9
((lp566
(imodel.Bond
Bond
p567
(dp568
g105
g1
sg112
g555
sg42
g43
sg113
g9
((lp569
g520
ag523
atRp570
sbatRp571
sg117
I00
sba(imodel.VarAtom
VarAtom
p572
(dp573
g38
VC9B
p574
sg39
I00
sg40
Nsg41
(imodel.Atom
Atom
p575
(dp576
g3
g574
sg14
g1
sg15
S'C'
sg16
I00
sg17
g9
((lp577
(imodel.VarAtom
VarAtom
p578
(dp579
g3
g574
sg21
I00
sg22
Nsg23
g575
sg24
g25
sg56
g9
((lp580
(imodel.VarAtom
VarAtom
p581
(dp582
g3
VC8B
p583
sg21
I00
sg22
Nsg23
(imodel.Atom
Atom
p584
(dp585
g3
g583
sg14
g1
sg15
S'C'
sg16
I00
sg17
g9
((lp586
g581
a(imodel.VarAtom
VarAtom
p587
(dp588
g38
g583
sg39
I00
sg40
Nsg41
g584
sg42
g43
sg66
g9
((lp589
g572
a(imodel.VarAtom
VarAtom
p590
(dp591
g38
VC7B
p592
sg39
I00
sg40
Nsg41
(imodel.Atom
Atom
p593
(dp594
g3
g592
sg14
g1
sg15
S'C'
sg16
I00
sg17
g9
((lp595
(imodel.VarAtom
VarAtom
p596
(dp597
g3
g592
sg21
I00
sg22
Nsg23
g593
sg24
g25
sg56
g9
((lp598
(imodel.VarAtom
VarAtom
p599
(dp600
g3
VC6B
p601
sg21
I00
sg22
Nsg23
(imodel.Atom
Atom
p602
(dp603
g3
g601
sg14
g1
sg15
S'C'
sg16
I00
sg17
g9
((lp604
g599
a(imodel.VarAtom
VarAtom
p605
(dp606
g38
g601
sg39
I00
sg40
Nsg41
g602
sg42
g43
sg66
g9
((lp607
(imodel.VarAtom
VarAtom
p608
(dp609
g38
VH6B_1
p610
sg39
I00
sg40
Nsg41
(imodel.Atom
Atom
p611
(dp612
S'name'
p613
g610
sS'compound'
p614
g1
sS'element'
p615
S'H'
sS'isVariable'
p616
I00
sS'varAtoms'
p617
g9
((lp618
(imodel.VarAtom
VarAtom
p619
(dp620
g613
g610
sS'isLabile'
p621
I00
sS'chirality'
p622
NsS'atom'
p623
g611
sS'variant'
p624
g25
sS'neighbours'
p625
g9
((lp626
g599
atRp627
sg615
S'H'
sS'charge'
p628
I0
sg616
I00
sS'coords'
p629
(F201.25901286722092
F43.133774330280502
F0.33673179935893205
tp630
sS'freeValences'
p631
(lp632
sg614
g1
sS'atomGroups'
p633
g9
((ltRp634
sS'bonds'
p635
g9
((lp636
(imodel.Bond
Bond
p637
(dp638
g614
g1
sS'bondType'
p639
S'single'
p640
sg624
g25
sg617
g9
((lp641
g599
ag619
atRp642
sbatRp643
sS'isDeleted'
p644
I00
sbag608
atRp645
sg644
I00
sbsg42
g43
sg66
g9
((lp646
g605
atRp647
sg98
S'H'
sg99
I0
sg100
I00
sg101
(F201.25901286722092
F43.133774330280502
F0.33673179935893205
tp648
sg103
(lp649
sg105
g1
sg106
g9
((ltRp650
sg108
g9
((lp651
(imodel.Bond
Bond
p652
(dp653
g105
g1
sg112
g640
sg42
g43
sg113
g9
((lp654
g605
ag608
atRp655
sbatRp656
sg117
I00
sbag590
a(imodel.VarAtom
VarAtom
p657
(dp658
g38
VH6B_2
p659
sg39
I00
sg40
Nsg41
(imodel.Atom
Atom
p660
(dp661
g3
g659
sg14
g1
sg15
S'H'
sg16
I00
sg17
g9
((lp662
(imodel.VarAtom
VarAtom
p663
(dp664
g3
g659
sg21
I00
sg22
Nsg23
g660
sg24
g25
sg56
g9
((lp665
g599
atRp666
sg15
S'H'
sg78
I0
sg16
I00
sg79
(F143.75230915822175
F40.932415533391911
F0.479181583363536
tp667
sg81
(lp668
sg14
g1
sg83
g9
((ltRp669
sg85
g9
((lp670
(imodel.Bond
Bond
p671
(dp672
g14
g1
sg89
g90
sg24
g25
sg17
g9
((lp673
g599
ag663
atRp674
sbatRp675
sg94
I00
sbag657
atRp676
sg94
I00
sbsg42
g43
sg66
g9
((lp677
g605
atRp678
sg98
S'H'
sg99
I0
sg100
I00
sg101
(F143.75230915822175
F40.932415533391911
F0.479181583363536
tp679
sg103
(lp680
sg105
g1
sg106
g9
((ltRp681
sg108
g9
((lp682
(imodel.Bond
Bond
p683
(dp684
g105
g1
sg112
g90
sg42
g43
sg113
g9
((lp685
g605
ag657
atRp686
sbatRp687
sg117
I00
sba(imodel.VarAtom
VarAtom
p688
(dp689
g38
VC5B
p690
sg39
I00
sg40
Nsg41
(imodel.Atom
Atom
p691
(dp692
g3
g690
sg14
g1
sg15
S'C'
sg16
I00
sg17
g9
((lp693
(imodel.VarAtom
VarAtom
p694
(dp695
g3
g690
sg21
I00
sg22
Nsg23
g691
sg24
g25
sg56
g9
((lp696
(imodel.VarAtom
VarAtom
p697
(dp698
g3
VH5B_1
p699
sg21
I00
sg22
Nsg23
(imodel.Atom
Atom
p700
(dp701
g3
g699
sg14
g1
sg15
S'H'
sg16
I00
sg17
g9
((lp702
g697
a(imodel.VarAtom
VarAtom
p703
(dp704
g38
g699
sg39
I00
sg40
Nsg41
g700
sg42
g43
sg66
g9
((lp705
g688
atRp706
sg98
S'H'
sg99
I0
sg100
I00
sg101
(F127.66444042327453
F-55.066348934569433
F0.53060810605998143
tp707
sg103
(lp708
sg105
g1
sg106
g9
((ltRp709
sg108
g9
((lp710
(imodel.Bond
Bond
p711
(dp712
g105
g1
sg112
g90
sg42
g43
sg113
g9
((lp713
g688
ag703
atRp714
sbatRp715
sg117
I00
sbatRp716
sg94
I00
sbsg24
g25
sg56
g9
((lp717
g694
atRp718
sg15
S'H'
sg78
I0
sg16
I00
sg79
(F127.66444042327453
F-55.066348934569433
F0.53060810605998143
tp719
sg81
(lp720
sg14
g1
sg83
g9
((ltRp721
sg85
g9
((lp722
(imodel.Bond
Bond
p723
(dp724
g14
g1
sg89
g90
sg24
g25
sg17
g9
((lp725
g694
ag697
atRp726
sbatRp727
sg94
I00
sba(imodel.VarAtom
VarAtom
p728
(dp729
g3
VC4B
p730
sg21
I00
sg22
Nsg23
(imodel.Atom
Atom
p731
(dp732
g3
g730
sg14
g1
sg15
S'C'
sg16
I00
sg17
g9
((lp733
g728
a(imodel.VarAtom
VarAtom
p734
(dp735
g38
g730
sg39
I00
sg40
Nsg41
g731
sg42
g43
sg66
g9
((lp736
(imodel.VarAtom
VarAtom
p737
(dp738
g38
VH4B_2
p739
sg39
I00
sg40
Nsg41
(imodel.Atom
Atom
p740
(dp741
g3
g739
sg14
g1
sg15
S'H'
sg16
I00
sg17
g9
((lp742
(imodel.VarAtom
VarAtom
p743
(dp744
g3
g739
sg21
I00
sg22
Nsg23
g740
sg24
g25
sg56
g9
((lp745
g728
atRp746
sg15
S'H'
sg78
I0
sg16
I00
sg79
(F44.577505091706975
F68.706095691309372
F0.87474401389444845
tp747
sg81
(lp748
sg14
g1
sg83
g9
((ltRp749
sg85
g9
((lp750
(imodel.Bond
Bond
p751
(dp752
g14
g1
sg89
g90
sg24
g25
sg17
g9
((lp753
g728
ag743
atRp754
sbatRp755
sg94
I00
sbag737
atRp756
sg94
I00
sbsg42
g43
sg66
g9
((lp757
g734
atRp758
sg98
S'H'
sg99
I0
sg100
I00
sg101
(F44.577505091706975
F68.706095691309372
F0.87474401389444845
tp759
sg103
(lp760
sg105
g1
sg106
g9
((ltRp761
sg108
g9
((lp762
(imodel.Bond
Bond
p763
(dp764
g105
g1
sg112
g90
sg42
g43
sg113
g9
((lp765
g734
ag737
atRp766
sbatRp767
sg117
I00
sba(imodel.VarAtom
VarAtom
p768
(dp769
g38
VH4B_1
p770
sg39
I00
sg40
Nsg41
(imodel.Atom
Atom
p771
(dp772
g613
g770
sg614
g1
sg615
S'H'
sg616
I00
sg617
g9
((lp773
(imodel.VarAtom
VarAtom
p774
(dp775
g613
g770
sg621
I00
sg622
Nsg623
g771
sg624
g25
sg625
g9
((lp776
g728
atRp777
sg615
S'H'
sg628
I0
sg616
I00
sg629
(F100.92128754664219
F57.327595249128933
F0.36493118429722116
tp778
sg631
(lp779
sg614
g1
sg633
g9
((ltRp780
sg635
g9
((lp781
(imodel.Bond
Bond
p782
(dp783
g614
g1
sg639
g640
sg624
g25
sg617
g9
((lp784
g728
ag774
atRp785
sbatRp786
sg644
I00
sbag768
atRp787
sg644
I00
sbsg42
g43
sg66
g9
((lp788
g734
atRp789
sg98
S'H'
sg99
I0
sg100
I00
sg101
(F100.92128754664219
F57.327595249128933
F0.36493118429722116
tp790
sg103
(lp791
sg105
g1
sg106
g9
((ltRp792
sg108
g9
((lp793
(imodel.Bond
Bond
p794
(dp795
g105
g1
sg112
g640
sg42
g43
sg113
g9
((lp796
g734
ag768
atRp797
sbatRp798
sg117
I00
sba(imodel.VarAtom
VarAtom
p799
(dp800
g38
VC3B
p801
sg39
I00
sg40
Nsg41
(imodel.Atom
Atom
p802
(dp803
g3
g801
sg14
g1
sg15
S'C'
sg16
I00
sg17
g9
((lp804
(imodel.VarAtom
VarAtom
p805
(dp806
g3
g801
sg21
I00
sg22
Nsg23
g802
sg24
g25
sg56
g9
((lp807
(imodel.VarAtom
VarAtom
p808
(dp809
g3
VC2B
p810
sg21
I00
sg22
Nsg23
(imodel.Atom
Atom
p811
(dp812
g3
g810
sg14
g1
sg15
S'C'
sg16
I00
sg17
g9
((lp813
g808
a(imodel.VarAtom
VarAtom
p814
(dp815
g38
g810
sg39
I00
sg40
Nsg41
g811
sg42
g43
sg66
g9
((lp816
(imodel.VarAtom
VarAtom
p817
(dp818
g38
VH2B_2
p819
sg39
I00
sg40
Nsg41
(imodel.Atom
Atom
p820
(dp821
g3
g819
sg14
g1
sg15
S'H'
sg16
I00
sg17
g9
((lp822
(imodel.VarAtom
VarAtom
p823
(dp824
g3
g819
sg21
I00
sg22
Nsg23
g820
sg24
g25
sg56
g9
((lp825
g808
atRp826
sg15
S'H'
sg78
I0
sg16
I00
sg79
(F-89.543540439467336
F-27.51017085411263
F0.01937565337105851
tp827
sg81
(lp828
sg14
g1
sg83
g9
((ltRp829
sg85
g9
((lp830
(imodel.Bond
Bond
p831
(dp832
g14
g1
sg89
g90
sg24
g25
sg17
g9
((lp833
g808
ag823
atRp834
sbatRp835
sg94
I00
sbag817
atRp836
sg94
I00
sbsg42
g43
sg66
g9
((lp837
g814
atRp838
sg98
S'H'
sg99
I0
sg100
I00
sg101
(F-89.543540439467336
F-27.51017085411263
F0.01937565337105851
tp839
sg103
(lp840
sg105
g1
sg106
g9
((ltRp841
sg108
g9
((lp842
(imodel.Bond
Bond
p843
(dp844
g105
g1
sg112
g90
sg42
g43
sg113
g9
((lp845
g814
ag817
atRp846
sbatRp847
sg117
I00
sba(imodel.VarAtom
VarAtom
p848
(dp849
g38
VH2B_1
p850
sg39
I00
sg40
Nsg41
(imodel.Atom
Atom
p851
(dp852
g3
g850
sg14
g1
sg15
S'H'
sg16
I00
sg17
g9
((lp853
(imodel.VarAtom
VarAtom
p854
(dp855
g3
g850
sg21
I00
sg22
Nsg23
g851
sg24
g25
sg56
g9
((lp856
g808
atRp857
sg15
S'H'
sg78
I0
sg16
I00
sg79
(F-30.920155927212566
F-50.615583297258709
F0.075711817633476564
tp858
sg81
(lp859
sg14
g1
sg83
g9
((ltRp860
sg85
g9
((lp861
(imodel.Bond
Bond
p862
(dp863
g14
g1
sg89
g90
sg24
g25
sg17
g9
((lp864
g808
ag854
atRp865
sbatRp866
sg94
I00
sbag848
atRp867
sg94
I00
sbsg42
g43
sg66
g9
((lp868
g814
atRp869
sg98
S'H'
sg99
I0
sg100
I00
sg101
(F-30.920155927212566
F-50.615583297258709
F0.075711817633476564
tp870
sg103
(lp871
sg105
g1
sg106
g9
((ltRp872
sg108
g9
((lp873
(imodel.Bond
Bond
p874
(dp875
g105
g1
sg112
g90
sg42
g43
sg113
g9
((lp876
g814
ag848
atRp877
sbatRp878
sg117
I00
sbag799
a(imodel.VarAtom
VarAtom
p879
(dp880
g38
VC1B
p881
sg39
I00
sg40
Nsg41
(imodel.Atom
Atom
p882
(dp883
g3
g881
sg14
g1
sg15
S'C'
sg16
I00
sg17
g9
((lp884
(imodel.VarAtom
VarAtom
p885
(dp886
g3
g881
sg21
I00
sg22
Nsg23
g882
sg24
g25
sg56
g9
((lp887
(imodel.VarAtom
VarAtom
p888
(dp889
g3
VO2
p890
sg21
I00
sg22
Nsg23
(imodel.Atom
Atom
p891
(dp892
g3
g890
sg14
g1
sg15
S'O'
sg16
I00
sg17
g9
((lp893
g888
a(imodel.VarAtom
VarAtom
p894
(dp895
g38
g890
sg39
I00
sg40
Nsg41
g891
sg42
g43
sg66
g9
((lp896
(imodel.VarAtom
VarAtom
p897
(dp898
g38
VC2
p899
sg39
I00
sg40
Nsg41
(imodel.Atom
Atom
p900
(dp901
g3
g899
sg14
g1
sg15
S'C'
sg16
I00
sg17
g9
((lp902
(imodel.VarAtom
VarAtom
p903
(dp904
g3
g899
sg21
I00
sg22
Nsg23
g900
sg24
g25
sg56
g9
((lp905
g888
a(imodel.VarAtom
VarAtom
p906
(dp907
g3
VC1
p908
sg21
I00
sg22
Nsg23
(imodel.Atom
Atom
p909
(dp910
g3
g908
sg14
g1
sg15
S'C'
sg16
I00
sg17
g9
((lp911
g906
a(imodel.VarAtom
VarAtom
p912
(dp913
g38
g908
sg39
I00
sg40
Nsg41
g909
sg42
g43
sg66
g9
((lp914
(imodel.VarAtom
VarAtom
p915
(dp916
g38
VO1
p917
sg39
I00
sg40
Nsg41
(imodel.Atom
Atom
p918
(dp919
g3
g917
sg14
g1
sg15
S'O'
sg16
I00
sg17
g9
((lp920
(imodel.VarAtom
VarAtom
p921
(dp922
g3
g917
sg21
I00
sg22
Nsg23
g918
sg24
g25
sg56
g9
((lp923
g906
a(imodel.VarAtom
VarAtom
p924
(dp925
g3
VC1A
p926
sg21
I00
sg22
Nsg23
(imodel.Atom
Atom
p927
(dp928
g3
g926
sg14
g1
sg15
S'C'
sg16
I00
sg17
g9
((lp929
g924
a(imodel.VarAtom
VarAtom
p930
(dp931
g38
g926
sg39
I00
sg40
Nsg41
g927
sg42
g43
sg66
g9
((lp932
(imodel.VarAtom
VarAtom
p933
(dp934
g38
VO1A
p935
sg39
I00
sg40
Nsg41
(imodel.Atom
Atom
p936
(dp937
g3
g935
sg14
g1
sg15
S'O'
sg16
I00
sg17
g9
((lp938
(imodel.VarAtom
VarAtom
p939
(dp940
g3
g935
sg21
I00
sg22
Nsg23
g936
sg24
g25
sg56
g9
((lp941
g924
atRp942
sg15
S'O'
sg78
I0
sg16
I00
sg79
(F13.030114925687799
F294.48025404845782
F0.82554695592916238
tp943
sg81
(lp944
sg14
g1
sg83
g9
((ltRp945
sg85
g9
((lp946
(imodel.Bond
Bond
p947
(dp948
g14
g1
sg89
S'double'
p949
sg24
g25
sg17
g9
((lp950
g924
ag939
atRp951
sbatRp952
sg94
I00
sbag933
atRp953
sg94
I00
sbsg42
g43
sg66
g9
((lp954
g930
atRp955
sg98
S'O'
sg99
I0
sg100
I00
sg101
(F13.030114925687799
F294.48025404845782
F0.82554695592916238
tp956
sg103
(lp957
sg105
g1
sg106
g9
((ltRp958
sg108
g9
((lp959
(imodel.Bond
Bond
p960
(dp961
g105
g1
sg112
g949
sg42
g43
sg113
g9
((lp962
g930
ag933
atRp963
sbatRp964
sg117
I00
sba(imodel.VarAtom
VarAtom
p965
(dp966
g38
VC2A
p967
sg39
I00
sg40
Nsg41
(imodel.Atom
Atom
p968
(dp969
g3
g967
sg14
g1
sg15
S'C'
sg16
I00
sg17
g9
((lp970
(imodel.VarAtom
VarAtom
p971
(dp972
g3
g967
sg21
I00
sg22
Nsg23
g968
sg24
g25
sg56
g9
((lp973
(imodel.VarAtom
VarAtom
p974
(dp975
g3
VC3A
p976
sg21
I00
sg22
Nsg23
(imodel.Atom
Atom
p977
(dp978
g3
g976
sg14
g1
sg15
S'C'
sg16
I00
sg17
g9
((lp979
g974
a(imodel.VarAtom
VarAtom
p980
(dp981
g38
g976
sg39
I00
sg40
Nsg41
g977
sg42
g43
sg66
g9
((lp982
(imodel.VarAtom
VarAtom
p983
(dp984
g38
VC4A
p985
sg39
I00
sg40
Nsg41
(imodel.Atom
Atom
p986
(dp987
g3
g985
sg14
g1
sg15
S'C'
sg16
I00
sg17
g9
((lp988
(imodel.VarAtom
VarAtom
p989
(dp990
g3
g985
sg21
I00
sg22
Nsg23
g986
sg24
g25
sg56
g9
((lp991
g974
a(imodel.VarAtom
VarAtom
p992
(dp993
g3
VH4A_1
p994
sg21
I00
sg22
Nsg23
(imodel.Atom
Atom
p995
(dp996
g3
g994
sg14
g1
sg15
S'H'
sg16
I00
sg17
g9
((lp997
g992
a(imodel.VarAtom
VarAtom
p998
(dp999
g38
g994
sg39
I00
sg40
Nsg41
g995
sg42
g43
sg66
g9
((lp1000
g983
atRp1001
sg98
S'H'
sg99
I0
sg100
I00
sg101
(F171.2061438910161
F163.11592188962766
F0.73992999980973662
tp1002
sg103
(lp1003
sg105
g1
sg106
g9
((ltRp1004
sg108
g9
((lp1005
(imodel.Bond
Bond
p1006
(dp1007
g105
g1
sg112
g90
sg42
g43
sg113
g9
((lp1008
g983
ag998
atRp1009
sbatRp1010
sg117
I00
sbatRp1011
sg94
I00
sbsg24
g25
sg56
g9
((lp1012
g989
atRp1013
sg15
S'H'
sg78
I0
sg16
I00
sg79
(F171.2061438910161
F163.11592188962766
F0.73992999980973662
tp1014
sg81
(lp1015
sg14
g1
sg83
g9
((ltRp1016
sg85
g9
((lp1017
(imodel.Bond
Bond
p1018
(dp1019
g14
g1
sg89
g90
sg24
g25
sg17
g9
((lp1020
g989
ag992
atRp1021
sbatRp1022
sg94
I00
sba(imodel.VarAtom
VarAtom
p1023
(dp1024
g3
VH4A_2
p1025
sg21
I00
sg22
Nsg23
(imodel.Atom
Atom
p1026
(dp1027
g3
g1025
sg14
g1
sg15
S'H'
sg16
I00
sg17
g9
((lp1028
g1023
a(imodel.VarAtom
VarAtom
p1029
(dp1030
g38
g1025
sg39
I00
sg40
Nsg41
g1026
sg42
g43
sg66
g9
((lp1031
g983
atRp1032
sg98
S'H'
sg99
I0
sg100
I00
sg101
(F121.50628561213102
F160.31120675840521
F0.75023233272948009
tp1033
sg103
(lp1034
sg105
g1
sg106
g9
((ltRp1035
sg108
g9
((lp1036
(imodel.Bond
Bond
p1037
(dp1038
g105
g1
sg112
g90
sg42
g43
sg113
g9
((lp1039
g983
ag1029
atRp1040
sbatRp1041
sg117
I00
sbatRp1042
sg94
I00
sbsg24
g25
sg56
g9
((lp1043
g989
atRp1044
sg15
S'H'
sg78
I0
sg16
I00
sg79
(F121.50628561213102
F160.31120675840521
F0.75023233272948009
tp1045
sg81
(lp1046
sg14
g1
sg83
g9
((ltRp1047
sg85
g9
((lp1048
(imodel.Bond
Bond
p1049
(dp1050
g14
g1
sg89
g90
sg24
g25
sg17
g9
((lp1051
g989
ag1023
atRp1052
sbatRp1053
sg94
I00
sba(imodel.VarAtom
VarAtom
p1054
(dp1055
g3
VC5A
p1056
sg21
I00
sg22
Nsg23
(imodel.Atom
Atom
p1057
(dp1058
g3
g1056
sg14
g1
sg15
S'C'
sg16
I00
sg17
g9
((lp1059
g1054
a(imodel.VarAtom
VarAtom
p1060
(dp1061
g38
g1056
sg39
I00
sg40
Nsg41
g1057
sg42
g43
sg66
g9
((lp1062
g983
a(imodel.VarAtom
VarAtom
p1063
(dp1064
g38
VH5A_1
p1065
sg39
I00
sg40
Nsg41
(imodel.Atom
Atom
p1066
(dp1067
g3
g1065
sg14
g1
sg15
S'H'
sg16
I00
sg17
g9
((lp1068
(imodel.VarAtom
VarAtom
p1069
(dp1070
g3
g1065
sg21
I00
sg22
Nsg23
g1066
sg24
g25
sg56
g9
((lp1071
g1054
atRp1072
sg15
S'H'
sg78
I0
sg16
I00
sg79
(F169.79469770659739
F261.42106399960738
F0.96235947785776788
tp1073
sg81
(lp1074
sg14
g1
sg83
g9
((ltRp1075
sg85
g9
((lp1076
(imodel.Bond
Bond
p1077
(dp1078
g14
g1
sg89
g90
sg24
g25
sg17
g9
((lp1079
g1054
ag1069
atRp1080
sbatRp1081
sg94
I00
sbag1063
atRp1082
sg94
I00
sbsg42
g43
sg66
g9
((lp1083
g1060
atRp1084
sg98
S'H'
sg99
I0
sg100
I00
sg101
(F169.79469770659739
F261.42106399960738
F0.96235947785776788
tp1085
sg103
(lp1086
sg105
g1
sg106
g9
((ltRp1087
sg108
g9
((lp1088
(imodel.Bond
Bond
p1089
(dp1090
g105
g1
sg112
g90
sg42
g43
sg113
g9
((lp1091
g1060
ag1063
atRp1092
sbatRp1093
sg117
I00
sba(imodel.VarAtom
VarAtom
p1094
(dp1095
g38
VC6A
p1096
sg39
I00
sg40
Nsg41
(imodel.Atom
Atom
p1097
(dp1098
g3
g1096
sg14
g1
sg15
S'C'
sg16
I00
sg17
g9
((lp1099
(imodel.VarAtom
VarAtom
p1100
(dp1101
g3
g1096
sg21
I00
sg22
Nsg23
g1097
sg24
g25
sg56
g9
((lp1102
g1054
a(imodel.VarAtom
VarAtom
p1103
(dp1104
g3
VC7A
p1105
sg21
I00
sg22
Nsg23
(imodel.Atom
Atom
p1106
(dp1107
g3
g1105
sg14
g1
sg15
S'C'
sg16
I00
sg17
g9
((lp1108
g1103
a(imodel.VarAtom
VarAtom
p1109
(dp1110
g38
g1105
sg39
I00
sg40
Nsg41
g1106
sg42
g43
sg66
g9
((lp1111
(imodel.VarAtom
VarAtom
p1112
(dp1113
g38
VH7A_1
p1114
sg39
I00
sg40
Nsg41
(imodel.Atom
Atom
p1115
(dp1116
g3
g1114
sg14
g1
sg15
S'H'
sg16
I00
sg17
g9
((lp1117
(imodel.VarAtom
VarAtom
p1118
(dp1119
g3
g1114
sg21
I00
sg22
Nsg23
g1115
sg24
g25
sg56
g9
((lp1120
g1103
atRp1121
sg15
S'H'
sg78
I0
sg16
I00
sg79
(F269.68601193861969
F256.75588076948299
F0.41923764945858799
tp1122
sg81
(lp1123
sg14
g1
sg83
g9
((ltRp1124
sg85
g9
((lp1125
(imodel.Bond
Bond
p1126
(dp1127
g14
g1
sg89
g90
sg24
g25
sg17
g9
((lp1128
g1103
ag1118
atRp1129
sbatRp1130
sg94
I00
sbag1112
atRp1131
sg94
I00
sbsg42
g43
sg66
g9
((lp1132
g1109
atRp1133
sg98
S'H'
sg99
I0
sg100
I00
sg101
(F269.68601193861969
F256.75588076948299
F0.41923764945858799
tp1134
sg103
(lp1135
sg105
g1
sg106
g9
((ltRp1136
sg108
g9
((lp1137
(imodel.Bond
Bond
p1138
(dp1139
g105
g1
sg112
g90
sg42
g43
sg113
g9
((lp1140
g1109
ag1112
atRp1141
sbatRp1142
sg117
I00
sba(imodel.VarAtom
VarAtom
p1143
(dp1144
g38
VC8A
p1145
sg39
I00
sg40
Nsg41
(imodel.Atom
Atom
p1146
(dp1147
g3
g1145
sg14
g1
sg15
S'C'
sg16
I00
sg17
g9
((lp1148
(imodel.VarAtom
VarAtom
p1149
(dp1150
g3
g1145
sg21
I00
sg22
Nsg23
g1146
sg24
g25
sg56
g9
((lp1151
(imodel.VarAtom
VarAtom
p1152
(dp1153
g3
VH8A_1
p1154
sg21
I00
sg22
Nsg23
(imodel.Atom
Atom
p1155
(dp1156
g3
g1154
sg14
g1
sg15
S'H'
sg16
I00
sg17
g9
((lp1157
g1152
a(imodel.VarAtom
VarAtom
p1158
(dp1159
g38
g1154
sg39
I00
sg40
Nsg41
g1155
sg42
g43
sg66
g9
((lp1160
g1143
atRp1161
sg98
S'H'
sg99
I0
sg100
I00
sg101
(F376.80257952200344
F155.62130739489024
F0.88373074137544005
tp1162
sg103
(lp1163
sg105
g1
sg106
g9
((ltRp1164
sg108
g9
((lp1165
(imodel.Bond
Bond
p1166
(dp1167
g105
g1
sg112
g90
sg42
g43
sg113
g9
((lp1168
g1143
ag1158
atRp1169
sbatRp1170
sg117
I00
sbatRp1171
sg94
I00
sbsg24
g25
sg56
g9
((lp1172
g1149
atRp1173
sg15
S'H'
sg78
I0
sg16
I00
sg79
(F376.80257952200344
F155.62130739489024
F0.88373074137544005
tp1174
sg81
(lp1175
sg14
g1
sg83
g9
((ltRp1176
sg85
g9
((lp1177
(imodel.Bond
Bond
p1178
(dp1179
g14
g1
sg89
g90
sg24
g25
sg17
g9
((lp1180
g1149
ag1152
atRp1181
sbatRp1182
sg94
I00
sba(imodel.VarAtom
VarAtom
p1183
(dp1184
g3
VH8A_2
p1185
sg21
I00
sg22
Nsg23
(imodel.Atom
Atom
p1186
(dp1187
g3
g1185
sg14
g1
sg15
S'H'
sg16
I00
sg17
g9
((lp1188
g1183
a(imodel.VarAtom
VarAtom
p1189
(dp1190
g38
g1185
sg39
I00
sg40
Nsg41
g1186
sg42
g43
sg66
g9
((lp1191
g1143
atRp1192
sg98
S'H'
sg99
I0
sg100
I00
sg101
(F322.93879146621327
F150.34845430751062
F0.095427760018168661
tp1193
sg103
(lp1194
sg105
g1
sg106
g9
((ltRp1195
sg108
g9
((lp1196
(imodel.Bond
Bond
p1197
(dp1198
g105
g1
sg112
g90
sg42
g43
sg113
g9
((lp1199
g1143
ag1189
atRp1200
sbatRp1201
sg117
I00
sbatRp1202
sg94
I00
sbsg24
g25
sg56
g9
((lp1203
g1149
atRp1204
sg15
S'H'
sg78
I0
sg16
I00
sg79
(F322.93879146621327
F150.34845430751062
F0.095427760018168661
tp1205
sg81
(lp1206
sg14
g1
sg83
g9
((ltRp1207
sg85
g9
((lp1208
(imodel.Bond
Bond
p1209
(dp1210
g14
g1
sg89
g90
sg24
g25
sg17
g9
((lp1211
g1149
ag1183
atRp1212
sbatRp1213
sg94
I00
sba(imodel.VarAtom
VarAtom
p1214
(dp1215
g3
VC9A
p1216
sg21
I00
sg22
Nsg23
(imodel.Atom
Atom
p1217
(dp1218
g3
g1216
sg14
g1
sg15
S'C'
sg16
I00
sg17
g9
((lp1219
g1214
a(imodel.VarAtom
VarAtom
p1220
(dp1221
g38
g1216
sg39
I00
sg40
Nsg41
g1217
sg42
g43
sg66
g9
((lp1222
g1143
a(imodel.VarAtom
VarAtom
p1223
(dp1224
g38
VC10A
p1225
sg39
I00
sg40
Nsg41
(imodel.Atom
Atom
p1226
(dp1227
g3
g1225
sg14
g1
sg15
S'C'
sg16
I00
sg17
g9
((lp1228
(imodel.VarAtom
VarAtom
p1229
(dp1230
g3
g1225
sg21
I00
sg22
Nsg23
g1226
sg24
g25
sg56
g9
((lp1231
g1214
a(imodel.VarAtom
VarAtom
p1232
(dp1233
g3
VH10A
p1234
sg21
I00
sg22
Nsg23
(imodel.Atom
Atom
p1235
(dp1236
g3
g1234
sg14
g1
sg15
S'H'
sg16
I00
sg17
g9
((lp1237
g1232
a(imodel.VarAtom
VarAtom
p1238
(dp1239
g38
g1234
sg39
I00
sg40
Nsg41
g1235
sg42
g43
sg66
g9
((lp1240
g1223
atRp1241
sg98
S'H'
sg99
I0
sg100
I00
sg101
(F449.81668380766416
F250.68794306976281
F0.43459614539243274
tp1242
sg103
(lp1243
sg105
g1
sg106
g9
((ltRp1244
sg108
g9
((lp1245
(imodel.Bond
Bond
p1246
(dp1247
g105
g1
sg112
g90
sg42
g43
sg113
g9
((lp1248
g1223
ag1238
atRp1249
sbatRp1250
sg117
I00
sbatRp1251
sg94
I00
sbsg24
g25
sg56
g9
((lp1252
g1229
atRp1253
sg15
S'H'
sg78
I0
sg16
I00
sg79
(F449.81668380766416
F250.68794306976281
F0.43459614539243274
tp1254
sg81
(lp1255
sg14
g1
sg83
g9
((ltRp1256
sg85
g9
((lp1257
(imodel.Bond
Bond
p1258
(dp1259
g14
g1
sg89
g90
sg24
g25
sg17
g9
((lp1260
g1229
ag1232
atRp1261
sbatRp1262
sg94
I00
sba(imodel.VarAtom
VarAtom
p1263
(dp1264
g3
VC11A
p1265
sg21
I00
sg22
Nsg23
(imodel.Atom
Atom
p1266
(dp1267
g3
g1265
sg14
g1
sg15
S'C'
sg16
I00
sg17
g9
((lp1268
g1263
a(imodel.VarAtom
VarAtom
p1269
(dp1270
g38
g1265
sg39
I00
sg40
Nsg41
g1266
sg42
g43
sg66
g9
((lp1271
(imodel.VarAtom
VarAtom
p1272
(dp1273
g38
VH11A_1
p1274
sg39
I00
sg40
Nsg41
(imodel.Atom
Atom
p1275
(dp1276
g3
g1274
sg14
g1
sg15
S'H'
sg16
I00
sg17
g9
((lp1277
(imodel.VarAtom
VarAtom
p1278
(dp1279
g3
g1274
sg21
I00
sg22
Nsg23
g1275
sg24
g25
sg56
g9
((lp1280
g1263
atRp1281
sg15
S'H'
sg78
I0
sg16
I00
sg79
(F436.33072429909157
F141.3589870143669
F0.3663343372906307
tp1282
sg81
(lp1283
sg14
g1
sg83
g9
((ltRp1284
sg85
g9
((lp1285
(imodel.Bond
Bond
p1286
(dp1287
g14
g1
sg89
g90
sg24
g25
sg17
g9
((lp1288
g1263
ag1278
atRp1289
sbatRp1290
sg94
I00
sbag1272
atRp1291
sg94
I00
sbsg42
g43
sg66
g9
((lp1292
g1269
atRp1293
sg98
S'H'
sg99
I0
sg100
I00
sg101
(F436.33072429909157
F141.3589870143669
F0.3663343372906307
tp1294
sg103
(lp1295
sg105
g1
sg106
g9
((ltRp1296
sg108
g9
((lp1297
(imodel.Bond
Bond
p1298
(dp1299
g105
g1
sg112
g90
sg42
g43
sg113
g9
((lp1300
g1269
ag1272
atRp1301
sbatRp1302
sg117
I00
sba(imodel.VarAtom
VarAtom
p1303
(dp1304
g38
VC12A
p1305
sg39
I00
sg40
Nsg41
(imodel.Atom
Atom
p1306
(dp1307
g3
g1305
sg14
g1
sg15
S'C'
sg16
I00
sg17
g9
((lp1308
(imodel.VarAtom
VarAtom
p1309
(dp1310
g3
g1305
sg21
I00
sg22
Nsg23
g1306
sg24
g25
sg56
g9
((lp1311
(imodel.VarAtom
VarAtom
p1312
(dp1313
g3
VH12A_1
p1314
sg21
I00
sg22
Nsg23
(imodel.Atom
Atom
p1315
(dp1316
g3
g1314
sg14
g1
sg15
S'H'
sg16
I00
sg17
g9
((lp1317
g1312
a(imodel.VarAtom
VarAtom
p1318
(dp1319
g38
g1314
sg39
I00
sg40
Nsg41
g1315
sg42
g43
sg66
g9
((lp1320
g1303
atRp1321
sg98
S'H'
sg99
I0
sg100
I00
sg101
(F500.95898043163777
F241.12567661361714
F0.96601477319181794
tp1322
sg103
(lp1323
sg105
g1
sg106
g9
((ltRp1324
sg108
g9
((lp1325
(imodel.Bond
Bond
p1326
(dp1327
g105
g1
sg112
g90
sg42
g43
sg113
g9
((lp1328
g1303
ag1318
atRp1329
sbatRp1330
sg117
I00
sbatRp1331
sg94
I00
sbsg24
g25
sg56
g9
((lp1332
g1309
atRp1333
sg15
S'H'
sg78
I0
sg16
I00
sg79
(F500.95898043163777
F241.12567661361714
F0.96601477319181794
tp1334
sg81
(lp1335
sg14
g1
sg83
g9
((ltRp1336
sg85
g9
((lp1337
(imodel.Bond
Bond
p1338
(dp1339
g14
g1
sg89
g90
sg24
g25
sg17
g9
((lp1340
g1309
ag1312
atRp1341
sbatRp1342
sg94
I00
sbag1263
a(imodel.VarAtom
VarAtom
p1343
(dp1344
g3
VC13A
p1345
sg21
I00
sg22
Nsg23
(imodel.Atom
Atom
p1346
(dp1347
g3
g1345
sg14
g1
sg15
S'C'
sg16
I00
sg17
g9
((lp1348
g1343
a(imodel.VarAtom
VarAtom
p1349
(dp1350
g38
g1345
sg39
I00
sg40
Nsg41
g1346
sg42
g43
sg66
g9
((lp1351
(imodel.VarAtom
VarAtom
p1352
(dp1353
g38
VC14A
p1354
sg39
I00
sg40
Nsg41
(imodel.Atom
Atom
p1355
(dp1356
g3
g1354
sg14
g1
sg15
S'C'
sg16
I00
sg17
g9
((lp1357
(imodel.VarAtom
VarAtom
p1358
(dp1359
g3
g1354
sg21
I00
sg22
Nsg23
g1355
sg24
g25
sg56
g9
((lp1360
(imodel.VarAtom
VarAtom
p1361
(dp1362
g3
VC15A
p1363
sg21
I00
sg22
Nsg23
(imodel.Atom
Atom
p1364
(dp1365
g3
g1363
sg14
g1
sg15
S'C'
sg16
I00
sg17
g9
((lp1366
g1361
a(imodel.VarAtom
VarAtom
p1367
(dp1368
g38
g1363
sg39
I00
sg40
Nsg41
g1364
sg42
g43
sg66
g9
((lp1369
g1352
a(imodel.VarAtom
VarAtom
p1370
(dp1371
g38
VH15A_2
p1372
sg39
I00
sg40
Nsg41
(imodel.Atom
Atom
p1373
(dp1374
g3
g1372
sg14
g1
sg15
S'H'
sg16
I00
sg17
g9
((lp1375
(imodel.VarAtom
VarAtom
p1376
(dp1377
g3
g1372
sg21
I00
sg22
Nsg23
g1373
sg24
g25
sg56
g9
((lp1378
g1361
atRp1379
sg15
S'H'
sg78
I0
sg16
I00
sg79
(F635.69558268016453
F108.91340576721407
F0.86394325596729304
tp1380
sg81
(lp1381
sg14
g1
sg83
g9
((ltRp1382
sg85
g9
((lp1383
(imodel.Bond
Bond
p1384
(dp1385
g14
g1
sg89
g90
sg24
g25
sg17
g9
((lp1386
g1361
ag1376
atRp1387
sbatRp1388
sg94
I00
sbag1370
atRp1389
sg94
I00
sbsg42
g43
sg66
g9
((lp1390
g1367
atRp1391
sg98
S'H'
sg99
I0
sg100
I00
sg101
(F635.69558268016453
F108.91340576721407
F0.86394325596729304
tp1392
sg103
(lp1393
sg105
g1
sg106
g9
((ltRp1394
sg108
g9
((lp1395
(imodel.Bond
Bond
p1396
(dp1397
g105
g1
sg112
g90
sg42
g43
sg113
g9
((lp1398
g1367
ag1370
atRp1399
sbatRp1400
sg117
I00
sba(imodel.VarAtom
VarAtom
p1401
(dp1402
g38
VC16A
p1403
sg39
I00
sg40
Nsg41
(imodel.Atom
Atom
p1404
(dp1405
g3
g1403
sg14
g1
sg15
S'C'
sg16
I00
sg17
g9
((lp1406
(imodel.VarAtom
VarAtom
p1407
(dp1408
g3
g1403
sg21
I00
sg22
Nsg23
g1404
sg24
g25
sg56
g9
((lp1409
g1361
a(imodel.VarAtom
VarAtom
p1410
(dp1411
g3
VH16A_1
p1412
sg21
I00
sg22
Nsg23
(imodel.Atom
Atom
p1413
(dp1414
g3
g1412
sg14
g1
sg15
S'H'
sg16
I00
sg17
g9
((lp1415
g1410
a(imodel.VarAtom
VarAtom
p1416
(dp1417
g38
g1412
sg39
I00
sg40
Nsg41
g1413
sg42
g43
sg66
g9
((lp1418
g1401
atRp1419
sg98
S'H'
sg99
I0
sg100
I00
sg101
(F701.46611381789432
F206.52999811040797
F0.90727063426847387
tp1420
sg103
(lp1421
sg105
g1
sg106
g9
((ltRp1422
sg108
g9
((lp1423
(imodel.Bond
Bond
p1424
(dp1425
g105
g1
sg112
g90
sg42
g43
sg113
g9
((lp1426
g1401
ag1416
atRp1427
sbatRp1428
sg117
I00
sbatRp1429
sg94
I00
sbsg24
g25
sg56
g9
((lp1430
g1407
atRp1431
sg15
S'H'
sg78
I0
sg16
I00
sg79
(F701.46611381789432
F206.52999811040797
F0.90727063426847387
tp1432
sg81
(lp1433
sg14
g1
sg83
g9
((ltRp1434
sg85
g9
((lp1435
(imodel.Bond
Bond
p1436
(dp1437
g14
g1
sg89
g90
sg24
g25
sg17
g9
((lp1438
g1407
ag1410
atRp1439
sbatRp1440
sg94
I00
sba(imodel.VarAtom
VarAtom
p1441
(dp1442
g3
VC17A
p1443
sg21
I00
sg22
Nsg23
(imodel.Atom
Atom
p1444
(dp1445
g3
g1443
sg14
g1
sg15
S'C'
sg16
I00
sg17
g9
((lp1446
g1441
a(imodel.VarAtom
VarAtom
p1447
(dp1448
g38
g1443
sg39
I00
sg40
Nsg41
g1444
sg42
g43
sg66
g9
((lp1449
(imodel.VarAtom
VarAtom
p1450
(dp1451
g38
VC18A
p1452
sg39
I00
sg40
Nsg41
(imodel.Atom
Atom
p1453
(dp1454
g3
g1452
sg14
g1
sg15
S'C'
sg16
I00
sg17
g9
((lp1455
(imodel.VarAtom
VarAtom
p1456
(dp1457
g3
g1452
sg21
I00
sg22
Nsg23
g1453
sg24
g25
sg56
g9
((lp1458
g1441
a(imodel.VarAtom
VarAtom
p1459
(dp1460
g3
VH18A_1
p1461
sg21
I00
sg22
Nsg23
(imodel.Atom
Atom
p1462
(dp1463
g3
g1461
sg14
g1
sg15
S'H'
sg16
I00
sg17
g9
((lp1464
g1459
a(imodel.VarAtom
VarAtom
p1465
(dp1466
g38
g1461
sg39
I00
sg40
Nsg41
g1462
sg42
g43
sg66
g9
((lp1467
g1450
atRp1468
sg98
S'H'
sg99
I0
sg100
I00
sg101
(F806.47544915237575
F193.94012516467444
F0.2517628620790292
tp1469
sg103
(lp1470
sg105
g1
sg106
g9
((ltRp1471
sg108
g9
((lp1472
(imodel.Bond
Bond
p1473
(dp1474
g105
g1
sg112
g90
sg42
g43
sg113
g9
((lp1475
g1450
ag1465
atRp1476
sbatRp1477
sg117
I00
sbatRp1478
sg94
I00
sbsg24
g25
sg56
g9
((lp1479
g1456
atRp1480
sg15
S'H'
sg78
I0
sg16
I00
sg79
(F806.47544915237575
F193.94012516467444
F0.2517628620790292
tp1481
sg81
(lp1482
sg14
g1
sg83
g9
((ltRp1483
sg85
g9
((lp1484
(imodel.Bond
Bond
p1485
(dp1486
g14
g1
sg89
g90
sg24
g25
sg17
g9
((lp1487
g1456
ag1459
atRp1488
sbatRp1489
sg94
I00
sba(imodel.VarAtom
VarAtom
p1490
(dp1491
g3
VH18A_2
p1492
sg21
I00
sg22
Nsg23
(imodel.Atom
Atom
p1493
(dp1494
g3
g1492
sg14
g1
sg15
S'H'
sg16
I00
sg17
g9
((lp1495
g1490
a(imodel.VarAtom
VarAtom
p1496
(dp1497
g38
g1492
sg39
I00
sg40
Nsg41
g1493
sg42
g43
sg66
g9
((lp1498
g1450
atRp1499
sg98
S'H'
sg99
I0
sg100
I00
sg101
(F840.19638104548699
F108.63884915474857
F0.53620094471293289
tp1500
sg103
(lp1501
sg105
g1
sg106
g9
((ltRp1502
sg108
g9
((lp1503
(imodel.Bond
Bond
p1504
(dp1505
g105
g1
sg112
g90
sg42
g43
sg113
g9
((lp1506
g1450
ag1496
atRp1507
sbatRp1508
sg117
I00
sbatRp1509
sg94
I00
sbsg24
g25
sg56
g9
((lp1510
g1456
atRp1511
sg15
S'H'
sg78
I0
sg16
I00
sg79
(F840.19638104548699
F108.63884915474857
F0.53620094471293289
tp1512
sg81
(lp1513
sg14
g1
sg83
g9
((ltRp1514
sg85
g9
((lp1515
(imodel.Bond
Bond
p1516
(dp1517
g14
g1
sg89
g90
sg24
g25
sg17
g9
((lp1518
g1456
ag1490
atRp1519
sbatRp1520
sg94
I00
sba(imodel.VarAtom
VarAtom
p1521
(dp1522
g3
VH18A_3
p1523
sg21
I00
sg22
Nsg23
(imodel.Atom
Atom
p1524
(dp1525
g3
g1523
sg14
g1
sg15
S'H'
sg16
I00
sg17
g9
((lp1526
g1521
a(imodel.VarAtom
VarAtom
p1527
(dp1528
g38
g1523
sg39
I00
sg40
Nsg41
g1524
sg42
g43
sg66
g9
((lp1529
g1450
atRp1530
sg98
S'H'
sg99
I0
sg100
I00
sg101
(F867.3048202213356
F169.1419306974478
F0.28935749056622573
tp1531
sg103
(lp1532
sg105
g1
sg106
g9
((ltRp1533
sg108
g9
((lp1534
(imodel.Bond
Bond
p1535
(dp1536
g105
g1
sg112
g90
sg42
g43
sg113
g9
((lp1537
g1450
ag1527
atRp1538
sbatRp1539
sg117
I00
sbatRp1540
sg94
I00
sbsg24
g25
sg56
g9
((lp1541
g1456
atRp1542
sg15
S'H'
sg78
I0
sg16
I00
sg79
(F867.3048202213356
F169.1419306974478
F0.28935749056622573
tp1543
sg81
(lp1544
sg14
g1
sg83
g9
((ltRp1545
sg85
g9
((lp1546
(imodel.Bond
Bond
p1547
(dp1548
g14
g1
sg89
g90
sg24
g25
sg17
g9
((lp1549
g1456
ag1521
atRp1550
sbatRp1551
sg94
I00
sbatRp1552
sg15
S'C'
sg78
I0
sg16
I00
sg79
(F820.51759730905178
F153.53170384899349
F0.49406770679082224
tp1553
sg81
(lp1554
sg14
g1
sg83
g9
((ltRp1555
sg85
g9
((lp1556
(imodel.Bond
Bond
p1557
(dp1558
g14
g1
sg89
g90
sg24
g25
sg17
g9
((lp1559
g1456
ag1441
atRp1560
sbag1485
ag1547
ag1516
atRp1561
sg94
I00
sbag1450
atRp1562
sg94
I00
sbsg42
g43
sg66
g9
((lp1563
g1447
ag1527
ag1465
ag1496
atRp1564
sg98
S'C'
sg99
I0
sg100
I00
sg101
(F820.51759730905178
F153.53170384899349
F0.49406770679082224
tp1565
sg103
(lp1566
sg105
g1
sg106
g9
((ltRp1567
sg108
g9
((lp1568
g1535
ag1473
ag1504
a(imodel.Bond
Bond
p1569
(dp1570
g105
g1
sg112
g90
sg42
g43
sg113
g9
((lp1571
g1450
ag1447
atRp1572
sbatRp1573
sg117
I00
sbag1401
a(imodel.VarAtom
VarAtom
p1574
(dp1575
g38
VH17A_2
p1576
sg39
I00
sg40
Nsg41
(imodel.Atom
Atom
p1577
(dp1578
g3
g1576
sg14
g1
sg15
S'H'
sg16
I00
sg17
g9
((lp1579
(imodel.VarAtom
VarAtom
p1580
(dp1581
g3
g1576
sg21
I00
sg22
Nsg23
g1577
sg24
g25
sg56
g9
((lp1582
g1441
atRp1583
sg15
S'H'
sg78
I0
sg16
I00
sg79
(F737.65573280560056
F91.408437733416918
F0.33375041514192705
tp1584
sg81
(lp1585
sg14
g1
sg83
g9
((ltRp1586
sg85
g9
((lp1587
(imodel.Bond
Bond
p1588
(dp1589
g14
g1
sg89
g90
sg24
g25
sg17
g9
((lp1590
g1441
ag1580
atRp1591
sbatRp1592
sg94
I00
sbag1574
atRp1593
sg94
I00
sbsg42
g43
sg66
g9
((lp1594
g1447
atRp1595
sg98
S'H'
sg99
I0
sg100
I00
sg101
(F737.65573280560056
F91.408437733416918
F0.33375041514192705
tp1596
sg103
(lp1597
sg105
g1
sg106
g9
((ltRp1598
sg108
g9
((lp1599
(imodel.Bond
Bond
p1600
(dp1601
g105
g1
sg112
g90
sg42
g43
sg113
g9
((lp1602
g1447
ag1574
atRp1603
sbatRp1604
sg117
I00
sba(imodel.VarAtom
VarAtom
p1605
(dp1606
g38
VH17A_1
p1607
sg39
I00
sg40
Nsg41
(imodel.Atom
Atom
p1608
(dp1609
g3
g1607
sg14
g1
sg15
S'H'
sg16
I00
sg17
g9
((lp1610
(imodel.VarAtom
VarAtom
p1611
(dp1612
g3
g1607
sg21
I00
sg22
Nsg23
g1608
sg24
g25
sg56
g9
((lp1613
g1441
atRp1614
sg15
S'H'
sg78
I0
sg16
I00
sg79
(F794.11113492119568
F87.727053429964812
F0.99993574327374757
tp1615
sg81
(lp1616
sg14
g1
sg83
g9
((ltRp1617
sg85
g9
((lp1618
(imodel.Bond
Bond
p1619
(dp1620
g14
g1
sg89
g90
sg24
g25
sg17
g9
((lp1621
g1441
ag1611
atRp1622
sbatRp1623
sg94
I00
sbag1605
atRp1624
sg94
I00
sbsg42
g43
sg66
g9
((lp1625
g1447
atRp1626
sg98
S'H'
sg99
I0
sg100
I00
sg101
(F794.11113492119568
F87.727053429964812
F0.99993574327374757
tp1627
sg103
(lp1628
sg105
g1
sg106
g9
((ltRp1629
sg108
g9
((lp1630
(imodel.Bond
Bond
p1631
(dp1632
g105
g1
sg112
g90
sg42
g43
sg113
g9
((lp1633
g1447
ag1605
atRp1634
sbatRp1635
sg117
I00
sbatRp1636
sg98
S'C'
sg99
I0
sg100
I00
sg101
(F768.20486982056173
F128.10986463971273
F0.79940263680091028
tp1637
sg103
(lp1638
sg105
g1
sg106
g9
((ltRp1639
sg108
g9
((lp1640
(imodel.Bond
Bond
p1641
(dp1642
g105
g1
sg112
g90
sg42
g43
sg113
g9
((lp1643
g1447
ag1401
atRp1644
sbag1569
ag1600
ag1631
atRp1645
sg117
I00
sbatRp1646
sg94
I00
sbsg24
g25
sg56
g9
((lp1647
g1611
ag1407
ag1580
ag1456
atRp1648
sg15
S'C'
sg78
I0
sg16
I00
sg79
(F768.20486982056173
F128.10986463971273
F0.79940263680091028
tp1649
sg81
(lp1650
sg14
g1
sg83
g9
((ltRp1651
sg85
g9
((lp1652
(imodel.Bond
Bond
p1653
(dp1654
g14
g1
sg89
g90
sg24
g25
sg17
g9
((lp1655
g1441
ag1407
atRp1656
sbag1557
ag1588
ag1619
atRp1657
sg94
I00
sba(imodel.VarAtom
VarAtom
p1658
(dp1659
g3
VH16A_2
p1660
sg21
I00
sg22
Nsg23
(imodel.Atom
Atom
p1661
(dp1662
g3
g1660
sg14
g1
sg15
S'H'
sg16
I00
sg17
g9
((lp1663
g1658
a(imodel.VarAtom
VarAtom
p1664
(dp1665
g38
g1660
sg39
I00
sg40
Nsg41
g1661
sg42
g43
sg66
g9
((lp1666
g1401
atRp1667
sg98
S'H'
sg99
I0
sg100
I00
sg101
(F755.89073120772764
F204.94315895559731
F0.1629902251098001
tp1668
sg103
(lp1669
sg105
g1
sg106
g9
((ltRp1670
sg108
g9
((lp1671
(imodel.Bond
Bond
p1672
(dp1673
g105
g1
sg112
g90
sg42
g43
sg113
g9
((lp1674
g1401
ag1664
atRp1675
sbatRp1676
sg117
I00
sbatRp1677
sg94
I00
sbsg24
g25
sg56
g9
((lp1678
g1407
atRp1679
sg15
S'H'
sg78
I0
sg16
I00
sg79
(F755.89073120772764
F204.94315895559731
F0.1629902251098001
tp1680
sg81
(lp1681
sg14
g1
sg83
g9
((ltRp1682
sg85
g9
((lp1683
(imodel.Bond
Bond
p1684
(dp1685
g14
g1
sg89
g90
sg24
g25
sg17
g9
((lp1686
g1407
ag1658
atRp1687
sbatRp1688
sg94
I00
sbatRp1689
sg15
S'C'
sg78
I0
sg16
I00
sg79
(F724.15986562621026
F171.48943172170362
F0.090432576187814528
tp1690
sg81
(lp1691
sg14
g1
sg83
g9
((ltRp1692
sg85
g9
((lp1693
(imodel.Bond
Bond
p1694
(dp1695
g14
g1
sg89
g90
sg24
g25
sg17
g9
((lp1696
g1407
ag1361
atRp1697
sbag1653
ag1436
ag1684
atRp1698
sg94
I00
sbag1401
atRp1699
sg94
I00
sbsg42
g43
sg66
g9
((lp1700
g1447
ag1664
ag1416
ag1367
atRp1701
sg98
S'C'
sg99
I0
sg100
I00
sg101
(F724.15986562621026
F171.48943172170362
F0.090432576187814528
tp1702
sg103
(lp1703
sg105
g1
sg106
g9
((ltRp1704
sg108
g9
((lp1705
g1641
ag1672
ag1424
a(imodel.Bond
Bond
p1706
(dp1707
g105
g1
sg112
g90
sg42
g43
sg113
g9
((lp1708
g1401
ag1367
atRp1709
sbatRp1710
sg117
I00
sba(imodel.VarAtom
VarAtom
p1711
(dp1712
g38
VH15A_1
p1713
sg39
I00
sg40
Nsg41
(imodel.Atom
Atom
p1714
(dp1715
g3
g1713
sg14
g1
sg15
S'H'
sg16
I00
sg17
g9
((lp1716
(imodel.VarAtom
VarAtom
p1717
(dp1718
g3
g1713
sg21
I00
sg22
Nsg23
g1714
sg24
g25
sg56
g9
((lp1719
g1361
atRp1720
sg15
S'H'
sg78
I0
sg16
I00
sg79
(F692.63932508975722
F108.01120941378365
F0.75405069071345043
tp1721
sg81
(lp1722
sg14
g1
sg83
g9
((ltRp1723
sg85
g9
((lp1724
(imodel.Bond
Bond
p1725
(dp1726
g14
g1
sg89
g90
sg24
g25
sg17
g9
((lp1727
g1361
ag1717
atRp1728
sbatRp1729
sg94
I00
sbag1711
atRp1730
sg94
I00
sbsg42
g43
sg66
g9
((lp1731
g1367
atRp1732
sg98
S'H'
sg99
I0
sg100
I00
sg101
(F692.63932508975722
F108.01120941378365
F0.75405069071345043
tp1733
sg103
(lp1734
sg105
g1
sg106
g9
((ltRp1735
sg108
g9
((lp1736
(imodel.Bond
Bond
p1737
(dp1738
g105
g1
sg112
g90
sg42
g43
sg113
g9
((lp1739
g1367
ag1711
atRp1740
sbatRp1741
sg117
I00
sbatRp1742
sg98
S'C'
sg99
I0
sg100
I00
sg101
(F669.03311020884132
F143.32608471488098
F0.70045861526372033
tp1743
sg103
(lp1744
sg105
g1
sg106
g9
((ltRp1745
sg108
g9
((lp1746
g1396
ag1737
a(imodel.Bond
Bond
p1747
(dp1748
g105
g1
sg112
g90
sg42
g43
sg113
g9
((lp1749
g1367
ag1352
atRp1750
sbag1706
atRp1751
sg117
I00
sbatRp1752
sg94
I00
sbsg24
g25
sg56
g9
((lp1753
g1407
ag1717
ag1358
ag1376
atRp1754
sg15
S'C'
sg78
I0
sg16
I00
sg79
(F669.03311020884132
F143.32608471488098
F0.70045861526372033
tp1755
sg81
(lp1756
sg14
g1
sg83
g9
((ltRp1757
sg85
g9
((lp1758
(imodel.Bond
Bond
p1759
(dp1760
g14
g1
sg89
g90
sg24
g25
sg17
g9
((lp1761
g1361
ag1358
atRp1762
sbag1694
ag1384
ag1725
atRp1763
sg94
I00
sbag1343
a(imodel.VarAtom
VarAtom
p1764
(dp1765
g3
VH14A_2
p1766
sg21
I00
sg22
Nsg23
(imodel.Atom
Atom
p1767
(dp1768
g3
g1766
sg14
g1
sg15
S'H'
sg16
I00
sg17
g9
((lp1769
g1764
a(imodel.VarAtom
VarAtom
p1770
(dp1771
g38
g1766
sg39
I00
sg40
Nsg41
g1767
sg42
g43
sg66
g9
((lp1772
g1352
atRp1773
sg98
S'H'
sg99
I0
sg100
I00
sg101
(F657.20533846013313
F220.7434531599684
F0.60747835341603529
tp1774
sg103
(lp1775
sg105
g1
sg106
g9
((ltRp1776
sg108
g9
((lp1777
(imodel.Bond
Bond
p1778
(dp1779
g105
g1
sg112
g90
sg42
g43
sg113
g9
((lp1780
g1352
ag1770
atRp1781
sbatRp1782
sg117
I00
sbatRp1783
sg94
I00
sbsg24
g25
sg56
g9
((lp1784
g1358
atRp1785
sg15
S'H'
sg78
I0
sg16
I00
sg79
(F657.20533846013313
F220.7434531599684
F0.60747835341603529
tp1786
sg81
(lp1787
sg14
g1
sg83
g9
((ltRp1788
sg85
g9
((lp1789
(imodel.Bond
Bond
p1790
(dp1791
g14
g1
sg89
g90
sg24
g25
sg17
g9
((lp1792
g1358
ag1764
atRp1793
sbatRp1794
sg94
I00
sba(imodel.VarAtom
VarAtom
p1795
(dp1796
g3
VH14A_1
p1797
sg21
I00
sg22
Nsg23
(imodel.Atom
Atom
p1798
(dp1799
g3
g1797
sg14
g1
sg15
S'H'
sg16
I00
sg17
g9
((lp1800
g1795
a(imodel.VarAtom
VarAtom
p1801
(dp1802
g38
g1797
sg39
I00
sg40
Nsg41
g1798
sg42
g43
sg66
g9
((lp1803
g1352
atRp1804
sg98
S'H'
sg99
I0
sg100
I00
sg101
(F601.46246060071257
F222.27017728816782
F0.60024509943474458
tp1805
sg103
(lp1806
sg105
g1
sg106
g9
((ltRp1807
sg108
g9
((lp1808
(imodel.Bond
Bond
p1809
(dp1810
g105
g1
sg112
g90
sg42
g43
sg113
g9
((lp1811
g1352
ag1801
atRp1812
sbatRp1813
sg117
I00
sbatRp1814
sg94
I00
sbsg24
g25
sg56
g9
((lp1815
g1358
atRp1816
sg15
S'H'
sg78
I0
sg16
I00
sg79
(F601.46246060071257
F222.27017728816782
F0.60024509943474458
tp1817
sg81
(lp1818
sg14
g1
sg83
g9
((ltRp1819
sg85
g9
((lp1820
(imodel.Bond
Bond
p1821
(dp1822
g14
g1
sg89
g90
sg24
g25
sg17
g9
((lp1823
g1358
ag1795
atRp1824
sbatRp1825
sg94
I00
sbatRp1826
sg15
S'C'
sg78
I0
sg16
I00
sg79
(F624.85605278066839
F187.52975379069272
F0.95191861575160475
tp1827
sg81
(lp1828
sg14
g1
sg83
g9
((ltRp1829
sg85
g9
((lp1830
(imodel.Bond
Bond
p1831
(dp1832
g14
g1
sg89
g90
sg24
g25
sg17
g9
((lp1833
g1358
ag1343
atRp1834
sbag1759
ag1821
ag1790
atRp1835
sg94
I00
sbag1352
atRp1836
sg94
I00
sbsg42
g43
sg66
g9
((lp1837
g1367
ag1770
ag1801
ag1349
atRp1838
sg98
S'C'
sg99
I0
sg100
I00
sg101
(F624.85605278066839
F187.52975379069272
F0.95191861575160475
tp1839
sg103
(lp1840
sg105
g1
sg106
g9
((ltRp1841
sg108
g9
((lp1842
(imodel.Bond
Bond
p1843
(dp1844
g105
g1
sg112
g90
sg42
g43
sg113
g9
((lp1845
g1352
ag1349
atRp1846
sbag1809
ag1747
ag1778
atRp1847
sg117
I00
sbag1303
a(imodel.VarAtom
VarAtom
p1848
(dp1849
g38
VH13A_2
p1850
sg39
I00
sg40
Nsg41
(imodel.Atom
Atom
p1851
(dp1852
g3
g1850
sg14
g1
sg15
S'H'
sg16
I00
sg17
g9
((lp1853
(imodel.VarAtom
VarAtom
p1854
(dp1855
g3
g1850
sg21
I00
sg22
Nsg23
g1851
sg24
g25
sg56
g9
((lp1856
g1343
atRp1857
sg15
S'H'
sg78
I0
sg16
I00
sg79
(F585.45754032003606
F125.67551200988191
F0.70918424189922513
tp1858
sg81
(lp1859
sg14
g1
sg83
g9
((ltRp1860
sg85
g9
((lp1861
(imodel.Bond
Bond
p1862
(dp1863
g14
g1
sg89
g90
sg24
g25
sg17
g9
((lp1864
g1343
ag1854
atRp1865
sbatRp1866
sg94
I00
sbag1848
atRp1867
sg94
I00
sbsg42
g43
sg66
g9
((lp1868
g1349
atRp1869
sg98
S'H'
sg99
I0
sg100
I00
sg101
(F585.45754032003606
F125.67551200988191
F0.70918424189922513
tp1870
sg103
(lp1871
sg105
g1
sg106
g9
((ltRp1872
sg108
g9
((lp1873
(imodel.Bond
Bond
p1874
(dp1875
g105
g1
sg112
g90
sg42
g43
sg113
g9
((lp1876
g1349
ag1848
atRp1877
sbatRp1878
sg117
I00
sba(imodel.VarAtom
VarAtom
p1879
(dp1880
g38
VH13A_1
p1881
sg39
I00
sg40
Nsg41
(imodel.Atom
Atom
p1882
(dp1883
g3
g1881
sg14
g1
sg15
S'H'
sg16
I00
sg17
g9
((lp1884
(imodel.VarAtom
VarAtom
p1885
(dp1886
g3
g1881
sg21
I00
sg22
Nsg23
g1882
sg24
g25
sg56
g9
((lp1887
g1343
atRp1888
sg15
S'H'
sg78
I0
sg16
I00
sg79
(F535.50936523977816
F122.46758613287429
F0.75062681121664654
tp1889
sg81
(lp1890
sg14
g1
sg83
g9
((ltRp1891
sg85
g9
((lp1892
(imodel.Bond
Bond
p1893
(dp1894
g14
g1
sg89
g90
sg24
g25
sg17
g9
((lp1895
g1343
ag1885
atRp1896
sbatRp1897
sg94
I00
sbag1879
atRp1898
sg94
I00
sbsg42
g43
sg66
g9
((lp1899
g1349
atRp1900
sg98
S'H'
sg99
I0
sg100
I00
sg101
(F535.50936523977816
F122.46758613287429
F0.75062681121664654
tp1901
sg103
(lp1902
sg105
g1
sg106
g9
((ltRp1903
sg108
g9
((lp1904
(imodel.Bond
Bond
p1905
(dp1906
g105
g1
sg112
g90
sg42
g43
sg113
g9
((lp1907
g1349
ag1879
atRp1908
sbatRp1909
sg117
I00
sbatRp1910
sg98
S'C'
sg99
I0
sg100
I00
sg101
(F569.12918775996025
F159.9569082615385
F0.34584369982751562
tp1911
sg103
(lp1912
sg105
g1
sg106
g9
((ltRp1913
sg108
g9
((lp1914
g1843
a(imodel.Bond
Bond
p1915
(dp1916
g105
g1
sg112
g90
sg42
g43
sg113
g9
((lp1917
g1349
ag1303
atRp1918
sbag1905
ag1874
atRp1919
sg117
I00
sbatRp1920
sg94
I00
sbsg24
g25
sg56
g9
((lp1921
g1885
ag1309
ag1854
ag1358
atRp1922
sg15
S'C'
sg78
I0
sg16
I00
sg79
(F569.12918775996025
F159.9569082615385
F0.34584369982751562
tp1923
sg81
(lp1924
sg14
g1
sg83
g9
((ltRp1925
sg85
g9
((lp1926
(imodel.Bond
Bond
p1927
(dp1928
g14
g1
sg89
g90
sg24
g25
sg17
g9
((lp1929
g1343
ag1309
atRp1930
sbag1831
ag1862
ag1893
atRp1931
sg94
I00
sba(imodel.VarAtom
VarAtom
p1932
(dp1933
g3
VH12A_2
p1934
sg21
I00
sg22
Nsg23
(imodel.Atom
Atom
p1935
(dp1936
g3
g1934
sg14
g1
sg15
S'H'
sg16
I00
sg17
g9
((lp1937
g1932
a(imodel.VarAtom
VarAtom
p1938
(dp1939
g38
g1934
sg39
I00
sg40
Nsg41
g1935
sg42
g43
sg66
g9
((lp1940
g1303
atRp1941
sg98
S'H'
sg99
I0
sg100
I00
sg101
(F558.43792128756786
F238.97705692102244
F0.68852559404067037
tp1942
sg103
(lp1943
sg105
g1
sg106
g9
((ltRp1944
sg108
g9
((lp1945
(imodel.Bond
Bond
p1946
(dp1947
g105
g1
sg112
g90
sg42
g43
sg113
g9
((lp1948
g1303
ag1938
atRp1949
sbatRp1950
sg117
I00
sbatRp1951
sg94
I00
sbsg24
g25
sg56
g9
((lp1952
g1309
atRp1953
sg15
S'H'
sg78
I0
sg16
I00
sg79
(F558.43792128756786
F238.97705692102244
F0.68852559404067037
tp1954
sg81
(lp1955
sg14
g1
sg83
g9
((ltRp1956
sg85
g9
((lp1957
(imodel.Bond
Bond
p1958
(dp1959
g14
g1
sg89
g90
sg24
g25
sg17
g9
((lp1960
g1309
ag1932
atRp1961
sbatRp1962
sg94
I00
sbatRp1963
sg15
S'C'
sg78
I0
sg16
I00
sg79
(F526.6821219521604
F204.24702539569796
F0.69768056093082687
tp1964
sg81
(lp1965
sg14
g1
sg83
g9
((ltRp1966
sg85
g9
((lp1967
(imodel.Bond
Bond
p1968
(dp1969
g14
g1
sg89
g90
sg24
g25
sg17
g9
((lp1970
g1309
ag1263
atRp1971
sbag1927
ag1338
ag1958
atRp1972
sg94
I00
sbag1303
atRp1973
sg94
I00
sbsg42
g43
sg66
g9
((lp1974
g1938
ag1269
ag1349
ag1318
atRp1975
sg98
S'C'
sg99
I0
sg100
I00
sg101
(F526.6821219521604
F204.24702539569796
F0.69768056093082687
tp1976
sg103
(lp1977
sg105
g1
sg106
g9
((ltRp1978
sg108
g9
((lp1979
g1326
ag1946
ag1915
a(imodel.Bond
Bond
p1980
(dp1981
g105
g1
sg112
g90
sg42
g43
sg113
g9
((lp1982
g1303
ag1269
atRp1983
sbatRp1984
sg117
I00
sbag1223
a(imodel.VarAtom
VarAtom
p1985
(dp1986
g38
VH11A_2
p1987
sg39
I00
sg40
Nsg41
(imodel.Atom
Atom
p1988
(dp1989
g3
g1987
sg14
g1
sg15
S'H'
sg16
I00
sg17
g9
((lp1990
(imodel.VarAtom
VarAtom
p1991
(dp1992
g3
g1987
sg21
I00
sg22
Nsg23
g1988
sg24
g25
sg56
g9
((lp1993
g1263
atRp1994
sg15
S'H'
sg78
I0
sg16
I00
sg79
(F492.36964182756378
F141.49571545732869
F0.17435712006260085
tp1995
sg81
(lp1996
sg14
g1
sg83
g9
((ltRp1997
sg85
g9
((lp1998
(imodel.Bond
Bond
p1999
(dp2000
g14
g1
sg89
g90
sg24
g25
sg17
g9
((lp2001
g1263
ag1991
atRp2002
sbatRp2003
sg94
I00
sbag1985
atRp2004
sg94
I00
sbsg42
g43
sg66
g9
((lp2005
g1269
atRp2006
sg98
S'H'
sg99
I0
sg100
I00
sg101
(F492.36964182756378
F141.49571545732869
F0.17435712006260085
tp2007
sg103
(lp2008
sg105
g1
sg106
g9
((ltRp2009
sg108
g9
((lp2010
(imodel.Bond
Bond
p2011
(dp2012
g105
g1
sg112
g90
sg42
g43
sg113
g9
((lp2013
g1269
ag1985
atRp2014
sbatRp2015
sg117
I00
sbatRp2016
sg98
S'C'
sg99
I0
sg100
I00
sg101
(F470.72588296141231
F178.48491057843864
F0.80956124978021426
tp2017
sg103
(lp2018
sg105
g1
sg106
g9
((ltRp2019
sg108
g9
((lp2020
g2011
ag1298
a(imodel.Bond
Bond
p2021
(dp2022
g105
g1
sg112
g90
sg42
g43
sg113
g9
((lp2023
g1269
ag1223
atRp2024
sbag1980
atRp2025
sg117
I00
sbatRp2026
sg94
I00
sbsg24
g25
sg56
g9
((lp2027
g1278
ag1229
ag1991
ag1309
atRp2028
sg15
S'C'
sg78
I0
sg16
I00
sg79
(F470.72588296141231
F178.48491057843864
F0.80956124978021426
tp2029
sg81
(lp2030
sg14
g1
sg83
g9
((ltRp2031
sg85
g9
((lp2032
(imodel.Bond
Bond
p2033
(dp2034
g14
g1
sg89
g90
sg24
g25
sg17
g9
((lp2035
g1263
ag1229
atRp2036
sbag1968
ag1286
ag1999
atRp2037
sg94
I00
sbatRp2038
sg15
S'C'
sg78
I0
sg16
I00
sg79
(F434.87432106385387
F219.4412986977693
F0.97286351863060005
tp2039
sg81
(lp2040
sg14
g1
sg83
g9
((ltRp2041
sg85
g9
((lp2042
(imodel.Bond
Bond
p2043
(dp2044
g14
g1
sg89
g949
sg24
g25
sg17
g9
((lp2045
g1214
ag1229
atRp2046
sbag2033
ag1258
atRp2047
sg94
I00
sbag1223
atRp2048
sg94
I00
sbsg42
g43
sg66
g9
((lp2049
g1238
ag1220
ag1269
atRp2050
sg98
S'C'
sg99
I0
sg100
I00
sg101
(F434.87432106385387
F219.4412986977693
F0.97286351863060005
tp2051
sg103
(lp2052
sg105
g1
sg106
g9
((ltRp2053
sg108
g9
((lp2054
g1246
a(imodel.Bond
Bond
p2055
(dp2056
g105
g1
sg112
g949
sg42
g43
sg113
g9
((lp2057
g1220
ag1223
atRp2058
sbag2021
atRp2059
sg117
I00
sba(imodel.VarAtom
VarAtom
p2060
(dp2061
g38
VH9A
p2062
sg39
I00
sg40
Nsg41
(imodel.Atom
Atom
p2063
(dp2064
g3
g2062
sg14
g1
sg15
S'H'
sg16
I00
sg17
g9
((lp2065
(imodel.VarAtom
VarAtom
p2066
(dp2067
g3
g2062
sg21
I00
sg22
Nsg23
g2063
sg24
g25
sg56
g9
((lp2068
g1214
atRp2069
sg15
S'H'
sg78
I0
sg16
I00
sg79
(F378.97907502452796
F256.39839741753906
F0.28286308493250834
tp2070
sg81
(lp2071
sg14
g1
sg83
g9
((ltRp2072
sg85
g9
((lp2073
(imodel.Bond
Bond
p2074
(dp2075
g14
g1
sg89
g90
sg24
g25
sg17
g9
((lp2076
g1214
ag2066
atRp2077
sbatRp2078
sg94
I00
sbag2060
atRp2079
sg94
I00
sbsg42
g43
sg66
g9
((lp2080
g1220
atRp2081
sg98
S'H'
sg99
I0
sg100
I00
sg101
(F378.97907502452796
F256.39839741753906
F0.28286308493250834
tp2082
sg103
(lp2083
sg105
g1
sg106
g9
((ltRp2084
sg108
g9
((lp2085
(imodel.Bond
Bond
p2086
(dp2087
g105
g1
sg112
g90
sg42
g43
sg113
g9
((lp2088
g1220
ag2060
atRp2089
sbatRp2090
sg117
I00
sbatRp2091
sg98
S'C'
sg99
I0
sg100
I00
sg101
(F388.34003184859915
F222.90964389846388
F0.66096102432273762
tp2092
sg103
(lp2093
sg105
g1
sg106
g9
((ltRp2094
sg108
g9
((lp2095
(imodel.Bond
Bond
p2096
(dp2097
g105
g1
sg112
g90
sg42
g43
sg113
g9
((lp2098
g1220
ag1143
atRp2099
sbag2086
ag2055
atRp2100
sg117
I00
sbatRp2101
sg94
I00
sbsg24
g25
sg56
g9
((lp2102
g1149
ag1229
ag2066
atRp2103
sg15
S'C'
sg78
I0
sg16
I00
sg79
(F388.34003184859915
F222.90964389846388
F0.66096102432273762
tp2104
sg81
(lp2105
sg14
g1
sg83
g9
((ltRp2106
sg85
g9
((lp2107
(imodel.Bond
Bond
p2108
(dp2109
g14
g1
sg89
g90
sg24
g25
sg17
g9
((lp2110
g1214
ag1149
atRp2111
sbag2043
ag2074
atRp2112
sg94
I00
sbag1103
atRp2113
sg15
S'C'
sg78
I0
sg16
I00
sg79
(F345.5109021624645
F189.60685941613571
F0.079602610404843177
tp2114
sg81
(lp2115
sg14
g1
sg83
g9
((ltRp2116
sg85
g9
((lp2117
(imodel.Bond
Bond
p2118
(dp2119
g14
g1
sg89
g90
sg24
g25
sg17
g9
((lp2120
g1149
ag1103
atRp2121
sbag2108
ag1209
ag1178
atRp2122
sg94
I00
sbag1143
atRp2123
sg94
I00
sbsg42
g43
sg66
g9
((lp2124
g1158
ag1189
ag1109
ag1220
atRp2125
sg98
S'C'
sg99
I0
sg100
I00
sg101
(F345.5109021624645
F189.60685941613571
F0.079602610404843177
tp2126
sg103
(lp2127
sg105
g1
sg106
g9
((ltRp2128
sg108
g9
((lp2129
g2096
a(imodel.Bond
Bond
p2130
(dp2131
g105
g1
sg112
g90
sg42
g43
sg113
g9
((lp2132
g1143
ag1109
atRp2133
sbag1166
ag1197
atRp2134
sg117
I00
sbag1094
a(imodel.VarAtom
VarAtom
p2135
(dp2136
g38
VH7A_2
p2137
sg39
I00
sg40
Nsg41
(imodel.Atom
Atom
p2138
(dp2139
g613
g2137
sg614
g1
sg615
S'H'
sg616
I00
sg617
g9
((lp2140
(imodel.VarAtom
VarAtom
p2141
(dp2142
g613
g2137
sg621
I00
sg622
Nsg623
g2138
sg624
g25
sg625
g9
((lp2143
g1103
atRp2144
sg615
S'H'
sg628
I0
sg616
I00
sg629
(F329.86816244589227
F269.74955245154752
F0.41620636647012699
tp2145
sg631
(lp2146
sg614
g1
sg633
g9
((ltRp2147
sg635
g9
((lp2148
(imodel.Bond
Bond
p2149
(dp2150
g614
g1
sg639
g640
sg624
g25
sg617
g9
((lp2151
g1103
ag2141
atRp2152
sbatRp2153
sg644
I00
sbag2135
atRp2154
sg644
I00
sbsg42
g43
sg66
g9
((lp2155
g1109
atRp2156
sg98
S'H'
sg99
I0
sg100
I00
sg101
(F329.86816244589227
F269.74955245154752
F0.41620636647012699
tp2157
sg103
(lp2158
sg105
g1
sg106
g9
((ltRp2159
sg108
g9
((lp2160
(imodel.Bond
Bond
p2161
(dp2162
g105
g1
sg112
g640
sg42
g43
sg113
g9
((lp2163
g1109
ag2135
atRp2164
sbatRp2165
sg117
I00
sbatRp2166
sg98
S'C'
sg99
I0
sg100
I00
sg101
(F295.58414340139842
F225.62372226142097
F0.73113185315693141
tp2167
sg103
(lp2168
sg105
g1
sg106
g9
((ltRp2169
sg108
g9
((lp2170
g2130
a(imodel.Bond
Bond
p2171
(dp2172
g105
g1
sg112
g640
sg42
g43
sg113
g9
((lp2173
g1109
ag1094
atRp2174
sbag1138
ag2161
atRp2175
sg117
I00
sbatRp2176
sg94
I00
sbsg24
g25
sg56
g9
((lp2177
g1100
ag1149
ag2141
ag1118
atRp2178
sg15
S'C'
sg78
I0
sg16
I00
sg79
(F295.58414340139842
F225.62372226142097
F0.73113185315693141
tp2179
sg81
(lp2180
sg14
g1
sg83
g9
((ltRp2181
sg85
g9
((lp2182
(imodel.Bond
Bond
p2183
(dp2184
g14
g1
sg89
g640
sg24
g25
sg17
g9
((lp2185
g1103
ag1100
atRp2186
sbag2118
ag1126
ag2149
atRp2187
sg94
I00
sba(imodel.VarAtom
VarAtom
p2188
(dp2189
g3
VH6A_2
p2190
sg21
I00
sg22
Nsg23
(imodel.Atom
Atom
p2191
(dp2192
g3
g2190
sg14
g1
sg15
S'H'
sg16
I00
sg17
g9
((lp2193
g2188
a(imodel.VarAtom
VarAtom
p2194
(dp2195
g38
g2190
sg39
I00
sg40
Nsg41
g2191
sg42
g43
sg66
g9
((lp2196
g1094
atRp2197
sg98
S'H'
sg99
I0
sg100
I00
sg101
(F272.89183155153557
F158.50814853063193
F0.24259733372894887
tp2198
sg103
(lp2199
sg105
g1
sg106
g9
((ltRp2200
sg108
g9
((lp2201
(imodel.Bond
Bond
p2202
(dp2203
g105
g1
sg112
g90
sg42
g43
sg113
g9
((lp2204
g1094
ag2194
atRp2205
sbatRp2206
sg117
I00
sbatRp2207
sg94
I00
sbsg24
g25
sg56
g9
((lp2208
g1100
atRp2209
sg15
S'H'
sg78
I0
sg16
I00
sg79
(F272.89183155153557
F158.50814853063193
F0.24259733372894887
tp2210
sg81
(lp2211
sg14
g1
sg83
g9
((ltRp2212
sg85
g9
((lp2213
(imodel.Bond
Bond
p2214
(dp2215
g14
g1
sg89
g90
sg24
g25
sg17
g9
((lp2216
g1100
ag2188
atRp2217
sbatRp2218
sg94
I00
sba(imodel.VarAtom
VarAtom
p2219
(dp2220
g613
VH6A_1
p2221
sg621
I00
sg622
Nsg623
(imodel.Atom
Atom
p2222
(dp2223
g613
g2221
sg614
g1
sg615
S'H'
sg616
I00
sg617
g9
((lp2224
g2219
a(imodel.VarAtom
VarAtom
p2225
(dp2226
g38
g2221
sg39
I00
sg40
Nsg41
g2222
sg42
g43
sg66
g9
((lp2227
g1094
atRp2228
sg98
S'H'
sg99
I0
sg100
I00
sg101
(F223.94988367354495
F152.81646524752404
F0.89418144133686517
tp2229
sg103
(lp2230
sg105
g1
sg106
g9
((ltRp2231
sg108
g9
((lp2232
(imodel.Bond
Bond
p2233
(dp2234
g105
g1
sg112
g640
sg42
g43
sg113
g9
((lp2235
g1094
ag2225
atRp2236
sbatRp2237
sg117
I00
sbatRp2238
sg644
I00
sbsg624
g25
sg625
g9
((lp2239
g1100
atRp2240
sg615
S'H'
sg628
I0
sg616
I00
sg629
(F223.94988367354495
F152.81646524752404
F0.89418144133686517
tp2241
sg631
(lp2242
sg614
g1
sg633
g9
((ltRp2243
sg635
g9
((lp2244
(imodel.Bond
Bond
p2245
(dp2246
g614
g1
sg639
g640
sg624
g25
sg617
g9
((lp2247
g1100
ag2219
atRp2248
sbatRp2249
sg644
I00
sbatRp2250
sg15
S'C'
sg78
I0
sg16
I00
sg79
(F245.30690414929558
F190.57475060893864
F0.6029713131600466
tp2251
sg81
(lp2252
sg14
g1
sg83
g9
((ltRp2253
sg85
g9
((lp2254
(imodel.Bond
Bond
p2255
(dp2256
g14
g1
sg89
g90
sg24
g25
sg17
g9
((lp2257
g1100
ag1054
atRp2258
sbag2183
ag2214
ag2245
atRp2259
sg94
I00
sbag1094
atRp2260
sg94
I00
sbsg42
g43
sg66
g9
((lp2261
g2194
ag2225
ag1109
ag1060
atRp2262
sg98
S'C'
sg99
I0
sg100
I00
sg101
(F245.30690414929558
F190.57475060893864
F0.6029713131600466
tp2263
sg103
(lp2264
sg105
g1
sg106
g9
((ltRp2265
sg108
g9
((lp2266
g2171
ag2202
a(imodel.Bond
Bond
p2267
(dp2268
g105
g1
sg112
g90
sg42
g43
sg113
g9
((lp2269
g1094
ag1060
atRp2270
sbag2233
atRp2271
sg117
I00
sba(imodel.VarAtom
VarAtom
p2272
(dp2273
g38
VH5A_2
p2274
sg39
I00
sg40
Nsg41
(imodel.Atom
Atom
p2275
(dp2276
g3
g2274
sg14
g1
sg15
S'H'
sg16
I00
sg17
g9
((lp2277
(imodel.VarAtom
VarAtom
p2278
(dp2279
g3
g2274
sg21
I00
sg22
Nsg23
g2275
sg24
g25
sg56
g9
((lp2280
g1054
atRp2281
sg15
S'H'
sg78
I0
sg16
I00
sg79
(F221.00797784883565
F270.63880043503195
F0.012599490152378823
tp2282
sg81
(lp2283
sg14
g1
sg83
g9
((ltRp2284
sg85
g9
((lp2285
(imodel.Bond
Bond
p2286
(dp2287
g14
g1
sg89
g90
sg24
g25
sg17
g9
((lp2288
g1054
ag2278
atRp2289
sbatRp2290
sg94
I00
sbag2272
atRp2291
sg94
I00
sbsg42
g43
sg66
g9
((lp2292
g1060
atRp2293
sg98
S'H'
sg99
I0
sg100
I00
sg101
(F221.00797784883565
F270.63880043503195
F0.012599490152378823
tp2294
sg103
(lp2295
sg105
g1
sg106
g9
((ltRp2296
sg108
g9
((lp2297
(imodel.Bond
Bond
p2298
(dp2299
g105
g1
sg112
g90
sg42
g43
sg113
g9
((lp2300
g1060
ag2272
atRp2301
sbatRp2302
sg117
I00
sbatRp2303
sg98
S'C'
sg99
I0
sg100
I00
sg101
(F196.74127204104801
F229.43811563463788
F0.52601043786634871
tp2304
sg103
(lp2305
sg105
g1
sg106
g9
((ltRp2306
sg108
g9
((lp2307
(imodel.Bond
Bond
p2308
(dp2309
g105
g1
sg112
g90
sg42
g43
sg113
g9
((lp2310
g1060
ag983
atRp2311
sbag2298
ag2267
ag1089
atRp2312
sg117
I00
sbatRp2313
sg94
I00
sbsg24
g25
sg56
g9
((lp2314
g989
ag1069
ag2278
ag1100
atRp2315
sg15
S'C'
sg78
I0
sg16
I00
sg79
(F196.74127204104801
F229.43811563463788
F0.52601043786634871
tp2316
sg81
(lp2317
sg14
g1
sg83
g9
((ltRp2318
sg85
g9
((lp2319
(imodel.Bond
Bond
p2320
(dp2321
g14
g1
sg89
g90
sg24
g25
sg17
g9
((lp2322
g1054
ag989
atRp2323
sbag2255
ag2286
ag1077
atRp2324
sg94
I00
sbatRp2325
sg15
S'C'
sg78
I0
sg16
I00
sg79
(F144.67008221005219
F196.70239160567081
F0.40964564421760885
tp2326
sg81
(lp2327
sg14
g1
sg83
g9
((ltRp2328
sg85
g9
((lp2329
(imodel.Bond
Bond
p2330
(dp2331
g14
g1
sg89
g90
sg24
g25
sg17
g9
((lp2332
g989
ag974
atRp2333
sbag2320
ag1049
ag1018
atRp2334
sg94
I00
sbag983
atRp2335
sg94
I00
sbsg42
g43
sg66
g9
((lp2336
g980
ag1029
ag998
ag1060
atRp2337
sg98
S'C'
sg99
I0
sg100
I00
sg101
(F144.67008221005219
F196.70239160567081
F0.40964564421760885
tp2338
sg103
(lp2339
sg105
g1
sg106
g9
((ltRp2340
sg108
g9
((lp2341
g2308
a(imodel.Bond
Bond
p2342
(dp2343
g105
g1
sg112
g90
sg42
g43
sg113
g9
((lp2344
g983
ag980
atRp2345
sbag1037
ag1006
atRp2346
sg117
I00
sbag965
a(imodel.VarAtom
VarAtom
p2347
(dp2348
g38
VH3A_1
p2349
sg39
I00
sg40
Nsg41
(imodel.Atom
Atom
p2350
(dp2351
g3
g2349
sg14
g1
sg15
S'H'
sg16
I00
sg17
g9
((lp2352
(imodel.VarAtom
VarAtom
p2353
(dp2354
g3
g2349
sg21
I00
sg22
Nsg23
g2350
sg24
g25
sg56
g9
((lp2355
g974
atRp2356
sg15
S'H'
sg78
I0
sg16
I00
sg79
(F127.93268335595351
F272.19128701015791
F0.57894752004928851
tp2357
sg81
(lp2358
sg14
g1
sg83
g9
((ltRp2359
sg85
g9
((lp2360
(imodel.Bond
Bond
p2361
(dp2362
g14
g1
sg89
g90
sg24
g25
sg17
g9
((lp2363
g974
ag2353
atRp2364
sbatRp2365
sg94
I00
sbag2347
atRp2366
sg94
I00
sbsg42
g43
sg66
g9
((lp2367
g980
atRp2368
sg98
S'H'
sg99
I0
sg100
I00
sg101
(F127.93268335595351
F272.19128701015791
F0.57894752004928851
tp2369
sg103
(lp2370
sg105
g1
sg106
g9
((ltRp2371
sg108
g9
((lp2372
(imodel.Bond
Bond
p2373
(dp2374
g105
g1
sg112
g90
sg42
g43
sg113
g9
((lp2375
g980
ag2347
atRp2376
sbatRp2377
sg117
I00
sba(imodel.VarAtom
VarAtom
p2378
(dp2379
g38
VH3A_2
p2380
sg39
I00
sg40
Nsg41
(imodel.Atom
Atom
p2381
(dp2382
g3
g2380
sg14
g1
sg15
S'H'
sg16
I00
sg17
g9
((lp2383
(imodel.VarAtom
VarAtom
p2384
(dp2385
g3
g2380
sg21
I00
sg22
Nsg23
g2381
sg24
g25
sg56
g9
((lp2386
g974
atRp2387
sg15
S'H'
sg78
I0
sg16
I00
sg79
(F67.920935444467773
F270.31747047249939
F0.076214144239206139
tp2388
sg81
(lp2389
sg14
g1
sg83
g9
((ltRp2390
sg85
g9
((lp2391
(imodel.Bond
Bond
p2392
(dp2393
g14
g1
sg89
g90
sg24
g25
sg17
g9
((lp2394
g974
ag2384
atRp2395
sbatRp2396
sg94
I00
sbag2378
atRp2397
sg94
I00
sbsg42
g43
sg66
g9
((lp2398
g980
atRp2399
sg98
S'H'
sg99
I0
sg100
I00
sg101
(F67.920935444467773
F270.31747047249939
F0.076214144239206139
tp2400
sg103
(lp2401
sg105
g1
sg106
g9
((ltRp2402
sg108
g9
((lp2403
(imodel.Bond
Bond
p2404
(dp2405
g105
g1
sg112
g90
sg42
g43
sg113
g9
((lp2406
g980
ag2378
atRp2407
sbatRp2408
sg117
I00
sbatRp2409
sg98
S'C'
sg99
I0
sg100
I00
sg101
(F98.228137188505968
F237.3314077474181
F0.5362283569886156
tp2410
sg103
(lp2411
sg105
g1
sg106
g9
((ltRp2412
sg108
g9
((lp2413
g2342
a(imodel.Bond
Bond
p2414
(dp2415
g105
g1
sg112
g90
sg42
g43
sg113
g9
((lp2416
g980
ag965
atRp2417
sbag2404
ag2373
atRp2418
sg117
I00
sbatRp2419
sg94
I00
sbsg24
g25
sg56
g9
((lp2420
g971
ag2353
ag989
ag2384
atRp2421
sg15
S'C'
sg78
I0
sg16
I00
sg79
(F98.228137188505968
F237.3314077474181
F0.5362283569886156
tp2422
sg81
(lp2423
sg14
g1
sg83
g9
((ltRp2424
sg85
g9
((lp2425
(imodel.Bond
Bond
p2426
(dp2427
g14
g1
sg89
g90
sg24
g25
sg17
g9
((lp2428
g974
ag971
atRp2429
sbag2330
ag2361
ag2392
atRp2430
sg94
I00
sba(imodel.VarAtom
VarAtom
p2431
(dp2432
g3
VH2A_1
p2433
sg21
I00
sg22
Nsg23
(imodel.Atom
Atom
p2434
(dp2435
g3
g2433
sg14
g1
sg15
S'H'
sg16
I00
sg17
g9
((lp2436
g2431
a(imodel.VarAtom
VarAtom
p2437
(dp2438
g38
g2433
sg39
I00
sg40
Nsg41
g2434
sg42
g43
sg66
g9
((lp2439
g965
atRp2440
sg98
S'H'
sg99
I0
sg100
I00
sg101
(F10.80002072621725
F181.29351288696739
F0.17421729012595311
tp2441
sg103
(lp2442
sg105
g1
sg106
g9
((ltRp2443
sg108
g9
((lp2444
(imodel.Bond
Bond
p2445
(dp2446
g105
g1
sg112
g90
sg42
g43
sg113
g9
((lp2447
g965
ag2437
atRp2448
sbatRp2449
sg117
I00
sbatRp2450
sg94
I00
sbsg24
g25
sg56
g9
((lp2451
g971
atRp2452
sg15
S'H'
sg78
I0
sg16
I00
sg79
(F10.80002072621725
F181.29351288696739
F0.17421729012595311
tp2453
sg81
(lp2454
sg14
g1
sg83
g9
((ltRp2455
sg85
g9
((lp2456
(imodel.Bond
Bond
p2457
(dp2458
g14
g1
sg89
g90
sg24
g25
sg17
g9
((lp2459
g971
ag2431
atRp2460
sbatRp2461
sg94
I00
sba(imodel.VarAtom
VarAtom
p2462
(dp2463
g3
VH2A_2
p2464
sg21
I00
sg22
Nsg23
(imodel.Atom
Atom
p2465
(dp2466
g3
g2464
sg14
g1
sg15
S'H'
sg16
I00
sg17
g9
((lp2467
g2462
a(imodel.VarAtom
VarAtom
p2468
(dp2469
g38
g2464
sg39
I00
sg40
Nsg41
g2465
sg42
g43
sg66
g9
((lp2470
g965
atRp2471
sg98
S'H'
sg99
I0
sg100
I00
sg101
(F69.5965631713444
F170.33142580709986
F0.26462497661812834
tp2472
sg103
(lp2473
sg105
g1
sg106
g9
((ltRp2474
sg108
g9
((lp2475
(imodel.Bond
Bond
p2476
(dp2477
g105
g1
sg112
g90
sg42
g43
sg113
g9
((lp2478
g965
ag2468
atRp2479
sbatRp2480
sg117
I00
sbatRp2481
sg94
I00
sbsg24
g25
sg56
g9
((lp2482
g971
atRp2483
sg15
S'H'
sg78
I0
sg16
I00
sg79
(F69.5965631713444
F170.33142580709986
F0.26462497661812834
tp2484
sg81
(lp2485
sg14
g1
sg83
g9
((ltRp2486
sg85
g9
((lp2487
(imodel.Bond
Bond
p2488
(dp2489
g14
g1
sg89
g90
sg24
g25
sg17
g9
((lp2490
g971
ag2462
atRp2491
sbatRp2492
sg94
I00
sbag924
atRp2493
sg15
S'C'
sg78
I0
sg16
I00
sg79
(F46.854059461981649
F206.08435942055613
F0.42080546623392401
tp2494
sg81
(lp2495
sg14
g1
sg83
g9
((ltRp2496
sg85
g9
((lp2497
(imodel.Bond
Bond
p2498
(dp2499
g14
g1
sg89
g90
sg24
g25
sg17
g9
((lp2500
g971
ag924
atRp2501
sbag2426
ag2457
ag2488
atRp2502
sg94
I00
sbag965
atRp2503
sg94
I00
sbsg42
g43
sg66
g9
((lp2504
g2468
ag980
ag930
ag2437
atRp2505
sg98
S'C'
sg99
I0
sg100
I00
sg101
(F46.854059461981649
F206.08435942055613
F0.42080546623392401
tp2506
sg103
(lp2507
sg105
g1
sg106
g9
((ltRp2508
sg108
g9
((lp2509
g2414
ag2476
ag2445
a(imodel.Bond
Bond
p2510
(dp2511
g105
g1
sg112
g90
sg42
g43
sg113
g9
((lp2512
g965
ag930
atRp2513
sbatRp2514
sg117
I00
sbag915
atRp2515
sg98
S'C'
sg99
I0
sg100
I00
sg101
(F6.7190287580391281
F248.31905482149179
F0.042661117425762729
tp2516
sg103
(lp2517
sg105
g1
sg106
g9
((ltRp2518
sg108
g9
((lp2519
g960
a(imodel.Bond
Bond
p2520
(dp2521
g105
g1
sg112
g90
sg42
g43
sg113
g9
((lp2522
g930
ag915
atRp2523
sbag2510
atRp2524
sg117
I00
sbatRp2525
sg94
I00
sbsg24
g25
sg56
g9
((lp2526
g921
ag971
ag939
atRp2527
sg15
S'C'
sg78
I0
sg16
I00
sg79
(F6.7190287580391281
F248.31905482149179
F0.042661117425762729
tp2528
sg81
(lp2529
sg14
g1
sg83
g9
((ltRp2530
sg85
g9
((lp2531
(imodel.Bond
Bond
p2532
(dp2533
g14
g1
sg89
g90
sg24
g25
sg17
g9
((lp2534
g924
ag921
atRp2535
sbag2498
ag947
atRp2536
sg94
I00
sbatRp2537
sg15
S'O'
sg78
I0
sg16
I00
sg79
(F-35.769917032969168
F226.2043908950296
F0.89234066044090798
tp2538
sg81
(lp2539
sg14
g1
sg83
g9
((ltRp2540
sg85
g9
((lp2541
(imodel.Bond
Bond
p2542
(dp2543
g14
g1
sg89
g90
sg24
g25
sg17
g9
((lp2544
g906
ag921
atRp2545
sbag2532
atRp2546
sg94
I00
sbag915
atRp2547
sg94
I00
sbsg42
g43
sg66
g9
((lp2548
g912
ag930
atRp2549
sg98
S'O'
sg99
I0
sg100
I00
sg101
(F-35.769917032969168
F226.2043908950296
F0.89234066044090798
tp2550
sg103
(lp2551
sg105
g1
sg106
g9
((ltRp2552
sg108
g9
((lp2553
(imodel.Bond
Bond
p2554
(dp2555
g105
g1
sg112
g90
sg42
g43
sg113
g9
((lp2556
g912
ag915
atRp2557
sbag2520
atRp2558
sg117
I00
sba(imodel.VarAtom
VarAtom
p2559
(dp2560
g38
VH1_1
p2561
sg39
I00
sg40
Nsg41
(imodel.Atom
Atom
p2562
(dp2563
g3
g2561
sg14
g1
sg15
S'H'
sg16
I00
sg17
g9
((lp2564
(imodel.VarAtom
VarAtom
p2565
(dp2566
g3
g2561
sg21
I00
sg22
Nsg23
g2562
sg24
g25
sg56
g9
((lp2567
g906
atRp2568
sg15
S'H'
sg78
I0
sg16
I00
sg79
(F-101.74232809358662
F208.74921746305952
F0.80486725288097283
tp2569
sg81
(lp2570
sg14
g1
sg83
g9
((ltRp2571
sg85
g9
((lp2572
(imodel.Bond
Bond
p2573
(dp2574
g14
g1
sg89
g90
sg24
g25
sg17
g9
((lp2575
g906
ag2565
atRp2576
sbatRp2577
sg94
I00
sbag2559
atRp2578
sg94
I00
sbsg42
g43
sg66
g9
((lp2579
g912
atRp2580
sg98
S'H'
sg99
I0
sg100
I00
sg101
(F-101.74232809358662
F208.74921746305952
F0.80486725288097283
tp2581
sg103
(lp2582
sg105
g1
sg106
g9
((ltRp2583
sg108
g9
((lp2584
(imodel.Bond
Bond
p2585
(dp2586
g105
g1
sg112
g90
sg42
g43
sg113
g9
((lp2587
g912
ag2559
atRp2588
sbatRp2589
sg117
I00
sbag897
a(imodel.VarAtom
VarAtom
p2590
(dp2591
g38
VH1_2
p2592
sg39
I00
sg40
Nsg41
(imodel.Atom
Atom
p2593
(dp2594
g3
g2592
sg14
g1
sg15
S'H'
sg16
I00
sg17
g9
((lp2595
(imodel.VarAtom
VarAtom
p2596
(dp2597
g3
g2592
sg21
I00
sg22
Nsg23
g2593
sg24
g25
sg56
g9
((lp2598
g906
atRp2599
sg15
S'H'
sg78
I0
sg16
I00
sg79
(F-37.715087555452492
F151.73416043951073
F0.60948616264229594
tp2600
sg81
(lp2601
sg14
g1
sg83
g9
((ltRp2602
sg85
g9
((lp2603
(imodel.Bond
Bond
p2604
(dp2605
g14
g1
sg89
g90
sg24
g25
sg17
g9
((lp2606
g906
ag2596
atRp2607
sbatRp2608
sg94
I00
sbag2590
atRp2609
sg94
I00
sbsg42
g43
sg66
g9
((lp2610
g912
atRp2611
sg98
S'H'
sg99
I0
sg100
I00
sg101
(F-37.715087555452492
F151.73416043951073
F0.60948616264229594
tp2612
sg103
(lp2613
sg105
g1
sg106
g9
((ltRp2614
sg108
g9
((lp2615
(imodel.Bond
Bond
p2616
(dp2617
g105
g1
sg112
g90
sg42
g43
sg113
g9
((lp2618
g912
ag2590
atRp2619
sbatRp2620
sg117
I00
sbatRp2621
sg98
S'C'
sg99
I0
sg100
I00
sg101
(F-71.169184684064334
F179.6822954494329
F0.9995400539303263
tp2622
sg103
(lp2623
sg105
g1
sg106
g9
((ltRp2624
sg108
g9
((lp2625
g2585
ag2616
a(imodel.Bond
Bond
p2626
(dp2627
g105
g1
sg112
g90
sg42
g43
sg113
g9
((lp2628
g897
ag912
atRp2629
sbag2554
atRp2630
sg117
I00
sbatRp2631
sg94
I00
sbsg24
g25
sg56
g9
((lp2632
g2565
ag921
ag2596
ag903
atRp2633
sg15
S'C'
sg78
I0
sg16
I00
sg79
(F-71.169184684064334
F179.6822954494329
F0.9995400539303263
tp2634
sg81
(lp2635
sg14
g1
sg83
g9
((ltRp2636
sg85
g9
((lp2637
g2542
a(imodel.Bond
Bond
p2638
(dp2639
g14
g1
sg89
g90
sg24
g25
sg17
g9
((lp2640
g903
ag906
atRp2641
sbag2573
ag2604
atRp2642
sg94
I00
sba(imodel.VarAtom
VarAtom
p2643
(dp2644
g3
VH2
p2645
sg21
I00
sg22
Nsg23
(imodel.Atom
Atom
p2646
(dp2647
g3
g2645
sg14
g1
sg15
S'H'
sg16
I00
sg17
g9
((lp2648
g2643
a(imodel.VarAtom
VarAtom
p2649
(dp2650
g38
g2645
sg39
I00
sg40
Nsg41
g2646
sg42
g43
sg66
g9
((lp2651
g897
atRp2652
sg98
S'H'
sg99
I0
sg100
I00
sg101
(F-125.96054590258834
F104.6942692897078
F0.4038376352713694
tp2653
sg103
(lp2654
sg105
g1
sg106
g9
((ltRp2655
sg108
g9
((lp2656
(imodel.Bond
Bond
p2657
(dp2658
g105
g1
sg112
g90
sg42
g43
sg113
g9
((lp2659
g897
ag2649
atRp2660
sbatRp2661
sg117
I00
sbatRp2662
sg94
I00
sbsg24
g25
sg56
g9
((lp2663
g903
atRp2664
sg15
S'H'
sg78
I0
sg16
I00
sg79
(F-125.96054590258834
F104.6942692897078
F0.4038376352713694
tp2665
sg81
(lp2666
sg14
g1
sg83
g9
((ltRp2667
sg85
g9
((lp2668
(imodel.Bond
Bond
p2669
(dp2670
g14
g1
sg89
g90
sg24
g25
sg17
g9
((lp2671
g903
ag2643
atRp2672
sbatRp2673
sg94
I00
sba(imodel.VarAtom
VarAtom
p2674
(dp2675
g3
VC3
p2676
sg21
I00
sg22
Nsg23
(imodel.Atom
Atom
p2677
(dp2678
g3
g2676
sg14
g1
sg15
S'C'
sg16
I00
sg17
g9
((lp2679
g2674
a(imodel.VarAtom
VarAtom
p2680
(dp2681
g38
g2676
sg39
I00
sg40
Nsg41
g2677
sg42
g43
sg66
g9
((lp2682
(imodel.VarAtom
VarAtom
p2683
(dp2684
g38
VO3
p2685
sg39
I00
sg40
Nsg41
(imodel.Atom
Atom
p2686
(dp2687
g3
g2685
sg14
g1
sg15
S'O'
sg16
I00
sg17
g9
((lp2688
(imodel.VarAtom
VarAtom
p2689
(dp2690
g3
g2685
sg21
I00
sg22
Nsg23
g2686
sg24
g25
sg56
g9
((lp2691
g30
ag2674
atRp2692
sg15
S'O'
sg78
I0
sg16
I00
sg79
(F-217.23497176940094
F177.63853479347088
F0.53709033746238055
tp2693
sg81
(lp2694
sg14
g1
sg83
g9
((ltRp2695
sg85
g9
((lp2696
(imodel.Bond
Bond
p2697
(dp2698
g14
g1
sg89
g90
sg24
g25
sg17
g9
((lp2699
g30
ag2689
atRp2700
sba(imodel.Bond
Bond
p2701
(dp2702
g14
g1
sg89
g90
sg24
g25
sg17
g9
((lp2703
g2674
ag2689
atRp2704
sbatRp2705
sg94
I00
sbag2683
atRp2706
sg94
I00
sbsg42
g43
sg66
g9
((lp2707
g2680
ag36
atRp2708
sg98
S'O'
sg99
I0
sg100
I00
sg101
(F-217.23497176940094
F177.63853479347088
F0.53709033746238055
tp2709
sg103
(lp2710
sg105
g1
sg106
g9
((ltRp2711
sg108
g9
((lp2712
(imodel.Bond
Bond
p2713
(dp2714
g105
g1
sg112
g90
sg42
g43
sg113
g9
((lp2715
g2680
ag2683
atRp2716
sba(imodel.Bond
Bond
p2717
(dp2718
g105
g1
sg112
g90
sg42
g43
sg113
g9
((lp2719
g36
ag2683
atRp2720
sbatRp2721
sg117
I00
sba(imodel.VarAtom
VarAtom
p2722
(dp2723
g38
VH3_1
p2724
sg39
I00
sg40
Nsg41
(imodel.Atom
Atom
p2725
(dp2726
g3
g2724
sg14
g1
sg15
S'H'
sg16
I00
sg17
g9
((lp2727
(imodel.VarAtom
VarAtom
p2728
(dp2729
g3
g2724
sg21
I00
sg22
Nsg23
g2725
sg24
g25
sg56
g9
((lp2730
g2674
atRp2731
sg15
S'H'
sg78
I0
sg16
I00
sg79
(F-180.49226325906395
F116.38141103917407
F0.70094920866743338
tp2732
sg81
(lp2733
sg14
g1
sg83
g9
((ltRp2734
sg85
g9
((lp2735
(imodel.Bond
Bond
p2736
(dp2737
g14
g1
sg89
g90
sg24
g25
sg17
g9
((lp2738
g2674
ag2728
atRp2739
sbatRp2740
sg94
I00
sbag2722
atRp2741
sg94
I00
sbsg42
g43
sg66
g9
((lp2742
g2680
atRp2743
sg98
S'H'
sg99
I0
sg100
I00
sg101
(F-180.49226325906395
F116.38141103917407
F0.70094920866743338
tp2744
sg103
(lp2745
sg105
g1
sg106
g9
((ltRp2746
sg108
g9
((lp2747
(imodel.Bond
Bond
p2748
(dp2749
g105
g1
sg112
g90
sg42
g43
sg113
g9
((lp2750
g2680
ag2722
atRp2751
sbatRp2752
sg117
I00
sbag897
a(imodel.VarAtom
VarAtom
p2753
(dp2754
g38
VH3_2
p2755
sg39
I00
sg40
Nsg41
(imodel.Atom
Atom
p2756
(dp2757
g3
g2755
sg14
g1
sg15
S'H'
sg16
I00
sg17
g9
((lp2758
(imodel.VarAtom
VarAtom
p2759
(dp2760
g3
g2755
sg21
I00
sg22
Nsg23
g2756
sg24
g25
sg56
g9
((lp2761
g2674
atRp2762
sg15
S'H'
sg78
I0
sg16
I00
sg79
(F-151.60190363344512
F197.99056369523464
F0.44194389077480722
tp2763
sg81
(lp2764
sg14
g1
sg83
g9
((ltRp2765
sg85
g9
((lp2766
(imodel.Bond
Bond
p2767
(dp2768
g14
g1
sg89
g90
sg24
g25
sg17
g9
((lp2769
g2674
ag2759
atRp2770
sbatRp2771
sg94
I00
sbag2753
atRp2772
sg94
I00
sbsg42
g43
sg66
g9
((lp2773
g2680
atRp2774
sg98
S'H'
sg99
I0
sg100
I00
sg101
(F-151.60190363344512
F197.99056369523464
F0.44194389077480722
tp2775
sg103
(lp2776
sg105
g1
sg106
g9
((ltRp2777
sg108
g9
((lp2778
(imodel.Bond
Bond
p2779
(dp2780
g105
g1
sg112
g90
sg42
g43
sg113
g9
((lp2781
g2680
ag2753
atRp2782
sbatRp2783
sg117
I00
sbatRp2784
sg98
S'C'
sg99
I0
sg100
I00
sg101
(F-166.69978036848437
F158.87091928083225
F0.21419981943906674
tp2785
sg103
(lp2786
sg105
g1
sg106
g9
((ltRp2787
sg108
g9
((lp2788
g2713
ag2748
a(imodel.Bond
Bond
p2789
(dp2790
g105
g1
sg112
g90
sg42
g43
sg113
g9
((lp2791
g2680
ag897
atRp2792
sbag2779
atRp2793
sg117
I00
sbatRp2794
sg94
I00
sbsg24
g25
sg56
g9
((lp2795
g2689
ag2728
ag903
ag2759
atRp2796
sg15
S'C'
sg78
I0
sg16
I00
sg79
(F-166.69978036848437
F158.87091928083225
F0.21419981943906674
tp2797
sg81
(lp2798
sg14
g1
sg83
g9
((ltRp2799
sg85
g9
((lp2800
(imodel.Bond
Bond
p2801
(dp2802
g14
g1
sg89
g90
sg24
g25
sg17
g9
((lp2803
g2674
ag903
atRp2804
sbag2701
ag2736
ag2767
atRp2805
sg94
I00
sbatRp2806
sg15
S'C'
sg78
I0
sg16
I00
sg79
(F-107.87548264813452
F134.30523682579212
F0.043398175608514555
tp2807
sg81
(lp2808
sg14
g1
sg83
g9
((ltRp2809
sg85
g9
((lp2810
g2638
ag2801
ag2669
a(imodel.Bond
Bond
p2811
(dp2812
g14
g1
sg89
g90
sg24
g25
sg17
g9
((lp2813
g903
ag888
atRp2814
sbatRp2815
sg94
I00
sbag897
atRp2816
sg94
I00
sbsg42
g43
sg66
g9
((lp2817
g2649
ag894
ag912
ag2680
atRp2818
sg98
S'C'
sg99
I0
sg100
I00
sg101
(F-107.87548264813452
F134.30523682579212
F0.043398175608514555
tp2819
sg103
(lp2820
sg105
g1
sg106
g9
((ltRp2821
sg108
g9
((lp2822
(imodel.Bond
Bond
p2823
(dp2824
g105
g1
sg112
g90
sg42
g43
sg113
g9
((lp2825
g897
ag894
atRp2826
sbag2657
ag2626
ag2789
atRp2827
sg117
I00
sbag879
atRp2828
sg98
S'O'
sg99
I0
sg100
I00
sg101
(F-63.398025055944181
F85.840718714752271
F0.93344070891100417
tp2829
sg103
(lp2830
sg105
g1
sg106
g9
((ltRp2831
sg108
g9
((lp2832
g2823
a(imodel.Bond
Bond
p2833
(dp2834
g105
g1
sg112
g90
sg42
g43
sg113
g9
((lp2835
g879
ag894
atRp2836
sbatRp2837
sg117
I00
sbatRp2838
sg94
I00
sbsg24
g25
sg56
g9
((lp2839
g903
ag885
atRp2840
sg15
S'O'
sg78
I0
sg16
I00
sg79
(F-63.398025055944181
F85.840718714752271
F0.93344070891100417
tp2841
sg81
(lp2842
sg14
g1
sg83
g9
((ltRp2843
sg85
g9
((lp2844
g2811
a(imodel.Bond
Bond
p2845
(dp2846
g14
g1
sg89
g90
sg24
g25
sg17
g9
((lp2847
g885
ag888
atRp2848
sbatRp2849
sg94
I00
sba(imodel.VarAtom
VarAtom
p2850
(dp2851
g3
VO1B
p2852
sg21
I00
sg22
Nsg23
(imodel.Atom
Atom
p2853
(dp2854
g3
g2852
sg14
g1
sg15
S'O'
sg16
I00
sg17
g9
((lp2855
g2850
a(imodel.VarAtom
VarAtom
p2856
(dp2857
g38
g2852
sg39
I00
sg40
Nsg41
g2853
sg42
g43
sg66
g9
((lp2858
g879
atRp2859
sg98
S'O'
sg99
I0
sg100
I00
sg101
(F-127.52019215143314
F28.605933351176592
F0.94330303479042854
tp2860
sg103
(lp2861
sg105
g1
sg106
g9
((ltRp2862
sg108
g9
((lp2863
(imodel.Bond
Bond
p2864
(dp2865
g105
g1
sg112
g949
sg42
g43
sg113
g9
((lp2866
g879
ag2856
atRp2867
sbatRp2868
sg117
I00
sbatRp2869
sg94
I00
sbsg24
g25
sg56
g9
((lp2870
g885
atRp2871
sg15
S'O'
sg78
I0
sg16
I00
sg79
(F-127.52019215143314
F28.605933351176592
F0.94330303479042854
tp2872
sg81
(lp2873
sg14
g1
sg83
g9
((ltRp2874
sg85
g9
((lp2875
(imodel.Bond
Bond
p2876
(dp2877
g14
g1
sg89
g949
sg24
g25
sg17
g9
((lp2878
g885
ag2850
atRp2879
sbatRp2880
sg94
I00
sbag808
atRp2881
sg15
S'C'
sg78
I0
sg16
I00
sg79
(F-75.004479324482432
F39.716811763929876
F0.3234465233633167
tp2882
sg81
(lp2883
sg14
g1
sg83
g9
((ltRp2884
sg85
g9
((lp2885
g2845
a(imodel.Bond
Bond
p2886
(dp2887
g14
g1
sg89
g90
sg24
g25
sg17
g9
((lp2888
g808
ag885
atRp2889
sbag2876
atRp2890
sg94
I00
sbag879
atRp2891
sg94
I00
sbsg42
g43
sg66
g9
((lp2892
g814
ag2856
ag894
atRp2893
sg98
S'C'
sg99
I0
sg100
I00
sg101
(F-75.004479324482432
F39.716811763929876
F0.3234465233633167
tp2894
sg103
(lp2895
sg105
g1
sg106
g9
((ltRp2896
sg108
g9
((lp2897
(imodel.Bond
Bond
p2898
(dp2899
g105
g1
sg112
g90
sg42
g43
sg113
g9
((lp2900
g814
ag879
atRp2901
sbag2864
ag2833
atRp2902
sg117
I00
sbatRp2903
sg98
S'C'
sg99
I0
sg100
I00
sg101
(F-48.680918895780366
F-6.7245281469815392
F0.080372124290128966
tp2904
sg103
(lp2905
sg105
g1
sg106
g9
((ltRp2906
sg108
g9
((lp2907
g2898
a(imodel.Bond
Bond
p2908
(dp2909
g105
g1
sg112
g90
sg42
g43
sg113
g9
((lp2910
g799
ag814
atRp2911
sbag843
ag874
atRp2912
sg117
I00
sbatRp2913
sg94
I00
sbsg24
g25
sg56
g9
((lp2914
g854
ag885
ag805
ag823
atRp2915
sg15
S'C'
sg78
I0
sg16
I00
sg79
(F-48.680918895780366
F-6.7245281469815392
F0.080372124290128966
tp2916
sg81
(lp2917
sg14
g1
sg83
g9
((ltRp2918
sg85
g9
((lp2919
g2886
a(imodel.Bond
Bond
p2920
(dp2921
g14
g1
sg89
g90
sg24
g25
sg17
g9
((lp2922
g805
ag808
atRp2923
sbag831
ag862
atRp2924
sg94
I00
sbag728
a(imodel.VarAtom
VarAtom
p2925
(dp2926
g613
VH3B_1
p2927
sg621
I00
sg622
Nsg623
(imodel.Atom
Atom
p2928
(dp2929
g613
g2927
sg614
g1
sg615
S'H'
sg616
I00
sg617
g9
((lp2930
g2925
a(imodel.VarAtom
VarAtom
p2931
(dp2932
g38
g2927
sg39
I00
sg40
Nsg41
g2928
sg42
g43
sg66
g9
((lp2933
g799
atRp2934
sg98
S'H'
sg99
I0
sg100
I00
sg101
(F-1.9932863265826013
F47.454910435955071
F0.39760990116809902
tp2935
sg103
(lp2936
sg105
g1
sg106
g9
((ltRp2937
sg108
g9
((lp2938
(imodel.Bond
Bond
p2939
(dp2940
g105
g1
sg112
g640
sg42
g43
sg113
g9
((lp2941
g799
ag2931
atRp2942
sbatRp2943
sg117
I00
sbatRp2944
sg644
I00
sbsg624
g25
sg625
g9
((lp2945
g805
atRp2946
sg615
S'H'
sg628
I0
sg616
I00
sg629
(F-1.9932863265826013
F47.454910435955071
F0.39760990116809902
tp2947
sg631
(lp2948
sg614
g1
sg633
g9
((ltRp2949
sg635
g9
((lp2950
(imodel.Bond
Bond
p2951
(dp2952
g614
g1
sg639
g640
sg624
g25
sg617
g9
((lp2953
g805
ag2925
atRp2954
sbatRp2955
sg644
I00
sba(imodel.VarAtom
VarAtom
p2956
(dp2957
g3
VH3B_2
p2958
sg21
I00
sg22
Nsg23
(imodel.Atom
Atom
p2959
(dp2960
g3
g2958
sg14
g1
sg15
S'H'
sg16
I00
sg17
g9
((lp2961
g2956
a(imodel.VarAtom
VarAtom
p2962
(dp2963
g38
g2958
sg39
I00
sg40
Nsg41
g2959
sg42
g43
sg66
g9
((lp2964
g799
atRp2965
sg98
S'H'
sg99
I0
sg100
I00
sg101
(F21.350802502288605
F-32.585089962298433
F0.30579918931018624
tp2966
sg103
(lp2967
sg105
g1
sg106
g9
((ltRp2968
sg108
g9
((lp2969
(imodel.Bond
Bond
p2970
(dp2971
g105
g1
sg112
g90
sg42
g43
sg113
g9
((lp2972
g799
ag2962
atRp2973
sbatRp2974
sg117
I00
sbatRp2975
sg94
I00
sbsg24
g25
sg56
g9
((lp2976
g805
atRp2977
sg15
S'H'
sg78
I0
sg16
I00
sg79
(F21.350802502288605
F-32.585089962298433
F0.30579918931018624
tp2978
sg81
(lp2979
sg14
g1
sg83
g9
((ltRp2980
sg85
g9
((lp2981
(imodel.Bond
Bond
p2982
(dp2983
g14
g1
sg89
g90
sg24
g25
sg17
g9
((lp2984
g805
ag2956
atRp2985
sbatRp2986
sg94
I00
sbatRp2987
sg15
S'C'
sg78
I0
sg16
I00
sg79
(F11.540566805824286
F6.6005215215845796
F0.59483400448868495
tp2988
sg81
(lp2989
sg14
g1
sg83
g9
((ltRp2990
sg85
g9
((lp2991
g2920
a(imodel.Bond
Bond
p2992
(dp2993
g14
g1
sg89
g640
sg24
g25
sg17
g9
((lp2994
g728
ag805
atRp2995
sbag2982
ag2951
atRp2996
sg94
I00
sbag799
atRp2997
sg94
I00
sbsg42
g43
sg66
g9
((lp2998
g2931
ag2962
ag734
ag814
atRp2999
sg98
S'C'
sg99
I0
sg100
I00
sg101
(F11.540566805824286
F6.6005215215845796
F0.59483400448868495
tp3000
sg103
(lp3001
sg105
g1
sg106
g9
((ltRp3002
sg108
g9
((lp3003
g2939
ag2970
a(imodel.Bond
Bond
p3004
(dp3005
g105
g1
sg112
g640
sg42
g43
sg113
g9
((lp3006
g734
ag799
atRp3007
sbag2908
atRp3008
sg117
I00
sbag688
atRp3009
sg98
S'C'
sg99
I0
sg100
I00
sg101
(F69.248012682767467
F26.509582520876947
F0.18967282202580282
tp3010
sg103
(lp3011
sg105
g1
sg106
g9
((ltRp3012
sg108
g9
((lp3013
g763
a(imodel.Bond
Bond
p3014
(dp3015
g105
g1
sg112
g90
sg42
g43
sg113
g9
((lp3016
g688
ag734
atRp3017
sbag3004
ag794
atRp3018
sg117
I00
sbatRp3019
sg94
I00
sbsg24
g25
sg56
g9
((lp3020
g805
ag694
ag774
ag743
atRp3021
sg15
S'C'
sg78
I0
sg16
I00
sg79
(F69.248012682767467
F26.509582520876947
F0.18967282202580282
tp3022
sg81
(lp3023
sg14
g1
sg83
g9
((ltRp3024
sg85
g9
((lp3025
g2992
a(imodel.Bond
Bond
p3026
(dp3027
g14
g1
sg89
g90
sg24
g25
sg17
g9
((lp3028
g694
ag728
atRp3029
sbag751
ag782
atRp3030
sg94
I00
sbag599
a(imodel.VarAtom
VarAtom
p3031
(dp3032
g613
VH5B_2
p3033
sg621
I00
sg622
Nsg623
(imodel.Atom
Atom
p3034
(dp3035
g613
g3033
sg614
g1
sg615
S'H'
sg616
I00
sg617
g9
((lp3036
g3031
a(imodel.VarAtom
VarAtom
p3037
(dp3038
g38
g3033
sg39
I00
sg40
Nsg41
g3034
sg42
g43
sg66
g9
((lp3039
g688
atRp3040
sg98
S'H'
sg99
I0
sg100
I00
sg101
(F75.166576170048756
F-52.397391756639479
F0.69014470148648943
tp3041
sg103
(lp3042
sg105
g1
sg106
g9
((ltRp3043
sg108
g9
((lp3044
(imodel.Bond
Bond
p3045
(dp3046
g105
g1
sg112
g640
sg42
g43
sg113
g9
((lp3047
g688
ag3037
atRp3048
sbatRp3049
sg117
I00
sbatRp3050
sg644
I00
sbsg624
g25
sg625
g9
((lp3051
g694
atRp3052
sg615
S'H'
sg628
I0
sg616
I00
sg629
(F75.166576170048756
F-52.397391756639479
F0.69014470148648943
tp3053
sg631
(lp3054
sg614
g1
sg633
g9
((ltRp3055
sg635
g9
((lp3056
(imodel.Bond
Bond
p3057
(dp3058
g614
g1
sg639
g640
sg624
g25
sg617
g9
((lp3059
g694
ag3031
atRp3060
sbatRp3061
sg644
I00
sbatRp3062
sg15
S'C'
sg78
I0
sg16
I00
sg79
(F108.74472383566408
F-19.28997190550707
F0.075199663058858834
tp3063
sg81
(lp3064
sg14
g1
sg83
g9
((ltRp3065
sg85
g9
((lp3066
g3026
a(imodel.Bond
Bond
p3067
(dp3068
g14
g1
sg89
g640
sg24
g25
sg17
g9
((lp3069
g599
ag694
atRp3070
sbag723
ag3057
atRp3071
sg94
I00
sbag688
atRp3072
sg94
I00
sbsg42
g43
sg66
g9
((lp3073
g605
ag3037
ag734
ag703
atRp3074
sg98
S'C'
sg99
I0
sg100
I00
sg101
(F108.74472383566408
F-19.28997190550707
F0.075199663058858834
tp3075
sg103
(lp3076
sg105
g1
sg106
g9
((ltRp3077
sg108
g9
((lp3078
(imodel.Bond
Bond
p3079
(dp3080
g105
g1
sg112
g640
sg42
g43
sg113
g9
((lp3081
g605
ag688
atRp3082
sbag3045
ag711
ag3014
atRp3083
sg117
I00
sbatRp3084
sg98
S'C'
sg99
I0
sg100
I00
sg101
(F167.29755864844998
F5.9354862945896816
F0.25679434407550039
tp3085
sg103
(lp3086
sg105
g1
sg106
g9
((ltRp3087
sg108
g9
((lp3088
g3079
a(imodel.Bond
Bond
p3089
(dp3090
g105
g1
sg112
g90
sg42
g43
sg113
g9
((lp3091
g590
ag605
atRp3092
sbag652
ag683
atRp3093
sg117
I00
sbatRp3094
sg94
I00
sbsg24
g25
sg56
g9
((lp3095
g619
ag694
ag663
ag596
atRp3096
sg15
S'C'
sg78
I0
sg16
I00
sg79
(F167.29755864844998
F5.9354862945896816
F0.25679434407550039
tp3097
sg81
(lp3098
sg14
g1
sg83
g9
((ltRp3099
sg85
g9
((lp3100
g3067
a(imodel.Bond
Bond
p3101
(dp3102
g14
g1
sg89
g90
sg24
g25
sg17
g9
((lp3103
g596
ag599
atRp3104
sbag671
ag637
atRp3105
sg94
I00
sba(imodel.VarAtom
VarAtom
p3106
(dp3107
g3
VH7B_1
p3108
sg21
I00
sg22
Nsg23
(imodel.Atom
Atom
p3109
(dp3110
g3
g3108
sg14
g1
sg15
S'H'
sg16
I00
sg17
g9
((lp3111
g3106
a(imodel.VarAtom
VarAtom
p3112
(dp3113
g38
g3108
sg39
I00
sg40
Nsg41
g3109
sg42
g43
sg66
g9
((lp3114
g590
atRp3115
sg98
S'H'
sg99
I0
sg100
I00
sg101
(F238.21440062160744
F-72.117491902175189
F0.60685449846404671
tp3116
sg103
(lp3117
sg105
g1
sg106
g9
((ltRp3118
sg108
g9
((lp3119
(imodel.Bond
Bond
p3120
(dp3121
g105
g1
sg112
g90
sg42
g43
sg113
g9
((lp3122
g590
ag3112
atRp3123
sbatRp3124
sg117
I00
sbatRp3125
sg94
I00
sbsg24
g25
sg56
g9
((lp3126
g596
atRp3127
sg15
S'H'
sg78
I0
sg16
I00
sg79
(F238.21440062160744
F-72.117491902175189
F0.60685449846404671
tp3128
sg81
(lp3129
sg14
g1
sg83
g9
((ltRp3130
sg85
g9
((lp3131
(imodel.Bond
Bond
p3132
(dp3133
g14
g1
sg89
g90
sg24
g25
sg17
g9
((lp3134
g596
ag3106
atRp3135
sbatRp3136
sg94
I00
sba(imodel.VarAtom
VarAtom
p3137
(dp3138
g3
VH7B_2
p3139
sg21
I00
sg22
Nsg23
(imodel.Atom
Atom
p3140
(dp3141
g3
g3139
sg14
g1
sg15
S'H'
sg16
I00
sg17
g9
((lp3142
g3137
a(imodel.VarAtom
VarAtom
p3143
(dp3144
g38
g3139
sg39
I00
sg40
Nsg41
g3140
sg42
g43
sg66
g9
((lp3145
g590
atRp3146
sg98
S'H'
sg99
I0
sg100
I00
sg101
(F184.2641380092831
F-68.739600461200524
F0.30150481052324996
tp3147
sg103
(lp3148
sg105
g1
sg106
g9
((ltRp3149
sg108
g9
((lp3150
(imodel.Bond
Bond
p3151
(dp3152
g105
g1
sg112
g90
sg42
g43
sg113
g9
((lp3153
g590
ag3143
atRp3154
sbatRp3155
sg117
I00
sbatRp3156
sg94
I00
sbsg24
g25
sg56
g9
((lp3157
g596
atRp3158
sg15
S'H'
sg78
I0
sg16
I00
sg79
(F184.2641380092831
F-68.739600461200524
F0.30150481052324996
tp3159
sg81
(lp3160
sg14
g1
sg83
g9
((ltRp3161
sg85
g9
((lp3162
(imodel.Bond
Bond
p3163
(dp3164
g14
g1
sg89
g90
sg24
g25
sg17
g9
((lp3165
g596
ag3137
atRp3166
sbatRp3167
sg94
I00
sbag581
atRp3168
sg15
S'C'
sg78
I0
sg16
I00
sg79
(F210.74494734638802
F-36.989464135399835
F0.87870144530791594
tp3169
sg81
(lp3170
sg14
g1
sg83
g9
((ltRp3171
sg85
g9
((lp3172
g3101
a(imodel.Bond
Bond
p3173
(dp3174
g14
g1
sg89
g90
sg24
g25
sg17
g9
((lp3175
g581
ag596
atRp3176
sbag3132
ag3163
atRp3177
sg94
I00
sbag590
atRp3178
sg94
I00
sbsg42
g43
sg66
g9
((lp3179
g605
ag587
ag3143
ag3112
atRp3180
sg98
S'C'
sg99
I0
sg100
I00
sg101
(F210.74494734638802
F-36.989464135399835
F0.87870144530791594
tp3181
sg103
(lp3182
sg105
g1
sg106
g9
((ltRp3183
sg108
g9
((lp3184
g3120
ag3089
a(imodel.Bond
Bond
p3185
(dp3186
g105
g1
sg112
g90
sg42
g43
sg113
g9
((lp3187
g587
ag590
atRp3188
sbag3151
atRp3189
sg117
I00
sba(imodel.VarAtom
VarAtom
p3190
(dp3191
g38
VH8B_1
p3192
sg39
I00
sg40
Nsg41
(imodel.Atom
Atom
p3193
(dp3194
g3
g3192
sg14
g1
sg15
S'H'
sg16
I00
sg17
g9
((lp3195
(imodel.VarAtom
VarAtom
p3196
(dp3197
g3
g3192
sg21
I00
sg22
Nsg23
g3193
sg24
g25
sg56
g9
((lp3198
g581
atRp3199
sg15
S'H'
sg78
I0
sg16
I00
sg79
(F303.09108577244001
F32.57418961640542
F0.30311000188673909
tp3200
sg81
(lp3201
sg14
g1
sg83
g9
((ltRp3202
sg85
g9
((lp3203
(imodel.Bond
Bond
p3204
(dp3205
g14
g1
sg89
g90
sg24
g25
sg17
g9
((lp3206
g581
ag3196
atRp3207
sbatRp3208
sg94
I00
sbag3190
atRp3209
sg94
I00
sbsg42
g43
sg66
g9
((lp3210
g587
atRp3211
sg98
S'H'
sg99
I0
sg100
I00
sg101
(F303.09108577244001
F32.57418961640542
F0.30311000188673909
tp3212
sg103
(lp3213
sg105
g1
sg106
g9
((ltRp3214
sg108
g9
((lp3215
(imodel.Bond
Bond
p3216
(dp3217
g105
g1
sg112
g90
sg42
g43
sg113
g9
((lp3218
g587
ag3190
atRp3219
sbatRp3220
sg117
I00
sba(imodel.VarAtom
VarAtom
p3221
(dp3222
g38
VH8B_2
p3223
sg39
I00
sg40
Nsg41
(imodel.Atom
Atom
p3224
(dp3225
g3
g3223
sg14
g1
sg15
S'H'
sg16
I00
sg17
g9
((lp3226
(imodel.VarAtom
VarAtom
p3227
(dp3228
g3
g3223
sg21
I00
sg22
Nsg23
g3224
sg24
g25
sg56
g9
((lp3229
g581
atRp3230
sg15
S'H'
sg78
I0
sg16
I00
sg79
(F243.59057198731566
F26.288011024563552
F0.85975640480846993
tp3231
sg81
(lp3232
sg14
g1
sg83
g9
((ltRp3233
sg85
g9
((lp3234
(imodel.Bond
Bond
p3235
(dp3236
g14
g1
sg89
g90
sg24
g25
sg17
g9
((lp3237
g581
ag3227
atRp3238
sbatRp3239
sg94
I00
sbag3221
atRp3240
sg94
I00
sbsg42
g43
sg66
g9
((lp3241
g587
atRp3242
sg98
S'H'
sg99
I0
sg100
I00
sg101
(F243.59057198731566
F26.288011024563552
F0.85975640480846993
tp3243
sg103
(lp3244
sg105
g1
sg106
g9
((ltRp3245
sg108
g9
((lp3246
(imodel.Bond
Bond
p3247
(dp3248
g105
g1
sg112
g90
sg42
g43
sg113
g9
((lp3249
g587
ag3221
atRp3250
sbatRp3251
sg117
I00
sbatRp3252
sg98
S'C'
sg99
I0
sg100
I00
sg101
(F267.5112843637167
F-8.8409325554538203
F0.042279323215361098
tp3253
sg103
(lp3254
sg105
g1
sg106
g9
((ltRp3255
sg108
g9
((lp3256
(imodel.Bond
Bond
p3257
(dp3258
g105
g1
sg112
g90
sg42
g43
sg113
g9
((lp3259
g572
ag587
atRp3260
sbag3185
ag3247
ag3216
atRp3261
sg117
I00
sbatRp3262
sg94
I00
sbsg24
g25
sg56
g9
((lp3263
g578
ag596
ag3196
ag3227
atRp3264
sg15
S'C'
sg78
I0
sg16
I00
sg79
(F267.5112843637167
F-8.8409325554538203
F0.042279323215361098
tp3265
sg81
(lp3266
sg14
g1
sg83
g9
((ltRp3267
sg85
g9
((lp3268
g3173
a(imodel.Bond
Bond
p3269
(dp3270
g14
g1
sg89
g90
sg24
g25
sg17
g9
((lp3271
g578
ag581
atRp3272
sbag3235
ag3204
atRp3273
sg94
I00
sba(imodel.VarAtom
VarAtom
p3274
(dp3275
g3
VH9B
p3276
sg21
I00
sg22
Nsg23
(imodel.Atom
Atom
p3277
(dp3278
g3
g3276
sg14
g1
sg15
S'H'
sg16
I00
sg17
g9
((lp3279
g3274
a(imodel.VarAtom
VarAtom
p3280
(dp3281
g38
g3276
sg39
I00
sg40
Nsg41
g3277
sg42
g43
sg66
g9
((lp3282
g572
atRp3283
sg98
S'H'
sg99
I0
sg100
I00
sg101
(F293.15302381847061
F-78.397850968328044
F0.33635162354300541
tp3284
sg103
(lp3285
sg105
g1
sg106
g9
((ltRp3286
sg108
g9
((lp3287
(imodel.Bond
Bond
p3288
(dp3289
g105
g1
sg112
g90
sg42
g43
sg113
g9
((lp3290
g572
ag3280
atRp3291
sbatRp3292
sg117
I00
sbatRp3293
sg94
I00
sbsg24
g25
sg56
g9
((lp3294
g578
atRp3295
sg15
S'H'
sg78
I0
sg16
I00
sg79
(F293.15302381847061
F-78.397850968328044
F0.33635162354300541
tp3296
sg81
(lp3297
sg14
g1
sg83
g9
((ltRp3298
sg85
g9
((lp3299
(imodel.Bond
Bond
p3300
(dp3301
g14
g1
sg89
g90
sg24
g25
sg17
g9
((lp3302
g578
ag3274
atRp3303
sbatRp3304
sg94
I00
sbag514
atRp3305
sg15
S'C'
sg78
I0
sg16
I00
sg79
(F306.46840891205238
F-46.60876992132463
F0.83625976255313894
tp3306
sg81
(lp3307
sg14
g1
sg83
g9
((ltRp3308
sg85
g9
((lp3309
g3269
a(imodel.Bond
Bond
p3310
(dp3311
g14
g1
sg89
g949
sg24
g25
sg17
g9
((lp3312
g578
ag514
atRp3313
sbag3300
atRp3314
sg94
I00
sbag572
atRp3315
sg94
I00
sbsg42
g43
sg66
g9
((lp3316
g520
ag587
ag3280
atRp3317
sg98
S'C'
sg99
I0
sg100
I00
sg101
(F306.46840891205238
F-46.60876992132463
F0.83625976255313894
tp3318
sg103
(lp3319
sg105
g1
sg106
g9
((ltRp3320
sg108
g9
((lp3321
(imodel.Bond
Bond
p3322
(dp3323
g105
g1
sg112
g949
sg42
g43
sg113
g9
((lp3324
g572
ag520
atRp3325
sbag3257
ag3288
atRp3326
sg117
I00
sbag505
atRp3327
sg98
S'C'
sg99
I0
sg100
I00
sg101
(F353.86982745338128
F-47.506220359574279
F0.94225021983015955
tp3328
sg103
(lp3329
sg105
g1
sg106
g9
((ltRp3330
sg108
g9
((lp3331
g567
ag3322
a(imodel.Bond
Bond
p3332
(dp3333
g105
g1
sg112
g555
sg42
g43
sg113
g9
((lp3334
g505
ag520
atRp3335
sbatRp3336
sg117
I00
sbatRp3337
sg94
I00
sbsg24
g25
sg56
g9
((lp3338
g578
ag534
ag511
atRp3339
sg15
S'C'
sg78
I0
sg16
I00
sg79
(F353.86982745338128
F-47.506220359574279
F0.94225021983015955
tp3340
sg81
(lp3341
sg14
g1
sg83
g9
((ltRp3342
sg85
g9
((lp3343
g3310
a(imodel.Bond
Bond
p3344
(dp3345
g14
g1
sg89
g555
sg24
g25
sg17
g9
((lp3346
g511
ag514
atRp3347
sbag552
atRp3348
sg94
I00
sba(imodel.VarAtom
VarAtom
p3349
(dp3350
g3
VH11B_1
p3351
sg21
I00
sg22
Nsg23
(imodel.Atom
Atom
p3352
(dp3353
g3
g3351
sg14
g1
sg15
S'H'
sg16
I00
sg17
g9
((lp3354
g3349
a(imodel.VarAtom
VarAtom
p3355
(dp3356
g38
g3351
sg39
I00
sg40
Nsg41
g3352
sg42
g43
sg66
g9
((lp3357
g505
atRp3358
sg98
S'H'
sg99
I0
sg100
I00
sg101
(F420.22690809328924
F34.686135445462497
F0.74464685870865832
tp3359
sg103
(lp3360
sg105
g1
sg106
g9
((ltRp3361
sg108
g9
((lp3362
(imodel.Bond
Bond
p3363
(dp3364
g105
g1
sg112
g90
sg42
g43
sg113
g9
((lp3365
g505
ag3355
atRp3366
sbatRp3367
sg117
I00
sbatRp3368
sg94
I00
sbsg24
g25
sg56
g9
((lp3369
g511
atRp3370
sg15
S'H'
sg78
I0
sg16
I00
sg79
(F420.22690809328924
F34.686135445462497
F0.74464685870865832
tp3371
sg81
(lp3372
sg14
g1
sg83
g9
((ltRp3373
sg85
g9
((lp3374
(imodel.Bond
Bond
p3375
(dp3376
g14
g1
sg89
g90
sg24
g25
sg17
g9
((lp3377
g511
ag3349
atRp3378
sbatRp3379
sg94
I00
sba(imodel.VarAtom
VarAtom
p3380
(dp3381
g528
VH11B_2
p3382
sg536
I00
sg537
Nsg538
(imodel.Atom
Atom
p3383
(dp3384
g528
g3382
sg529
g1
sg530
S'H'
sg531
I00
sg532
g9
((lp3385
g3380
a(imodel.VarAtom
VarAtom
p3386
(dp3387
g38
g3382
sg39
I00
sg40
Nsg41
g3383
sg42
g43
sg66
g9
((lp3388
g505
atRp3389
sg98
S'H'
sg99
I0
sg100
I00
sg101
(F363.63984872180015
F19.944966115376147
F0.37472465397571508
tp3390
sg103
(lp3391
sg105
g1
sg106
g9
((ltRp3392
sg108
g9
((lp3393
(imodel.Bond
Bond
p3394
(dp3395
g105
g1
sg112
g555
sg42
g43
sg113
g9
((lp3396
g505
ag3386
atRp3397
sbatRp3398
sg117
I00
sbatRp3399
sg559
I00
sbsg539
g25
sg540
g9
((lp3400
g511
atRp3401
sg530
S'H'
sg543
I0
sg531
I00
sg544
(F363.63984872180015
F19.944966115376147
F0.37472465397571508
tp3402
sg546
(lp3403
sg529
g1
sg548
g9
((ltRp3404
sg550
g9
((lp3405
(imodel.Bond
Bond
p3406
(dp3407
g529
g1
sg554
g555
sg539
g25
sg532
g9
((lp3408
g511
ag3380
atRp3409
sbatRp3410
sg559
I00
sbag19
atRp3411
sg15
S'C'
sg78
I0
sg16
I00
sg79
(F396.69216067093339
F-12.917292561339959
F0.57745374512367353
tp3412
sg81
(lp3413
sg14
g1
sg83
g9
((ltRp3414
sg85
g9
((lp3415
g3344
a(imodel.Bond
Bond
p3416
(dp3417
g14
g1
sg89
g90
sg24
g25
sg17
g9
((lp3418
g19
ag511
atRp3419
sbag3406
ag3375
atRp3420
sg94
I00
sbag505
atRp3421
sg94
I00
sbsg42
g43
sg66
g9
((lp3422
g3355
ag502
ag520
ag3386
atRp3423
sg98
S'C'
sg99
I0
sg100
I00
sg101
(F396.69216067093339
F-12.917292561339959
F0.57745374512367353
tp3424
sg103
(lp3425
sg105
g1
sg106
g9
((ltRp3426
sg108
g9
((lp3427
g3332
ag3394
ag3363
a(imodel.Bond
Bond
p3428
(dp3429
g105
g1
sg112
g90
sg42
g43
sg113
g9
((lp3430
g502
ag505
atRp3431
sbatRp3432
sg117
I00
sba(imodel.VarAtom
VarAtom
p3433
(dp3434
g38
VH12B_2
p3435
sg39
I00
sg40
Nsg41
(imodel.Atom
Atom
p3436
(dp3437
g3
g3435
sg14
g1
sg15
S'H'
sg16
I00
sg17
g9
((lp3438
(imodel.VarAtom
VarAtom
p3439
(dp3440
g3
g3435
sg21
I00
sg22
Nsg23
g3436
sg24
g25
sg56
g9
((lp3441
g19
atRp3442
sg15
S'H'
sg78
I0
sg16
I00
sg79
(F475.55848819004154
F-76.537883286754237
F0.86874267280135764
tp3443
sg81
(lp3444
sg14
g1
sg83
g9
((ltRp3445
sg85
g9
((lp3446
(imodel.Bond
Bond
p3447
(dp3448
g14
g1
sg89
g90
sg24
g25
sg17
g9
((lp3449
g19
ag3439
atRp3450
sbatRp3451
sg94
I00
sbag3433
atRp3452
sg94
I00
sbsg42
g43
sg66
g9
((lp3453
g502
atRp3454
sg98
S'H'
sg99
I0
sg100
I00
sg101
(F475.55848819004154
F-76.537883286754237
F0.86874267280135764
tp3455
sg103
(lp3456
sg105
g1
sg106
g9
((ltRp3457
sg108
g9
((lp3458
(imodel.Bond
Bond
p3459
(dp3460
g105
g1
sg112
g90
sg42
g43
sg113
g9
((lp3461
g502
ag3433
atRp3462
sbatRp3463
sg117
I00
sba(imodel.VarAtom
VarAtom
p3464
(dp3465
g38
VH12B_1
p3466
sg39
I00
sg40
Nsg41
(imodel.Atom
Atom
p3467
(dp3468
g3
g3466
sg14
g1
sg15
S'H'
sg16
I00
sg17
g9
((lp3469
(imodel.VarAtom
VarAtom
p3470
(dp3471
g3
g3466
sg21
I00
sg22
Nsg23
g3467
sg24
g25
sg56
g9
((lp3472
g19
atRp3473
sg15
S'H'
sg78
I0
sg16
I00
sg79
(F428.42257038569028
F-79.081753789653817
F0.91673705861519239
tp3474
sg81
(lp3475
sg14
g1
sg83
g9
((ltRp3476
sg85
g9
((lp3477
(imodel.Bond
Bond
p3478
(dp3479
g14
g1
sg89
g90
sg24
g25
sg17
g9
((lp3480
g19
ag3470
atRp3481
sbatRp3482
sg94
I00
sbag3464
atRp3483
sg94
I00
sbsg42
g43
sg66
g9
((lp3484
g502
atRp3485
sg98
S'H'
sg99
I0
sg100
I00
sg101
(F428.42257038569028
F-79.081753789653817
F0.91673705861519239
tp3486
sg103
(lp3487
sg105
g1
sg106
g9
((ltRp3488
sg108
g9
((lp3489
(imodel.Bond
Bond
p3490
(dp3491
g105
g1
sg112
g90
sg42
g43
sg113
g9
((lp3492
g502
ag3464
atRp3493
sbatRp3494
sg117
I00
sbag415
atRp3495
sg98
S'C'
sg99
I0
sg100
I00
sg101
(F448.42547270663397
F-46.296405286531744
F0.48359829646320163
tp3496
sg103
(lp3497
sg105
g1
sg106
g9
((ltRp3498
sg108
g9
((lp3499
g3490
a(imodel.Bond
Bond
p3500
(dp3501
g105
g1
sg112
g90
sg42
g43
sg113
g9
((lp3502
g415
ag502
atRp3503
sbag3459
ag3428
atRp3504
sg117
I00
sbag430
ag461
ag350
atRp3505
sg98
S'C'
sg99
I0
sg100
I00
sg101
(F499.09729401324711
F-10.660462761482176
F0.45987134661090334
tp3506
sg103
(lp3507
sg105
g1
sg106
g9
((ltRp3508
sg108
g9
((lp3509
g3500
ag469
a(imodel.Bond
Bond
p3510
(dp3511
g105
g1
sg112
g90
sg42
g43
sg113
g9
((lp3512
g350
ag415
atRp3513
sbag438
atRp3514
sg117
I00
sbatRp3515
sg98
S'C'
sg99
I0
sg100
I00
sg101
(F549.46112662203382
F-49.016464913900947
F0.43246989348157716
tp3516
sg103
(lp3517
sg105
g1
sg106
g9
((ltRp3518
sg108
g9
((lp3519
g379
a(imodel.Bond
Bond
p3520
(dp3521
g105
g1
sg112
g90
sg42
g43
sg113
g9
((lp3522
g335
ag350
atRp3523
sbag410
ag3510
atRp3524
sg117
I00
sbatRp3525
sg94
I00
sbsg24
g25
sg56
g9
((lp3526
g421
ag341
ag390
ag359
atRp3527
sg15
S'C'
sg78
I0
sg16
I00
sg79
(F549.46112662203382
F-49.016464913900947
F0.43246989348157716
tp3528
sg81
(lp3529
sg14
g1
sg83
g9
((ltRp3530
sg85
g9
((lp3531
g495
a(imodel.Bond
Bond
p3532
(dp3533
g14
g1
sg89
g90
sg24
g25
sg17
g9
((lp3534
g341
ag344
atRp3535
sbag398
ag367
atRp3536
sg94
I00
sbag58
a(imodel.VarAtom
VarAtom
p3537
(dp3538
g3
VH15B_1
p3539
sg21
I00
sg22
Nsg23
(imodel.Atom
Atom
p3540
(dp3541
g3
g3539
sg14
g1
sg15
S'H'
sg16
I00
sg17
g9
((lp3542
g3537
a(imodel.VarAtom
VarAtom
p3543
(dp3544
g38
g3539
sg39
I00
sg40
Nsg41
g3540
sg42
g43
sg66
g9
((lp3545
g335
atRp3546
sg98
S'H'
sg99
I0
sg100
I00
sg101
(F627.62001146448165
F27.385226695316121
F0.60988528509996376
tp3547
sg103
(lp3548
sg105
g1
sg106
g9
((ltRp3549
sg108
g9
((lp3550
(imodel.Bond
Bond
p3551
(dp3552
g105
g1
sg112
g90
sg42
g43
sg113
g9
((lp3553
g335
ag3543
atRp3554
sbatRp3555
sg117
I00
sbatRp3556
sg94
I00
sbsg24
g25
sg56
g9
((lp3557
g341
atRp3558
sg15
S'H'
sg78
I0
sg16
I00
sg79
(F627.62001146448165
F27.385226695316121
F0.60988528509996376
tp3559
sg81
(lp3560
sg14
g1
sg83
g9
((ltRp3561
sg85
g9
((lp3562
(imodel.Bond
Bond
p3563
(dp3564
g14
g1
sg89
g90
sg24
g25
sg17
g9
((lp3565
g341
ag3537
atRp3566
sbatRp3567
sg94
I00
sba(imodel.VarAtom
VarAtom
p3568
(dp3569
g3
VH15B_2
p3570
sg21
I00
sg22
Nsg23
(imodel.Atom
Atom
p3571
(dp3572
g3
g3570
sg14
g1
sg15
S'H'
sg16
I00
sg17
g9
((lp3573
g3568
a(imodel.VarAtom
VarAtom
p3574
(dp3575
g38
g3570
sg39
I00
sg40
Nsg41
g3571
sg42
g43
sg66
g9
((lp3576
g335
atRp3577
sg98
S'H'
sg99
I0
sg100
I00
sg101
(F575.30342743756421
F16.727318007700752
F0.20634754326528737
tp3578
sg103
(lp3579
sg105
g1
sg106
g9
((ltRp3580
sg108
g9
((lp3581
(imodel.Bond
Bond
p3582
(dp3583
g105
g1
sg112
g90
sg42
g43
sg113
g9
((lp3584
g335
ag3574
atRp3585
sbatRp3586
sg117
I00
sbatRp3587
sg94
I00
sbsg24
g25
sg56
g9
((lp3588
g341
atRp3589
sg15
S'H'
sg78
I0
sg16
I00
sg79
(F575.30342743756421
F16.727318007700752
F0.20634754326528737
tp3590
sg81
(lp3591
sg14
g1
sg83
g9
((ltRp3592
sg85
g9
((lp3593
(imodel.Bond
Bond
p3594
(dp3595
g14
g1
sg89
g90
sg24
g25
sg17
g9
((lp3596
g341
ag3568
atRp3597
sbatRp3598
sg94
I00
sbatRp3599
sg15
S'C'
sg78
I0
sg16
I00
sg79
(F602.07880625149244
F-15.494495471254702
F0.5393543063516969
tp3600
sg81
(lp3601
sg14
g1
sg83
g9
((ltRp3602
sg85
g9
((lp3603
g3532
a(imodel.Bond
Bond
p3604
(dp3605
g14
g1
sg89
g90
sg24
g25
sg17
g9
((lp3606
g58
ag341
atRp3607
sbag3594
ag3563
atRp3608
sg94
I00
sbag335
atRp3609
sg94
I00
sbsg42
g43
sg66
g9
((lp3610
g3574
ag3543
ag350
ag64
atRp3611
sg98
S'C'
sg99
I0
sg100
I00
sg101
(F602.07880625149244
F-15.494495471254702
F0.5393543063516969
tp3612
sg103
(lp3613
sg105
g1
sg106
g9
((ltRp3614
sg108
g9
((lp3615
g3582
ag3551
a(imodel.Bond
Bond
p3616
(dp3617
g105
g1
sg112
g90
sg42
g43
sg113
g9
((lp3618
g64
ag335
atRp3619
sbag3520
atRp3620
sg117
I00
sbatRp3621
sg98
S'C'
sg99
I0
sg100
I00
sg101
(F649.88702996308461
F-56.149718350878238
F0.59722020952681321
tp3622
sg103
(lp3623
sg105
g1
sg106
g9
((ltRp3624
sg108
g9
((lp3625
g110
ag3616
a(imodel.Bond
Bond
p3626
(dp3627
g105
g1
sg112
g90
sg42
g43
sg113
g9
((lp3628
g64
ag48
atRp3629
sbag330
atRp3630
sg117
I00
sbatRp3631
sg94
I00
sbsg24
g25
sg56
g9
((lp3632
g54
ag341
ag124
ag74
atRp3633
sg15
S'C'
sg78
I0
sg16
I00
sg79
(F649.88702996308461
F-56.149718350878238
F0.59722020952681321
tp3634
sg81
(lp3635
sg14
g1
sg83
g9
((ltRp3636
sg85
g9
((lp3637
g3604
ag318
a(imodel.Bond
Bond
p3638
(dp3639
g14
g1
sg89
g90
sg24
g25
sg17
g9
((lp3640
g58
ag54
atRp3641
sbag87
atRp3642
sg94
I00
sbatRp3643
sg15
S'H'
sg78
I0
sg16
I00
sg79
(F670.88854635799748
F-89.919350730088325
F0.74714695398405995
tp3644
sg81
(lp3645
sg14
g1
sg83
g9
((ltRp3646
sg85
g9
((lp3647
g3638
atRp3648
sg94
I00
sbag48
atRp3649
sg94
I00
sbsg42
g43
sg66
g9
((lp3650
g64
atRp3651
sg98
S'H'
sg99
I0
sg100
I00
sg101
(F670.88854635799748
F-89.919350730088325
F0.74714695398405995
tp3652
sg103
(lp3653
sg105
g1
sg106
g9
((ltRp3654
sg108
g9
((lp3655
g3626
atRp3656
sg117
I00
sba(imodel.VarAtom
VarAtom
p3657
(dp3658
g38
VHN2
p3659
sg39
I00
sg40
Nsg41
(imodel.Atom
Atom
p3660
(dp3661
g38
g3659
sg105
g1
sg98
S'H'
sg100
I00
sg113
g9
((lp3662
(imodel.VarAtom
VarAtom
p3663
(dp3664
g38
g3659
sg39
I01
sg40
Nsg41
g3660
sg42
g25
sg66
g9
((lp3665
(imodel.VarAtom
VarAtom
p3666
(dp3667
g38
VN1
p3668
sg39
I00
sg40
Nsg41
(imodel.Atom
Atom
p3669
(dp3670
g38
g3668
sg105
g1
sg98
S'N'
sg100
I00
sg113
g9
((lp3671
g3666
a(imodel.VarAtom
VarAtom
p3672
(dp3673
g38
g3668
sg39
I00
sg40
Nsg41
g3669
sg42
g43
sg66
g9
((lp3674
(imodel.VarAtom
VarAtom
p3675
(dp3676
g38
VHN1
p3677
sg39
I00
sg40
Nsg41
(imodel.Atom
Atom
p3678
(dp3679
g38
g3677
sg105
g1
sg98
S'H'
sg100
I00
sg113
g9
((lp3680
(imodel.VarAtom
VarAtom
p3681
(dp3682
g38
g3677
sg39
I00
sg40
Nsg41
g3678
sg42
g25
sg66
g9
((lp3683
g3666
atRp3684
sg98
S'H'
sg99
I0
sg100
I00
sg101
(F-483.6660815485717
F99.811083148520112
F1.6780925997137972
tp3685
sg103
(lp3686
sg105
g1
sg106
g9
((lp3687
(imodel.AtomGroup
AtomGroup
p3688
(dp3689
S'groupType'
p3690
S'equivalent'
p3691
sS'subGroups'
p3692
g9
((ltRp3693
sg113
g9
((lp3694
g3681
ag3663
a(imodel.VarAtom
VarAtom
p3695
(dp3696
g38
VHN3
p3697
sg39
I00
sg40
Nsg41
(imodel.Atom
Atom
p3698
(dp3699
g38
g3697
sg105
g1
sg98
S'H'
sg100
I01
sg113
g9
((lp3700
g3695
atRp3701
sg117
I00
sbsg42
g25
sg66
g9
((lp3702
g3666
atRp3703
sg98
S'H'
sg99
I0
sg100
I01
sg101
(F-449.1165988263644
F182.57961506684788
F0.95896411889600053
tp3704
sg103
(lp3705
sg105
g1
sg106
g9
((lp3706
g3688
atRp3707
sg108
g9
((lp3708
(imodel.Bond
Bond
p3709
(dp3710
g105
g1
sg112
S'single'
p3711
sg42
g25
sg113
g9
((lp3712
g3666
ag3695
atRp3713
sbatRp3714
sg117
I00
sbatRp3715
sg42
g25
sg105
g1
sbatRp3716
sg108
g9
((lp3717
(imodel.Bond
Bond
p3718
(dp3719
g105
g1
sg112
g3711
sg42
g25
sg113
g9
((lp3720
g3666
ag3681
atRp3721
sbatRp3722
sg117
I00
sbag3675
atRp3723
sg117
I00
sbsg42
g43
sg66
g9
((lp3724
g3672
atRp3725
sg98
S'H'
sg99
I0
sg100
I00
sg101
(F-483.6660815485717
F99.811083148520112
F1.6780925997137972
tp3726
sg103
(lp3727
sg105
g1
sg106
g9
((ltRp3728
sg108
g9
((lp3729
(imodel.Bond
Bond
p3730
(dp3731
g105
g1
sg112
g3711
sg42
g43
sg113
g9
((lp3732
g3672
ag3675
atRp3733
sbatRp3734
sg117
I00
sbag3657
a(imodel.VarAtom
VarAtom
p3735
(dp3736
g38
VCA
p3737
sg39
I00
sg40
Nsg41
(imodel.Atom
Atom
p3738
(dp3739
g38
g3737
sg105
g1
sg98
S'C'
sg100
I00
sg113
g9
((lp3740
(imodel.VarAtom
VarAtom
p3741
(dp3742
g38
g3737
sg39
I00
sg40
Nsg41
g3738
sg42
g25
sg66
g9
((lp3743
(imodel.VarAtom
VarAtom
p3744
(dp3745
g38
VC'
p3746
sg39
I00
sg40
Nsg41
(imodel.Atom
Atom
p3747
(dp3748
g38
g3746
sg105
g1
sg98
S'C'
sg100
I00
sg113
g9
((lp3749
g3744
a(imodel.VarAtom
VarAtom
p3750
(dp3751
g38
g3746
sg39
I00
sg40
Nsg41
g3747
sg42
g43
sg66
g9
((lp3752
(imodel.VarAtom
VarAtom
p3753
(dp3754
g38
VO''
p3755
sg39
I00
sg40
Nsg41
(imodel.Atom
Atom
p3756
(dp3757
g38
g3755
sg105
g1
sg98
S'O'
sg100
I00
sg113
g9
((lp3758
(imodel.VarAtom
VarAtom
p3759
(dp3760
g38
g3755
sg39
I00
sg40
Nsg41
g3756
sg42
g25
sg66
g9
((lp3761
g3744
atRp3762
sg98
S'O'
sg99
I-1
sg100
I00
sg101
(F-470.0011098308504
F40.86916226970235
F0.62546454847179556
tp3763
sg103
(lp3764
sg105
g1
sg106
g9
((ltRp3765
sg108
g9
((lp3766
(imodel.Bond
Bond
p3767
(dp3768
g105
g1
sg112
g3711
sg42
g25
sg113
g9
((lp3769
g3744
ag3759
atRp3770
sbatRp3771
sg117
I00
sbag3753
atRp3772
sg117
I00
sbsg42
g43
sg66
g9
((lp3773
g3750
atRp3774
sg98
S'O'
sg99
I-1
sg100
I00
sg101
(F-470.0011098308504
F40.86916226970235
F0.62546454847179556
tp3775
sg103
(lp3776
sg105
g1
sg106
g9
((ltRp3777
sg108
g9
((lp3778
(imodel.Bond
Bond
p3779
(dp3780
g105
g1
sg112
g3711
sg42
g43
sg113
g9
((lp3781
g3750
ag3753
atRp3782
sbatRp3783
sg117
I00
sba(imodel.VarAtom
VarAtom
p3784
(dp3785
g38
VO'
p3786
sg39
I00
sg40
Nsg41
(imodel.Atom
Atom
p3787
(dp3788
g38
g3786
sg105
g1
sg98
S'O'
sg100
I00
sg113
g9
((lp3789
(imodel.VarAtom
VarAtom
p3790
(dp3791
g38
g3786
sg39
I00
sg40
Nsg41
g3787
sg42
g25
sg66
g9
((lp3792
g3744
atRp3793
sg98
S'O'
sg99
I0
sg100
I00
sg101
(F-384.95049273512149
F30.234176110638135
F0.05196927692848452
tp3794
sg103
(lp3795
sg105
g1
sg106
g9
((ltRp3796
sg108
g9
((lp3797
(imodel.Bond
Bond
p3798
(dp3799
g105
g1
sg112
S'double'
p3800
sg42
g25
sg113
g9
((lp3801
g3744
ag3790
atRp3802
sbatRp3803
sg117
I00
sbag3784
atRp3804
sg117
I00
sbsg42
g43
sg66
g9
((lp3805
g3750
atRp3806
sg98
S'O'
sg99
I0
sg100
I00
sg101
(F-384.95049273512149
F30.234176110638135
F0.05196927692848452
tp3807
sg103
(lp3808
sg105
g1
sg106
g9
((ltRp3809
sg108
g9
((lp3810
(imodel.Bond
Bond
p3811
(dp3812
g105
g1
sg112
g3800
sg42
g43
sg113
g9
((lp3813
g3750
ag3784
atRp3814
sbatRp3815
sg117
I00
sbag3735
atRp3816
sg98
S'C'
sg99
I0
sg100
I00
sg101
(F-427.03822187639258
F55.908574590837333
F0.35907186171264871
tp3817
sg103
(lp3818
sg105
g1
sg106
g9
((ltRp3819
sg108
g9
((lp3820
g3779
a(imodel.Bond
Bond
p3821
(dp3822
g105
g1
sg112
g3711
sg42
g43
sg113
g9
((lp3823
g3735
ag3750
atRp3824
sbag3811
atRp3825
sg117
I00
sbatRp3826
sg117
I00
sbsg42
g25
sg66
g9
((lp3827
g3741
ag3790
ag3759
atRp3828
sg98
S'C'
sg99
I0
sg100
I00
sg101
(F-427.03822187639258
F55.908574590837333
F0.35907186171264871
tp3829
sg103
(lp3830
sg105
g1
sg106
g9
((ltRp3831
sg108
g9
((lp3832
(imodel.Bond
Bond
p3833
(dp3834
g105
g1
sg112
g3711
sg42
g25
sg113
g9
((lp3835
g3741
ag3744
atRp3836
sbag3767
ag3798
atRp3837
sg117
I00
sbag3666
a(imodel.VarAtom
VarAtom
p3838
(dp3839
g38
VHA
p3840
sg39
I00
sg40
Nsg41
(imodel.Atom
Atom
p3841
(dp3842
g38
g3840
sg105
g1
sg98
S'H'
sg100
I00
sg113
g9
((lp3843
g3838
a(imodel.VarAtom
VarAtom
p3844
(dp3845
g38
g3840
sg39
I00
sg40
Nsg41
g3841
sg42
g43
sg66
g9
((lp3846
g3735
atRp3847
sg98
S'H'
sg99
I0
sg100
I00
sg101
(F-379.40394949284257
F100.2744438490225
F0.85172087778934957
tp3848
sg103
(lp3849
sg105
g1
sg106
g9
((ltRp3850
sg108
g9
((lp3851
(imodel.Bond
Bond
p3852
(dp3853
g105
g1
sg112
g3711
sg42
g43
sg113
g9
((lp3854
g3735
ag3844
atRp3855
sbatRp3856
sg117
I00
sbatRp3857
sg117
I00
sbsg42
g25
sg66
g9
((lp3858
g3741
atRp3859
sg98
S'H'
sg99
I0
sg100
I00
sg101
(F-379.40394949284257
F100.2744438490225
F0.85172087778934957
tp3860
sg103
(lp3861
sg105
g1
sg106
g9
((ltRp3862
sg108
g9
((lp3863
(imodel.Bond
Bond
p3864
(dp3865
g105
g1
sg112
g3711
sg42
g25
sg113
g9
((lp3866
g3741
ag3838
atRp3867
sbatRp3868
sg117
I00
sba(imodel.VarAtom
VarAtom
p3869
(dp3870
g38
VCB
p3871
sg39
I00
sg40
Nsg41
(imodel.Atom
Atom
p3872
(dp3873
g38
g3871
sg105
g1
sg98
S'C'
sg100
I00
sg113
g9
((lp3874
g3869
a(imodel.VarAtom
VarAtom
p3875
(dp3876
g38
g3871
sg39
I00
sg40
Nsg41
g3872
sg42
g43
sg66
g9
((lp3877
(imodel.VarAtom
VarAtom
p3878
(dp3879
g38
VHB2
p3880
sg39
I00
sg40
Nsg41
(imodel.Atom
Atom
p3881
(dp3882
g38
g3880
sg105
g1
sg98
S'H'
sg100
I00
sg113
g9
((lp3883
(imodel.VarAtom
VarAtom
p3884
(dp3885
g38
g3880
sg39
I00
sg40
Nsg41
g3881
sg42
g25
sg66
g9
((lp3886
g3869
atRp3887
sg98
S'H'
sg99
I0
sg100
I00
sg101
(F-403.81911097472579
F188.41142326551571
F0.75560849241936778
tp3888
sg103
(lp3889
sg105
g1
sg106
g9
((ltRp3890
sg108
g9
((lp3891
(imodel.Bond
Bond
p3892
(dp3893
g105
g1
sg112
g3711
sg42
g25
sg113
g9
((lp3894
g3869
ag3884
atRp3895
sbatRp3896
sg117
I00
sbag3878
atRp3897
sg117
I00
sbsg42
g43
sg66
g9
((lp3898
g3875
atRp3899
sg98
S'H'
sg99
I0
sg100
I00
sg101
(F-403.81911097472579
F188.41142326551571
F0.75560849241936778
tp3900
sg103
(lp3901
sg105
g1
sg106
g9
((ltRp3902
sg108
g9
((lp3903
(imodel.Bond
Bond
p3904
(dp3905
g105
g1
sg112
g3711
sg42
g43
sg113
g9
((lp3906
g3875
ag3878
atRp3907
sbatRp3908
sg117
I00
sbag3735
a(imodel.VarAtom
VarAtom
p3909
(dp3910
g38
S'O4'
p3911
sg39
I00
sg40
Nsg41
(imodel.Atom
Atom
p3912
(dp3913
g38
g3911
sg105
g1
sg98
S'O'
sg100
I00
sg113
g9
((lp3914
(imodel.VarAtom
VarAtom
p3915
(dp3916
g38
g3911
sg39
I00
sg40
Nsg41
g3912
sg42
g25
sg66
g9
((lp3917
g3869
ag30
atRp3918
sg98
S'O'
sg99
I0
sg100
I00
sg101
(F-324.01939635155532
F134.03023475331321
F0.9855973776021929
tp3919
sg103
(lp3920
sg105
g1
sg106
g9
((ltRp3921
sg108
g9
((lp3922
(imodel.Bond
Bond
p3923
(dp3924
g105
g1
sg112
g3711
sg42
g25
sg113
g9
((lp3925
g3915
ag3869
atRp3926
sba(imodel.Bond
Bond
p3927
(dp3928
g105
g1
sg112
g3711
sg42
g25
sg113
g9
((lp3929
g3915
ag30
atRp3930
sbatRp3931
sg117
I00
sbag3909
atRp3932
sg117
I00
sbsg42
g43
sg66
g9
((lp3933
g3875
ag36
atRp3934
sg98
S'O'
sg99
I0
sg100
I00
sg101
(F-324.01939635155532
F134.03023475331321
F0.9855973776021929
tp3935
sg103
(lp3936
sg105
g1
sg106
g9
((ltRp3937
sg108
g9
((lp3938
(imodel.Bond
Bond
p3939
(dp3940
g105
g1
sg112
g3711
sg42
g43
sg113
g9
((lp3941
g3909
ag3875
atRp3942
sba(imodel.Bond
Bond
p3943
(dp3944
g105
g1
sg112
g3711
sg42
g43
sg113
g9
((lp3945
g3909
ag36
atRp3946
sbatRp3947
sg117
I00
sba(imodel.VarAtom
VarAtom
p3948
(dp3949
g38
VHB3
p3950
sg39
I00
sg40
Nsg41
(imodel.Atom
Atom
p3951
(dp3952
g38
g3950
sg105
g1
sg98
S'H'
sg100
I00
sg113
g9
((lp3953
(imodel.VarAtom
VarAtom
p3954
(dp3955
g38
g3950
sg39
I00
sg40
Nsg41
g3951
sg42
g25
sg66
g9
((lp3956
g3869
atRp3957
sg98
S'H'
sg99
I0
sg100
I00
sg101
(F-343.58515312017551
F199.87284996848012
F1.6807636868886355
tp3958
sg103
(lp3959
sg105
g1
sg106
g9
((ltRp3960
sg108
g9
((lp3961
(imodel.Bond
Bond
p3962
(dp3963
g105
g1
sg112
g3711
sg42
g25
sg113
g9
((lp3964
g3869
ag3954
atRp3965
sbatRp3966
sg117
I00
sbag3948
atRp3967
sg117
I00
sbsg42
g43
sg66
g9
((lp3968
g3875
atRp3969
sg98
S'H'
sg99
I0
sg100
I00
sg101
(F-343.58515312017551
F199.87284996848012
F1.6807636868886355
tp3970
sg103
(lp3971
sg105
g1
sg106
g9
((ltRp3972
sg108
g9
((lp3973
(imodel.Bond
Bond
p3974
(dp3975
g105
g1
sg112
g3711
sg42
g43
sg113
g9
((lp3976
g3875
ag3948
atRp3977
sbatRp3978
sg117
I00
sbatRp3979
sg98
S'C'
sg99
I0
sg100
I00
sg101
(F-370.26152088382361
F165.55909647094938
F0.095264669388734902
tp3980
sg103
(lp3981
sg105
g1
sg106
g9
((ltRp3982
sg108
g9
((lp3983
g3939
a(imodel.Bond
Bond
p3984
(dp3985
g105
g1
sg112
g3711
sg42
g43
sg113
g9
((lp3986
g3875
ag3735
atRp3987
sbag3904
ag3974
atRp3988
sg117
I00
sbatRp3989
sg117
I00
sbsg42
g25
sg66
g9
((lp3990
g3954
ag3741
ag3915
ag3884
atRp3991
sg98
S'C'
sg99
I0
sg100
I00
sg101
(F-370.26152088382361
F165.55909647094938
F0.095264669388734902
tp3992
sg103
(lp3993
sg105
g1
sg106
g9
((ltRp3994
sg108
g9
((lp3995
g3923
a(imodel.Bond
Bond
p3996
(dp3997
g105
g1
sg112
g3711
sg42
g25
sg113
g9
((lp3998
g3869
ag3741
atRp3999
sbag3962
ag3892
atRp4000
sg117
I00
sbatRp4001
sg98
S'C'
sg99
I0
sg100
I00
sg101
(F-413.26091451837243
F115.42335721059318
F0.14393318418556733
tp4002
sg103
(lp4003
sg105
g1
sg106
g9
((ltRp4004
sg108
g9
((lp4005
(imodel.Bond
Bond
p4006
(dp4007
g105
g1
sg112
g3711
sg42
g25
sg113
g9
((lp4008
g3741
ag3666
atRp4009
sbag3833
ag3864
ag3996
atRp4010
sg117
I00
sbag3735
atRp4011
sg117
I00
sbsg42
g43
sg66
g9
((lp4012
g3844
ag3750
ag3875
ag3672
atRp4013
sg98
S'C'
sg99
I0
sg100
I00
sg101
(F-413.26091451837243
F115.42335721059318
F0.14393318418556733
tp4014
sg103
(lp4015
sg105
g1
sg106
g9
((ltRp4016
sg108
g9
((lp4017
g3821
a(imodel.Bond
Bond
p4018
(dp4019
g105
g1
sg112
g3711
sg42
g43
sg113
g9
((lp4020
g3735
ag3672
atRp4021
sbag3984
ag3852
atRp4022
sg117
I00
sbatRp4023
sg98
S'N'
sg99
I0
sg100
I00
sg101
(F-464.1322453667986
F140.83385285827592
F0.11740219036650912
tp4024
sg103
(lp4025
sg105
g1
sg106
g9
((ltRp4026
sg108
g9
((lp4027
g3730
a(imodel.Bond
Bond
p4028
(dp4029
g105
g1
sg112
g3711
sg42
g43
sg113
g9
((lp4030
g3672
ag3657
atRp4031
sbag4018
atRp4032
sg117
I00
sbatRp4033
sg117
I00
sbsg42
g25
sg66
g9
((lp4034
g3741
ag3681
ag3663
ag3695
atRp4035
sg98
S'N'
sg99
I1
sg100
I00
sg101
(F-464.1322453667986
F140.83385285827592
F0.11740219036650912
tp4036
sg103
(lp4037
sg105
g1
sg106
g9
((ltRp4038
sg108
g9
((lp4039
g4006
ag3718
ag3709
a(imodel.Bond
Bond
p4040
(dp4041
g105
g1
sg112
g3711
sg42
g25
sg113
g9
((lp4042
g3666
ag3663
atRp4043
sbatRp4044
sg117
I00
sbatRp4045
sg98
S'H'
sg99
I0
sg100
I00
sg101
(F-510.69666503293269
F160.33888971196006
F0.98121358082361898
tp4046
sg103
(lp4047
sg105
g1
sg106
g9
((lp4048
g3688
atRp4049
sg108
g9
((lp4050
g4040
atRp4051
sg117
I00
sbag3657
atRp4052
sg117
I00
sbsg42
g43
sg66
g9
((lp4053
g3672
atRp4054
sg98
S'H'
sg99
I0
sg100
I00
sg101
(F-510.69666503293269
F160.33888971196006
F0.98121358082361898
tp4055
sg103
(lp4056
sg105
g1
sg106
g9
((ltRp4057
sg108
g9
((lp4058
g4028
atRp4059
sg117
I00
sbag2962
ag461
ag2931
ag1416
ag1938
ag3280
ag198
ag1318
ag1465
ag1985
ag1158
ag817
ag3948
ag3574
ag1029
ag3878
ag288
ag1370
ag737
ag1801
ag3221
ag384
ag703
ag1238
ag3543
ag1112
ag2559
ag3844
ag430
ag2378
ag3433
ag1711
ag167
ag523
ag1664
ag3112
ag68
ag1770
ag657
ag2060
ag1574
ag848
ag1605
ag2225
ag2437
ag353
ag3037
ag1272
ag229
ag608
ag2468
ag2347
ag2194
ag1879
ag1063
ag3675
ag3464
ag133
ag2135
ag3355
ag1496
ag998
ag3386
ag2272
ag2590
ag2722
ag1527
ag3190
ag2649
ag1848
ag1189
ag2753
ag768
ag3143
atRp4060
sS'C'
g9
((lp4061
g1447
ag897
ag118
ag799
ag350
ag980
ag502
ag164
ag572
ag505
ag3750
ag335
ag605
ag520
ag814
ag64
ag1223
ag1269
ag1401
ag734
ag1060
ag587
ag879
ag2680
ag930
ag983
ag912
ag1352
ag3735
ag1094
ag1109
ag3875
ag1367
ag1303
ag1220
ag965
ag688
ag415
ag1349
ag1450
ag590
ag1143
atRp4062
sS'P'
g9
((lp4063
g36
atRp4064
sS'O'
g9
((lp4065
g3784
a(imodel.VarAtom
VarAtom
p4066
(dp4067
g38
VOP3
p4068
sg39
I00
sg40
Nsg41
(imodel.Atom
Atom
p4069
(dp4070
g3
g4068
sg14
g1
sg15
S'O'
sg16
I00
sg17
g9
((lp4071
(imodel.VarAtom
VarAtom
p4072
(dp4073
g3
g4068
sg21
I00
sg22
Nsg23
g4069
sg24
g25
sg56
g9
((lp4074
g30
atRp4075
sg15
S'O'
sg78
I0
sg16
I00
sg79
(F-288.05914580194121
F215.11679952723935
F0.94102689047518451
tp4076
sg81
(lp4077
sg14
g1
sg83
g9
((ltRp4078
sg85
g9
((lp4079
(imodel.Bond
Bond
p4080
(dp4081
g14
g1
sg89
g949
sg24
g25
sg17
g9
((lp4082
g30
ag4072
atRp4083
sbatRp4084
sg94
I00
sbag4066
atRp4085
sg94
I00
sbsg42
g43
sg66
g9
((lp4086
g36
atRp4087
sg98
S'O'
sg99
I0
sg100
I00
sg101
(F-288.05914580194121
F215.11679952723935
F0.94102689047518451
tp4088
sg103
(lp4089
sg105
g1
sg106
g9
((ltRp4090
sg108
g9
((lp4091
(imodel.Bond
Bond
p4092
(dp4093
g105
g1
sg112
g949
sg42
g43
sg113
g9
((lp4094
g36
ag4066
atRp4095
sbatRp4096
sg117
I00
sbag915
ag894
ag3909
a(imodel.VarAtom
VarAtom
p4097
(dp4098
g38
VOP1
p4099
sg39
I00
sg40
Nsg41
(imodel.Atom
Atom
p4100
(dp4101
g3
g4099
sg14
g1
sg15
S'O'
sg16
I00
sg17
g9
((lp4102
(imodel.VarAtom
VarAtom
p4103
(dp4104
g3
g4099
sg21
I00
sg22
Nsg23
g4100
sg24
g25
sg56
g9
((lp4105
g30
atRp4106
sg15
S'O'
sg78
I-1
sg16
I00
sg79
(F-248.82893996705653
F99.095100866753839
F0.77933208780669394
tp4107
sg81
(lp4108
sg14
g1
sg83
g9
((ltRp4109
sg85
g9
((lp4110
(imodel.Bond
Bond
p4111
(dp4112
g14
g1
sg89
g90
sg24
g25
sg17
g9
((lp4113
g30
ag4103
atRp4114
sbatRp4115
sg94
I00
sbag4097
atRp4116
sg94
I00
sbsg42
g43
sg66
g9
((lp4117
g36
atRp4118
sg98
S'O'
sg99
I-1
sg100
I00
sg101
(F-248.82893996705653
F99.095100866753839
F0.77933208780669394
tp4119
sg103
(lp4120
sg105
g1
sg106
g9
((ltRp4121
sg108
g9
((lp4122
(imodel.Bond
Bond
p4123
(dp4124
g105
g1
sg112
g90
sg42
g43
sg113
g9
((lp4125
g36
ag4097
atRp4126
sbatRp4127
sg117
I00
sbag3753
ag2683
ag2856
ag933
atRp4128
sS'N'
g9
((lp4129
g3672
atRp4130
ssg108
g9
((lp4131
g1473
ag469
ag1006
ag3363
ag2298
ag1874
ag1672
ag2476
ag1915
ag1980
ag3582
ag3500
ag3216
ag2864
ag2779
ag2161
ag2233
ag2939
ag3014
ag1747
ag1246
ag3626
ag296
ag683
ag2096
ag3288
ag1166
ag1631
ag711
ag2717
ag1569
ag3490
ag2970
ag3943
ag2520
ag3459
ag1396
ag567
ag4028
ag4092
ag2404
ag2616
ag1326
ag2898
ag3394
ag3779
ag224
ag3821
ag874
ag2657
ag2267
ag652
ag4018
ag330
ag794
ag3120
ag4123
ag1504
ag843
ag3984
ag2130
ag2823
ag193
ag1809
ag1535
ag1197
ag1089
ag2445
ag110
ag265
ag2086
ag3974
ag3616
ag3045
ag2373
ag1706
ag2585
ag1843
ag2414
ag3247
ag1298
ag2833
ag1905
ag763
ag3730
ag3939
ag1037
ag2011
ag3852
ag3904
ag3551
ag410
ag2021
ag2626
ag438
ag2554
ag2308
ag3332
ag3322
ag3811
ag2055
ag2171
ag3079
ag3257
ag3004
ag141
ag3089
ag2789
ag1737
ag1778
ag960
ag2713
ag2748
ag3520
ag1600
ag1424
ag1138
ag3151
ag2202
ag1641
ag3185
ag3510
ag379
ag3428
ag2510
ag1946
ag255
ag2908
ag2342
atRp4132
sg105
g1
sS'descriptor'
p4133
(V-HN3
S'none'
p4134
S'default'
p4135
tp4136
sS'atomDict'
p4137
(dp4138
g1226
g1223
sg1026
g1029
sg3881
g3878
sg1355
g1352
sg1462
g1465
sg2222
g2225
sg201
g198
sg1364
g1367
sg61
g64
sg2593
g2590
sg3747
g3750
sg2063
g2060
sg900
g897
sg3467
g3464
sg1577
g1574
sg3738
g3735
sg458
g461
sg2959
g2962
sg170
g167
sg986
g983
sg51
g48
sg977
g980
sg356
g353
sg2725
g2722
sg121
g118
sg1851
g1848
sg584
g587
sg1115
g1112
sg3352
g3355
sg1235
g1238
sg2275
g2272
sg1155
g1158
sg3034
g3037
sg1453
g1450
sg2381
g2378
sg811
g814
sg660
g657
sg11
g502
sg4100
g4097
sg1217
g1220
sg2434
g2437
sg1097
g1094
sg1373
g1370
sg3841
g3844
sg1798
g1801
sg387
g384
sg891
g894
sg3912
g3909
sg1661
g1664
sg909
g912
sg1404
g1401
sg71
g68
sg575
g572
sg33
g36
sg1186
g1189
sg611
g608
sg3571
g3574
sg232
g229
sg3383
g3386
sg161
g164
sg4069
g4066
sg418
g415
sg3540
g3543
sg2928
g2931
sg1493
g1496
sg427
g430
sg1066
g1063
sg927
g930
sg338
g335
sg3660
g3657
sg3436
g3433
sg602
g605
sg2562
g2559
sg771
g768
sg1057
g1060
sg3109
g3112
sg130
g133
sg1106
g1109
sg2191
g2194
sg1306
g1303
sg2465
g2468
sg1146
g1143
sg820
g817
sg995
g998
sg1608
g1605
sg3140
g3143
sg3678
g3675
sg2138
g2135
sg2756
g2753
sg1882
g1879
sg1988
g1985
sg3277
g3280
sg593
g590
sg526
g523
sg936
g933
sg1275
g1272
sg285
g288
sg1767
g1770
sg1524
g1527
sg2677
g2680
sg1935
g1938
sg3224
g3221
sg517
g520
sg3669
g3672
sg1444
g1447
sg1714
g1711
sg2853
g2856
sg508
g505
sg2686
g2683
sg882
g879
sg3951
g3948
sg347
g350
sg1413
g1416
sg1266
g1269
sg691
g688
sg3193
g3190
sg3756
g3753
sg802
g799
sg3787
g3784
sg2646
g2649
sg851
g848
sg1346
g1349
sg1315
g1318
sg731
g734
sg740
g737
sg700
g703
sg3872
g3875
sg2350
g2347
sg918
g915
sg968
g965
ssg113
g9
((lp4139
g1318
ag3753
ag1527
ag1879
ag2931
ag3875
ag118
ag68
ag817
ag64
ag1029
ag814
ag737
ag415
ag915
ag1711
ag1770
ag1060
ag879
ag1370
ag523
ag1143
ag1496
ag3909
ag2856
ag2225
ag799
ag1985
ag384
ag608
ag505
ag3190
ag1367
ag1801
ag590
ag2135
ag2962
ag983
ag36
ag164
ag1447
ag1465
ag930
ag1223
ag2468
ag912
ag998
ag2060
ag1352
ag3574
ag657
ag1574
ag1109
ag965
ag3386
ag2753
ag2194
ag2680
ag350
ag894
ag3543
ag198
ag3112
ag1349
ag1450
ag768
ag2378
ag3355
ag587
ag1416
ag980
ag1664
ag3657
ag572
ag1063
ag703
ag3784
ag1269
ag3750
ag3844
ag430
ag897
ag1303
ag3280
ag4097
ag2437
ag3221
ag3948
ag2559
ag1605
ag3675
ag848
ag1094
ag1238
ag688
ag3037
ag502
ag48
ag167
ag1401
ag3464
ag3878
ag520
ag1158
ag461
ag2590
ag2347
ag133
ag734
ag3433
ag288
ag3143
ag4066
ag2272
ag229
ag1220
ag1848
ag1112
ag2683
ag1272
ag933
ag335
ag3672
ag3735
ag2649
ag353
ag605
ag2722
ag1938
ag1189
atRp4140
sg106
g9
((ltRp4141
sS'polyLink'
p4142
S'none'
p4143
sbsg66
g9
((lp4144
g4097
ag4066
ag3909
ag2683
atRp4145
sg98
S'P'
sg99
I0
sg100
I00
sg101
(F-269.21446661310915
F156.47565959472175
F0.10313102116324324
tp4146
sg103
(lp4147
sg105
g1
sg106
g9
((ltRp4148
sg108
g9
((lp4149
g4092
ag4123
ag3943
ag2717
atRp4150
sg117
I00
sbatRp4151
sg94
I00
sbsg24
g25
sg56
g9
((lp4152
g4072
ag4103
ag3915
ag2689
atRp4153
sg15
S'P'
sg78
I0
sg16
I00
sg79
(F-269.21446661310915
F156.47565959472175
F0.10313102116324324
tp4154
sg81
(lp4155
sg14
g1
sg83
g9
((ltRp4156
sg85
g9
((lp4157
g4111
ag3927
ag2697
ag4080
atRp4158
sg94
I00
sbatRp4159
sS'C'
g9
((lp4160
g728
ag1149
ag3869
ag805
ag694
ag1054
ag989
ag1343
ag1361
ag514
ag1103
ag906
ag974
ag1214
ag1441
ag581
ag1100
ag158
ag1229
ag2674
ag1309
ag885
ag903
ag971
ag924
ag511
ag19
ag1358
ag421
ag3741
ag578
ag124
ag1407
ag599
ag3744
ag341
ag1456
ag596
ag808
ag58
ag1263
ag344
atRp4161
sS'N'
g9
((lp4162
g3666
atRp4163
sS'O'
g9
((lp4164
g3759
ag4103
ag3790
ag4072
ag2850
ag921
ag2689
ag3915
ag888
ag939
atRp4165
sS'H'
g9
((lp4166
g1069
ag3196
ag619
ag3537
ag390
ag2066
ag3695
ag282
ag774
ag1932
ag2643
ag3106
ag127
ag3031
ag992
ag74
ag3663
ag3681
ag1764
ag2353
ag1278
ag1991
ag534
ag1312
ag854
ag2462
ag455
ag3439
ag697
ag2956
ag1885
ag3227
ag173
ag2188
ag204
ag1580
ag663
ag3954
ag2728
ag3568
ag2759
ag2141
ag424
ag2565
ag1232
ag3884
ag1521
ag1658
ag2278
ag235
ag1611
ag1490
ag2384
ag1795
ag2219
ag823
ag3838
ag3470
ag1410
ag3274
ag1459
ag1854
ag3380
ag1118
ag1152
ag743
ag54
ag1023
ag359
ag3349
ag2925
ag1717
ag1376
ag1183
ag2431
ag3137
ag2596
atRp4167
ssg85
g9
((lp4168
g2183
ag3204
ag2920
ag3101
ag181
ag450
ag2638
ag1790
ag2214
ag398
ag782
ag3892
ag3718
ag2426
ag2074
ag637
ag2033
ag3563
ag3923
ag2573
ag3406
ag3132
ag3026
ag1018
ag1653
ag1077
ag153
ag1049
ag831
ag3057
ag1893
ag2330
ag1862
ag3604
ag1516
ag2992
ag2801
ag2498
ag3375
ag3532
ag367
ag4111
ag2286
ag4006
ag1725
ag3163
ag3269
ag1338
ag671
ag2876
ag2951
ag1485
ag1178
ag1821
ag1927
ag3478
ag3927
ag2392
ag947
ag3962
ag2245
ag3310
ag1557
ag3833
ag1209
ag3798
ag2361
ag87
ag277
ag1999
ag2669
ag4080
ag2118
ag1684
ag1436
ag2886
ag1619
ag2701
ag1759
ag3173
ag1831
ag2767
ag3416
ag2845
ag2736
ag495
ag1126
ag3067
ag2697
ag1958
ag862
ag2604
ag751
ag1258
ag3344
ag3709
ag3638
ag481
ag1384
ag3864
ag243
ag552
ag2255
ag212
ag2043
ag2108
ag1588
ag2488
ag3594
ag2982
ag2532
ag4040
ag1547
ag3300
ag1286
ag318
ag2320
ag491
ag723
ag308
ag3235
ag2149
ag3767
ag2457
ag2811
ag1694
ag3447
ag2542
ag1968
ag3996
atRp4169
sg14
g1
sS'descriptor'
p4170
(V+HN3
g4134
g4135
tp4171
sS'atomDict'
p4172
(dp4173
g11
g19
sg1226
g1229
sg3881
g3884
sg3951
g3954
sg2191
g2188
sg3140
g3137
sg1026
g1023
sg2222
g2219
sg201
g204
sg1404
g1407
sg61
g58
sg2593
g2596
sg3747
g3744
sg2063
g2066
sg900
g903
sg3467
g3470
sg1577
g1580
sg3698
g3695
sg3738
g3741
sg458
g455
sg170
g173
sg986
g989
sg51
g54
sg977
g974
sg356
g359
sg2725
g2728
sg121
g124
sg2562
g2565
sg1714
g1717
sg1235
g1232
sg3352
g3349
sg1066
g1069
sg2275
g2278
sg1155
g1152
sg3034
g3031
sg2434
g2431
sg1608
g1611
sg811
g808
sg2959
g2956
sg4100
g4103
sg1217
g1214
sg1097
g1100
sg1373
g1376
sg3841
g3838
sg1798
g1795
sg1266
g1263
sg891
g888
sg3912
g3915
sg1661
g1658
sg909
g906
sg1364
g1361
sg71
g74
sg33
g30
sg1186
g1183
sg611
g619
sg3571
g3568
sg232
g235
sg3383
g3380
sg2853
g2850
sg4069
g4072
sg418
g421
sg3540
g3537
sg2928
g2925
sg1493
g1490
sg526
g534
sg927
g924
sg3660
g3663
sg3436
g3439
sg660
g663
sg1115
g1118
sg1453
g1456
sg771
g774
sg1057
g1054
sg130
g127
sg575
g578
sg338
g341
sg1306
g1309
sg2465
g2462
sg3109
g3106
sg820
g823
sg995
g992
sg2381
g2384
sg508
g511
sg3678
g3681
sg3277
g3274
sg2756
g2759
sg285
g282
sg1882
g1885
sg1988
g1991
sg593
g596
sg602
g599
sg427
g424
sg936
g939
sg1275
g1278
sg584
g581
sg1767
g1764
sg1524
g1521
sg2677
g2674
sg3224
g3227
sg1935
g1932
sg517
g514
sg1851
g1854
sg3669
g3666
sg1444
g1441
sg1146
g1149
sg161
g158
sg2686
g2689
sg882
g885
sg1355
g1358
sg3193
g3196
sg1462
g1459
sg347
g344
sg1413
g1410
sg387
g390
sg691
g694
sg3872
g3869
sg3756
g3759
sg802
g805
sg3787
g3790
sg2646
g2643
sg851
g854
sg1346
g1343
sg740
g743
sg1315
g1312
sg731
g728
sg2138
g2141
sg700
g697
sg1106
g1103
sg2350
g2353
sg918
g921
sg968
g971
ssg17
g9
((lp4174
g1069
ag3954
ag3031
ag1118
ag30
ag805
ag1658
ag455
ag282
ag424
ag823
ag1407
ag1795
ag3884
ag158
ag2850
ag596
ag2565
ag1521
ag124
ag1580
ag3838
ag3439
ag974
ag3681
ag2431
ag2384
ag534
ag58
ag3759
ag1410
ag939
ag2643
ag1263
ag578
ag74
ag888
ag2353
ag1991
ag903
ag2462
ag697
ag2188
ag514
ag885
ag1023
ag3790
ag204
ag359
ag235
ag663
ag3744
ag581
ag1885
ag2596
ag341
ag3470
ag1361
ag3274
ag1459
ag1358
ag906
ag2759
ag2066
ag344
ag3915
ag54
ag3741
ag728
ag1149
ag1229
ag971
ag2728
ag3663
ag2141
ag1278
ag2689
ag2674
ag2956
ag1764
ag2925
ag1932
ag808
ag3227
ag992
ag4072
ag2278
ag1490
ag1611
ag4103
ag1054
ag127
ag3196
ag743
ag924
ag854
ag1376
ag3137
ag619
ag3568
ag1214
ag774
ag3106
ag694
ag421
ag989
ag1343
ag3349
ag3869
ag1456
ag1309
ag390
ag1232
ag3695
ag1312
ag173
ag1717
ag921
ag511
ag1100
ag1441
ag3537
ag1854
ag3380
ag1152
ag3666
ag2219
ag19
ag1103
ag599
ag1183
atRp4175
sg83
g9
((lp4176
g3688
atRp4177
sS'polyLink'
p4178
g4143
sbsg56
g9
((lp4179
g511
ag3470
ag421
ag3439
atRp4180
sg15
S'C'
sg78
I0
sg16
I00
sg79
(F448.42547270663397
F-46.296405286531744
F0.48359829646320163
tp4181
sg81
(lp4182
sg14
g1
sg83
g9
((ltRp4183
sg85
g9
((lp4184
g3416
ag491
ag3447
ag3478
atRp4185
sg94
I00
sbag502
atRp4186
sg94
I00
sbag1226
ag3881
ag3951
ag2191
ag3140
ag1026
ag2222
ag201
ag1404
ag61
ag2593
ag3747
ag2063
ag900
ag3467
ag1577
ag3698
ag3738
ag458
ag170
ag986
ag51
ag977
ag356
ag2725
ag121
ag2562
ag1714
ag1235
ag3352
ag1066
ag2275
ag1155
ag3034
ag2434
ag1608
ag811
ag2959
ag4100
ag1217
ag1097
ag1373
ag3841
ag1798
ag1266
ag891
ag3912
ag1661
ag909
ag1364
ag71
ag33
ag1186
ag611
ag3571
ag232
ag3383
ag2853
ag4069
ag418
ag3540
ag2928
ag1493
ag526
ag927
ag3660
ag3436
ag660
ag1115
ag1453
ag771
ag1057
ag130
ag575
ag338
ag1306
ag2465
ag3109
ag820
ag995
ag2381
ag508
ag3678
ag3277
ag2756
ag285
ag1882
ag1988
ag593
ag602
ag427
ag936
ag1275
ag584
ag1767
ag1524
ag2677
ag3224
ag1935
ag517
ag1851
ag3669
ag1444
ag1146
ag161
ag2686
ag882
ag1355
ag3193
ag1462
ag347
ag1413
ag387
ag691
ag3872
ag3756
ag802
ag3787
ag2646
ag851
ag1346
ag740
ag1315
ag731
ag2138
ag700
ag1106
ag2350
ag918
ag968
atRp4187
sS'ccpMolType'
p4188
S'other'
p4189
sS'details'
p4190
V
sg4172
(dp4191
g1314
g1315
sg1934
g1935
sg3786
g3787
sg739
g740
sg770
g771
sg3911
g3912
sg2685
g2686
sg890
g891
sg917
g918
sg1403
g1404
sg1412
g1413
sg70
g71
sg50
g51
sg810
g811
sg967
g968
sg985
g986
sg386
g387
sg355
g356
sg2927
g2928
sg2137
g2138
sg200
g201
sg231
g232
sg169
g170
sg337
g338
sg1363
g1364
sg3382
g3383
sg3351
g3352
sg1523
g1524
sg1492
g1493
sg1461
g1462
sg976
g977
sg1713
g1714
sg1372
g1373
sg801
g802
sg850
g851
sg819
g820
sg3950
g3951
sg3880
g3881
sg994
g995
sg4099
g4100
sg1025
g1026
sg3435
g3436
sg3466
g3467
sg1225
g1226
sg516
g517
sg3840
g3841
sg3223
g3224
sg3192
g3193
sg2062
g2063
sg659
g660
sg60
g61
sg457
g458
sg3659
g3660
sg2958
g2959
sg730
g731
sg3755
g3756
sg32
g33
sg699
g700
sg3033
g3034
sg1443
g1444
sg2561
g2562
sg2592
g2593
sg120
g121
sg1576
g1577
sg1607
g1608
sg2645
g2646
sg1452
g1453
sg1056
g1057
sg1154
g1155
sg129
g130
sg1185
g1186
sg13
g11
sg3746
g3747
sg1305
g1306
sg2852
g2853
sg935
g936
sg1766
g1767
sg1797
g1798
sg2349
g2350
sg2380
g2381
sg4068
g4069
sg2755
g2756
sg2724
g2725
sg2676
g2677
sg899
g900
sg908
g909
sg601
g602
sg1096
g1097
sg1354
g1355
sg1850
g1851
sg3871
g3872
sg3737
g3738
sg1881
g1882
sg507
g508
sg1265
g1266
sg2274
g2275
sg1065
g1066
sg3668
g3669
sg1234
g1235
sg525
g526
sg583
g584
sg3677
g3678
sg3697
g3698
sg284
g285
sg1105
g1106
sg592
g593
sg3570
g3571
sg3539
g3540
sg2190
g2191
sg2221
g2222
sg1145
g1146
sg346
g347
sg1114
g1115
sg2464
g2465
sg1660
g1661
sg690
g691
sg426
g427
sg160
g161
sg610
g611
sg3276
g3277
sg2433
g2434
sg574
g575
sg1216
g1217
sg1345
g1346
sg417
g418
sg3139
g3140
sg3108
g3109
sg881
g882
sg926
g927
sg1274
g1275
sg1987
g1988
ssS'keywords'
p4192
g9
((ltRp4193
sg83
g9
((lp4194
g3688
atRp4195
sS'variants'
p4196
g9
((lp4197
g25
ag43
atRp4198
sS'defaultVars'
p4199
g9
((lp4200
(imodel.Variant
Variant
p4201
(dp4202
g45
(dp4203
sg108
g9
((ltRp4204
sg105
g1
sg4133
(V+HN3,-HO'
g4143
S'default'
tp4205
sg4137
(dp4206
sg113
g9
((ltRp4207
sg106
g9
((ltRp4208
sg4142
S'none'
p4209
sbatRp4210
sb.